(dp0
S'elementseuclide00haligoog_0348'
p1
cnumpy.core.multiarray
scalar
p2
(cnumpy
dtype
p3
(S'f8'
p4
I0
I1
tp5
Rp6
(I3
S'<'
p7
NNNI-1
I-1
I0
tp8
bS'Q_F\\\xf1dJ?'
p9
tp10
Rp11
sS'elementseuclide00haligoog_0226'
p12
g2
(g6
S'\x82\x7f\xa5=O\xbbC?'
p13
tp14
Rp15
sS'elementseuclide00haligoog_0074'
p16
g2
(g6
S'\x08$\x9dX\x82\xaf@?'
p17
tp18
Rp19
sS'elementseuclide00haligoog_0075'
p20
g2
(g6
S'\xeaz\xca\xac1\xdbF?'
p21
tp22
Rp23
sS'elementseuclide00haligoog_0076'
p24
g2
(g6
S'zpbA\xd63H?'
p25
tp26
Rp27
sS'elementseuclide00haligoog_0077'
p28
g2
(g6
S'H~\xefz.BM?'
p29
tp30
Rp31
sS'elementseuclide00haligoog_0070'
p32
g2
(g6
S'$\x19\x97\xa7\x88\xd5I?'
p33
tp34
Rp35
sS'elementseuclide00haligoog_0071'
p36
g2
(g6
S'\t\xff\xae\x858\xeeG?'
p37
tp38
Rp39
sS'elementseuclide00haligoog_0072'
p40
g2
(g6
S'\xaa\xc0\r$c\x1bL?'
p41
tp42
Rp43
sS'elementseuclide00haligoog_0073'
p44
g2
(g6
S':*\xb9Y/7P?'
p45
tp46
Rp47
sS'elementseuclide00haligoog_0276'
p48
g2
(g6
S'\xb5\x03\xd2\xf3Z*G?'
p49
tp50
Rp51
sS'elementseuclide00haligoog_0078'
p52
g2
(g6
S'\xc6)\x1b\x14\x91\x04H?'
p53
tp54
Rp55
sS'elementseuclide00haligoog_0079'
p56
g2
(g6
S'\xe0\xe04-\xfeSK?'
p57
tp58
Rp59
sS'elementseuclide00haligoog_0277'
p60
g2
(g6
S'\x00vn\xc5\xc1\xb4D?'
p61
tp62
Rp63
sS'elementseuclide00haligoog_0157'
p64
g2
(g6
S'K\x10\x9a*#\xb0H?'
p65
tp66
Rp67
sS'elementseuclide00haligoog_0156'
p68
g2
(g6
S'\x90a0\x8c\x87\xbaH?'
p69
tp70
Rp71
sS'elementseuclide00haligoog_0155'
p72
g2
(g6
S'\x9c\xe2c\xc6\x8c\xc2A?'
p73
tp74
Rp75
sS'elementseuclide00haligoog_0154'
p76
g2
(g6
S'\x9c\xe2c\xc6\x8c\xc2A?'
p77
tp78
Rp79
sS'elementseuclide00haligoog_0153'
p80
g2
(g6
S'\xdf~\xef M\x19E?'
p81
tp82
Rp83
sS'elementseuclide00haligoog_0152'
p84
g2
(g6
S'9\xfd\x8e\x9fy\xb9J?'
p85
tp86
Rp87
sS'elementseuclide00haligoog_0098'
p88
g2
(g6
S'x\x01\xa68%FG?'
p89
tp90
Rp91
sS'elementseuclide00haligoog_0099'
p92
g2
(g6
S'\xc46\xd9\x8f\xac\x12K?'
p93
tp94
Rp95
sS'elementseuclide00haligoog_0096'
p96
g2
(g6
S'\xef\xe7\xd2\xf1\x88\x8dC?'
p97
tp98
Rp99
sS'elementseuclide00haligoog_0097'
p100
g2
(g6
S'\x91\x87D\xa6\x8e6G?'
p101
tp102
Rp103
sS'elementseuclide00haligoog_0094'
p104
g2
(g6
S'\x12F\xd4s4\x89C?'
p105
tp106
Rp107
sS'elementseuclide00haligoog_0095'
p108
g2
(g6
S"'\xdd\xf2\x9eD\x86B?"
p109
tp110
Rp111
sS'elementseuclide00haligoog_0092'
p112
g2
(g6
S'\xb4\x81\xe8U\xfd\xcd@?'
p113
tp114
Rp115
sS'elementseuclide00haligoog_0093'
p116
g2
(g6
S'\xcb\xbdN\xc6\xdbpH?'
p117
tp118
Rp119
sS'elementseuclide00haligoog_0090'
p120
g2
(g6
S'\xcc\xaaql\xc1SI?'
p121
tp122
Rp123
sS'elementseuclide00haligoog_0091'
p124
g2
(g6
S'\x935\x10\x8c\x13!B?'
p125
tp126
Rp127
sS'elementseuclide00haligoog_0230'
p128
g2
(g6
S'w\xcf\x1c\xcf\x04cH?'
p129
tp130
Rp131
sS'elementseuclide00haligoog_0279'
p132
g2
(g6
S'\xd0\xf6\xde\xeau\xe1E?'
p133
tp134
Rp135
sS'elementseuclide00haligoog_0231'
p136
g2
(g6
S'\xed\x08\\\xab\t\x0fA?'
p137
tp138
Rp139
sS'elementseuclide00haligoog_0328'
p140
g2
(g6
S'?\xe3\x94\xf9&\x90@?'
p141
tp142
Rp143
sS'elementseuclide00haligoog_0329'
p144
g2
(g6
S'\x85\x0f\xfe&\xdcyB?'
p145
tp146
Rp147
sS'elementseuclide00haligoog_0320'
p148
g2
(g6
S'\xacY^e\xfe\xacC?'
p149
tp150
Rp151
sS'elementseuclide00haligoog_0321'
p152
g2
(g6
S'-\xe5\x90\xd92|F?'
p153
tp154
Rp155
sS'elementseuclide00haligoog_0322'
p156
g2
(g6
S'\x98\xb6\xf5R\x93tE?'
p157
tp158
Rp159
sS'elementseuclide00haligoog_0323'
p160
g2
(g6
S'\x85\x17\x1cZt\xfeK?'
p161
tp162
Rp163
sS'elementseuclide00haligoog_0324'
p164
g2
(g6
S'\xe9\xbb6df\x87D?'
p165
tp166
Rp167
sS'elementseuclide00haligoog_0325'
p168
g2
(g6
S'\xd5c\xa2HPCA?'
p169
tp170
Rp171
sS'elementseuclide00haligoog_0326'
p172
g2
(g6
S';\xf0LXr\x82A?'
p173
tp174
Rp175
sS'elementseuclide00haligoog_0327'
p176
g2
(g6
S'\xfa\x00\xf5\xb0_\xefF?'
p177
tp178
Rp179
sS'elementseuclide00haligoog_0258'
p180
g2
(g6
S'\xe0\tT\xf5\xaf\xc4I?'
p181
tp182
Rp183
sS'elementseuclide00haligoog_0259'
p184
g2
(g6
S'Yvp\xef\r\x80K?'
p185
tp186
Rp187
sS'elementseuclide00haligoog_0254'
p188
g2
(g6
S'\xca\xb7\x13-v\x85L?'
p189
tp190
Rp191
sS'elementseuclide00haligoog_0255'
p192
g2
(g6
S'\x06\x9cJ\xa6\xf7\xce@?'
p193
tp194
Rp195
sS'elementseuclide00haligoog_0256'
p196
g2
(g6
S'\x9a!d\xb1]xK?'
p197
tp198
Rp199
sS'elementseuclide00haligoog_0257'
p200
g2
(g6
S'2^k(\xacGK?'
p201
tp202
Rp203
sS'elementseuclide00haligoog_0250'
p204
g2
(g6
S'\xef\xf4\t\xaa\xffhH?'
p205
tp206
Rp207
sS'elementseuclide00haligoog_0251'
p208
g2
(g6
S'J\x82k\xaeL\x13D?'
p209
tp210
Rp211
sS'elementseuclide00haligoog_0252'
p212
g2
(g6
S'3\xce&LPnD?'
p213
tp214
Rp215
sS'elementseuclide00haligoog_0253'
p216
g2
(g6
S'$\xfew\xf3\xfa0M?'
p217
tp218
Rp219
sS'elementseuclide00haligoog_0126'
p220
g2
(g6
S'5!\x19\xea#\x04I?'
p221
tp222
Rp223
sS'elementseuclide00haligoog_0127'
p224
g2
(g6
S')\n\xfb\xbdfcI?'
p225
tp226
Rp227
sS'elementseuclide00haligoog_0128'
p228
g2
(g6
S'M\x1d\x07G\xb6\x12F?'
p229
tp230
Rp231
sS'elementseuclide00haligoog_0129'
p232
g2
(g6
S'\x08\xb9\xd4+R]P?'
p233
tp234
Rp235
sS'elementseuclide00haligoog_0184'
p236
g2
(g6
S'\xd1\x08\r\x07\x82\xd5R?'
p237
tp238
Rp239
sS'elementseuclide00haligoog_0185'
p240
g2
(g6
S'$\xab\xc8\xfcT-M?'
p241
tp242
Rp243
sS'elementseuclide00haligoog_0186'
p244
g2
(g6
S'\xb6\xadZ\xbc\xe1#C?'
p245
tp246
Rp247
sS'elementseuclide00haligoog_0187'
p248
g2
(g6
S'\xe3G[I\x9f\x90G?'
p249
tp250
Rp251
sS'elementseuclide00haligoog_0180'
p252
g2
(g6
S'\xc2\x16b\xe6\x15rN?'
p253
tp254
Rp255
sS'elementseuclide00haligoog_0181'
p256
g2
(g6
S'\xd5\x9av\x84"1N?'
p257
tp258
Rp259
sS'elementseuclide00haligoog_0182'
p260
g2
(g6
S'\xe3\x8c\xb3\xd1\x8a\x01I?'
p261
tp262
Rp263
sS'elementseuclide00haligoog_0183'
p264
g2
(g6
S'\xda\xe0\x01H\xc0MI?'
p265
tp266
Rp267
sS'elementseuclide00haligoog_0027'
p268
g2
(g6
S'&\x08\x9f\xd3\xf7\xccB?'
p269
tp270
Rp271
sS'elementseuclide00haligoog_0026'
p272
g2
(g6
S'e6"9:-C?'
p273
tp274
Rp275
sS'elementseuclide00haligoog_0025'
p276
g2
(g6
S'h\x00<\x92_cC?'
p277
tp278
Rp279
sS'elementseuclide00haligoog_0024'
p280
g2
(g6
S'9\xeep\xe5kRE?'
p281
tp282
Rp283
sS'elementseuclide00haligoog_0188'
p284
g2
(g6
S'\xa2\xd8\xd7\r\x01\x17K?'
p285
tp286
Rp287
sS'elementseuclide00haligoog_0189'
p288
g2
(g6
S'\x8e`\xd9\xf7\xdc4R?'
p289
tp290
Rp291
sS'elementseuclide00haligoog_0021'
p292
g2
(g6
S'd\xe7\xfcj\\+I?'
p293
tp294
Rp295
sS'elementseuclide00haligoog_0020'
p296
g2
(g6
S'\xda\xc3x\xbe\x9b\x15N?'
p297
tp298
Rp299
sS'elementseuclide00haligoog_0207'
p300
g2
(g6
S'\xfd\xf6\xdf\xff\x1bGI?'
p301
tp302
Rp303
sS'elementseuclide00haligoog_0206'
p304
g2
(g6
S'\x810&\xf6?\xc9G?'
p305
tp306
Rp307
sS'elementseuclide00haligoog_0205'
p308
g2
(g6
S'\x93\xab\t%S\xe0D?'
p309
tp310
Rp311
sS'elementseuclide00haligoog_0204'
p312
g2
(g6
S'%\xf0t\xfd\x04\tM?'
p313
tp314
Rp315
sS'elementseuclide00haligoog_0203'
p316
g2
(g6
S'\x00vn\xc5\xc1\xb4D?'
p317
tp318
Rp319
sS'elementseuclide00haligoog_0202'
p320
g2
(g6
S'\x7fU\x17\xacgtC?'
p321
tp322
Rp323
sS'elementseuclide00haligoog_0201'
p324
g2
(g6
S'\xe5\xb2pL=yE?'
p325
tp326
Rp327
sS'elementseuclide00haligoog_0200'
p328
g2
(g6
S'e\xe1\x98z\xf2*P?'
p329
tp330
Rp331
sS'elementseuclide00haligoog_0166'
p332
g2
(g6
S'\x93CC\xb2MKL?'
p333
tp334
Rp335
sS'elementseuclide00haligoog_0167'
p336
g2
(g6
S'\xe6\x10\xc7q\xf1\x07J?'
p337
tp338
Rp339
sS'elementseuclide00haligoog_0164'
p340
g2
(g6
S'T\xa3\xa4\xb6yJG?'
p341
tp342
Rp343
sS'elementseuclide00haligoog_0165'
p344
g2
(g6
S'>\x18\xc0lJ\x04L?'
p345
tp346
Rp347
sS'elementseuclide00haligoog_0162'
p348
g2
(g6
S'.|7\x0c|\xd7D?'
p349
tp350
Rp351
sS'elementseuclide00haligoog_0163'
p352
g2
(g6
S'\xb6\xf8O\xb5=pF?'
p353
tp354
Rp355
sS'elementseuclide00haligoog_0209'
p356
g2
(g6
S'\xe6N\xa0\x9f^UB?'
p357
tp358
Rp359
sS'elementseuclide00haligoog_0208'
p360
g2
(g6
S'\xab\x0e\xe9\xa1\xaa$E?'
p361
tp362
Rp363
sS'elementseuclide00haligoog_0290'
p364
g2
(g6
S'\x99\xe9YO\x18\x1fH?'
p365
tp366
Rp367
sS'elementseuclide00haligoog_0291'
p368
g2
(g6
S'\x11P`\x87v\x03N?'
p369
tp370
Rp371
sS'elementseuclide00haligoog_0292'
p372
g2
(g6
S'\xb4\x81\xe8U\xfd\xcd@?'
p373
tp374
Rp375
sS'elementseuclide00haligoog_0293'
p376
g2
(g6
S'[8\x1e@\x0f\x8eG?'
p377
tp378
Rp379
sS'elementseuclide00haligoog_0294'
p380
g2
(g6
S'ts3\xe6\xa5\xf8H?'
p381
tp382
Rp383
sS'elementseuclide00haligoog_0295'
p384
g2
(g6
S"K\xe7'\xf6-\x01I?"
p385
tp386
Rp387
sS'elementseuclide00haligoog_0296'
p388
g2
(g6
S'{2\x97)r\x8e@?'
p389
tp390
Rp391
sS'elementseuclide00haligoog_0297'
p392
g2
(g6
S'G~PE;\xb7C?'
p393
tp394
Rp395
sS'elementseuclide00haligoog_0298'
p396
g2
(g6
S'\x0c\xd4\xb2\x07g\xddG?'
p397
tp398
Rp399
sS'elementseuclide00haligoog_0299'
p400
g2
(g6
S'\x80<D\xb3\x8f:E?'
p401
tp402
Rp403
sS'elementseuclide00haligoog_0111'
p404
g2
(g6
S')OSFR\xd4J?'
p405
tp406
Rp407
sS'elementseuclide00haligoog_0110'
p408
g2
(g6
S't\xc70\xfdo\x06C?'
p409
tp410
Rp411
sS'elementseuclide00haligoog_0117'
p412
g2
(g6
S';\xd4\xddA!\x8eP?'
p413
tp414
Rp415
sS'elementseuclide00haligoog_0116'
p416
g2
(g6
S'\x0f\xe1\x04B\xb2wU?'
p417
tp418
Rp419
sS'elementseuclide00haligoog_0115'
p420
g2
(g6
S'T9\x8f\xa81\xe3M?'
p421
tp422
Rp423
sS'elementseuclide00haligoog_0114'
p424
g2
(g6
S'\x87?/\x13\x94\xe8K?'
p425
tp426
Rp427
sS'elementseuclide00haligoog_0368'
p428
g2
(g6
S'\x15\xd9P\x16\xd5\xf9B?'
p429
tp430
Rp431
sS'elementseuclide00haligoog_0369'
p432
g2
(g6
S'-\xc5\x02\xac\xca\xadD?'
p433
tp434
Rp435
sS'elementseuclide00haligoog_0364'
p436
g2
(g6
S'\xd7\\\xd3\xbc\xc7\xed??'
p437
tp438
Rp439
sS'elementseuclide00haligoog_0365'
p440
g2
(g6
S'\x0b\xe0\xea\x04O\x02D?'
p441
tp442
Rp443
sS'elementseuclide00haligoog_0366'
p444
g2
(g6
S'5\x1d\x93\xe4%CD?'
p445
tp446
Rp447
sS'elementseuclide00haligoog_0367'
p448
g2
(g6
S'\n\x14\xcfb7zK?'
p449
tp450
Rp451
sS'elementseuclide00haligoog_0360'
p452
g2
(g6
S'\xb5b\x8b\x8d\xb8\x8bC?'
p453
tp454
Rp455
sS'elementseuclide00haligoog_0361'
p456
g2
(g6
S'\x87e\xff\x08\xb2\xe7F?'
p457
tp458
Rp459
sS'elementseuclide00haligoog_0362'
p460
g2
(g6
S'X\xcfF\x8f\x1cDB?'
p461
tp462
Rp463
sS'elementseuclide00haligoog_0363'
p464
g2
(g6
S'\x8f\xb9\x00(\xc1\xbaA?'
p465
tp466
Rp467
sS'elementseuclide00haligoog_0029'
p468
g2
(g6
S'\xfc\x0f\xdf.\xf2lD?'
p469
tp470
Rp471
sS'elementseuclide00haligoog_0028'
p472
g2
(g6
S'\xb6\xd3\xffl\x08\xe5B?'
p473
tp474
Rp475
sS'elementseuclide00haligoog_0023'
p476
g2
(g6
S'h\x00<\x92_cC?'
p477
tp478
Rp479
sS'elementseuclide00haligoog_0022'
p480
g2
(g6
S'\x00\xb5\n\xb5\xcd\xe1K?'
p481
tp482
Rp483
sS'elementseuclide00haligoog_0331'
p484
g2
(g6
S'\x9e:L\xb6>\xfdB?'
p485
tp486
Rp487
sS'elementseuclide00haligoog_0239'
p488
g2
(g6
S'\xe4\xa1\xd1\x97\x1ftB?'
p489
tp490
Rp491
sS'elementseuclide00haligoog_0063'
p492
g2
(g6
S'\xd5~j\xda.\xabG?'
p493
tp494
Rp495
sS'elementseuclide00haligoog_0062'
p496
g2
(g6
S')\x83\x93^?\x01I?'
p497
tp498
Rp499
sS'elementseuclide00haligoog_0061'
p500
g2
(g6
S'\xe1\xb9\xae\x98\xde\xa0G?'
p501
tp502
Rp503
sS'elementseuclide00haligoog_0060'
p504
g2
(g6
S'l\x1b\x13{8\x8dH?'
p505
tp506
Rp507
sS'elementseuclide00haligoog_0067'
p508
g2
(g6
S'\x7fv\xc4\x0e\xbfNC?'
p509
tp510
Rp511
sS'elementseuclide00haligoog_0066'
p512
g2
(g6
S'\xc8\xa2w\xdd\x02GC?'
p513
tp514
Rp515
sS'elementseuclide00haligoog_0065'
p516
g2
(g6
S'pqf\xf7\xe9"C?'
p517
tp518
Rp519
sS'elementseuclide00haligoog_0064'
p520
g2
(g6
S'~s\x13\xa8J\xc1E?'
p521
tp522
Rp523
sS'elementseuclide00haligoog_0069'
p524
g2
(g6
S'8%#m1\x95J?'
p525
tp526
Rp527
sS'elementseuclide00haligoog_0068'
p528
g2
(g6
S's;\x80P\x0fYC?'
p529
tp530
Rp531
sS'elementseuclide00haligoog_0122'
p532
g2
(g6
S'\x8d\xdd\x1c\xec \xb4G?'
p533
tp534
Rp535
sS'elementseuclide00haligoog_0123'
p536
g2
(g6
S'A\x1f\x90\x18m\x8bG?'
p537
tp538
Rp539
sS'elementseuclide00haligoog_0120'
p540
g2
(g6
S'u\xa8\xec\x8e\x8b\x11P?'
p541
tp542
Rp543
sS'elementseuclide00haligoog_0121'
p544
g2
(g6
S'\x15\x9f\x8d\x1d\xce\xbdJ?'
p545
tp546
Rp547
sS'elementseuclide00haligoog_0089'
p548
g2
(g6
S'\xd9\x0f\xed%\x05\x8aJ?'
p549
tp550
Rp551
sS'elementseuclide00haligoog_0088'
p552
g2
(g6
S'\xb2j\xcf\x96<2I?'
p553
tp554
Rp555
sS'elementseuclide00haligoog_0124'
p556
g2
(g6
S'\xf8U \xf8\x821J?'
p557
tp558
Rp559
sS'elementseuclide00haligoog_0125'
p560
g2
(g6
S'$`\xd3\x03\xf9\xe0I?'
p561
tp562
Rp563
sS'elementseuclide00haligoog_0085'
p564
g2
(g6
S'\xe3\xf8\xa7s\x16\x13P?'
p565
tp566
Rp567
sS'elementseuclide00haligoog_0084'
p568
g2
(g6
S'\xb3\xf8\xa0{\x9e\x83N?'
p569
tp570
Rp571
sS'elementseuclide00haligoog_0087'
p572
g2
(g6
S'=A\x13\xfb\xa8ZB?'
p573
tp574
Rp575
sS'elementseuclide00haligoog_0086'
p576
g2
(g6
S'd\xe7\xfcj\\+I?'
p577
tp578
Rp579
sS'elementseuclide00haligoog_0081'
p580
g2
(g6
S'IX5\xc7\xf9\x07O?'
p581
tp582
Rp583
sS'elementseuclide00haligoog_0080'
p584
g2
(g6
S'<\xf2\xed,\xcbXH?'
p585
tp586
Rp587
sS'elementseuclide00haligoog_0083'
p588
g2
(g6
S' 9\xef\x8d\xd4\xf4L?'
p589
tp590
Rp591
sS'elementseuclide00haligoog_0082'
p592
g2
(g6
S'f\x10h\x85\x05\xf3D?'
p593
tp594
Rp595
sS'elementseuclide00haligoog_0016'
p596
g2
(g6
S'\xce#\xce53\x96D?'
p597
tp598
Rp599
sS'elementseuclide00haligoog_0017'
p600
g2
(g6
S'`Vz\x1f\x86LF?'
p601
tp602
Rp603
sS'elementseuclide00haligoog_0014'
p604
g2
(g6
S'20\x068\x8d\xa5C?'
p605
tp606
Rp607
sS'elementseuclide00haligoog_0015'
p608
g2
(g6
S'\x08q\xdd\xa0\xd6\x9cB?'
p609
tp610
Rp611
sS'elementseuclide00haligoog_0012'
p612
g2
(g6
S',\xe9\x12\xce\x96&E?'
p613
tp614
Rp615
sS'elementseuclide00haligoog_0013'
p616
g2
(g6
S'\x1e\xfaBwP\xa5A?'
p617
tp618
Rp619
sS'elementseuclide00haligoog_0011'
p620
g2
(g6
S'4\xab\xfa\xc2\xd4\xd9I?'
p621
tp622
Rp623
sS'elementseuclide00haligoog_0018'
p624
g2
(g6
S'\x95&\xb0yX\nF?'
p625
tp626
Rp627
sS'elementseuclide00haligoog_0019'
p628
g2
(g6
S'IX5\xc7\xf9\x07O?'
p629
tp630
Rp631
sS'elementseuclide00haligoog_0168'
p632
g2
(g6
S'\xca\x9c\xffU\xd9\xa9??'
p633
tp634
Rp635
sS'elementseuclide00haligoog_0169'
p636
g2
(g6
S'T~\xe70\x1dTO?'
p637
tp638
Rp639
sS'elementseuclide00haligoog_0337'
p640
g2
(g6
S"\x00\xa1J('\x84A?"
p641
tp642
Rp643
sS'elementseuclide00haligoog_0336'
p644
g2
(g6
S'\x85N\x9a IIA?'
p645
tp646
Rp647
sS'elementseuclide00haligoog_0335'
p648
g2
(g6
S'\x1b\x12\xd3\x82+\x8eE?'
p649
tp650
Rp651
sS'elementseuclide00haligoog_0334'
p652
g2
(g6
S'\x83\xe4\xb7]\xefSI?'
p653
tp654
Rp655
sS'elementseuclide00haligoog_0333'
p656
g2
(g6
S'\xda\xfc\xde\x8bo\xcbB?'
p657
tp658
Rp659
sS'elementseuclide00haligoog_0332'
p660
g2
(g6
S'\xee\x1c\xf0\xe1\xc0L@?'
p661
tp662
Rp663
sS'elementseuclide00haligoog_0238'
p664
g2
(g6
S' W\xf8\xf6\xcf\xcdE?'
p665
tp666
Rp667
sS'elementseuclide00haligoog_0330'
p668
g2
(g6
S'\xfd\xd4.\x86\x0f\xfcH?'
p669
tp670
Rp671
sS'elementseuclide00haligoog_0236'
p672
g2
(g6
S'\x80(\xd6\xcd\x93\x8cM?'
p673
tp674
Rp675
sS'elementseuclide00haligoog_0237'
p676
g2
(g6
S'u"N\xc7\xc5\x81H?'
p677
tp678
Rp679
sS'elementseuclide00haligoog_0234'
p680
g2
(g6
S'r.P\xa0#\xebF?'
p681
tp682
Rp683
sS'elementseuclide00haligoog_0235'
p684
g2
(g6
S'\xc6N\xa6\xa4\xd7\xc5D?'
p685
tp686
Rp687
sS'elementseuclide00haligoog_0232'
p688
g2
(g6
S'\xc0 z\x9b\xf5nN?'
p689
tp690
Rp691
sS'elementseuclide00haligoog_0233'
p692
g2
(g6
S'\x8c\xbb\xbd\xaebvG?'
p693
tp694
Rp695
sS'elementseuclide00haligoog_0339'
p696
g2
(g6
S'\x8c\t\xe4\x99\xc5>F?'
p697
tp698
Rp699
sS'elementseuclide00haligoog_0338'
p700
g2
(g6
S't\x013\xf0\xb3~G?'
p701
tp702
Rp703
sS'elementseuclide00haligoog_0249'
p704
g2
(g6
S'\xc3\r\xf8q#EB?'
p705
tp706
Rp707
sS'elementseuclide00haligoog_0248'
p708
g2
(g6
S'@FS=9XP?'
p709
tp710
Rp711
sS'elementseuclide00haligoog_0243'
p712
g2
(g6
S'\x84\x92\x13.j\xc8A?'
p713
tp714
Rp715
sS'elementseuclide00haligoog_0242'
p716
g2
(g6
S'\xbbv^\xe0\xa2.D?'
p717
tp718
Rp719
sS'elementseuclide00haligoog_0241'
p720
g2
(g6
S'BZ\xc0\x91\x19\xf1L?'
p721
tp722
Rp723
sS'elementseuclide00haligoog_0240'
p724
g2
(g6
S'3\xbb\xbb\x84\x16\xabP?'
p725
tp726
Rp727
sS'elementseuclide00haligoog_0247'
p728
g2
(g6
S'FH=\xcc\x0cSO?'
p729
tp730
Rp731
sS'elementseuclide00haligoog_0246'
p732
g2
(g6
S'\x9d\xa0\xf2v\x03\xe6F?'
p733
tp734
Rp735
sS'elementseuclide00haligoog_0245'
p736
g2
(g6
S'\x1f\xc9\x99\xb8\tcR?'
p737
tp738
Rp739
sS'elementseuclide00haligoog_0244'
p740
g2
(g6
S'\xe6N\xa0\x9f^UR?'
p741
tp742
Rp743
sS'elementseuclide00haligoog_0160'
p744
g2
(g6
S'-]\x17\xf7\x8f\xbcN?'
p745
tp746
Rp747
sS'elementseuclide00haligoog_0161'
p748
g2
(g6
S'\x00_zs\x02\xeaE?'
p749
tp750
Rp751
sS'elementseuclide00haligoog_0119'
p752
g2
(g6
S' ,i\x0c\xb8\x0fQ?'
p753
tp754
Rp755
sS'elementseuclide00haligoog_0118'
p756
g2
(g6
S'\x85\xa2tu\xb9\xc8I?'
p757
tp758
Rp759
sS'elementseuclide00haligoog_0113'
p760
g2
(g6
S'u\xda:\x8asDR?'
p761
tp762
Rp763
sS'elementseuclide00haligoog_0112'
p764
g2
(g6
S'\x7f\xa0\xea\xa5\\\x97I?'
p765
tp766
Rp767
sS'elementseuclide00haligoog_0151'
p768
g2
(g6
S'\x04g\xa1\xb3\xcf\xf6G?'
p769
tp770
Rp771
sS'elementseuclide00haligoog_0150'
p772
g2
(g6
S'\xb5\x11\xf7\xb2\xb1\x89G?'
p773
tp774
Rp775
sS'elementseuclide00haligoog_0159'
p776
g2
(g6
S'\xe6\x10\xc7q\xf1\x07J?'
p777
tp778
Rp779
sS'elementseuclide00haligoog_0158'
p780
g2
(g6
S'\xa05\x80\xff\xb5\x1bG?'
p781
tp782
Rp783
sS'elementseuclide00haligoog_0193'
p784
g2
(g6
S'\xc3\xf7\xd64\x1c\x97N?'
p785
tp786
Rp787
sS'elementseuclide00haligoog_0192'
p788
g2
(g6
S'\x89\x9f\x002\xd6\xa0P?'
p789
tp790
Rp791
sS'elementseuclide00haligoog_0191'
p792
g2
(g6
S'\xa7\xe2\x8b\xd4\xc5\xd5I?'
p793
tp794
Rp795
sS'elementseuclide00haligoog_0190'
p796
g2
(g6
S'*L\xe1H\x80\xd3G?'
p797
tp798
Rp799
sS'elementseuclide00haligoog_0197'
p800
g2
(g6
S'\xc4\xf7\xd64\x1c\x97N?'
p801
tp802
Rp803
sS'elementseuclide00haligoog_0196'
p804
g2
(g6
S'|\x14iy\xb3\xf3P?'
p805
tp806
Rp807
sS'elementseuclide00haligoog_0195'
p808
g2
(g6
S'\xc3RXU\x89\xf2H?'
p809
tp810
Rp811
sS'elementseuclide00haligoog_0194'
p812
g2
(g6
S'\xd7r\xbac/\xaeK?'
p813
tp814
Rp815
sS'elementseuclide00haligoog_0052'
p816
g2
(g6
S'\xff\xec\xd5\xe11\xc0C?'
p817
tp818
Rp819
sS'elementseuclide00haligoog_0053'
p820
g2
(g6
S'w\x072k\n\x81N?'
p821
tp822
Rp823
sS'elementseuclide00haligoog_0199'
p824
g2
(g6
S'<+\x95$r\x0eH?'
p825
tp826
Rp827
sS'elementseuclide00haligoog_0198'
p828
g2
(g6
S'w\xcf\x1c\xcf\x04cH?'
p829
tp830
Rp831
sS'elementseuclide00haligoog_0056'
p832
g2
(g6
S'1\x90#\xda\xfb\xafD?'
p833
tp834
Rp835
sS'elementseuclide00haligoog_0057'
p836
g2
(g6
S'\xe6\x10\xce\xf5z\xafG?'
p837
tp838
Rp839
sS'elementseuclide00haligoog_0054'
p840
g2
(g6
S't\xf0\xd7\xc9\x90]L?'
p841
tp842
Rp843
sS'elementseuclide00haligoog_0055'
p844
g2
(g6
S'\x84D[\xafC\x8bF?'
p845
tp846
Rp847
sS'elementseuclide00haligoog_0272'
p848
g2
(g6
S'\xa9Y\xcaq\xbf\x06K?'
p849
tp850
Rp851
sS'elementseuclide00haligoog_0273'
p852
g2
(g6
S'\xe5\xb2pL=yE?'
p853
tp854
Rp855
sS'elementseuclide00haligoog_0270'
p856
g2
(g6
S'\xe5\xf7\xd0/\xa3&L?'
p857
tp858
Rp859
sS'elementseuclide00haligoog_0271'
p860
g2
(g6
S'\xbb\x1b\xba\x0bR<P?'
p861
tp862
Rp863
sS'elementseuclide00haligoog_0179'
p864
g2
(g6
S'0\x19\xf2\xa9V\xf7F?'
p865
tp866
Rp867
sS'elementseuclide00haligoog_0178'
p868
g2
(g6
S'\x89\xe8\xff8W\xe5D?'
p869
tp870
Rp871
sS'elementseuclide00haligoog_0274'
p872
g2
(g6
S'/\x81\x8d\xa2\xd6\xeaK?'
p873
tp874
Rp875
sS'elementseuclide00haligoog_0275'
p876
g2
(g6
S'\x80?\xf6n`\xc6O?'
p877
tp878
Rp879
sS'elementseuclide00haligoog_0175'
p880
g2
(g6
S'\xd5\n)\x03\xdbsI?'
p881
tp882
Rp883
sS'elementseuclide00haligoog_0174'
p884
g2
(g6
S'\xca%Y\xd2\x05\x06L?'
p885
tp886
Rp887
sS'elementseuclide00haligoog_0177'
p888
g2
(g6
S'\xcd,\x97Q, Q?'
p889
tp890
Rp891
sS'elementseuclide00haligoog_0176'
p892
g2
(g6
S'?J\xea\x0e:]Q?'
p893
tp894
Rp895
sS'elementseuclide00haligoog_0171'
p896
g2
(g6
S'\xea\xd3\x95)\xd3\xa3J?'
p897
tp898
Rp899
sS'elementseuclide00haligoog_0170'
p900
g2
(g6
S'\xf6s{\xa5\xc03P?'
p901
tp902
Rp903
sS'elementseuclide00haligoog_0173'
p904
g2
(g6
S'7\x85\x91\x87\xfb\x8fP?'
p905
tp906
Rp907
sS'elementseuclide00haligoog_0172'
p908
g2
(g6
S'B\xc2\xe7&\xb8\x86K?'
p909
tp910
Rp911
sS'elementseuclide00haligoog_0289'
p912
g2
(g6
S'"\x8a\xf1\xe8\xee\xf1F?'
p913
tp914
Rp915
sS'elementseuclide00haligoog_0288'
p916
g2
(g6
S'G\x00\x18Ra\x18F?'
p917
tp918
Rp919
sS'elementseuclide00haligoog_0287'
p920
g2
(g6
S'p\x1a#L\xe7\x95D?'
p921
tp922
Rp923
sS'elementseuclide00haligoog_0286'
p924
g2
(g6
S'\x8cH\x80\x932\x0eE?'
p925
tp926
Rp927
sS'elementseuclide00haligoog_0285'
p928
g2
(g6
S'\xc3\r\xf8q#EB?'
p929
tp930
Rp931
sS'elementseuclide00haligoog_0284'
p932
g2
(g6
S'\x86\x18"D\x84\xf6J?'
p933
tp934
Rp935
sS'elementseuclide00haligoog_0283'
p936
g2
(g6
S'\x0f\xe72\x90+\x87L?'
p937
tp938
Rp939
sS'elementseuclide00haligoog_0282'
p940
g2
(g6
S'\x17e\xddD\xe2[M?'
p941
tp942
Rp943
sS'elementseuclide00haligoog_0281'
p944
g2
(g6
S'\x82h\x85\x9c\x82\x81A?'
p945
tp946
Rp947
sS'elementseuclide00haligoog_0280'
p948
g2
(g6
S'\xc55\xb7\xc7\r\x84G?'
p949
tp950
Rp951
sS'elementseuclide00haligoog_0308'
p952
g2
(g6
S'\xb5b\x8b\x8d\xb8\x8bC?'
p953
tp954
Rp955
sS'elementseuclide00haligoog_0309'
p956
g2
(g6
S'\xf88\xf3\xd8\x97\x07A?'
p957
tp958
Rp959
sS'elementseuclide00haligoog_0306'
p960
g2
(g6
S':\x8e\x13y\xb4\xefP?'
p961
tp962
Rp963
sS'elementseuclide00haligoog_0307'
p964
g2
(g6
S'\xfd\xb8/r\xf3\xefK?'
p965
tp966
Rp967
sS'elementseuclide00haligoog_0304'
p968
g2
(g6
S'\xbe\xd1\x80\xae|\xbfH?'
p969
tp970
Rp971
sS'elementseuclide00haligoog_0305'
p972
g2
(g6
S'\xc0~\x8e\x84\x8fFD?'
p973
tp974
Rp975
sS'elementseuclide00haligoog_0302'
p976
g2
(g6
S' \xae\x0e0\xa3\x82M?'
p977
tp978
Rp979
sS'elementseuclide00haligoog_0303'
p980
g2
(g6
S'\x1d\\\x9cg\x19\xd7M?'
p981
tp982
Rp983
sS'elementseuclide00haligoog_0300'
p984
g2
(g6
S'\x11%\xa5n\x8d\xbbB?'
p985
tp986
Rp987
sS'elementseuclide00haligoog_0301'
p988
g2
(g6
S'/\xb5;\x95\x96\xc6C?'
p989
tp990
Rp991
sS'elementseuclide00haligoog_0372'
p992
g2
(g6
S'\x051N\xd8\xb6SM?'
p993
tp994
Rp995
sS'elementseuclide00haligoog_0371'
p996
g2
(g6
S'\x1b\x12\xd3\x82+\x8eE?'
p997
tp998
Rp999
sS'elementseuclide00haligoog_0370'
p1000
g2
(g6
S'\x1d\xa7p^n\xcbH?'
p1001
tp1002
Rp1003
sS'elementseuclide00haligoog_0131'
p1004
g2
(g6
S'J)A(\x97\xc9I?'
p1005
tp1006
Rp1007
sS'elementseuclide00haligoog_0130'
p1008
g2
(g6
S'\xb7+\xf5D\xd0(O?'
p1009
tp1010
Rp1011
sS'elementseuclide00haligoog_0133'
p1012
g2
(g6
S'r\xa8\x10\xe8\x83\xebL?'
p1013
tp1014
Rp1015
sS'elementseuclide00haligoog_0132'
p1016
g2
(g6
S'JN\xfe\xad\xf3\xbfQ?'
p1017
tp1018
Rp1019
sS'elementseuclide00haligoog_0135'
p1020
g2
(g6
S'\x9fy\x81\xf3\xf6\x06B?'
p1021
tp1022
Rp1023
sS'elementseuclide00haligoog_0134'
p1024
g2
(g6
S'4\xb0\x0f\xd7\xc0;G?'
p1025
tp1026
Rp1027
sS'elementseuclide00haligoog_0137'
p1028
g2
(g6
S'x\xdc\xe8\xb2\xc8OO?'
p1029
tp1030
Rp1031
sS'elementseuclide00haligoog_0136'
p1032
g2
(g6
S'd\xd4\x9c\x1b]\xb0Q?'
p1033
tp1034
Rp1035
sS'elementseuclide00haligoog_0139'
p1036
g2
(g6
S'|\x15\xe3\x00\xdb/P?'
p1037
tp1038
Rp1039
sS'elementseuclide00haligoog_0138'
p1040
g2
(g6
S'\x1c\xae\x84\t\xbeQH?'
p1041
tp1042
Rp1043
sS'elementseuclide00haligoog_0342'
p1044
g2
(g6
S'\x1e\xbe\xd5F\xd7iN?'
p1045
tp1046
Rp1047
sS'elementseuclide00haligoog_0343'
p1048
g2
(g6
S'xf{\x87Z\x06H?'
p1049
tp1050
Rp1051
sS'elementseuclide00haligoog_0340'
p1052
g2
(g6
S'\nO\xdcBX\x87E?'
p1053
tp1054
Rp1055
sS'elementseuclide00haligoog_0341'
p1056
g2
(g6
S'e\xa7\xab\xc5\xa1["?'
p1057
tp1058
Rp1059
sS'elementseuclide00haligoog_0229'
p1060
g2
(g6
S'\x0c\xa3\xb6\xbd\xb4rP?'
p1061
tp1062
Rp1063
sS'elementseuclide00haligoog_0347'
p1064
g2
(g6
S' \xf5S\r\xac\xb4C?'
p1065
tp1066
Rp1067
sS'elementseuclide00haligoog_0344'
p1068
g2
(g6
S'\x8e?WN3\xdeH?'
p1069
tp1070
Rp1071
sS'elementseuclide00haligoog_0345'
p1072
g2
(g6
S'UN\xff\xe3Y\xb0D?'
p1073
tp1074
Rp1075
sS'elementseuclide00haligoog_0225'
p1076
g2
(g6
S'\xd2&\xeeh\x0c]E?'
p1077
tp1078
Rp1079
sS'elementseuclide00haligoog_0224'
p1080
g2
(g6
S'e\x18(I\xfdfM?'
p1081
tp1082
Rp1083
sS'elementseuclide00haligoog_0227'
p1084
g2
(g6
S'\xec\x83L\xf9\xb4lF?'
p1085
tp1086
Rp1087
sS'elementseuclide00haligoog_0349'
p1088
g2
(g6
S'\xdcU\xdf\xd7\x9d\xa5M?'
p1089
tp1090
Rp1091
sS'elementseuclide00haligoog_0221'
p1092
g2
(g6
S'\x90K\xeb(&\xe9E?'
p1093
tp1094
Rp1095
sS'elementseuclide00haligoog_0220'
p1096
g2
(g6
S'\x18\xf0m\xe3\xe52G?'
p1097
tp1098
Rp1099
sS'elementseuclide00haligoog_0223'
p1100
g2
(g6
S'\xab\xaa\x18\xf5\xcb\x00B?'
p1101
tp1102
Rp1103
sS'elementseuclide00haligoog_0222'
p1104
g2
(g6
S'\xcd8q.\x19\xfbB?'
p1105
tp1106
Rp1107
sS'elementseuclide00haligoog_0351'
p1108
g2
(g6
S'\xda\xfc\xde\x8bo\xcbB?'
p1109
tp1110
Rp1111
sS'elementseuclide00haligoog_0350'
p1112
g2
(g6
S'5=!\x12\x8e\x11F?'
p1113
tp1114
Rp1115
sS'elementseuclide00haligoog_0359'
p1116
g2
(g6
S'\xd1\x12\xb0\xe1)eF?'
p1117
tp1118
Rp1119
sS'elementseuclide00haligoog_0358'
p1120
g2
(g6
S'(\xf2H8~nG?'
p1121
tp1122
Rp1123
sS'elementseuclide00haligoog_0261'
p1124
g2
(g6
S'1%\r\x1e\xa4\x03C?'
p1125
tp1126
Rp1127
sS'elementseuclide00haligoog_0260'
p1128
g2
(g6
S'\xea[\x8d\xa3\xca-Q?'
p1129
tp1130
Rp1131
sS'elementseuclide00haligoog_0140'
p1132
g2
(g6
S'\x1d\xda5\x945\xa9H?'
p1133
tp1134
Rp1135
sS'elementseuclide00haligoog_0141'
p1136
g2
(g6
S'\xf4f\xa0\xb5)>I?'
p1137
tp1138
Rp1139
sS'elementseuclide00haligoog_0049'
p1140
g2
(g6
S'\xc9V\x03v\x99\xd2F?'
p1141
tp1142
Rp1143
sS'elementseuclide00haligoog_0048'
p1144
g2
(g6
S'\x8d\xb5\x85\x14\xceJF?'
p1145
tp1146
Rp1147
sS'elementseuclide00haligoog_0041'
p1148
g2
(g6
S'\xc3\xd5\xac\x1di\x83E?'
p1149
tp1150
Rp1151
sS'elementseuclide00haligoog_0040'
p1152
g2
(g6
S':e\xe8(T\x80H?'
p1153
tp1154
Rp1155
sS'elementseuclide00haligoog_0043'
p1156
g2
(g6
S'@\x95\x81\xf1\xd0\xdbD?'
p1157
tp1158
Rp1159
sS'elementseuclide00haligoog_0042'
p1160
g2
(g6
S'\xd5\x1b\x9c\xd1K\x13I?'
p1161
tp1162
Rp1163
sS'elementseuclide00haligoog_0045'
p1164
g2
(g6
S'<{v\xe9\xe2*E?'
p1165
tp1166
Rp1167
sS'elementseuclide00haligoog_0044'
p1168
g2
(g6
S'\xd5~j\xda.\xabG?'
p1169
tp1170
Rp1171
sS'elementseuclide00haligoog_0047'
p1172
g2
(g6
S'\x7f\x14\xc2\xe6\xc6/J?'
p1173
tp1174
Rp1175
sS'elementseuclide00haligoog_0046'
p1176
g2
(g6
S'8\x11z2,\xffE?'
p1177
tp1178
Rp1179
sS'elementseuclide00haligoog_0148'
p1180
g2
(g6
S'\xaf:\xc7\xd9!*Q?'
p1181
tp1182
Rp1183
sS'elementseuclide00haligoog_0149'
p1184
g2
(g6
S'\xfa\xb9\x98\x95Z\xbdQ?'
p1185
tp1186
Rp1187
sS'elementseuclide00haligoog_0263'
p1188
g2
(g6
S'\xa6N\xac\xa9P6G?'
p1189
tp1190
Rp1191
sS'elementseuclide00haligoog_0262'
p1192
g2
(g6
S'\xea\xde\xcd\x19"\xc8P?'
p1193
tp1194
Rp1195
sS'elementseuclide00haligoog_0265'
p1196
g2
(g6
S'~l7M4\xaeE?'
p1197
tp1198
Rp1199
sS'elementseuclide00haligoog_0264'
p1200
g2
(g6
S'\xe6e\xc0@+\x8fD?'
p1201
tp1202
Rp1203
sS'elementseuclide00haligoog_0267'
p1204
g2
(g6
S'n\xccbh\xf9\xebL?'
p1205
tp1206
Rp1207
sS'elementseuclide00haligoog_0266'
p1208
g2
(g6
S'\\\xb7\x1e"\xc2\x00N?'
p1209
tp1210
Rp1211
sS'elementseuclide00haligoog_0269'
p1212
g2
(g6
S'\xdf\xf23T\xe3\x8aG?'
p1213
tp1214
Rp1215
sS'elementseuclide00haligoog_0268'
p1216
g2
(g6
S'\x9d\xa0\xf2v\x03\xe6F?'
p1217
tp1218
Rp1219
sS'elementseuclide00haligoog_0142'
p1220
g2
(g6
S'\x93VM?Q\x89K?'
p1221
tp1222
Rp1223
sS'elementseuclide00haligoog_0143'
p1224
g2
(g6
S'\xed8e[U\xb5H?'
p1225
tp1226
Rp1227
sS'elementseuclide00haligoog_0144'
p1228
g2
(g6
S'\x1a\x81|\xea\x9btQ?'
p1229
tp1230
Rp1231
sS'elementseuclide00haligoog_0145'
p1232
g2
(g6
S'.\xec\xe9\x8a4\x1aP?'
p1233
tp1234
Rp1235
sS'elementseuclide00haligoog_0146'
p1236
g2
(g6
S'\xf1k\xe6\x91\xef\x93D?'
p1237
tp1238
Rp1239
sS'elementseuclide00haligoog_0147'
p1240
g2
(g6
S'k\xbe\xd6\x81\xf0MG?'
p1241
tp1242
Rp1243
sS'elementseuclide00haligoog_0278'
p1244
g2
(g6
S'Z\xf3/y\xb6\xe5K?'
p1245
tp1246
Rp1247
sS'elementseuclide00haligoog_0319'
p1248
g2
(g6
S'\x0bn\xea\x0e]\x88B?'
p1249
tp1250
Rp1251
sS'elementseuclide00haligoog_0318'
p1252
g2
(g6
S'"\x8a\xf1\xe8\xee\xf1F?'
p1253
tp1254
Rp1255
sS'elementseuclide00haligoog_0315'
p1256
g2
(g6
S'\x9cZ\xda\xe3\xa6\xcbD?'
p1257
tp1258
Rp1259
sS'elementseuclide00haligoog_0314'
p1260
g2
(g6
S'$^+\xbe\x9e\xfeH?'
p1261
tp1262
Rp1263
sS'elementseuclide00haligoog_0317'
p1264
g2
(g6
S'\x07\xbe\xcd\x80a\x0cG?'
p1265
tp1266
Rp1267
sS'elementseuclide00haligoog_0316'
p1268
g2
(g6
S'\r\xc4\xeb\xf02\xf6F?'
p1269
tp1270
Rp1271
sS'elementseuclide00haligoog_0311'
p1272
g2
(g6
S'z6&C\xbePE?'
p1273
tp1274
Rp1275
sS'elementseuclide00haligoog_0310'
p1276
g2
(g6
S'v\x10z\xa5\x84\x98C?'
p1277
tp1278
Rp1279
sS'elementseuclide00haligoog_0313'
p1280
g2
(g6
S'\x83~\xefd\xe5\xfeC?'
p1281
tp1282
Rp1283
sS'elementseuclide00haligoog_0312'
p1284
g2
(g6
S'\x11%\xa5n\x8d\xbbB?'
p1285
tp1286
Rp1287
sS'elementseuclide00haligoog_0030'
p1288
g2
(g6
S'\x9c\n\xd5\xdak\xf1E?'
p1289
tp1290
Rp1291
sS'elementseuclide00haligoog_0031'
p1292
g2
(g6
S'\xa6\xa56;\x8a\xf1F?'
p1293
tp1294
Rp1295
sS'elementseuclide00haligoog_0032'
p1296
g2
(g6
S'\xf5R@b\xfe8H?'
p1297
tp1298
Rp1299
sS'elementseuclide00haligoog_0033'
p1300
g2
(g6
S'\xb4m\x80\xfd\xb0\xbfF?'
p1301
tp1302
Rp1303
sS'elementseuclide00haligoog_0034'
p1304
g2
(g6
S'\t\xec\xd1+\x1e\xd1H?'
p1305
tp1306
Rp1307
sS'elementseuclide00haligoog_0035'
p1308
g2
(g6
S'\x088F\x93\x87EE?'
p1309
tp1310
Rp1311
sS'elementseuclide00haligoog_0036'
p1312
g2
(g6
S'\xc4\x9c\x15\x10\x1a,H?'
p1313
tp1314
Rp1315
sS'elementseuclide00haligoog_0037'
p1316
g2
(g6
S'\x94\x0fV\xd8\xde\xe6C?'
p1317
tp1318
Rp1319
sS'elementseuclide00haligoog_0038'
p1320
g2
(g6
S'\xcd]1$mfG?'
p1321
tp1322
Rp1323
sS'elementseuclide00haligoog_0039'
p1324
g2
(g6
S'\x83\xf3\x9d\x1f\x90\x97Q?'
p1325
tp1326
Rp1327
sS'elementseuclide00haligoog_0218'
p1328
g2
(g6
S'\x93\x94\xe9\x83\x86\xa6B?'
p1329
tp1330
Rp1331
sS'elementseuclide00haligoog_0219'
p1332
g2
(g6
S'\xd0y\x1fa\xcd{E?'
p1333
tp1334
Rp1335
sS'elementseuclide00haligoog_0353'
p1336
g2
(g6
S'\xddE\x18\xc1i\xbeL?'
p1337
tp1338
Rp1339
sS'elementseuclide00haligoog_0352'
p1340
g2
(g6
S'\x9b\xe00\n\x19\xefK?'
p1341
tp1342
Rp1343
sS'elementseuclide00haligoog_0355'
p1344
g2
(g6
S'\xf8\xf5<\x15\xdb\x97O?'
p1345
tp1346
Rp1347
sS'elementseuclide00haligoog_0354'
p1348
g2
(g6
S',\xe9\x1f\xf3~>K?'
p1349
tp1350
Rp1351
sS'elementseuclide00haligoog_0357'
p1352
g2
(g6
S'\x0b\xe0\xea\x04O\x02D?'
p1353
tp1354
Rp1355
sS'elementseuclide00haligoog_0356'
p1356
g2
(g6
S'\xba`\x00\x1a\xee\x12L?'
p1357
tp1358
Rp1359
sS'elementseuclide00haligoog_0210'
p1360
g2
(g6
S'\x06\x9cJ\xa6\xf7\xce@?'
p1361
tp1362
Rp1363
sS'elementseuclide00haligoog_0211'
p1364
g2
(g6
S'-\xdc\x0e\xc3CFF?'
p1365
tp1366
Rp1367
sS'elementseuclide00haligoog_0212'
p1368
g2
(g6
S'\xbfM\xbby\xc9VD?'
p1369
tp1370
Rp1371
sS'elementseuclide00haligoog_0213'
p1372
g2
(g6
S'4\xeb\xca\x02\xad&P?'
p1373
tp1374
Rp1375
sS'elementseuclide00haligoog_0214'
p1376
g2
(g6
S'dK\xea\x13\x80\x83B?'
p1377
tp1378
Rp1379
sS'elementseuclide00haligoog_0215'
p1380
g2
(g6
S'\xed\x08\\\xab\t\x0fA?'
p1381
tp1382
Rp1383
sS'elementseuclide00haligoog_0216'
p1384
g2
(g6
S'\xe3\xdd\xe2\xee\x13Y@?'
p1385
tp1386
Rp1387
sS'elementseuclide00haligoog_0217'
p1388
g2
(g6
S'd5\xc9\xd6x\xd5>?'
p1389
tp1390
Rp1391
sS'elementseuclide00haligoog_0108'
p1392
g2
(g6
S'\x06\xdeG7\xa3\x9aK?'
p1393
tp1394
Rp1395
sS'elementseuclide00haligoog_0109'
p1396
g2
(g6
S'Fl\x0f\xe1%\tK?'
p1397
tp1398
Rp1399
sS'elementseuclide00haligoog_0104'
p1400
g2
(g6
S'\xd24P\xbe\xf5\x99I?'
p1401
tp1402
Rp1403
sS'elementseuclide00haligoog_0105'
p1404
g2
(g6
S'{.\xaeWG#N?'
p1405
tp1406
Rp1407
sS'elementseuclide00haligoog_0106'
p1408
g2
(g6
S'\x0e\x00I\xb0\x96lH?'
p1409
tp1410
Rp1411
sS'elementseuclide00haligoog_0107'
p1412
g2
(g6
S"E\xe2^\xd0N'H?"
p1413
tp1414
Rp1415
sS'elementseuclide00haligoog_0100'
p1416
g2
(g6
S'oCA\xb6\x01\xdaN?'
p1417
tp1418
Rp1419
sS'elementseuclide00haligoog_0101'
p1420
g2
(g6
S'\xb6\x88\x9d6\x85-K?'
p1421
tp1422
Rp1423
sS'elementseuclide00haligoog_0102'
p1424
g2
(g6
S'\x00\xe8\xd3\xef.FB?'
p1425
tp1426
Rp1427
sS'elementseuclide00haligoog_0103'
p1428
g2
(g6
S'7Z7\x91.\xbeF?'
p1429
tp1430
Rp1431
sS'elementseuclide00haligoog_0059'
p1432
g2
(g6
S'p5\x1e\x83&>H?'
p1433
tp1434
Rp1435
sS'elementseuclide00haligoog_0058'
p1436
g2
(g6
S'\xa9\x82-\xee\xc9DF?'
p1437
tp1438
Rp1439
sS'elementseuclide00haligoog_0050'
p1440
g2
(g6
S'\x14\xfd\xde\xee9\x86G?'
p1441
tp1442
Rp1443
sS'elementseuclide00haligoog_0051'
p1444
g2
(g6
S'\xb5Z\xa3\xa3\x96\xa2G?'
p1445
tp1446
Rp1447
sS'elementseuclide00haligoog_0346'
p1448
g2
(g6
S':\xd9\\\xbf\x05\x06N?'
p1449
tp1450
Rp1451
sS'elementseuclide00haligoog_0228'
p1452
g2
(g6
S'\x8f\xb7\x0b\xfe\xb0IC?'
p1453
tp1454
Rp1455
s.