(lp0
I15
aI14
aI12
aI1
aI1
aI1
aI2
aI1
aI7
aI11
aI2
aI3
aI20
aI21
aI15
aI24
aI21
aI11
aI19
aI22
aI19
aI19
aI22
aI11
aI25
aI19
aI17
aI15
aI13
aI15
aI18
aI13
aI21
aI23
aI31
aI27
aI17
aI18
aI40
aI15
aI23
aI34
aI37
aI16
aI20
aI27
aI13
aI16
aI28
aI1
aI9
aI11
aI2
aI3
a.