(dp0
S'heiberg-diag-0720'
p1
(lp2
S'heiberg_1888_v5_1_0954.jpg'
p3
aI2602
aI4006
aI1584
aI1932
aI876
aI216
asS'heiberg-diag-0668'
p4
(lp5
S'heiberg_1888_v5_1_0924.jpg'
p6
aI2602
aI4006
aI654
aI354
aI1398
aI738
asS'heiberg-diag-0669'
p7
(lp8
S'heiberg_1888_v5_1_0929.jpg'
p9
aI2602
aI4006
aI300
aI1098
aI1104
aI534
asS'heiberg-diag-0558'
p10
(lp11
S'heiberg_1888_v5_1_0159.jpg'
p12
aI2592
aI4000
aI180
aI2406
aI948
aI834
asS'heiberg-diag-0559'
p13
(lp14
S'heiberg_1888_v5_1_0161.jpg'
p15
aI2592
aI4000
aI132
aI1632
aI912
aI912
asS'heiberg-diag-0552'
p16
(lp17
S'heiberg_1888_v5_1_0137.jpg'
p18
aI2592
aI4000
aI168
aI1038
aI924
aI1020
asS'heiberg-diag-0661'
p19
(lp20
S'heiberg_1888_v5_1_0916.jpg'
p21
aI2602
aI4006
aI504
aI618
aI1668
aI1374
asS'heiberg-diag-0550'
p22
(lp23
S'heiberg_1888_v5_1_0133.jpg'
p24
aI2592
aI4000
aI180
aI1554
aI888
aI798
asS'heiberg-diag-0551'
p25
(lp26
S'heiberg_1888_v5_1_0135.jpg'
p27
aI2592
aI4000
aI162
aI612
aI828
aI798
asS'heiberg-diag-0664'
p28
(lp29
S'heiberg_1888_v5_1_0919.jpg'
p30
aI2602
aI4006
aI468
aI1206
aI1500
aI1146
asS'heiberg-diag-0665'
p31
(lp32
S'heiberg_1888_v5_1_0920.jpg'
p33
aI2602
aI4006
aI702
aI1194
aI1374
aI1488
asS'heiberg-diag-0666'
p34
(lp35
S'heiberg_1888_v5_1_0921.jpg'
p36
aI2602
aI4006
aI606
aI894
aI1278
aI1122
asS'heiberg-diag-0667'
p37
(lp38
S'heiberg_1888_v5_1_0922.jpg'
p39
aI2602
aI4006
aI1302
aI576
aI1104
aI384
asS'heiberg-diag-0695'
p40
(lp41
S'heiberg_1888_v5_1_0937.jpg'
p42
aI2602
aI4006
aI1638
aI1506
aI180
aI156
asS'heiberg-diag-0694'
p43
(lp44
S'heiberg_1888_v5_1_0937.jpg'
p45
aI2602
aI4006
aI1326
aI1068
aI402
aI198
asS'heiberg-diag-0697'
p46
(lp47
S'heiberg_1888_v5_1_0937.jpg'
p48
aI2602
aI4006
aI300
aI1962
aI162
aI156
asS'heiberg-diag-0696'
p49
(lp50
S'heiberg_1888_v5_1_0937.jpg'
p51
aI2602
aI4006
aI1914
aI1494
aI372
aI192
asS'heiberg-diag-0691'
p52
(lp53
S'heiberg_1888_v5_1_0937.jpg'
p54
aI2602
aI4006
aI768
aI1212
aI192
aI126
asS'heiberg-diag-0690'
p55
(lp56
S'heiberg_1888_v5_1_0937.jpg'
p57
aI2602
aI4006
aI522
aI1206
aI150
aI138
asS'heiberg-diag-0693'
p58
(lp59
S'heiberg_1888_v5_1_0937.jpg'
p60
aI2602
aI4006
aI1146
aI1500
aI204
aI114
asS'heiberg-diag-0692'
p61
(lp62
S'heiberg_1888_v5_1_0937.jpg'
p63
aI2602
aI4006
aI894
aI1482
aI246
aI144
asS'heiberg-diag-0699'
p64
(lp65
S'heiberg_1888_v5_1_0937.jpg'
p66
aI2602
aI4006
aI996
aI1968
aI162
aI240
asS'heiberg-diag-0698'
p67
(lp68
S'heiberg_1888_v5_1_0937.jpg'
p69
aI2602
aI4006
aI666
aI1980
aI138
aI150
asS'heiberg-diag-0602'
p70
(lp71
S'heiberg_1888_v5_1_0659.jpg'
p72
aI2602
aI4000
aI366
aI2178
aI576
aI192
asS'heiberg-diag-0619'
p73
(lp74
S'heiberg_1888_v5_1_0724.jpg'
p75
aI2600
aI4018
aI1422
aI582
aI984
aI636
asS'heiberg-diag-0618'
p76
(lp77
S'heiberg_1888_v5_1_0719.jpg'
p78
aI2600
aI4018
aI204
aI1686
aI1818
aI498
asS'heiberg-diag-0569'
p79
(lp80
S'heiberg_1888_v5_1_0292.jpg'
p81
aI2620
aI4008
aI1608
aI690
aI798
aI564
asS'heiberg-diag-0568'
p82
(lp83
S'heiberg_1888_v5_1_0283.jpg'
p84
aI2620
aI4008
aI162
aI1572
aI1218
aI618
asS'heiberg-diag-0567'
p85
(lp86
S'heiberg_1888_v5_1_0277.jpg'
p87
aI2620
aI4008
aI210
aI1224
aI660
aI894
asS'heiberg-diag-0614'
p88
(lp89
S'heiberg_1888_v5_1_0686.jpg'
p90
aI2600
aI4018
aI270
aI654
aI480
aI546
asS'heiberg-diag-0617'
p91
(lp92
S'heiberg_1888_v5_1_0712.jpg'
p93
aI2600
aI4018
aI1428
aI576
aI1002
aI636
asS'heiberg-diag-0564'
p94
(lp95
S'heiberg_1888_v5_1_0179.jpg'
p96
aI2592
aI4000
aI132
aI1320
aI1176
aI1116
asS'heiberg-diag-0611'
p97
(lp98
S'heiberg_1888_v5_1_0672.jpg'
p99
aI2602
aI4000
aI1698
aI2142
aI516
aI210
asS'heiberg-diag-0610'
p100
(lp101
S'heiberg_1888_v5_1_0672.jpg'
p102
aI2602
aI4000
aI1092
aI2142
aI516
aI210
asS'heiberg-diag-0613'
p103
(lp104
S'heiberg_1888_v5_1_0677.jpg'
p105
aI2602
aI4000
aI114
aI774
aI498
aI522
asS'heiberg-diag-0560'
p106
(lp107
S'heiberg_1888_v5_1_0163.jpg'
p108
aI2592
aI4000
aI138
aI1002
aI918
aI1890
asS'heiberg-diag-0570'
p109
(lp110
S'heiberg_1888_v5_1_0304.jpg'
p111
aI2620
aI4008
aI1926
aI918
aI498
aI486
asS'heiberg-diag-0571'
p112
(lp113
S'heiberg_1888_v5_1_0314.jpg'
p114
aI2620
aI4008
aI1650
aI2412
aI744
aI546
asS'heiberg-diag-0572'
p115
(lp116
S'heiberg_1888_v5_1_0315.jpg'
p117
aI2620
aI4008
aI480
aI582
aI1620
aI582
asS'heiberg-diag-0573'
p118
(lp119
S'heiberg_1888_v5_1_0321.jpg'
p120
aI2620
aI4008
aI186
aI828
aI1116
aI576
asS'heiberg-diag-0574'
p121
(lp122
S'heiberg_1888_v5_1_0335.jpg'
p123
aI2620
aI4008
aI246
aI1158
aI852
aI858
asS'heiberg-diag-0575'
p124
(lp125
S'heiberg_1888_v5_1_0341.jpg'
p126
aI2620
aI4008
aI234
aI2088
aI864
aI942
asS'heiberg-diag-0576'
p127
(lp128
S'heiberg_1888_v5_1_0346.jpg'
p129
aI2620
aI4008
aI1830
aI1308
aI600
aI342
asS'heiberg-diag-0577'
p130
(lp131
S'heiberg_1888_v5_1_0351.jpg'
p132
aI2620
aI4008
aI228
aI2220
aI810
aI300
asS'heiberg-diag-0578'
p133
(lp134
S'heiberg_1888_v5_1_0385.jpg'
p135
aI2630
aI4014
aI150
aI1242
aI774
aI516
asS'heiberg-diag-0579'
p136
(lp137
S'heiberg_1888_v5_1_0388.jpg'
p138
aI2630
aI4014
aI1776
aI312
aI732
aI534
asS'heiberg-diag-0686'
p139
(lp140
S'heiberg_1888_v5_1_0936.jpg'
p141
aI2602
aI4006
aI1794
aI1278
aI558
aI534
asS'heiberg-diag-0687'
p142
(lp143
S'heiberg_1888_v5_1_0936.jpg'
p144
aI2602
aI4006
aI1074
aI1800
aI1374
aI546
asS'heiberg-diag-0684'
p145
(lp146
S'heiberg_1888_v5_1_0936.jpg'
p147
aI2602
aI4006
aI420
aI1290
aI648
aI480
asS'heiberg-diag-0685'
p148
(lp149
S'heiberg_1888_v5_1_0936.jpg'
p150
aI2602
aI4006
aI1104
aI1278
aI654
aI498
asS'heiberg-diag-0682'
p151
(lp152
S'heiberg_1888_v5_1_0935.jpg'
p153
aI2602
aI4006
aI150
aI990
aI624
aI630
asS'heiberg-diag-0683'
p154
(lp155
S'heiberg_1888_v5_1_0936.jpg'
p156
aI2602
aI4006
aI1410
aI336
aI1020
aI690
asS'heiberg-diag-0680'
p157
(lp158
S'heiberg_1888_v5_1_0932.jpg'
p159
aI2602
aI4006
aI1740
aI714
aI630
aI750
asS'heiberg-diag-0681'
p160
(lp161
S'heiberg_1888_v5_1_0932.jpg'
p162
aI2602
aI4006
aI1764
aI2358
aI594
aI708
asS'heiberg-diag-0688'
p163
(lp164
S'heiberg_1888_v5_1_0936.jpg'
p165
aI2602
aI4006
aI1182
aI2562
aI1248
aI552
asS'heiberg-diag-0689'
p166
(lp167
S'heiberg_1888_v5_1_0937.jpg'
p168
aI2602
aI4006
aI222
aI1194
aI246
aI174
asS'heiberg-diag-0718'
p169
(lp170
S'heiberg_1888_v5_1_0952.jpg'
p171
aI2602
aI4006
aI1728
aI1728
aI588
aI186
asS'heiberg-diag-0650'
p172
(lp173
S'heiberg_1888_v5_1_0863.jpg'
p174
aI2602
aI4006
aI594
aI816
aI1368
aI264
asS'heiberg-diag-0563'
p175
(lp176
S'heiberg_1888_v5_1_0175.jpg'
p177
aI2592
aI4000
aI162
aI1896
aI864
aI834
asS'heiberg-diag-0608'
p178
(lp179
S'heiberg_1888_v5_1_0671.jpg'
p180
aI2602
aI3998
aI138
aI1944
aI1110
aI636
asS'heiberg-diag-0609'
p181
(lp182
S'heiberg_1888_v5_1_0672.jpg'
p183
aI2602
aI4000
aI498
aI2154
aI516
aI210
asS'heiberg-diag-0606'
p184
(lp185
S'heiberg_1888_v5_1_0668.jpg'
p186
aI2602
aI4000
aI1362
aI558
aI1008
aI426
asS'heiberg-diag-0607'
p187
(lp188
S'heiberg_1888_v5_1_0670.jpg'
p189
aI2602
aI4000
aI1296
aI780
aI1068
aI624
asS'heiberg-diag-0604'
p190
(lp191
S'heiberg_1888_v5_1_0659.jpg'
p192
aI2602
aI4000
aI1560
aI2148
aI576
aI192
asS'heiberg-diag-0605'
p193
(lp194
S'heiberg_1888_v5_1_0667.jpg'
p195
aI2602
aI4000
aI126
aI780
aI498
aI552
asS'heiberg-diag-0679'
p196
(lp197
S'heiberg_1888_v5_1_0931.jpg'
p198
aI2602
aI4006
aI186
aI2274
aI612
aI726
asS'heiberg-diag-0603'
p199
(lp200
S'heiberg_1888_v5_1_0659.jpg'
p201
aI2602
aI4000
aI966
aI2178
aI576
aI192
asS'heiberg-diag-0600'
p202
(lp203
S'heiberg_1888_v5_1_0658.jpg'
p204
aI2602
aI4000
aI1266
aI762
aI1068
aI654
asS'heiberg-diag-0601'
p205
(lp206
S'heiberg_1888_v5_1_0659.jpg'
p207
aI2602
aI4000
aI60
aI1122
aI1038
aI708
asS'heiberg-diag-0633'
p208
(lp209
S'heiberg_1888_v5_1_0813.jpg'
p210
aI2588
aI4012
aI126
aI780
aI2070
aI546
asS'heiberg-diag-0632'
p211
(lp212
S'heiberg_1888_v5_1_0807.jpg'
p213
aI2588
aI4012
aI132
aI708
aI990
aI882
asS'heiberg-diag-0631'
p214
(lp215
S'heiberg_1888_v5_1_0805.jpg'
p216
aI2588
aI4012
aI96
aI906
aI1104
aI612
asS'heiberg-diag-0630'
p217
(lp218
S'heiberg_1888_v5_1_0797.jpg'
p219
aI2560
aI3998
aI132
aI708
aI978
aI858
asS'heiberg-diag-0637'
p220
(lp221
S'heiberg_1888_v5_1_0817.jpg'
p222
aI2588
aI4012
aI96
aI1428
aI2112
aI570
asS'heiberg-diag-0636'
p223
(lp224
S'heiberg_1888_v5_1_0815.jpg'
p225
aI2588
aI4012
aI120
aI948
aI792
aI708
asS'heiberg-diag-0635'
p226
(lp227
S'heiberg_1888_v5_1_0814.jpg'
p228
aI2588
aI4012
aI1662
aI990
aI702
aI696
asS'heiberg-diag-0634'
p229
(lp230
S'heiberg_1888_v5_1_0813.jpg'
p231
aI2588
aI4012
aI144
aI2436
aI714
aI588
asS'heiberg-diag-0639'
p232
(lp233
S'heiberg_1888_v5_1_0825.jpg'
p234
aI2588
aI4012
aI102
aI1968
aI780
aI720
asS'heiberg-diag-0638'
p235
(lp236
S'heiberg_1888_v5_1_0822.jpg'
p237
aI2588
aI4012
aI492
aI2070
aI1740
aI822
asS'heiberg-diag-0562'
p238
(lp239
S'heiberg_1888_v5_1_0173.jpg'
p240
aI2592
aI4000
aI210
aI1002
aI954
aI846
asS'heiberg-diag-0659'
p241
(lp242
S'heiberg_1888_v5_1_0898.jpg'
p243
aI2602
aI4006
aI1710
aI2274
aI708
aI720
asS'heiberg-diag-0566'
p244
(lp245
S'heiberg_1888_v5_1_0183.jpg'
p246
aI2592
aI4000
aI330
aI1446
aI1770
aI804
asS'heiberg-diag-0565'
p247
(lp248
S'heiberg_1888_v5_1_0181.jpg'
p249
aI2592
aI4000
aI102
aI1338
aI1032
aI1344
asS'heiberg-diag-0616'
p250
(lp251
S'heiberg_1888_v5_1_0695.jpg'
p252
aI2600
aI4018
aI522
aI1410
aI1206
aI1176
asS'heiberg-diag-0589'
p253
(lp254
S'heiberg_1888_v5_1_0463.jpg'
p255
aI2630
aI4008
aI1326
aI558
aI810
aI300
asS'heiberg-diag-0588'
p256
(lp257
S'heiberg_1888_v5_1_0463.jpg'
p258
aI2630
aI4008
aI456
aI558
aI798
aI336
asS'heiberg-diag-0585'
p259
(lp260
S'heiberg_1888_v5_1_0421.jpg'
p261
aI2630
aI4014
aI228
aI1140
aI936
aI1296
asS'heiberg-diag-0584'
p262
(lp263
S'heiberg_1888_v5_1_0412.jpg'
p264
aI2630
aI4014
aI558
aI576
aI1602
aI846
asS'heiberg-diag-0587'
p265
(lp266
S'heiberg_1888_v5_1_0462.jpg'
p267
aI2630
aI4008
aI1188
aI2178
aI972
aI354
asS'heiberg-diag-0586'
p268
(lp269
S'heiberg_1888_v5_1_0462.jpg'
p270
aI2630
aI4008
aI624
aI2178
aI486
aI312
asS'heiberg-diag-0581'
p271
(lp272
S'heiberg_1888_v5_1_0398.jpg'
p273
aI2630
aI4014
aI1446
aI1938
aI954
aI822
asS'heiberg-diag-0580'
p274
(lp275
S'heiberg_1888_v5_1_0393.jpg'
p276
aI2630
aI4014
aI264
aI1914
aI936
aI786
asS'heiberg-diag-0583'
p277
(lp278
S'heiberg_1888_v5_1_0411.jpg'
p279
aI2630
aI4014
aI174
aI1152
aI1002
aI1332
asS'heiberg-diag-0582'
p280
(lp281
S'heiberg_1888_v5_1_0400.jpg'
p282
aI2630
aI4014
aI1212
aI570
aI1200
aI840
asS'heiberg-diag-0561'
p283
(lp284
S'heiberg_1888_v5_1_0165.jpg'
p285
aI2592
aI4000
aI144
aI1752
aI1062
aI1032
asS'heiberg-diag-0612'
p286
(lp287
S'heiberg_1888_v5_1_0673.jpg'
p288
aI2602
aI4000
aI54
aI1950
aI1074
aI636
asS'heiberg-diag-0624'
p289
(lp290
S'heiberg_1888_v5_1_0768.jpg'
p291
aI2588
aI4012
aI1548
aI1842
aI888
aI750
asS'heiberg-diag-0625'
p292
(lp293
S'heiberg_1888_v5_1_0779.jpg'
p294
aI2588
aI4012
aI162
aI1194
aI648
aI420
asS'heiberg-diag-0626'
p295
(lp296
S'heiberg_1888_v5_1_0780.jpg'
p297
aI2588
aI4012
aI1320
aI954
aI1020
aI414
asS'heiberg-diag-0627'
p298
(lp299
S'heiberg_1888_v5_1_0780.jpg'
p300
aI2588
aI4012
aI1686
aI2550
aI660
aI414
asS'heiberg-diag-0620'
p301
(lp302
S'heiberg_1888_v5_1_0739.jpg'
p303
aI2592
aI4012
aI156
aI870
aI684
aI642
asS'heiberg-diag-0621'
p304
(lp305
S'heiberg_1888_v5_1_0741.jpg'
p306
aI2592
aI4012
aI162
aI858
aI666
aI642
asS'heiberg-diag-0622'
p307
(lp308
S'heiberg_1888_v5_1_0742.jpg'
p309
aI2600
aI4018
aI1650
aI558
aI804
aI186
asS'heiberg-diag-0623'
p310
(lp311
S'heiberg_1888_v5_1_0749.jpg'
p312
aI2600
aI4018
aI384
aI2394
aI1530
aI192
asS'heiberg-diag-0628'
p313
(lp314
S'heiberg_1888_v5_1_0783.jpg'
p315
aI2588
aI4012
aI108
aI1614
aI930
aI330
asS'heiberg-diag-0629'
p316
(lp317
S'heiberg_1888_v5_1_0795.jpg'
p318
aI2588
aI4012
aI96
aI912
aI1122
aI618
asS'heiberg-diag-0598'
p319
(lp320
S'heiberg_1888_v5_1_0655.jpg'
p321
aI2602
aI4000
aI138
aI798
aI486
aI510
asS'heiberg-diag-0599'
p322
(lp323
S'heiberg_1888_v5_1_0656.jpg'
p324
aI2602
aI4000
aI1362
aI558
aI996
aI414
asS'heiberg-diag-0596'
p325
(lp326
S'heiberg_1888_v5_1_0633.jpg'
p327
aI2602
aI4000
aI198
aI1710
aI762
aI618
asS'heiberg-diag-0597'
p328
(lp329
S'heiberg_1888_v5_1_0643.jpg'
p330
aI2602
aI4000
aI156
aI1704
aI768
aI612
asS'heiberg-diag-0594'
p331
(lp332
S'heiberg_1888_v5_1_0500.jpg'
p333
aI2630
aI4008
aI486
aI1554
aI1662
aI690
asS'heiberg-diag-0595'
p334
(lp335
S'heiberg_1888_v5_1_0579.jpg'
p336
aI2602
aI4000
aI198
aI504
aI834
aI750
asS'heiberg-diag-0592'
p337
(lp338
S'heiberg_1888_v5_1_0474.jpg'
p339
aI2630
aI4008
aI1458
aI1326
aI876
aI714
asS'heiberg-diag-0593'
p340
(lp341
S'heiberg_1888_v5_1_0482.jpg'
p342
aI2630
aI4008
aI516
aI1542
aI1662
aI696
asS'heiberg-diag-0590'
p343
(lp344
S'heiberg_1888_v5_1_0472.jpg'
p345
aI2630
aI4008
aI1428
aI738
aI966
aI216
asS'heiberg-diag-0591'
p346
(lp347
S'heiberg_1888_v5_1_0474.jpg'
p348
aI2630
aI4008
aI522
aI1326
aI876
aI690
asS'heiberg-diag-0707'
p349
(lp350
S'heiberg_1888_v5_1_0937.jpg'
p351
aI2602
aI4006
aI1182
aI3000
aI150
aI198
asS'heiberg-diag-0706'
p352
(lp353
S'heiberg_1888_v5_1_0937.jpg'
p354
aI2602
aI4006
aI762
aI3006
aI186
aI132
asS'heiberg-diag-0705'
p355
(lp356
S'heiberg_1888_v5_1_0937.jpg'
p357
aI2602
aI4006
aI312
aI3012
aI138
aI126
asS'heiberg-diag-0704'
p358
(lp359
S'heiberg_1888_v5_1_0937.jpg'
p360
aI2602
aI4006
aI504
aI2778
aI126
aI132
asS'heiberg-diag-0703'
p361
(lp362
S'heiberg_1888_v5_1_0937.jpg'
p363
aI2602
aI4006
aI834
aI2544
aI150
aI126
asS'heiberg-diag-0702'
p364
(lp365
S'heiberg_1888_v5_1_0937.jpg'
p366
aI2602
aI4006
aI2034
aI1986
aI120
aI144
asS'heiberg-diag-0701'
p367
(lp368
S'heiberg_1888_v5_1_0937.jpg'
p369
aI2602
aI4006
aI1746
aI1986
aI162
aI156
asS'heiberg-diag-0700'
p370
(lp371
S'heiberg_1888_v5_1_0937.jpg'
p372
aI2602
aI4006
aI1380
aI1950
aI252
aI192
asS'heiberg-diag-0709'
p373
(lp374
S'heiberg_1888_v5_1_0941.jpg'
p375
aI2602
aI4006
aI192
aI606
aI1116
aI786
asS'heiberg-diag-0708'
p376
(lp377
S'heiberg_1888_v5_1_0937.jpg'
p378
aI2602
aI4006
aI1500
aI3006
aI186
aI132
asS'heiberg-diag-0660'
p379
(lp380
S'heiberg_1888_v5_1_0910.jpg'
p381
aI2602
aI4006
aI1608
aI738
aI810
aI720
asS'heiberg-diag-0553'
p382
(lp383
S'heiberg_1888_v5_1_0139.jpg'
p384
aI2592
aI4000
aI162
aI936
aI990
aI1032
asS'heiberg-diag-0554'
p385
(lp386
S'heiberg_1888_v5_1_0141.jpg'
p387
aI2592
aI4000
aI216
aI1776
aI978
aI1050
asS'heiberg-diag-0662'
p388
(lp389
S'heiberg_1888_v5_1_0917.jpg'
p390
aI2602
aI4006
aI168
aI552
aI762
aI744
asS'heiberg-diag-0663'
p391
(lp392
S'heiberg_1888_v5_1_0917.jpg'
p393
aI2602
aI4006
aI162
aI2166
aI954
aI924
asS'heiberg-diag-0556'
p394
(lp395
S'heiberg_1888_v5_1_0151.jpg'
p396
aI2592
aI4000
aI210
aI2052
aI864
aI324
asS'heiberg-diag-0557'
p397
(lp398
S'heiberg_1888_v5_1_0159.jpg'
p399
aI2592
aI4000
aI144
aI1386
aI774
aI750
asS'heiberg-diag-0651'
p400
(lp401
S'heiberg_1888_v5_1_0866.jpg'
p402
aI2602
aI4006
aI1554
aI792
aI822
aI792
asS'heiberg-diag-0719'
p403
(lp404
S'heiberg_1888_v5_1_0953.jpg'
p405
aI2602
aI4006
aI204
aI2058
aI1122
aI210
asS'heiberg-diag-0653'
p406
(lp407
S'heiberg_1888_v5_1_0880.jpg'
p408
aI2602
aI4006
aI1494
aI1344
aI882
aI912
asS'heiberg-diag-0652'
p409
(lp410
S'heiberg_1888_v5_1_0867.jpg'
p411
aI2602
aI4006
aI210
aI1896
aI792
aI792
asS'heiberg-diag-0655'
p412
(lp413
S'heiberg_1888_v5_1_0882.jpg'
p414
aI2602
aI4006
aI1410
aI1518
aI990
aI516
asS'heiberg-diag-0654'
p415
(lp416
S'heiberg_1888_v5_1_0881.jpg'
p417
aI2602
aI4006
aI198
aI1842
aI1176
aI522
asS'heiberg-diag-0657'
p418
(lp419
S'heiberg_1888_v5_1_0884.jpg'
p420
aI2602
aI4006
aI1410
aI948
aI804
aI462
asS'heiberg-diag-0656'
p421
(lp422
S'heiberg_1888_v5_1_0884.jpg'
p423
aI2602
aI4006
aI522
aI780
aI762
aI618
asS'heiberg-diag-0710'
p424
(lp425
S'heiberg_1888_v5_1_0942.jpg'
p426
aI2602
aI4006
aI1560
aI930
aI816
aI444
asS'heiberg-diag-0711'
p427
(lp428
S'heiberg_1888_v5_1_0944.jpg'
p429
aI2602
aI4006
aI1416
aI876
aI948
aI288
asS'heiberg-diag-0712'
p430
(lp431
S'heiberg_1888_v5_1_0944.jpg'
p432
aI2602
aI4006
aI1134
aI1428
aI1224
aI300
asS'heiberg-diag-0713'
p433
(lp434
S'heiberg_1888_v5_1_0945.jpg'
p435
aI2602
aI4006
aI210
aI2226
aI1212
aI480
asS'heiberg-diag-0714'
p436
(lp437
S'heiberg_1888_v5_1_0947.jpg'
p438
aI2602
aI4006
aI222
aI930
aI1206
aI474
asS'heiberg-diag-0715'
p439
(lp440
S'heiberg_1888_v5_1_0948.jpg'
p441
aI2602
aI4006
aI1356
aI612
aI996
aI468
asS'heiberg-diag-0716'
p442
(lp443
S'heiberg_1888_v5_1_0949.jpg'
p444
aI2602
aI4006
aI222
aI1458
aI1188
aI612
asS'heiberg-diag-0717'
p445
(lp446
S'heiberg_1888_v5_1_0951.jpg'
p447
aI2602
aI4006
aI210
aI720
aI1242
aI606
asS'heiberg-diag-0677'
p448
(lp449
S'heiberg_1888_v5_1_0930.jpg'
p450
aI723
aI1079
aI104
aI654
aI264
aI142
asS'heiberg-diag-0548'
p451
(lp452
S'heiberg_1888_v5_1_0127.jpg'
p453
aI2592
aI4000
aI150
aI1962
aI876
aI960
asS'heiberg-diag-0658'
p454
(lp455
S'heiberg_1888_v5_1_0890.jpg'
p456
aI2602
aI4006
aI1524
aI2676
aI894
aI186
asS'heiberg-diag-0642'
p457
(lp458
S'heiberg_1888_v5_1_0834.jpg'
p459
aI2588
aI4012
aI240
aI2028
aI1770
aI852
asS'heiberg-diag-0643'
p460
(lp461
S'heiberg_1888_v5_1_0837.jpg'
p462
aI2588
aI4012
aI102
aI1956
aI768
aI714
asS'heiberg-diag-0640'
p463
(lp464
S'heiberg_1888_v5_1_0826.jpg'
p465
aI2588
aI4012
aI1698
aI1740
aI732
aI306
asS'heiberg-diag-0641'
p466
(lp467
S'heiberg_1888_v5_1_0827.jpg'
p468
aI2588
aI4012
aI108
aI1104
aI930
aI924
asS'heiberg-diag-0646'
p469
(lp470
S'heiberg_1888_v5_1_0848.jpg'
p471
aI2588
aI4012
aI1542
aI984
aI858
aI210
asS'heiberg-diag-0647'
p472
(lp473
S'heiberg_1888_v5_1_0850.jpg'
p474
aI2588
aI4012
aI1464
aI546
aI924
aI216
asS'heiberg-diag-0644'
p475
(lp476
S'heiberg_1888_v5_1_0838.jpg'
p477
aI2588
aI4012
aI1650
aI1692
aI786
aI342
asS'heiberg-diag-0645'
p478
(lp479
S'heiberg_1888_v5_1_0839.jpg'
p480
aI2588
aI4012
aI102
aI1116
aI924
aI912
asS'heiberg-diag-0648'
p481
(lp482
S'heiberg_1888_v5_1_0858.jpg'
p483
aI2602
aI4006
aI1938
aI1050
aI492
aI858
asS'heiberg-diag-0649'
p484
(lp485
S'heiberg_1888_v5_1_0862.jpg'
p486
aI2602
aI4006
aI1404
aI636
aI1020
aI636
asS'heiberg-diag-0615'
p487
(lp488
S'heiberg_1888_v5_1_0686.jpg'
p489
aI2600
aI4018
aI1716
aI666
aI690
aI1056
asS'heiberg-diag-0555'
p490
(lp491
S'heiberg_1888_v5_1_0145.jpg'
p492
aI2592
aI4000
aI234
aI366
aI1080
aI1494
asS'heiberg-diag-0549'
p493
(lp494
S'heiberg_1888_v5_1_0129.jpg'
p495
aI2592
aI4000
aI222
aI1326
aI1998
aI1182
asS'heiberg-diag-0676'
p496
(lp497
S'heiberg_1888_v5_1_0930.jpg'
p498
aI723
aI1079
aI112
aI530
aI264
aI122
asS'heiberg-diag-0675'
p499
(lp500
S'heiberg_1888_v5_1_0930.jpg'
p501
aI723
aI1079
aI372
aI412
aI252
aI136
asS'heiberg-diag-0674'
p502
(lp503
S'heiberg_1888_v5_1_0930.jpg'
p504
aI723
aI1079
aI146
aI412
aI198
aI112
asS'heiberg-diag-0673'
p505
(lp506
S'heiberg_1888_v5_1_0930.jpg'
p507
aI723
aI1079
aI396
aI194
aI138
aI126
asS'heiberg-diag-0672'
p508
(lp509
S'heiberg_1888_v5_1_0930.jpg'
p510
aI723
aI1079
aI208
aI196
aI138
aI126
asS'heiberg-diag-0671'
p511
(lp512
S'heiberg_1888_v5_1_0929.jpg'
p513
aI2602
aI4006
aI192
aI1998
aI780
aI564
asS'heiberg-diag-0670'
p514
(lp515
S'heiberg_1888_v5_1_0929.jpg'
p516
aI2602
aI4006
aI1440
aI1104
aI720
aI498
asS'heiberg-diag-0547'
p517
(lp518
S'heiberg_1888_v5_1_0123.jpg'
p519
aI2592
aI4000
aI222
aI1620
aI972
aI1062
asS'heiberg-diag-0678'
p520
(lp521
S'heiberg_1888_v5_1_0930.jpg'
p522
aI723
aI1079
aI370
aI602
aI254
aI142
as.