(lp0
I11
aI13
aI23
aI13
aI20
aI19
aI27
aI25
aI24
aI23
aI17
aI19
aI18
aI33
aI27
aI42
aI26
aI21
aI9
aI26
aI19
aI19
aI1
aI2
aI17
aI23
aI11
aI12
aI14
aI23
aI37
aI21
aI26
aI26
aI19
aI35
aI15
aI17
aI31
aI13
aI19
aI19
aI13
a.