(dp0
S'elementseuclidw00willgoog_0287'
p1
cnumpy.core.multiarray
scalar
p2
(cnumpy
dtype
p3
(S'f8'
p4
I0
I1
tp5
Rp6
(I3
S'<'
p7
NNNI-1
I-1
I0
tp8
bS'\xd7s!\xfb\x96\xa4,?'
p9
tp10
Rp11
sS'elementseuclidw00willgoog_0313'
p12
g2
(g6
S'R7\xa6\xbb\xa9\xbb6?'
p13
tp14
Rp15
sS'elementseuclidw00willgoog_0213'
p16
g2
(g6
S'E\xb3O5&\x1d&?'
p17
tp18
Rp19
sS'elementseuclidw00willgoog_0267'
p20
g2
(g6
S'\xcc\x17\x92\x87<\x8b;?'
p21
tp22
Rp23
sS'elementseuclidw00willgoog_0210'
p24
g2
(g6
S'\xf0\x11\xcc_\x97S5?'
p25
tp26
Rp27
sS'elementseuclidw00willgoog_0247'
p28
g2
(g6
S'm\xe1\xa5\xeea]1?'
p29
tp30
Rp31
sS'elementseuclidw00willgoog_0211'
p32
g2
(g6
S'\x98|\xa4\xa4\x93\xd87?'
p33
tp34
Rp35
sS'elementseuclidw00willgoog_0245'
p36
g2
(g6
S'\xd5\xd0`\x8e\x16\x138?'
p37
tp38
Rp39
sS'elementseuclidw00willgoog_0296'
p40
g2
(g6
S"E \xe6R#t'?"
p41
tp42
Rp43
sS'elementseuclidw00willgoog_0229'
p44
g2
(g6
S'\x84\xa4P\xa4\x98\xa78?'
p45
tp46
Rp47
sS'elementseuclidw00willgoog_0286'
p48
g2
(g6
S'[E\xbd\x1b\x04\x109?'
p49
tp50
Rp51
sS'elementseuclidw00willgoog_0306'
p52
g2
(g6
S'\x98m\x19\xd1"\xa8/?'
p53
tp54
Rp55
sS'elementseuclidw00willgoog_0266'
p56
g2
(g6
S'O\x15\xfd]\x05\xef-?'
p57
tp58
Rp59
sS'elementseuclidw00willgoog_0164'
p60
g2
(g6
S'\x12\x82^\xcaY\xe00?'
p61
tp62
Rp63
sS'elementseuclidw00willgoog_0165'
p64
g2
(g6
S'~\xb9\xb7\xe3\x8de1?'
p65
tp66
Rp67
sS'elementseuclidw00willgoog_0166'
p68
g2
(g6
S'\x83\xbe\xfd\xc6\x0f+7?'
p69
tp70
Rp71
sS'elementseuclidw00willgoog_0167'
p72
g2
(g6
S'p-nf\xec4-?'
p73
tp74
Rp75
sS'elementseuclidw00willgoog_0160'
p76
g2
(g6
S'%\x073H_F3?'
p77
tp78
Rp79
sS'elementseuclidw00willgoog_0161'
p80
g2
(g6
S'}\x10p\xbc{\x10/?'
p81
tp82
Rp83
sS'elementseuclidw00willgoog_0009'
p84
g2
(g6
S'\x00\xfaq\x9d#<7?'
p85
tp86
Rp87
sS'elementseuclidw00willgoog_0008'
p88
g2
(g6
S'\x9b\xf2\xa1C\t\x91F?'
p89
tp90
Rp91
sS'elementseuclidw00willgoog_0274'
p92
g2
(g6
S'\x91\x0bl\xe6t\xd8.?'
p93
tp94
Rp95
sS'elementseuclidw00willgoog_0275'
p96
g2
(g6
S'\xfde\xfc\xa1\xff\xd2<?'
p97
tp98
Rp99
sS'elementseuclidw00willgoog_0276'
p100
g2
(g6
S'\xb27\x19\xc1\xe3H4?'
p101
tp102
Rp103
sS'elementseuclidw00willgoog_0244'
p104
g2
(g6
S'\xaa\xaf\xcc\xca\xd5E3?'
p105
tp106
Rp107
sS'elementseuclidw00willgoog_0168'
p108
g2
(g6
S'\xf0\xf4n\x7fl\xaf4?'
p109
tp110
Rp111
sS'elementseuclidw00willgoog_0169'
p112
g2
(g6
S'\x9c\x83\x19\x12W\xe17?'
p113
tp114
Rp115
sS'elementseuclidw00willgoog_0272'
p116
g2
(g6
S'\x92\xacI\x8d\x9fE;?'
p117
tp118
Rp119
sS'elementseuclidw00willgoog_0273'
p120
g2
(g6
S'\x88\xfbq\xc0\xc4_4?'
p121
tp122
Rp123
sS'elementseuclidw00willgoog_0227'
p124
g2
(g6
S'|x\xabD?\x00-?'
p125
tp126
Rp127
sS'elementseuclidw00willgoog_0228'
p128
g2
(g6
S'qFg\x96\x8e$+?'
p129
tp130
Rp131
sS'elementseuclidw00willgoog_0230'
p132
g2
(g6
S'\x91\x0bl\xe6t\xd8.?'
p133
tp134
Rp135
sS'elementseuclidw00willgoog_0226'
p136
g2
(g6
S'\xd2\x88\x06\xf2i\x049?'
p137
tp138
Rp139
sS'elementseuclidw00willgoog_0225'
p140
g2
(g6
S'At|\xddv\xef5?'
p141
tp142
Rp143
sS'elementseuclidw00willgoog_0224'
p144
g2
(g6
S'\xd2\xcf\xae\xbf\xe9\xc10?'
p145
tp146
Rp147
sS'elementseuclidw00willgoog_0188'
p148
g2
(g6
S'C)\x94x\x80\xaf.?'
p149
tp150
Rp151
sS'elementseuclidw00willgoog_0189'
p152
g2
(g6
S"y\xc6\xfb^\xf0\xb4'?"
p153
tp154
Rp155
sS'elementseuclidw00willgoog_0186'
p156
g2
(g6
S'}\x10p\xbc{\x10/?'
p157
tp158
Rp159
sS'elementseuclidw00willgoog_0187'
p160
g2
(g6
S'\xb1\xc2\xd7\xb4{\xb0%?'
p161
tp162
Rp163
sS'elementseuclidw00willgoog_0184'
p164
g2
(g6
S'I9\xad\xddH\x04)?'
p165
tp166
Rp167
sS'elementseuclidw00willgoog_0185'
p168
g2
(g6
S'\x11!\xbb\xd0\xfc\xa61?'
p169
tp170
Rp171
sS'elementseuclidw00willgoog_0182'
p172
g2
(g6
S'\x9b\xd4\x02o~\x071?'
p173
tp174
Rp175
sS'elementseuclidw00willgoog_0183'
p176
g2
(g6
S'\xc2\x167\xa1\x9d\xd8,?'
p177
tp178
Rp179
sS'elementseuclidw00willgoog_0180'
p180
g2
(g6
S'\xc2\x167\xa1\x9d\xd8,?'
p181
tp182
Rp183
sS'elementseuclidw00willgoog_0181'
p184
g2
(g6
S'\xa95\x05\x9f\x95\xc02?'
p185
tp186
Rp187
sS'elementseuclidw00willgoog_0277'
p188
g2
(g6
S'0\xd1\xc3\xc4\x98\x9a6?'
p189
tp190
Rp191
sS'elementseuclidw00willgoog_0280'
p192
g2
(g6
S'&a\x80Q\x94\xf49?'
p193
tp194
Rp195
sS'elementseuclidw00willgoog_0221'
p196
g2
(g6
S'\x05\xf4\xcd\x14\x03\xcc2?'
p197
tp198
Rp199
sS'elementseuclidw00willgoog_0308'
p200
g2
(g6
S'`8\xcf^0R2?'
p201
tp202
Rp203
sS'elementseuclidw00willgoog_0220'
p204
g2
(g6
S'\xd7s!\xfb\x96\xa4,?'
p205
tp206
Rp207
sS'elementseuclidw00willgoog_0251'
p208
g2
(g6
S'\xc6\xed\xc5\xea\x8e\xcf5?'
p209
tp210
Rp211
sS'elementseuclidw00willgoog_0254'
p212
g2
(g6
S'\xd7\xf4\x8d\xdcl\x9a7?'
p213
tp214
Rp215
sS'elementseuclidw00willgoog_0309'
p216
g2
(g6
S'\xf7\xeb\xd4+\xfc-0?'
p217
tp218
Rp219
sS'elementseuclidw00willgoog_0173'
p220
g2
(g6
S"-\x88J{'\xa6.?"
p221
tp222
Rp223
sS'elementseuclidw00willgoog_0172'
p224
g2
(g6
S'\x88\xb1\xb9K\xad\xdb0?'
p225
tp226
Rp227
sS'elementseuclidw00willgoog_0078'
p228
g2
(g6
S'z\xfd\t\x89?L6?'
p229
tp230
Rp231
sS'elementseuclidw00willgoog_0079'
p232
g2
(g6
S'\xa0(f\xd1j\xf4-?'
p233
tp234
Rp235
sS'elementseuclidw00willgoog_0177'
p236
g2
(g6
S'D)\x94x\x80\xaf.?'
p237
tp238
Rp239
sS'elementseuclidw00willgoog_0176'
p240
g2
(g6
S'\x1e\x0c\x1a\xf5&\x8c&?'
p241
tp242
Rp243
sS'elementseuclidw00willgoog_0175'
p244
g2
(g6
S'\xc1g \xfe\xc4\xfe%?'
p245
tp246
Rp247
sS'elementseuclidw00willgoog_0174'
p248
g2
(g6
S'\x1c\x04\xbd&\x8c\x823?'
p249
tp250
Rp251
sS'elementseuclidw00willgoog_0072'
p252
g2
(g6
S"z\xbe\x02\x84\xb9{'?"
p253
tp254
Rp255
sS'elementseuclidw00willgoog_0073'
p256
g2
(g6
S'\x0b\x14 \xd3\xd2\xd8/?'
p257
tp258
Rp259
sS'elementseuclidw00willgoog_0070'
p260
g2
(g6
S'uF\xf0\xbf\xe3\xe5,?'
p261
tp262
Rp263
sS'elementseuclidw00willgoog_0071'
p264
g2
(g6
S',\x10\xe2\xaar=)?'
p265
tp266
Rp267
sS'elementseuclidw00willgoog_0076'
p268
g2
(g6
S'\xf8\x02l\x06\xf5\xcc+?'
p269
tp270
Rp271
sS'elementseuclidw00willgoog_0077'
p272
g2
(g6
S'\xb8$.clY<?'
p273
tp274
Rp275
sS'elementseuclidw00willgoog_0074'
p276
g2
(g6
S'\xff-l\x99\xeb.8?'
p277
tp278
Rp279
sS'elementseuclidw00willgoog_0075'
p280
g2
(g6
S')a\xd7\xc79/,?'
p281
tp282
Rp283
sS'elementseuclidw00willgoog_0279'
p284
g2
(g6
S"P\xf8\xf4')\xa04?"
p285
tp286
Rp287
sS'elementseuclidw00willgoog_0285'
p288
g2
(g6
S'\x9a\xe2\xc8\xecM\xb34?'
p289
tp290
Rp291
sS'elementseuclidw00willgoog_0199'
p292
g2
(g6
S'c\xe9\xc8\x16\x00 ,?'
p293
tp294
Rp295
sS'elementseuclidw00willgoog_0198'
p296
g2
(g6
S'~\x91\xe6I\xafs0?'
p297
tp298
Rp299
sS'elementseuclidw00willgoog_0265'
p300
g2
(g6
S'\t\x96]\x8aZ\x8a6?'
p301
tp302
Rp303
sS'elementseuclidw00willgoog_0195'
p304
g2
(g6
S'\xdd\x9e\x81@v\x02/?'
p305
tp306
Rp307
sS'elementseuclidw00willgoog_0194'
p308
g2
(g6
S'z\x01\xfdH\xb0?0?'
p309
tp310
Rp311
sS'elementseuclidw00willgoog_0197'
p312
g2
(g6
S'E\x0c\x96`\xe8L2?'
p313
tp314
Rp315
sS'elementseuclidw00willgoog_0196'
p316
g2
(g6
S'N\xaa\nt\xdbP.?'
p317
tp318
Rp319
sS'elementseuclidw00willgoog_0191'
p320
g2
(g6
S'c\xe9\xc8\x16\x00 ,?'
p321
tp322
Rp323
sS'elementseuclidw00willgoog_0190'
p324
g2
(g6
S'Z+\x81o6\xf2-?'
p325
tp326
Rp327
sS'elementseuclidw00willgoog_0193'
p328
g2
(g6
S'r-nf\xec4-?'
p329
tp330
Rp331
sS'elementseuclidw00willgoog_0192'
p332
g2
(g6
S't\xa8\xcf`\x9b\x8f(?'
p333
tp334
Rp335
sS'elementseuclidw00willgoog_0106'
p336
g2
(g6
S'\xb7:Hu\xe8\x148?'
p337
tp338
Rp339
sS'elementseuclidw00willgoog_0107'
p340
g2
(g6
S'\xabv\xd5\x04\x1c\xd0/?'
p341
tp342
Rp343
sS'elementseuclidw00willgoog_0104'
p344
g2
(g6
S'\x1cR\xed\x8c\xf5\x93.?'
p345
tp346
Rp347
sS'elementseuclidw00willgoog_0105'
p348
g2
(g6
S'\xeaR\xcb"$c3?'
p349
tp350
Rp351
sS'elementseuclidw00willgoog_0102'
p352
g2
(g6
S'\x00|c\x93\x17\x9b9?'
p353
tp354
Rp355
sS'elementseuclidw00willgoog_0103'
p356
g2
(g6
S'\xc5\xf5\xf5aw\\.?'
p357
tp358
Rp359
sS'elementseuclidw00willgoog_0100'
p360
g2
(g6
S'\xe9\xf9\xc6\x1f:\x194?'
p361
tp362
Rp363
sS'elementseuclidw00willgoog_0101'
p364
g2
(g6
S'\x861\xfe\xca\xa5>2?'
p365
tp366
Rp367
sS'elementseuclidw00willgoog_0216'
p368
g2
(g6
S'DP}\xb1\x87\xa0<?'
p369
tp370
Rp371
sS'elementseuclidw00willgoog_0217'
p372
g2
(g6
S'\xd2\x88\x06\xf2i\x049?'
p373
tp374
Rp375
sS'elementseuclidw00willgoog_0214'
p376
g2
(g6
S'Y-\xb0\xf9w58?'
p377
tp378
Rp379
sS'elementseuclidw00willgoog_0215'
p380
g2
(g6
S'K.9$\x95\xb68?'
p381
tp382
Rp383
sS'elementseuclidw00willgoog_0212'
p384
g2
(g6
S'\x12\xe3\xa2\xfb#\xd8;?'
p385
tp386
Rp387
sS'elementseuclidw00willgoog_0171'
p388
g2
(g6
S'\x978^\x8baC9?'
p389
tp390
Rp391
sS'elementseuclidw00willgoog_0108'
p392
g2
(g6
S'Z+\x81o6\xf2-?'
p393
tp394
Rp395
sS'elementseuclidw00willgoog_0109'
p396
g2
(g6
S'\xc2\x167\xa1\x9d\xd8,?'
p397
tp398
Rp399
sS'elementseuclidw00willgoog_0069'
p400
g2
(g6
S'\xf8.\xa0*\xedC3?'
p401
tp402
Rp403
sS'elementseuclidw00willgoog_0068'
p404
g2
(g6
S'\x99\xbd\xc2~\xf4e2?'
p405
tp406
Rp407
sS'elementseuclidw00willgoog_0294'
p408
g2
(g6
S'7\xdb\x1e\x9c\xf1\xde*?'
p409
tp410
Rp411
sS'elementseuclidw00willgoog_0170'
p412
g2
(g6
S'\xb2\x9a\x06\x1b\x9d\xbe4?'
p413
tp414
Rp415
sS'elementseuclidw00willgoog_0292'
p416
g2
(g6
S'\xe3\x94\xbbcr\xb2)?'
p417
tp418
Rp419
sS'elementseuclidw00willgoog_0293'
p420
g2
(g6
S'\x8e Q\xddG8;?'
p421
tp422
Rp423
sS'elementseuclidw00willgoog_0290'
p424
g2
(g6
S'\xb5T\xe7\xd1\x05A4?'
p425
tp426
Rp427
sS'elementseuclidw00willgoog_0291'
p428
g2
(g6
S'Y\xc7Z\xf4\x02\xd94?'
p429
tp430
Rp431
sS'elementseuclidw00willgoog_0061'
p432
g2
(g6
S'Zmh\xa3jg6?'
p433
tp434
Rp435
sS'elementseuclidw00willgoog_0060'
p436
g2
(g6
S'\xee\xa6o\x9a\xd1\xfd/?'
p437
tp438
Rp439
sS'elementseuclidw00willgoog_0063'
p440
g2
(g6
S'uF\xf0\xbf\xe3\xe5,?'
p441
tp442
Rp443
sS'elementseuclidw00willgoog_0062'
p444
g2
(g6
S'\xb8$.clY<?'
p445
tp446
Rp447
sS'elementseuclidw00willgoog_0065'
p448
g2
(g6
S'\x00*\x89\xad\x03q3?'
p449
tp450
Rp451
sS'elementseuclidw00willgoog_0064'
p452
g2
(g6
S'\xb7\x97/d\xba\x1c,?'
p453
tp454
Rp455
sS'elementseuclidw00willgoog_0067'
p456
g2
(g6
S'h\xb8[\xc0\x99M1?'
p457
tp458
Rp459
sS'elementseuclidw00willgoog_0066'
p460
g2
(g6
S'\xcd\xe45!\xd6O0?'
p461
tp462
Rp463
sS'elementseuclidw00willgoog_0238'
p464
g2
(g6
S'\xc6E\x18\xfe\xe3Z2?'
p465
tp466
Rp467
sS'elementseuclidw00willgoog_0312'
p468
g2
(g6
S'\xd1?{^\x94"9?'
p469
tp470
Rp471
sS'elementseuclidw00willgoog_0239'
p472
g2
(g6
S'5Q\xff\xaeE\xbd0?'
p473
tp474
Rp475
sS'elementseuclidw00willgoog_0295'
p476
g2
(g6
S'B\x06\x93\x04"\xb3%?'
p477
tp478
Rp479
sS'elementseuclidw00willgoog_0263'
p480
g2
(g6
S'\t\xa2\x1aP\x05u<?'
p481
tp482
Rp483
sS'elementseuclidw00willgoog_0318'
p484
g2
(g6
S'\xce\xd2\xc2|h\xb99?'
p485
tp486
Rp487
sS'elementseuclidw00willgoog_0262'
p488
g2
(g6
S'\xf6!\xdd\xb6PV5?'
p489
tp490
Rp491
sS'elementseuclidw00willgoog_0231'
p492
g2
(g6
S' \xff\xd2f\xe6$)?'
p493
tp494
Rp495
sS'elementseuclidw00willgoog_0179'
p496
g2
(g6
S'\xc1g \xfe\xc4\xfe%?'
p497
tp498
Rp499
sS'elementseuclidw00willgoog_0261'
p500
g2
(g6
S'`\x88*8\x86;9?'
p501
tp502
Rp503
sS'elementseuclidw00willgoog_0115'
p504
g2
(g6
S'\x83!\xd0J\xae\xa70?'
p505
tp506
Rp507
sS'elementseuclidw00willgoog_0114'
p508
g2
(g6
S'pBnx|\xcf:?'
p509
tp510
Rp511
sS'elementseuclidw00willgoog_0117'
p512
g2
(g6
S'\xaav\xd5\x04\x1c\xd0/?'
p513
tp514
Rp515
sS'elementseuclidw00willgoog_0116'
p516
g2
(g6
S"\xac\x00\x91\xc1\xc1='?"
p517
tp518
Rp519
sS'elementseuclidw00willgoog_0111'
p520
g2
(g6
S'\x9b\xf1_O\xa9\xab1?'
p521
tp522
Rp523
sS'elementseuclidw00willgoog_0110'
p524
g2
(g6
S'\xb5\xd2\x91Q\xb1\xc3+?'
p525
tp526
Rp527
sS'elementseuclidw00willgoog_0113'
p528
g2
(g6
S'\xf0\xe1\x9d\xf7\x1dX1?'
p529
tp530
Rp531
sS'elementseuclidw00willgoog_0112'
p532
g2
(g6
S'\xd3\xa9\xf5\x8b\x02\x121?'
p533
tp534
Rp535
sS'elementseuclidw00willgoog_0205'
p536
g2
(g6
S'\xb2\x84\xbf\xdf\xa2\xe1/?'
p537
tp538
Rp539
sS'elementseuclidw00willgoog_0204'
p540
g2
(g6
S'}\x07+\x8d\t\x069?'
p541
tp542
Rp543
sS'elementseuclidw00willgoog_0207'
p544
g2
(g6
S'\x7f\x90\x9f E19?'
p545
tp546
Rp547
sS'elementseuclidw00willgoog_0206'
p548
g2
(g6
S'\x15\xe3\x01\xc4\xb6\x190?'
p549
tp550
Rp551
sS'elementseuclidw00willgoog_0119'
p552
g2
(g6
S'N\xaa\nt\xdbP.?'
p553
tp554
Rp555
sS'elementseuclidw00willgoog_0118'
p556
g2
(g6
S'CQe\x12_\xa1/?'
p557
tp558
Rp559
sS'elementseuclidw00willgoog_0203'
p560
g2
(g6
S"}\xc2\xfc\x12\x00p'?"
p561
tp562
Rp563
sS'elementseuclidw00willgoog_0202'
p564
g2
(g6
S"+'\xa7\x81\xcal/?"
p565
tp566
Rp567
sS'elementseuclidw00willgoog_0054'
p568
g2
(g6
S'\x0f+h\xbc\xee\xa81?'
p569
tp570
Rp571
sS'elementseuclidw00willgoog_0055'
p572
g2
(g6
S'\x1a\xb9\xfc\xbb8A-?'
p573
tp574
Rp575
sS'elementseuclidw00willgoog_0056'
p576
g2
(g6
S'{\xa9\xcd:\x8a\xf8.?'
p577
tp578
Rp579
sS'elementseuclidw00willgoog_0057'
p580
g2
(g6
S'\xd7\xfa\x00k\x9d.4?'
p581
tp582
Rp583
sS'elementseuclidw00willgoog_0050'
p584
g2
(g6
S'\x8f\x13\xcf\x18\xa5*5?'
p585
tp586
Rp587
sS'elementseuclidw00willgoog_0051'
p588
g2
(g6
S'3\x0b\xcb-\x89j)?'
p589
tp590
Rp591
sS'elementseuclidw00willgoog_0052'
p592
g2
(g6
S'\x00\x96`\x91{\x14*?'
p593
tp594
Rp595
sS'elementseuclidw00willgoog_0053'
p596
g2
(g6
S'h\xb8[\xc0\x99M1?'
p597
tp598
Rp599
sS'elementseuclidw00willgoog_0223'
p600
g2
(g6
S'\x19\x12\xdf\x9a\r\x99/?'
p601
tp602
Rp603
sS'elementseuclidw00willgoog_0264'
p604
g2
(g6
S'\xd1\xfb\xdcJ\xe9#8?'
p605
tp606
Rp607
sS'elementseuclidw00willgoog_0058'
p608
g2
(g6
S'n\xc52[\xf1\x9b5?'
p609
tp610
Rp611
sS'elementseuclidw00willgoog_0059'
p612
g2
(g6
S'\x1d\x1e\xf3\x90-\xa1-?'
p613
tp614
Rp615
sS'elementseuclidw00willgoog_0310'
p616
g2
(g6
S'\x19\x12\xdf\x9a\r\x99/?'
p617
tp618
Rp619
sS'elementseuclidw00willgoog_0268'
p620
g2
(g6
S'\x9f\xb9/\xf6\xd0\xc6<?'
p621
tp622
Rp623
sS'elementseuclidw00willgoog_0255'
p624
g2
(g6
S'\x05\xec\xd6\xda\x03*-?'
p625
tp626
Rp627
sS'elementseuclidw00willgoog_0298'
p628
g2
(g6
S'r$\x13\x0b\xe4\x881?'
p629
tp630
Rp631
sS'elementseuclidw00willgoog_0281'
p632
g2
(g6
S'\xe8\x0f\n\xce\xf4\xf14?'
p633
tp634
Rp635
sS'elementseuclidw00willgoog_0222'
p636
g2
(g6
S'\x1d8\xe5\xab\x0f\x0c5?'
p637
tp638
Rp639
sS'elementseuclidw00willgoog_0284'
p640
g2
(g6
S'\x0b\xa6\xd6\xd8\x06\x85:?'
p641
tp642
Rp643
sS'elementseuclidw00willgoog_0120'
p644
g2
(g6
S'\xabv\xd5\x04\x1c\xd0/?'
p645
tp646
Rp647
sS'elementseuclidw00willgoog_0121'
p648
g2
(g6
S'\xe9\x84\xf9I\xb1c2?'
p649
tp650
Rp651
sS'elementseuclidw00willgoog_0122'
p652
g2
(g6
S'h\x8f\xf9R\xf901?'
p653
tp654
Rp655
sS'elementseuclidw00willgoog_0123'
p656
g2
(g6
S'r-nf\xec4-?'
p657
tp658
Rp659
sS'elementseuclidw00willgoog_0124'
p660
g2
(g6
S'\x94\xc3\xa2\xe0Kp/?'
p661
tp662
Rp663
sS'elementseuclidw00willgoog_0125'
p664
g2
(g6
S'\x87\xa6\xe6\xc9fL<?'
p665
tp666
Rp667
sS'elementseuclidw00willgoog_0126'
p668
g2
(g6
S'Uki\x06\xbe\xc29?'
p669
tp670
Rp671
sS'elementseuclidw00willgoog_0127'
p672
g2
(g6
S'-\xff\xd5\xe7\xebz.?'
p673
tp674
Rp675
sS'elementseuclidw00willgoog_0128'
p676
g2
(g6
S'c\xe9\xc8\x16\x00 ,?'
p677
tp678
Rp679
sS'elementseuclidw00willgoog_0129'
p680
g2
(g6
S'UE\xc7\xf6 \x143?'
p681
tp682
Rp683
sS'elementseuclidw00willgoog_0232'
p684
g2
(g6
S'\x98\\o\x8bM\xda*?'
p685
tp686
Rp687
sS'elementseuclidw00willgoog_0233'
p688
g2
(g6
S'\xc6E\x18\xfe\xe3Z2?'
p689
tp690
Rp691
sS'elementseuclidw00willgoog_0234'
p692
g2
(g6
S'\xd2:\x8e\xdei?:?'
p693
tp694
Rp695
sS'elementseuclidw00willgoog_0235'
p696
g2
(g6
S'\xd2\xcf\xae\xbf\xe9\xc10?'
p697
tp698
Rp699
sS'elementseuclidw00willgoog_0236'
p700
g2
(g6
S'\x14\x8b\xd3j\xe0n.?'
p701
tp702
Rp703
sS'elementseuclidw00willgoog_0237'
p704
g2
(g6
S'\x9fs\xae\x1c\xd0\xa33?'
p705
tp706
Rp707
sS'elementseuclidw00willgoog_0043'
p708
g2
(g6
S'_>\x7fj*G0?'
p709
tp710
Rp711
sS'elementseuclidw00willgoog_0042'
p712
g2
(g6
S'\x0c\xfeN\xcf\xa9\xf96?'
p713
tp714
Rp715
sS'elementseuclidw00willgoog_0041'
p716
g2
(g6
S'\xc8Z\xec6l\xbc.?'
p717
tp718
Rp719
sS'elementseuclidw00willgoog_0040'
p720
g2
(g6
S'\xe7Y\xac1\xa7\xa6)?'
p721
tp722
Rp723
sS'elementseuclidw00willgoog_0047'
p724
g2
(g6
S"\x00\x14o\x9b\x87\xb5'?"
p725
tp726
Rp727
sS'elementseuclidw00willgoog_0046'
p728
g2
(g6
S'wU)\xc3\xdc]2?'
p729
tp730
Rp731
sS'elementseuclidw00willgoog_0045'
p732
g2
(g6
S'\xbc\xe3\r\x04\x98;/?'
p733
tp734
Rp735
sS'elementseuclidw00willgoog_0044'
p736
g2
(g6
S'\\r0X\x9f].?'
p737
tp738
Rp739
sS'elementseuclidw00willgoog_0278'
p740
g2
(g6
S'\xf4\xcew#&\xae7?'
p741
tp742
Rp743
sS'elementseuclidw00willgoog_0049'
p744
g2
(g6
S'<o\x8dq|\xb5.?'
p745
tp746
Rp747
sS'elementseuclidw00willgoog_0048'
p748
g2
(g6
S'\x16\xa5\xfb\x03\x0b\xd3/?'
p749
tp750
Rp751
sS'elementseuclidw00willgoog_0271'
p752
g2
(g6
S'Y\x94f&-\xa88?'
p753
tp754
Rp755
sS'elementseuclidw00willgoog_0316'
p756
g2
(g6
S'Ok\xcb\x80\xa8\xbf3?'
p757
tp758
Rp759
sS'elementseuclidw00willgoog_0269'
p760
g2
(g6
S'Y\xc7Z\xf4\x02\xd94?'
p761
tp762
Rp763
sS'elementseuclidw00willgoog_0241'
p764
g2
(g6
S'\xbb\xb6\x94\xbc\xb3\x105?'
p765
tp766
Rp767
sS'elementseuclidw00willgoog_0162'
p768
g2
(g6
S'\x0f\xc0\x17\xd7\x9fm2?'
p769
tp770
Rp771
sS'elementseuclidw00willgoog_0240'
p772
g2
(g6
S'\xa0\xfb\xeaC&\xa15?'
p773
tp774
Rp775
sS'elementseuclidw00willgoog_0163'
p776
g2
(g6
S'\xd3\xa9\xf5\x8b\x02\x121?'
p777
tp778
Rp779
sS'elementseuclidw00willgoog_0243'
p780
g2
(g6
S"\x92M'4\xca\xb2'?"
p781
tp782
Rp783
sS'elementseuclidw00willgoog_0242'
p784
g2
(g6
S'\xa9h$\xfdU\x88;?'
p785
tp786
Rp787
sS'elementseuclidw00willgoog_0209'
p788
g2
(g6
S'\xa8\xb5\xd5:\xcc\x9f8?'
p789
tp790
Rp791
sS'elementseuclidw00willgoog_0289'
p792
g2
(g6
S'<\x03\x08sIv8?'
p793
tp794
Rp795
sS'elementseuclidw00willgoog_0320'
p796
g2
(g6
S'8\x10\xf6/\x1d4/?'
p797
tp798
Rp799
sS'elementseuclidw00willgoog_0208'
p800
g2
(g6
S'\xfa1\x9fa\x95\xbb5?'
p801
tp802
Rp803
sS'elementseuclidw00willgoog_0036'
p804
g2
(g6
S'\xef\xf3\xca\xd9\x03\x0e1?'
p805
tp806
Rp807
sS'elementseuclidw00willgoog_0037'
p808
g2
(g6
S'I\xd3\x98\xc3\xc2\xdc6?'
p809
tp810
Rp811
sS'elementseuclidw00willgoog_0034'
p812
g2
(g6
S'\xa89if\xfd\xdc9?'
p813
tp814
Rp815
sS'elementseuclidw00willgoog_0035'
p816
g2
(g6
S'\xa6\xd4r\x91\x08})?'
p817
tp818
Rp819
sS'elementseuclidw00willgoog_0032'
p820
g2
(g6
S'\x8bk\xa5D\xef_.?'
p821
tp822
Rp823
sS'elementseuclidw00willgoog_0033'
p824
g2
(g6
S'\x8eU\xd4@\xc6\x805?'
p825
tp826
Rp827
sS'elementseuclidw00willgoog_0030'
p828
g2
(g6
S'P=\xa0[?\x0f2?'
p829
tp830
Rp831
sS'elementseuclidw00willgoog_0031'
p832
g2
(g6
S'\x8f]\xe3&\xe9\xd8\xe1>'
p833
tp834
Rp835
sS'elementseuclidw00willgoog_0270'
p836
g2
(g6
S'\x9c\x06\xf6:\xa4:4?'
p837
tp838
Rp839
sS'elementseuclidw00willgoog_0246'
p840
g2
(g6
S'7hHCr\xbf;?'
p841
tp842
Rp843
sS'elementseuclidw00willgoog_0307'
p844
g2
(g6
S'XU\xb5\x92\xac\x8c6?'
p845
tp846
Rp847
sS'elementseuclidw00willgoog_0038'
p848
g2
(g6
S'\x86\xb3\xef\xc0\x99\x9d4?'
p849
tp850
Rp851
sS'elementseuclidw00willgoog_0039'
p852
g2
(g6
S'\x18#S\x1cjP0?'
p853
tp854
Rp855
sS'elementseuclidw00willgoog_0249'
p856
g2
(g6
S'a\x9d\x90\x06]\x19<?'
p857
tp858
Rp859
sS'elementseuclidw00willgoog_0139'
p860
g2
(g6
S'\x03\xa1,6y\x065?'
p861
tp862
Rp863
sS'elementseuclidw00willgoog_0138'
p864
g2
(g6
S'\xdd\x9e\x81@v\x02/?'
p865
tp866
Rp867
sS'elementseuclidw00willgoog_0137'
p868
g2
(g6
S'\xe8H\x10\xff\x19\xd8&?'
p869
tp870
Rp871
sS'elementseuclidw00willgoog_0136'
p872
g2
(g6
S'Fx\xad\x13\xf9\xd31?'
p873
tp874
Rp875
sS'elementseuclidw00willgoog_0135'
p876
g2
(g6
S'\xf63o#D\xbd;?'
p877
tp878
Rp879
sS'elementseuclidw00willgoog_0134'
p880
g2
(g6
S'~\x91\xe6I\xafs0?'
p881
tp882
Rp883
sS'elementseuclidw00willgoog_0133'
p884
g2
(g6
S'\xb7\xf7K\x00wq/?'
p885
tp886
Rp887
sS'elementseuclidw00willgoog_0132'
p888
g2
(g6
S'\x9f\x14\xebs-\x16;?'
p889
tp890
Rp891
sS'elementseuclidw00willgoog_0131'
p892
g2
(g6
S'}\x10p\xbc{\x10/?'
p893
tp894
Rp895
sS'elementseuclidw00willgoog_0130'
p896
g2
(g6
S'\xd3\xa9\xf5\x8b\x02\x121?'
p897
tp898
Rp899
sS'elementseuclidw00willgoog_0321'
p900
g2
(g6
S'\xe3\xddF\xf7G\x949?'
p901
tp902
Rp903
sS'elementseuclidw00willgoog_0178'
p904
g2
(g6
S'\xf8\xf7\xe4\xa0?s4?'
p905
tp906
Rp907
sS'elementseuclidw00willgoog_0201'
p908
g2
(g6
S'v\xb4\x128y^7?'
p909
tp910
Rp911
sS'elementseuclidw00willgoog_0297'
p912
g2
(g6
S'\xb1\xadj\xdc\x83\x9f1?'
p913
tp914
Rp915
sS'elementseuclidw00willgoog_0200'
p916
g2
(g6
S'\x15\xe3\x01\xc4\xb6\x190?'
p917
tp918
Rp919
sS'elementseuclidw00willgoog_0098'
p920
g2
(g6
S'\xa8\xacjgK\xa09?'
p921
tp922
Rp923
sS'elementseuclidw00willgoog_0099'
p924
g2
(g6
S'\x11\xcfe\x96i\xd90?'
p925
tp926
Rp927
sS'elementseuclidw00willgoog_0090'
p928
g2
(g6
S'\x92\x96\xa5\xd7\xe5\xc1*?'
p929
tp930
Rp931
sS'elementseuclidw00willgoog_0091'
p932
g2
(g6
S'\x18\x80:\x0b<X4?'
p933
tp934
Rp935
sS'elementseuclidw00willgoog_0092'
p936
g2
(g6
S'\xcf,\xe8\xc6x\xd4;?'
p937
tp938
Rp939
sS'elementseuclidw00willgoog_0093'
p940
g2
(g6
S'5\xbe\xb8\xfc\xa96;?'
p941
tp942
Rp943
sS'elementseuclidw00willgoog_0094'
p944
g2
(g6
S'"\r\xeaA9\xb8<?'
p945
tp946
Rp947
sS'elementseuclidw00willgoog_0095'
p948
g2
(g6
S'1\x9b\xc7O\xd6,;?'
p949
tp950
Rp951
sS'elementseuclidw00willgoog_0096'
p952
g2
(g6
S'\xd7\xfa\x00k\x9d.4?'
p953
tp954
Rp955
sS'elementseuclidw00willgoog_0097'
p956
g2
(g6
S':\xe1\xa9\xa9}@;?'
p957
tp958
Rp959
sS'elementseuclidw00willgoog_0025'
p960
g2
(g6
S'wU)\xc3\xdc]2?'
p961
tp962
Rp963
sS'elementseuclidw00willgoog_0024'
p964
g2
(g6
S'\x92\x96\xa5\xd7\xe5\xc1*?'
p965
tp966
Rp967
sS'elementseuclidw00willgoog_0027'
p968
g2
(g6
S"\xdc`\xdc\x08\xdf\xc6'?"
p969
tp970
Rp971
sS'elementseuclidw00willgoog_0026'
p972
g2
(g6
S',^\xd9\xa4\x9e\xa9:?'
p973
tp974
Rp975
sS'elementseuclidw00willgoog_0021'
p976
g2
(g6
S'\xdbF\xdf\n{M7?'
p977
tp978
Rp979
sS'elementseuclidw00willgoog_0020'
p980
g2
(g6
S'\x05\x81tV\x9fm4?'
p981
tp982
Rp983
sS'elementseuclidw00willgoog_0023'
p984
g2
(g6
S',1\t\xc6\xac\xd62?'
p985
tp986
Rp987
sS'elementseuclidw00willgoog_0022'
p988
g2
(g6
S'\xa6\xd4r\x91\x08}9?'
p989
tp990
Rp991
sS'elementseuclidw00willgoog_0258'
p992
g2
(g6
S'\x8856\xd4\x1a\x987?'
p993
tp994
Rp995
sS'elementseuclidw00willgoog_0259'
p996
g2
(g6
S'se\xa7d\xba\xc8;?'
p997
tp998
Rp999
sS'elementseuclidw00willgoog_0029'
p1000
g2
(g6
S'\x07\xe6j+\x94\xcd4?'
p1001
tp1002
Rp1003
sS'elementseuclidw00willgoog_0028'
p1004
g2
(g6
S'\x00\x96`\x91{\x14*?'
p1005
tp1006
Rp1007
sS'elementseuclidw00willgoog_0304'
p1008
g2
(g6
S'\x87\x02B\x06Eg;?'
p1009
tp1010
Rp1011
sS'elementseuclidw00willgoog_0305'
p1012
g2
(g6
S'\xc0=\xa0\xec\xe0:6?'
p1013
tp1014
Rp1015
sS'elementseuclidw00willgoog_0148'
p1016
g2
(g6
S'\x8d\xb5\xb8\x05\xc5^/?'
p1017
tp1018
Rp1019
sS'elementseuclidw00willgoog_0149'
p1020
g2
(g6
S'\x12<\xe9&\xe6\x078?'
p1021
tp1022
Rp1023
sS'elementseuclidw00willgoog_0300'
p1024
g2
(g6
S'\xd7s!\xfb\x96\xa4,?'
p1025
tp1026
Rp1027
sS'elementseuclidw00willgoog_0301'
p1028
g2
(g6
S'\x10\xce\xbf\xaf^\x1c(?'
p1029
tp1030
Rp1031
sS'elementseuclidw00willgoog_0302'
p1032
g2
(g6
S'\x8eb\x0c+\x9d\x124?'
p1033
tp1034
Rp1035
sS'elementseuclidw00willgoog_0303'
p1036
g2
(g6
S'^\xb2u\xfd/y8?'
p1037
tp1038
Rp1039
sS'elementseuclidw00willgoog_0142'
p1040
g2
(g6
S'8\xe5M\xf1&\xdc1?'
p1041
tp1042
Rp1043
sS'elementseuclidw00willgoog_0143'
p1044
g2
(g6
S'A\xbf\xabO\xb1k9?'
p1045
tp1046
Rp1047
sS'elementseuclidw00willgoog_0140'
p1048
g2
(g6
S'c\xc3&\x07cq5?'
p1049
tp1050
Rp1051
sS'elementseuclidw00willgoog_0141'
p1052
g2
(g6
S'p-nf\xec4-?'
p1053
tp1054
Rp1055
sS'elementseuclidw00willgoog_0146'
p1056
g2
(g6
S'~\x91\xe6I\xafs0?'
p1057
tp1058
Rp1059
sS'elementseuclidw00willgoog_0147'
p1060
g2
(g6
S'.\n\xa9i2\n3?'
p1061
tp1062
Rp1063
sS'elementseuclidw00willgoog_0144'
p1064
g2
(g6
S'\x98\xf3/\x11X\xad7?'
p1065
tp1066
Rp1067
sS'elementseuclidw00willgoog_0145'
p1068
g2
(g6
S'g\xac\xf7j\x91\x93-?'
p1069
tp1070
Rp1071
sS'elementseuclidw00willgoog_0252'
p1072
g2
(g6
S'\xbb\x15\xb7\x15\x89\xa38?'
p1073
tp1074
Rp1075
sS'elementseuclidw00willgoog_0218'
p1076
g2
(g6
S')!\x9e\xc6\xea\x057?'
p1077
tp1078
Rp1079
sS'elementseuclidw00willgoog_0283'
p1080
g2
(g6
S'\x15"\xd7\x11\xb6\x15=?'
p1081
tp1082
Rp1083
sS'elementseuclidw00willgoog_0253'
p1084
g2
(g6
S'7\x1d\xda\xe9F\xb9\xe3>'
p1085
tp1086
Rp1087
sS'elementseuclidw00willgoog_0282'
p1088
g2
(g6
S'Z\x0b\xf9\x07\xae\xd75?'
p1089
tp1090
Rp1091
sS'elementseuclidw00willgoog_0250'
p1092
g2
(g6
S'\xb0\x81FT.v<?'
p1093
tp1094
Rp1095
sS'elementseuclidw00willgoog_0087'
p1096
g2
(g6
S'}\xbf\xe7L\x06\xb4*?'
p1097
tp1098
Rp1099
sS'elementseuclidw00willgoog_0086'
p1100
g2
(g6
S'\xc6o!\x80\x9b?7?'
p1101
tp1102
Rp1103
sS'elementseuclidw00willgoog_0085'
p1104
g2
(g6
S'3\xfc\xda8\xe3\xce6?'
p1105
tp1106
Rp1107
sS'elementseuclidw00willgoog_0084'
p1108
g2
(g6
S'>\xb5\xbe\x93\xd8\xa5&?'
p1109
tp1110
Rp1111
sS'elementseuclidw00willgoog_0083'
p1112
g2
(g6
S'%/\xf6%\xc0\x89)?'
p1113
tp1114
Rp1115
sS'elementseuclidw00willgoog_0082'
p1116
g2
(g6
S'\xf6i{58z:?'
p1117
tp1118
Rp1119
sS'elementseuclidw00willgoog_0081'
p1120
g2
(g6
S'\xc1+\t\xb8\x8d\x9c-?'
p1121
tp1122
Rp1123
sS'elementseuclidw00willgoog_0080'
p1124
g2
(g6
S',\x10\xe2\xaar=)?'
p1125
tp1126
Rp1127
sS'elementseuclidw00willgoog_0257'
p1128
g2
(g6
S'Y+j\xcd\x02O7?'
p1129
tp1130
Rp1131
sS'elementseuclidw00willgoog_0256'
p1132
g2
(g6
S'\xb8\xb7\xc5\xb3\xdc\xe35?'
p1133
tp1134
Rp1135
sS'elementseuclidw00willgoog_0248'
p1136
g2
(g6
S'\\9\x00VY%3?'
p1137
tp1138
Rp1139
sS'elementseuclidw00willgoog_0319'
p1140
g2
(g6
S'\xd8\x9fE\x83\xec\xcd1?'
p1141
tp1142
Rp1143
sS'elementseuclidw00willgoog_0089'
p1144
g2
(g6
S'\xd6H\xf8d\xc9\x9a5?'
p1145
tp1146
Rp1147
sS'elementseuclidw00willgoog_0088'
p1148
g2
(g6
S'\xa1\xdan\xd7>\x88,?'
p1149
tp1150
Rp1151
sS'elementseuclidw00willgoog_0010'
p1152
g2
(g6
S'U\xae\x88\x02?\x853?'
p1153
tp1154
Rp1155
sS'elementseuclidw00willgoog_0011'
p1156
g2
(g6
S'\x0fjo\xc1ty\xe0>'
p1157
tp1158
Rp1159
sS'elementseuclidw00willgoog_0012'
p1160
g2
(g6
S'\x81\xe9\x02\x17\xb0\xdd3?'
p1161
tp1162
Rp1163
sS'elementseuclidw00willgoog_0013'
p1164
g2
(g6
S'\x83\xee\xca\xcb\xe4\xd3+?'
p1165
tp1166
Rp1167
sS'elementseuclidw00willgoog_0014'
p1168
g2
(g6
S'\xcf\xd3\xe3\xc3\x8e\x8a,?'
p1169
tp1170
Rp1171
sS'elementseuclidw00willgoog_0015'
p1172
g2
(g6
S'\xaf\xed\x84\x0c\xbe\xbd1?'
p1173
tp1174
Rp1175
sS'elementseuclidw00willgoog_0016'
p1176
g2
(g6
S'\x88\xa9\xc7\x80(\xf89?'
p1177
tp1178
Rp1179
sS'elementseuclidw00willgoog_0017'
p1180
g2
(g6
S'I\x16\x83\xb40k*?'
p1181
tp1182
Rp1183
sS'elementseuclidw00willgoog_0018'
p1184
g2
(g6
S'_\xcb}i\xdc\x830?'
p1185
tp1186
Rp1187
sS'elementseuclidw00willgoog_0019'
p1188
g2
(g6
S'\xa8\xd1tnm\xf77?'
p1189
tp1190
Rp1191
sS'elementseuclidw00willgoog_0219'
p1192
g2
(g6
S'\xbc\xfc\x15\x96\xb43>?'
p1193
tp1194
Rp1195
sS'elementseuclidw00willgoog_0288'
p1196
g2
(g6
S'\x7f\xca\xdf\xe0@\xd5)?'
p1197
tp1198
Rp1199
sS'elementseuclidw00willgoog_0159'
p1200
g2
(g6
S'e-\x0f02\xb5:?'
p1201
tp1202
Rp1203
sS'elementseuclidw00willgoog_0158'
p1204
g2
(g6
S'mn\x9d&\xdeG0?'
p1205
tp1206
Rp1207
sS'elementseuclidw00willgoog_0311'
p1208
g2
(g6
S'O3\xea2\xa8\xab8?'
p1209
tp1210
Rp1211
sS'elementseuclidw00willgoog_0260'
p1212
g2
(g6
S'\xbb\xc2Q\x82^\xfb:?'
p1213
tp1214
Rp1215
sS'elementseuclidw00willgoog_0317'
p1216
g2
(g6
S'\xd4\x8e\xa5@\xc18/?'
p1217
tp1218
Rp1219
sS'elementseuclidw00willgoog_0299'
p1220
g2
(g6
S'DL\x14\xde"\xd6.?'
p1221
tp1222
Rp1223
sS'elementseuclidw00willgoog_0315'
p1224
g2
(g6
S'qtn\xe49r8?'
p1225
tp1226
Rp1227
sS'elementseuclidw00willgoog_0314'
p1228
g2
(g6
S'x\xd48\t\x92\x1d1?'
p1229
tp1230
Rp1231
sS'elementseuclidw00willgoog_0151'
p1232
g2
(g6
S'\xec\xbd\xcb\xa9/\xab0?'
p1233
tp1234
Rp1235
sS'elementseuclidw00willgoog_0150'
p1236
g2
(g6
S'\x9b\xab\xea\xab5\xd38?'
p1237
tp1238
Rp1239
sS'elementseuclidw00willgoog_0153'
p1240
g2
(g6
S'\xc2\xbc\x08\x15\x04\xa8=?'
p1241
tp1242
Rp1243
sS'elementseuclidw00willgoog_0152'
p1244
g2
(g6
S'\x88/[]\xa2w,?'
p1245
tp1246
Rp1247
sS'elementseuclidw00willgoog_0155'
p1248
g2
(g6
S'~\x91\xe6I\xafs0?'
p1249
tp1250
Rp1251
sS'elementseuclidw00willgoog_0154'
p1252
g2
(g6
S'%\xa4`\xc4\xc0\xc99?'
p1253
tp1254
Rp1255
sS'elementseuclidw00willgoog_0157'
p1256
g2
(g6
S':\x8b\x1fe\x8d\xab2?'
p1257
tp1258
Rp1259
sS'elementseuclidw00willgoog_0156'
p1260
g2
(g6
S'\xc8`\n\xc7\xbbu8?'
p1261
tp1262
Rp1263
s.