(lp0
S'simson_1781_v1_2_0001.tif'
p1
aS'simson_1781_v1_2_0002.tif'
p2
aS'simson_1781_v1_2_0003.tif'
p3
aS'simson_1781_v1_2_0004.tif'
p4
aS'simson_1781_v1_2_0005.tif'
p5
aS'simson_1781_v1_2_0006.tif'
p6
aS'simson_1781_v1_2_0007.tif'
p7
aS'simson_1781_v1_2_0008.tif'
p8
aS'simson_1781_v1_2_0009.tif'
p9
aS'simson_1781_v1_2_0010.tif'
p10
aS'simson_1781_v1_2_0011.tif'
p11
aS'simson_1781_v1_2_0012.tif'
p12
aS'simson_1781_v1_2_0013.tif'
p13
aS'simson_1781_v1_2_0014.tif'
p14
aS'simson_1781_v1_2_0523.tif'
p15
aS'simson_1781_v1_2_0522.tif'
p16
aS'simson_1781_v1_2_0521.tif'
p17
aS'simson_1781_v1_2_0520.tif'
p18
aS'simson_1781_v1_2_0519.tif'
p19
aS'simson_1781_v1_2_0518.tif'
p20
aS'simson_1781_v1_2_0517.tif'
p21
a.