(lp0
I19
aI30
aI6
aI2
aI26
aI19
aI25
aI4
aI4
aI6
aI25
aI4
aI3
aI24
aI19
aI21
aI19
aI19
aI17
aI15
aI16
aI16
aI27
aI19
aI21
aI27
aI17
aI21
aI22
aI18
aI17
aI17
aI20
aI15
aI27
aI18
aI19
aI17
aI21
aI21
aI18
aI23
aI17
aI14
aI19
aI18
aI23
aI21
aI15
aI18
aI15
aI22
aI17
aI19
aI28
aI14
aI16
aI18
aI20
aI24
aI20
aI2
aI29
aI19
aI26
aI19
aI16
aI14
aI9
aI27
aI23
aI21
aI25
aI27
aI21
aI15
aI22
aI16
aI19
aI23
aI21
aI19
aI13
aI15
aI16
aI27
aI14
aI11
aI8
aI22
aI20
aI17
aI24
aI33
aI20
aI25
aI2
aI18
aI18
aI19
aI19
aI2
aI2
aI1
aI6
aI4
aI75
aI58
aI74
aI17
aI63
aI10
aI23
aI19
aI21
aI27
aI32
aI23
aI25
aI19
aI34
aI23
aI22
aI17
aI14
aI13
aI19
aI13
aI38
aI42
aI17
aI14
aI17
aI13
aI17
aI45
aI36
aI14
aI16
aI17
aI17
aI15
aI19
aI27
aI46
aI41
aI27
aI21
aI16
aI19
aI18
aI19
aI19
aI23
aI19
aI18
aI13
aI20
aI17
aI19
aI14
aI15
aI47
aI27
aI16
aI43
aI14
aI15
aI59
aI52
aI60
aI47
aI54
aI45
aI57
aI18
aI40
aI41
aI49
aI50
aI43
aI45
aI50
aI38
aI39
aI47
aI16
aI66
aI51
aI3
aI19
aI49
aI19
aI47
aI27
aI15
aI21
aI24
aI13
aI25
aI21
aI25
aI15
aI9
aI11
aI48
aI53
aI19
aI18
aI17
aI17
aI17
aI17
aI15
aI14
aI23
aI18
aI17
aI17
aI19
aI21
aI20
aI21
aI17
aI2
aI2
aI38
aI42
aI25
aI13
aI13
aI15
aI11
aI10
aI15
aI10
aI9
aI19
aI21
aI21
aI17
aI20
aI18
aI18
aI17
aI21
aI18
aI23
aI21
aI21
aI24
aI19
aI19
aI21
aI21
aI30
aI21
aI13
aI15
aI15
aI16
aI15
aI19
aI5
aI4
aI3
aI5
aI23
aI20
aI20
aI15
aI21
aI19
aI17
aI17
aI20
aI22
aI18
aI17
aI21
aI19
aI23
aI2
aI27
aI11
aI13
aI23
aI75
aI23
aI19
aI21
aI19
aI15
aI15
aI18
aI33
aI28
aI31
aI30
aI27
aI19
aI19
aI17
aI15
a.