(dp0
S'simson_1781_v1_2_0404'
p1
cnumpy.core.multiarray
scalar
p2
(cnumpy
dtype
p3
(S'f8'
p4
I0
I1
tp5
Rp6
(I3
S'<'
p7
NNNI-1
I-1
I0
tp8
bS'\xa1&"\xf8\xa9\x99\x93>'
p9
tp10
Rp11
sS'simson_1781_v1_2_0512'
p12
g2
(g6
S'e\xdbJ\xcb\xe5b\x93>'
p13
tp14
Rp15
sS'simson_1781_v1_2_0513'
p16
g2
(g6
S'e\xdbJ\xcb\xe5b\x93>'
p17
tp18
Rp19
sS'simson_1781_v1_2_0459'
p20
g2
(g6
S'e\xdbJ\xcb\xe5b\x93>'
p21
tp22
Rp23
sS'simson_1781_v1_2_0405'
p24
g2
(g6
S'\xa1&"\xf8\xa9\x99\x93>'
p25
tp26
Rp27
sS'simson_1781_v1_2_0516'
p28
g2
(g6
S'e\xdbJ\xcb\xe5b\x93>'
p29
tp30
Rp31
sS'simson_1781_v1_2_0514'
p32
g2
(g6
S'\x18I\xf0\xb0X\x14\x8d>'
p33
tp34
Rp35
sS'simson_1781_v1_2_0515'
p36
g2
(g6
S'e\xdbJ\xcb\xe5b\x93>'
p37
tp38
Rp39
sS'simson_1781_v1_2_0071'
p40
g2
(g6
S'\x1bO\xe5\xad?_\x93>'
p41
tp42
Rp43
sS'simson_1781_v1_2_0070'
p44
g2
(g6
S'\xaa\xf6\xd7\x84\xdf\x0e\x8d>'
p45
tp46
Rp47
sS'simson_1781_v1_2_0407'
p48
g2
(g6
S'\xa1&"\xf8\xa9\x99\x93>'
p49
tp50
Rp51
sS'simson_1781_v1_2_0079'
p52
g2
(g6
S'\x1bO\xe5\xad?_\x93>'
p53
tp54
Rp55
sS'simson_1781_v1_2_0078'
p56
g2
(g6
S'\xaa\xf6\xd7\x84\xdf\x0e\x9d>'
p57
tp58
Rp59
sS'simson_1781_v1_2_0390'
p60
g2
(g6
S'\xa1&"\xf8\xa9\x99\x93>'
p61
tp62
Rp63
sS'simson_1781_v1_2_0391'
p64
g2
(g6
S'\xa1&"\xf8\xa9\x99\x93>'
p65
tp66
Rp67
sS'simson_1781_v1_2_0019'
p68
g2
(g6
S'\xaa\xf6\xd7\x84\xdf\x0e\x9d>'
p69
tp70
Rp71
sS'simson_1781_v1_2_0018'
p72
g2
(g6
S'\xaa\xf6\xd7\x84\xdf\x0e\x9d>'
p73
tp74
Rp75
sS'simson_1781_v1_2_0394'
p76
g2
(g6
S'\xa1&"\xf8\xa9\x99\x83>'
p77
tp78
Rp79
sS'simson_1781_v1_2_0395'
p80
g2
(g6
S'\xa1&"\xf8\xa9\x99\x93>'
p81
tp82
Rp83
sS'simson_1781_v1_2_0396'
p84
g2
(g6
S'\xf293\xf4~f\x9d>'
p85
tp86
Rp87
sS'simson_1781_v1_2_0397'
p88
g2
(g6
S'\xa1&"\xf8\xa9\x99\x93>'
p89
tp90
Rp91
sS'simson_1781_v1_2_0398'
p92
g2
(g6
S'\xf293\xf4~f\x9d>'
p93
tp94
Rp95
sS'simson_1781_v1_2_0399'
p96
g2
(g6
S'\xa1&"\xf8\xa9\x99\x93>'
p97
tp98
Rp99
sS'simson_1781_v1_2_0017'
p100
g2
(g6
S'\xaa\xf6\xd7\x84\xdf\x0e\x9d>'
p101
tp102
Rp103
sS'simson_1781_v1_2_0016'
p104
g2
(g6
S'\xaa\xf6\xd7\x84\xdf\x0e\x9d>'
p105
tp106
Rp107
sS'simson_1781_v1_2_0015'
p108
g2
(g6
S'\x1bO\xe5\xad?_\x93>'
p109
tp110
Rp111
sS'simson_1781_v1_2_0421'
p112
g2
(g6
S'e\xdbJ\xcb\xe5b\x93>'
p113
tp114
Rp115
sS'simson_1781_v1_2_0309'
p116
g2
(g6
S'\xebBy\xf8\xc6/\x93>'
p117
tp118
Rp119
sS'simson_1781_v1_2_0308'
p120
g2
(g6
S'\xebBy\xf8\xc6/\x93>'
p121
tp122
Rp123
sS'simson_1781_v1_2_0307'
p124
g2
(g6
S'\xebBy\xf8\xc6/\x93>'
p125
tp126
Rp127
sS'simson_1781_v1_2_0306'
p128
g2
(g6
S'\xebBy\xf8\xc6/\x93>'
p129
tp130
Rp131
sS'simson_1781_v1_2_0305'
p132
g2
(g6
S'\xebBy\xf8\xc6/\x93>'
p133
tp134
Rp135
sS'simson_1781_v1_2_0304'
p136
g2
(g6
S'`\xe4\xb5t\xaa\xc7\x9c>'
p137
tp138
Rp139
sS'simson_1781_v1_2_0303'
p140
g2
(g6
S'\xebBy\xf8\xc6/\x93>'
p141
tp142
Rp143
sS'simson_1781_v1_2_0302'
p144
g2
(g6
S'`\xe4\xb5t\xaa\xc7\x9c>'
p145
tp146
Rp147
sS'simson_1781_v1_2_0301'
p148
g2
(g6
S'Hk\x88\xd7\xbf\x95\xa5>'
p149
tp150
Rp151
sS'simson_1781_v1_2_0300'
p152
g2
(g6
S'\xbc\xae\xf1\x88\xca\xfc\xb1>'
p153
tp154
Rp155
sS'simson_1781_v1_2_0424'
p156
g2
(g6
S'e\xdbJ\xcb\xe5b\x93>'
p157
tp158
Rp159
sS'simson_1781_v1_2_0499'
p160
g2
(g6
S'e\xdbJ\xcb\xe5b\x93>'
p161
tp162
Rp163
sS'simson_1781_v1_2_0498'
p164
g2
(g6
S'e\xdbJ\xcb\xe5b\x93>'
p165
tp166
Rp167
sS'simson_1781_v1_2_0497'
p168
g2
(g6
S'\x18I\xf0\xb0X\x14\x9d>'
p169
tp170
Rp171
sS'simson_1781_v1_2_0496'
p172
g2
(g6
S'e\xdbJ\xcb\xe5b\x93>'
p173
tp174
Rp175
sS'simson_1781_v1_2_0495'
p176
g2
(g6
S'e\xdbJ\xcb\xe5b\x93>'
p177
tp178
Rp179
sS'simson_1781_v1_2_0425'
p180
g2
(g6
S'e\xdbJ\xcb\xe5b\x93>'
p181
tp182
Rp183
sS'simson_1781_v1_2_0493'
p184
g2
(g6
S'\x18I\xf0\xb0X\x14\x9d>'
p185
tp186
Rp187
sS'simson_1781_v1_2_0492'
p188
g2
(g6
S'\x18I\xf0\xb0X\x14\x9d>'
p189
tp190
Rp191
sS'simson_1781_v1_2_0491'
p192
g2
(g6
S'e\xdbJ\xcb\xe5b\x93>'
p193
tp194
Rp195
sS'simson_1781_v1_2_0490'
p196
g2
(g6
S'\x18I\xf0\xb0X\x14\x9d>'
p197
tp198
Rp199
sS'simson_1781_v1_2_0321'
p200
g2
(g6
S'\xa1&"\xf8\xa9\x99\x93>'
p201
tp202
Rp203
sS'simson_1781_v1_2_0088'
p204
g2
(g6
S'\x1bO\xe5\xad?_\x93>'
p205
tp206
Rp207
sS'simson_1781_v1_2_0089'
p208
g2
(g6
S'\x1bO\xe5\xad?_\x93>'
p209
tp210
Rp211
sS'simson_1781_v1_2_0049'
p212
g2
(g6
S'\x1bO\xe5\xad?_\x83>'
p213
tp214
Rp215
sS'simson_1781_v1_2_0084'
p216
g2
(g6
S'\x1bO\xe5\xad?_\x93>'
p217
tp218
Rp219
sS'simson_1781_v1_2_0085'
p220
g2
(g6
S'\x1bO\xe5\xad?_\x93>'
p221
tp222
Rp223
sS'simson_1781_v1_2_0086'
p224
g2
(g6
S'\xaa\xf6\xd7\x84\xdf\x0e\x8d>'
p225
tp226
Rp227
sS'simson_1781_v1_2_0087'
p228
g2
(g6
S'\x1bO\xe5\xad?_\x93>'
p229
tp230
Rp231
sS'simson_1781_v1_2_0080'
p232
g2
(g6
S'\x1bO\xe5\xad?_\x93>'
p233
tp234
Rp235
sS'simson_1781_v1_2_0081'
p236
g2
(g6
S'\x1bO\xe5\xad?_\x93>'
p237
tp238
Rp239
sS'simson_1781_v1_2_0082'
p240
g2
(g6
S'\x1bO\xe5\xad?_\x93>'
p241
tp242
Rp243
sS'simson_1781_v1_2_0083'
p244
g2
(g6
S'\x1bO\xe5\xad?_\x93>'
p245
tp246
Rp247
sS'simson_1781_v1_2_0475'
p248
g2
(g6
S'\x18I\xf0\xb0X\x14\x8d>'
p249
tp250
Rp251
sS'simson_1781_v1_2_0474'
p252
g2
(g6
S'e\xdbJ\xcb\xe5b\x93>'
p253
tp254
Rp255
sS'simson_1781_v1_2_0444'
p256
g2
(g6
S'e\xdbJ\xcb\xe5b\x93>'
p257
tp258
Rp259
sS'simson_1781_v1_2_0476'
p260
g2
(g6
S'e\xdbJ\xcb\xe5b\x93>'
p261
tp262
Rp263
sS'simson_1781_v1_2_0471'
p264
g2
(g6
S'\x18I\xf0\xb0X\x14\x9d>'
p265
tp266
Rp267
sS'simson_1781_v1_2_0470'
p268
g2
(g6
S'e\xdbJ\xcb\xe5b\x93>'
p269
tp270
Rp271
sS'simson_1781_v1_2_0473'
p272
g2
(g6
S'e\xdbJ\xcb\xe5b\x93>'
p273
tp274
Rp275
sS'simson_1781_v1_2_0472'
p276
g2
(g6
S'e\xdbJ\xcb\xe5b\x93>'
p277
tp278
Rp279
sS'simson_1781_v1_2_0479'
p280
g2
(g6
S'e\xdbJ\xcb\xe5b\x93>'
p281
tp282
Rp283
sS'simson_1781_v1_2_0478'
p284
g2
(g6
S'\x18I\xf0\xb0X\x14\x9d>'
p285
tp286
Rp287
sS'simson_1781_v1_2_0152'
p288
g2
(g6
S'\x9db\xd7\xb5\xad<\x93>'
p289
tp290
Rp291
sS'simson_1781_v1_2_0153'
p292
g2
(g6
S'\x9db\xd7\xb5\xad<\x93>'
p293
tp294
Rp295
sS'simson_1781_v1_2_0150'
p296
g2
(g6
S'\x9db\xd7\xb5\xad<\x93>'
p297
tp298
Rp299
sS'simson_1781_v1_2_0151'
p300
g2
(g6
S'\xec\x13\xc3\x90\x04\xdb\x9c>'
p301
tp302
Rp303
sS'simson_1781_v1_2_0156'
p304
g2
(g6
S'\x9db\xd7\xb5\xad<\x93>'
p305
tp306
Rp307
sS'simson_1781_v1_2_0157'
p308
g2
(g6
S'\x9db\xd7\xb5\xad<\x93>'
p309
tp310
Rp311
sS'simson_1781_v1_2_0154'
p312
g2
(g6
S'\xec\x13\xc3\x90\x04\xdb\x9c>'
p313
tp314
Rp315
sS'simson_1781_v1_2_0155'
p316
g2
(g6
S'\x9db\xd7\xb5\xad<\x93>'
p317
tp318
Rp319
sS'simson_1781_v1_2_0408'
p320
g2
(g6
S'\xf293\xf4~f\x9d>'
p321
tp322
Rp323
sS'simson_1781_v1_2_0409'
p324
g2
(g6
S'\xa1&"\xf8\xa9\x99\x93>'
p325
tp326
Rp327
sS'simson_1781_v1_2_0158'
p328
g2
(g6
S'\x9db\xd7\xb5\xad<\x93>'
p329
tp330
Rp331
sS'simson_1781_v1_2_0159'
p332
g2
(g6
S'\xec\x13\xc3\x90\x04\xdb\x9c>'
p333
tp334
Rp335
sS'simson_1781_v1_2_0445'
p336
g2
(g6
S'e\xdbJ\xcb\xe5b\x93>'
p337
tp338
Rp339
sS'simson_1781_v1_2_0329'
p340
g2
(g6
S'\xa1&"\xf8\xa9\x99\x93>'
p341
tp342
Rp343
sS'simson_1781_v1_2_0328'
p344
g2
(g6
S'vk&7\xdf\x0c\xa6>'
p345
tp346
Rp347
sS'simson_1781_v1_2_0277'
p348
g2
(g6
S'\xebBy\xf8\xc6/\x93>'
p349
tp350
Rp351
sS'simson_1781_v1_2_0276'
p352
g2
(g6
S'\xebBy\xf8\xc6/\x83>'
p353
tp354
Rp355
sS'simson_1781_v1_2_0275'
p356
g2
(g6
S'\xebBy\xf8\xc6/\x93>'
p357
tp358
Rp359
sS'simson_1781_v1_2_0274'
p360
g2
(g6
S'\xebBy\xf8\xc6/\x93>'
p361
tp362
Rp363
sS'simson_1781_v1_2_0273'
p364
g2
(g6
S'\xebBy\xf8\xc6/\x93>'
p365
tp366
Rp367
sS'simson_1781_v1_2_0272'
p368
g2
(g6
S'\xebBy\xf8\xc6/\x93>'
p369
tp370
Rp371
sS'simson_1781_v1_2_0271'
p372
g2
(g6
S'\xebBy\xf8\xc6/\x93>'
p373
tp374
Rp375
sS'simson_1781_v1_2_0270'
p376
g2
(g6
S'`\xe4\xb5t\xaa\xc7\x8c>'
p377
tp378
Rp379
sS'simson_1781_v1_2_0279'
p380
g2
(g6
S'`\xe4\xb5t\xaa\xc7\x9c>'
p381
tp382
Rp383
sS'simson_1781_v1_2_0278'
p384
g2
(g6
S'\xebBy\xf8\xc6/\x93>'
p385
tp386
Rp387
sS'simson_1781_v1_2_0440'
p388
g2
(g6
S'\x18I\xf0\xb0X\x14\x9d>'
p389
tp390
Rp391
sS'simson_1781_v1_2_0441'
p392
g2
(g6
S'e\xdbJ\xcb\xe5b\x93>'
p393
tp394
Rp395
sS'simson_1781_v1_2_0508'
p396
g2
(g6
S'e\xdbJ\xcb\xe5b\x93>'
p397
tp398
Rp399
sS'simson_1781_v1_2_0494'
p400
g2
(g6
S'\x18I\xf0\xb0X\x14\x9d>'
p401
tp402
Rp403
sS'simson_1781_v1_2_0439'
p404
g2
(g6
S'\x18I\xf0\xb0X\x14\x9d>'
p405
tp406
Rp407
sS'simson_1781_v1_2_0438'
p408
g2
(g6
S'e\xdbJ\xcb\xe5b\x93>'
p409
tp410
Rp411
sS'simson_1781_v1_2_0129'
p412
g2
(g6
S'\x9db\xd7\xb5\xad<\x93>'
p413
tp414
Rp415
sS'simson_1781_v1_2_0128'
p416
g2
(g6
S'\xec\x13\xc3\x90\x04\xdb\x8c>'
p417
tp418
Rp419
sS'simson_1781_v1_2_0123'
p420
g2
(g6
S'\x9db\xd7\xb5\xad<\x93>'
p421
tp422
Rp423
sS'simson_1781_v1_2_0122'
p424
g2
(g6
S'\x9db\xd7\xb5\xad<\x93>'
p425
tp426
Rp427
sS'simson_1781_v1_2_0121'
p428
g2
(g6
S'\x9db\xd7\xb5\xad<\x93>'
p429
tp430
Rp431
sS'simson_1781_v1_2_0120'
p432
g2
(g6
S'\xec\x13\xc3\x90\x04\xdb\x9c>'
p433
tp434
Rp435
sS'simson_1781_v1_2_0127'
p436
g2
(g6
S'\x9db\xd7\xb5\xad<\x93>'
p437
tp438
Rp439
sS'simson_1781_v1_2_0126'
p440
g2
(g6
S'\x9db\xd7\xb5\xad<\x93>'
p441
tp442
Rp443
sS'simson_1781_v1_2_0125'
p444
g2
(g6
S'\xec\x13\xc3\x90\x04\xdb\x9c>'
p445
tp446
Rp447
sS'simson_1781_v1_2_0124'
p448
g2
(g6
S'\xec\x13\xc3\x90\x04\xdb\x9c>'
p449
tp450
Rp451
sS'simson_1781_v1_2_0354'
p452
g2
(g6
S'\xa1&"\xf8\xa9\x99\x93>'
p453
tp454
Rp455
sS'simson_1781_v1_2_0355'
p456
g2
(g6
S'\xa1&"\xf8\xa9\x99\x93>'
p457
tp458
Rp459
sS'simson_1781_v1_2_0356'
p460
g2
(g6
S'\xa1&"\xf8\xa9\x99\x93>'
p461
tp462
Rp463
sS'simson_1781_v1_2_0357'
p464
g2
(g6
S'\xa1&"\xf8\xa9\x99\x93>'
p465
tp466
Rp467
sS'simson_1781_v1_2_0350'
p468
g2
(g6
S'\xa1&"\xf8\xa9\x99\x93>'
p469
tp470
Rp471
sS'simson_1781_v1_2_0351'
p472
g2
(g6
S'\xf293\xf4~f\x8d>'
p473
tp474
Rp475
sS'simson_1781_v1_2_0352'
p476
g2
(g6
S'\xa1&"\xf8\xa9\x99\x93>'
p477
tp478
Rp479
sS'simson_1781_v1_2_0058'
p480
g2
(g6
S'\x1bO\xe5\xad?_\x93>'
p481
tp482
Rp483
sS'simson_1781_v1_2_0057'
p484
g2
(g6
S'\xaa\xf6\xd7\x84\xdf\x0e\x9d>'
p485
tp486
Rp487
sS'simson_1781_v1_2_0056'
p488
g2
(g6
S'\xaa\xf6\xd7\x84\xdf\x0e\x9d>'
p489
tp490
Rp491
sS'simson_1781_v1_2_0055'
p492
g2
(g6
S'\xaa\xf6\xd7\x84\xdf\x0e\x9d>'
p493
tp494
Rp495
sS'simson_1781_v1_2_0054'
p496
g2
(g6
S'\x1bO\xe5\xad?_\x93>'
p497
tp498
Rp499
sS'simson_1781_v1_2_0053'
p500
g2
(g6
S'\x1bO\xe5\xad?_\x93>'
p501
tp502
Rp503
sS'simson_1781_v1_2_0052'
p504
g2
(g6
S'\x1bO\xe5\xad?_\x93>'
p505
tp506
Rp507
sS'simson_1781_v1_2_0051'
p508
g2
(g6
S'\x1bO\xe5\xad?_\x93>'
p509
tp510
Rp511
sS'simson_1781_v1_2_0050'
p512
g2
(g6
S'\xaa\xf6\xd7\x84\xdf\x0e\x8d>'
p513
tp514
Rp515
sS'simson_1781_v1_2_0228'
p516
g2
(g6
S'\xebBy\xf8\xc6/\x93>'
p517
tp518
Rp519
sS'simson_1781_v1_2_0229'
p520
g2
(g6
S'\xebBy\xf8\xc6/\x83>'
p521
tp522
Rp523
sS'simson_1781_v1_2_0224'
p524
g2
(g6
S'\xebBy\xf8\xc6/\x93>'
p525
tp526
Rp527
sS'simson_1781_v1_2_0225'
p528
g2
(g6
S'\xebBy\xf8\xc6/\x83>'
p529
tp530
Rp531
sS'simson_1781_v1_2_0226'
p532
g2
(g6
S'\xebBy\xf8\xc6/\x93>'
p533
tp534
Rp535
sS'simson_1781_v1_2_0227'
p536
g2
(g6
S'\xebBy\xf8\xc6/\x93>'
p537
tp538
Rp539
sS'simson_1781_v1_2_0220'
p540
g2
(g6
S'\xebBy\xf8\xc6/\x93>'
p541
tp542
Rp543
sS'simson_1781_v1_2_0221'
p544
g2
(g6
S'\xebBy\xf8\xc6/\x93>'
p545
tp546
Rp547
sS'simson_1781_v1_2_0222'
p548
g2
(g6
S'\xebBy\xf8\xc6/\x93>'
p549
tp550
Rp551
sS'simson_1781_v1_2_0223'
p552
g2
(g6
S'\xebBy\xf8\xc6/\x93>'
p553
tp554
Rp555
sS'simson_1781_v1_2_0510'
p556
g2
(g6
S'e\xdbJ\xcb\xe5b\x93>'
p557
tp558
Rp559
sS'simson_1781_v1_2_0414'
p560
g2
(g6
S'\xa1&"\xf8\xa9\x99\x83>'
p561
tp562
Rp563
sS'simson_1781_v1_2_0509'
p564
g2
(g6
S'e\xdbJ\xcb\xe5b\x83>'
p565
tp566
Rp567
sS'simson_1781_v1_2_0467'
p568
g2
(g6
S'e\xdbJ\xcb\xe5b\x93>'
p569
tp570
Rp571
sS'simson_1781_v1_2_0461'
p572
g2
(g6
S'e\xdbJ\xcb\xe5b\x93>'
p573
tp574
Rp575
sS'simson_1781_v1_2_0504'
p576
g2
(g6
S'e\xdbJ\xcb\xe5b\x93>'
p577
tp578
Rp579
sS'simson_1781_v1_2_0507'
p580
g2
(g6
S'e\xdbJ\xcb\xe5b\x93>'
p581
tp582
Rp583
sS'simson_1781_v1_2_0506'
p584
g2
(g6
S'\x06\x08F\xb4(\x90\xb0>'
p585
tp586
Rp587
sS'simson_1781_v1_2_0410'
p588
g2
(g6
S'\xa1&"\xf8\xa9\x99\x83>'
p589
tp590
Rp591
sS'simson_1781_v1_2_0369'
p592
g2
(g6
S'\xf393\xf4~f\x8d>'
p593
tp594
Rp595
sS'simson_1781_v1_2_0368'
p596
g2
(g6
S'\xf293\xf4~f\x9d>'
p597
tp598
Rp599
sS'simson_1781_v1_2_0365'
p600
g2
(g6
S'\xf293\xf4~f\x8d>'
p601
tp602
Rp603
sS'simson_1781_v1_2_0364'
p604
g2
(g6
S'\xf293\xf4~f\x8d>'
p605
tp606
Rp607
sS'simson_1781_v1_2_0367'
p608
g2
(g6
S'\xf293\xf4~f\x9d>'
p609
tp610
Rp611
sS'simson_1781_v1_2_0366'
p612
g2
(g6
S'\xf293\xf4~f\x9d>'
p613
tp614
Rp615
sS'simson_1781_v1_2_0361'
p616
g2
(g6
S'\xf393\xf4~f\x9d>'
p617
tp618
Rp619
sS'simson_1781_v1_2_0360'
p620
g2
(g6
S'\xf293\xf4~f\x9d>'
p621
tp622
Rp623
sS'simson_1781_v1_2_0363'
p624
g2
(g6
S'\xa1&"\xf8\xa9\x99\x93>'
p625
tp626
Rp627
sS'simson_1781_v1_2_0362'
p628
g2
(g6
S'\xa1&"\xf8\xa9\x99\x93>'
p629
tp630
Rp631
sS'simson_1781_v1_2_0318'
p632
g2
(g6
S'\xf293\xf4~f\x9d>'
p633
tp634
Rp635
sS'simson_1781_v1_2_0319'
p636
g2
(g6
S'\xa1&"\xf8\xa9\x99\x93>'
p637
tp638
Rp639
sS'simson_1781_v1_2_0310'
p640
g2
(g6
S'`\xe4\xb5t\xaa\xc7\x9c>'
p641
tp642
Rp643
sS'simson_1781_v1_2_0311'
p644
g2
(g6
S'`\xe4\xb5t\xaa\xc7\x9c>'
p645
tp646
Rp647
sS'simson_1781_v1_2_0312'
p648
g2
(g6
S'\xa1&"\xf8\xa9\x99\x93>'
p649
tp650
Rp651
sS'simson_1781_v1_2_0313'
p652
g2
(g6
S'\xf293\xf4~f\x9d>'
p653
tp654
Rp655
sS'simson_1781_v1_2_0314'
p656
g2
(g6
S'\xf293\xf4~f\x9d>'
p657
tp658
Rp659
sS'simson_1781_v1_2_0315'
p660
g2
(g6
S'\xa1&"\xf8\xa9\x99\x93>'
p661
tp662
Rp663
sS'simson_1781_v1_2_0316'
p664
g2
(g6
S'\xa1&"\xf8\xa9\x99\x93>'
p665
tp666
Rp667
sS'simson_1781_v1_2_0317'
p668
g2
(g6
S'\xf293\xf4~f\x9d>'
p669
tp670
Rp671
sS'simson_1781_v1_2_0488'
p672
g2
(g6
S'e\xdbJ\xcb\xe5b\x93>'
p673
tp674
Rp675
sS'simson_1781_v1_2_0489'
p676
g2
(g6
S'e\xdbJ\xcb\xe5b\x93>'
p677
tp678
Rp679
sS'simson_1781_v1_2_0480'
p680
g2
(g6
S'e\xdbJ\xcb\xe5b\x93>'
p681
tp682
Rp683
sS'simson_1781_v1_2_0481'
p684
g2
(g6
S'e\xdbJ\xcb\xe5b\x93>'
p685
tp686
Rp687
sS'simson_1781_v1_2_0482'
p688
g2
(g6
S'\x8d\xa8\x13\x83Z\x9f\x93>'
p689
tp690
Rp691
sS'simson_1781_v1_2_0483'
p692
g2
(g6
S'\x18I\xf0\xb0X\x14\x9d>'
p693
tp694
Rp695
sS'simson_1781_v1_2_0484'
p696
g2
(g6
S'\xd3|\x9d\xc4\x07o\x9d>'
p697
tp698
Rp699
sS'simson_1781_v1_2_0485'
p700
g2
(g6
S'e\xdbJ\xcb\xe5b\x93>'
p701
tp702
Rp703
sS'simson_1781_v1_2_0486'
p704
g2
(g6
S'e\xdbJ\xcb\xe5b\x93>'
p705
tp706
Rp707
sS'simson_1781_v1_2_0487'
p708
g2
(g6
S'e\xdbJ\xcb\xe5b\x93>'
p709
tp710
Rp711
sS'simson_1781_v1_2_0059'
p712
g2
(g6
S'\xaa\xf6\xd7\x84\xdf\x0e\x9d>'
p713
tp714
Rp715
sS'simson_1781_v1_2_0466'
p716
g2
(g6
S'e\xdbJ\xcb\xe5b\x93>'
p717
tp718
Rp719
sS'simson_1781_v1_2_0431'
p720
g2
(g6
S'e\xdbJ\xcb\xe5b\x83>'
p721
tp722
Rp723
sS'simson_1781_v1_2_0464'
p724
g2
(g6
S'\x18I\xf0\xb0X\x14\x9d>'
p725
tp726
Rp727
sS'simson_1781_v1_2_0465'
p728
g2
(g6
S'e\xdbJ\xcb\xe5b\x93>'
p729
tp730
Rp731
sS'simson_1781_v1_2_0462'
p732
g2
(g6
S'e\xdbJ\xcb\xe5b\x93>'
p733
tp734
Rp735
sS'simson_1781_v1_2_0463'
p736
g2
(g6
S'e\xdbJ\xcb\xe5b\x93>'
p737
tp738
Rp739
sS'simson_1781_v1_2_0460'
p740
g2
(g6
S'e\xdbJ\xcb\xe5b\x93>'
p741
tp742
Rp743
sS'simson_1781_v1_2_0430'
p744
g2
(g6
S'\x18I\xf0\xb0X\x14\x8d>'
p745
tp746
Rp747
sS'simson_1781_v1_2_0501'
p748
g2
(g6
S'e\xdbJ\xcb\xe5b\x93>'
p749
tp750
Rp751
sS'simson_1781_v1_2_0500'
p752
g2
(g6
S'e\xdbJ\xcb\xe5b\x93>'
p753
tp754
Rp755
sS'simson_1781_v1_2_0503'
p756
g2
(g6
S'\x18I\xf0\xb0X\x14\x9d>'
p757
tp758
Rp759
sS'simson_1781_v1_2_0502'
p760
g2
(g6
S'e\xdbJ\xcb\xe5b\x93>'
p761
tp762
Rp763
sS'simson_1781_v1_2_0505'
p764
g2
(g6
S'e\xdbJ\xcb\xe5b\x93>'
p765
tp766
Rp767
sS'simson_1781_v1_2_0433'
p768
g2
(g6
S'\x18I\xf0\xb0X\x14\x9d>'
p769
tp770
Rp771
sS'simson_1781_v1_2_0468'
p772
g2
(g6
S'e\xdbJ\xcb\xe5b\x83>'
p773
tp774
Rp775
sS'simson_1781_v1_2_0469'
p776
g2
(g6
S'e\xdbJ\xcb\xe5b\x93>'
p777
tp778
Rp779
sS'simson_1781_v1_2_0432'
p780
g2
(g6
S'e\xdbJ\xcb\xe5b\x93>'
p781
tp782
Rp783
sS'simson_1781_v1_2_0169'
p784
g2
(g6
S'\x9db\xd7\xb5\xad<\x93>'
p785
tp786
Rp787
sS'simson_1781_v1_2_0168'
p788
g2
(g6
S'\xec\x13\xc3\x90\x04\xdb\x9c>'
p789
tp790
Rp791
sS'simson_1781_v1_2_0167'
p792
g2
(g6
S'\x9db\xd7\xb5\xad<\x93>'
p793
tp794
Rp795
sS'simson_1781_v1_2_0166'
p796
g2
(g6
S'\x9db\xd7\xb5\xad<\x93>'
p797
tp798
Rp799
sS'simson_1781_v1_2_0165'
p800
g2
(g6
S'\x9db\xd7\xb5\xad<\x93>'
p801
tp802
Rp803
sS'simson_1781_v1_2_0164'
p804
g2
(g6
S'\x9db\xd7\xb5\xad<\x93>'
p805
tp806
Rp807
sS'simson_1781_v1_2_0163'
p808
g2
(g6
S'\xec\x13\xc3\x90\x04\xdb\x9c>'
p809
tp810
Rp811
sS'simson_1781_v1_2_0162'
p812
g2
(g6
S'\x06\x08F\xb4(\x90\xb0>'
p813
tp814
Rp815
sS'simson_1781_v1_2_0161'
p816
g2
(g6
S'\x9db\xd7\xb5\xad<\x93>'
p817
tp818
Rp819
sS'simson_1781_v1_2_0160'
p820
g2
(g6
S'\x9db\xd7\xb5\xad<\x93>'
p821
tp822
Rp823
sS'simson_1781_v1_2_0437'
p824
g2
(g6
S'\x8d\xa8\x13\x83Z\x9f\x93>'
p825
tp826
Rp827
sS'simson_1781_v1_2_0436'
p828
g2
(g6
S'\xd3|\x9d\xc4\x07o\x9d>'
p829
tp830
Rp831
sS'simson_1781_v1_2_0185'
p832
g2
(g6
S'\x9db\xd7\xb5\xad<\x93>'
p833
tp834
Rp835
sS'simson_1781_v1_2_0184'
p836
g2
(g6
S'\x9db\xd7\xb5\xad<\x93>'
p837
tp838
Rp839
sS'simson_1781_v1_2_0187'
p840
g2
(g6
S'\x9db\xd7\xb5\xad<\x93>'
p841
tp842
Rp843
sS'simson_1781_v1_2_0186'
p844
g2
(g6
S'\x9db\xd7\xb5\xad<\x93>'
p845
tp846
Rp847
sS'simson_1781_v1_2_0181'
p848
g2
(g6
S'\x9db\xd7\xb5\xad<\x93>'
p849
tp850
Rp851
sS'simson_1781_v1_2_0180'
p852
g2
(g6
S'\x9db\xd7\xb5\xad<\x93>'
p853
tp854
Rp855
sS'simson_1781_v1_2_0183'
p856
g2
(g6
S'\x9db\xd7\xb5\xad<\x83>'
p857
tp858
Rp859
sS'simson_1781_v1_2_0182'
p860
g2
(g6
S'\x9db\xd7\xb5\xad<\x93>'
p861
tp862
Rp863
sS'simson_1781_v1_2_0189'
p864
g2
(g6
S'\x9db\xd7\xb5\xad<\x93>'
p865
tp866
Rp867
sS'simson_1781_v1_2_0188'
p868
g2
(g6
S'\x9db\xd7\xb5\xad<\x93>'
p869
tp870
Rp871
sS'simson_1781_v1_2_0215'
p872
g2
(g6
S'\xebBy\xf8\xc6/\x93>'
p873
tp874
Rp875
sS'simson_1781_v1_2_0214'
p876
g2
(g6
S'\xebBy\xf8\xc6/\x93>'
p877
tp878
Rp879
sS'simson_1781_v1_2_0217'
p880
g2
(g6
S'\xebBy\xf8\xc6/\x93>'
p881
tp882
Rp883
sS'simson_1781_v1_2_0216'
p884
g2
(g6
S'\xebBy\xf8\xc6/\x93>'
p885
tp886
Rp887
sS'simson_1781_v1_2_0211'
p888
g2
(g6
S'`\xe4\xb5t\xaa\xc7\x9c>'
p889
tp890
Rp891
sS'simson_1781_v1_2_0210'
p892
g2
(g6
S'\xebBy\xf8\xc6/\x93>'
p893
tp894
Rp895
sS'simson_1781_v1_2_0213'
p896
g2
(g6
S'\xebBy\xf8\xc6/\x93>'
p897
tp898
Rp899
sS'simson_1781_v1_2_0212'
p900
g2
(g6
S'\xebBy\xf8\xc6/\x93>'
p901
tp902
Rp903
sS'simson_1781_v1_2_0219'
p904
g2
(g6
S'\xebBy\xf8\xc6/\x93>'
p905
tp906
Rp907
sS'simson_1781_v1_2_0218'
p908
g2
(g6
S'\xebBy\xf8\xc6/\x93>'
p909
tp910
Rp911
sS'simson_1781_v1_2_0260'
p912
g2
(g6
S'\xebBy\xf8\xc6/\x93>'
p913
tp914
Rp915
sS'simson_1781_v1_2_0261'
p916
g2
(g6
S'`\xe4\xb5t\xaa\xc7\x9c>'
p917
tp918
Rp919
sS'simson_1781_v1_2_0262'
p920
g2
(g6
S'\xebBy\xf8\xc6/\x93>'
p921
tp922
Rp923
sS'simson_1781_v1_2_0263'
p924
g2
(g6
S'`\xe4\xb5t\xaa\xc7\x9c>'
p925
tp926
Rp927
sS'simson_1781_v1_2_0264'
p928
g2
(g6
S'`\xe4\xb5t\xaa\xc7\x9c>'
p929
tp930
Rp931
sS'simson_1781_v1_2_0265'
p932
g2
(g6
S'\xebBy\xf8\xc6/\x93>'
p933
tp934
Rp935
sS'simson_1781_v1_2_0266'
p936
g2
(g6
S'`\xe4\xb5t\xaa\xc7\x9c>'
p937
tp938
Rp939
sS'simson_1781_v1_2_0267'
p940
g2
(g6
S'\x06\x08F\xb4(\x90\xb0>'
p941
tp942
Rp943
sS'simson_1781_v1_2_0268'
p944
g2
(g6
S'\xebBy\xf8\xc6/\x93>'
p945
tp946
Rp947
sS'simson_1781_v1_2_0269'
p948
g2
(g6
S'\x06\x08F\xb4(\x90\xb0>'
p949
tp950
Rp951
sS'simson_1781_v1_2_0353'
p952
g2
(g6
S'\xa1&"\xf8\xa9\x99\x93>'
p953
tp954
Rp955
sS'simson_1781_v1_2_0392'
p956
g2
(g6
S'\xa1&"\xf8\xa9\x99\x83>'
p957
tp958
Rp959
sS'simson_1781_v1_2_0393'
p960
g2
(g6
S'\xa1&"\xf8\xa9\x99\x93>'
p961
tp962
Rp963
sS'simson_1781_v1_2_0358'
p964
g2
(g6
S'\xf293\xf4~f\x9d>'
p965
tp966
Rp967
sS'simson_1781_v1_2_0359'
p968
g2
(g6
S'\xa1&"\xf8\xa9\x99\x93>'
p969
tp970
Rp971
sS'simson_1781_v1_2_0458'
p972
g2
(g6
S'e\xdbJ\xcb\xe5b\x83>'
p973
tp974
Rp975
sS'simson_1781_v1_2_0422'
p976
g2
(g6
S'e\xdbJ\xcb\xe5b\x93>'
p977
tp978
Rp979
sS'simson_1781_v1_2_0428'
p980
g2
(g6
S'\x18I\xf0\xb0X\x14\x9d>'
p981
tp982
Rp983
sS'simson_1781_v1_2_0429'
p984
g2
(g6
S'e\xdbJ\xcb\xe5b\x83>'
p985
tp986
Rp987
sS'simson_1781_v1_2_0039'
p988
g2
(g6
S'\x1bO\xe5\xad?_\x93>'
p989
tp990
Rp991
sS'simson_1781_v1_2_0038'
p992
g2
(g6
S'\x1bO\xe5\xad?_\x93>'
p993
tp994
Rp995
sS'simson_1781_v1_2_0035'
p996
g2
(g6
S'\x1bO\xe5\xad?_\x93>'
p997
tp998
Rp999
sS'simson_1781_v1_2_0034'
p1000
g2
(g6
S'\x1bO\xe5\xad?_\x93>'
p1001
tp1002
Rp1003
sS'simson_1781_v1_2_0037'
p1004
g2
(g6
S'\xaa\xf6\xd7\x84\xdf\x0e\x9d>'
p1005
tp1006
Rp1007
sS'simson_1781_v1_2_0036'
p1008
g2
(g6
S'\x1bO\xe5\xad?_\x93>'
p1009
tp1010
Rp1011
sS'simson_1781_v1_2_0031'
p1012
g2
(g6
S'\x1bO\xe5\xad?_\x93>'
p1013
tp1014
Rp1015
sS'simson_1781_v1_2_0030'
p1016
g2
(g6
S'\xaa\xf6\xd7\x84\xdf\x0e\x9d>'
p1017
tp1018
Rp1019
sS'simson_1781_v1_2_0033'
p1020
g2
(g6
S'\xaa\xf6\xd7\x84\xdf\x0e\x8d>'
p1021
tp1022
Rp1023
sS'simson_1781_v1_2_0032'
p1024
g2
(g6
S'\x1bO\xe5\xad?_\x93>'
p1025
tp1026
Rp1027
sS'simson_1781_v1_2_0048'
p1028
g2
(g6
S'\x1bO\xe5\xad?_\x93>'
p1029
tp1030
Rp1031
sS'simson_1781_v1_2_0320'
p1032
g2
(g6
S'\xa1&"\xf8\xa9\x99\x93>'
p1033
tp1034
Rp1035
sS'simson_1781_v1_2_0323'
p1036
g2
(g6
S'\xa1&"\xf8\xa9\x99\x93>'
p1037
tp1038
Rp1039
sS'simson_1781_v1_2_0322'
p1040
g2
(g6
S'\xf293\xf4~f\x9d>'
p1041
tp1042
Rp1043
sS'simson_1781_v1_2_0325'
p1044
g2
(g6
S'2\x9f\xf8\x1b]\xa1\x93>'
p1045
tp1046
Rp1047
sS'simson_1781_v1_2_0324'
p1048
g2
(g6
S'2\x9f\xf8\x1b]\xa1\x93>'
p1049
tp1050
Rp1051
sS'simson_1781_v1_2_0327'
p1052
g2
(g6
S'\xf393\xf4~f\x8d>'
p1053
tp1054
Rp1055
sS'simson_1781_v1_2_0326'
p1056
g2
(g6
S'\xa1&"\xf8\xa9\x99\x93>'
p1057
tp1058
Rp1059
sS'simson_1781_v1_2_0040'
p1060
g2
(g6
S'\x1bO\xe5\xad?_\x93>'
p1061
tp1062
Rp1063
sS'simson_1781_v1_2_0041'
p1064
g2
(g6
S'\x1bO\xe5\xad?_\x93>'
p1065
tp1066
Rp1067
sS'simson_1781_v1_2_0042'
p1068
g2
(g6
S'\xaa\xf6\xd7\x84\xdf\x0e\x9d>'
p1069
tp1070
Rp1071
sS'simson_1781_v1_2_0043'
p1072
g2
(g6
S'\x1bO\xe5\xad?_\x93>'
p1073
tp1074
Rp1075
sS'simson_1781_v1_2_0044'
p1076
g2
(g6
S'\x1bO\xe5\xad?_\x93>'
p1077
tp1078
Rp1079
sS'simson_1781_v1_2_0045'
p1080
g2
(g6
S'\x1bO\xe5\xad?_\x93>'
p1081
tp1082
Rp1083
sS'simson_1781_v1_2_0046'
p1084
g2
(g6
S'\x1bO\xe5\xad?_\x93>'
p1085
tp1086
Rp1087
sS'simson_1781_v1_2_0047'
p1088
g2
(g6
S'\xaa\xf6\xd7\x84\xdf\x0e\x9d>'
p1089
tp1090
Rp1091
sS'simson_1781_v1_2_0420'
p1092
g2
(g6
S'e\xdbJ\xcb\xe5b\x93>'
p1093
tp1094
Rp1095
sS'simson_1781_v1_2_0259'
p1096
g2
(g6
S'\xebBy\xf8\xc6/\x93>'
p1097
tp1098
Rp1099
sS'simson_1781_v1_2_0258'
p1100
g2
(g6
S'`\xe4\xb5t\xaa\xc7\x8c>'
p1101
tp1102
Rp1103
sS'simson_1781_v1_2_0251'
p1104
g2
(g6
S'\xebBy\xf8\xc6/\x93>'
p1105
tp1106
Rp1107
sS'simson_1781_v1_2_0250'
p1108
g2
(g6
S'\xebBy\xf8\xc6/\x93>'
p1109
tp1110
Rp1111
sS'simson_1781_v1_2_0253'
p1112
g2
(g6
S'`\xe4\xb5t\xaa\xc7\x8c>'
p1113
tp1114
Rp1115
sS'simson_1781_v1_2_0252'
p1116
g2
(g6
S'\xebBy\xf8\xc6/\x93>'
p1117
tp1118
Rp1119
sS'simson_1781_v1_2_0255'
p1120
g2
(g6
S'\xebBy\xf8\xc6/\x93>'
p1121
tp1122
Rp1123
sS'simson_1781_v1_2_0254'
p1124
g2
(g6
S'\xebBy\xf8\xc6/\x93>'
p1125
tp1126
Rp1127
sS'simson_1781_v1_2_0257'
p1128
g2
(g6
S'\xebBy\xf8\xc6/\x83>'
p1129
tp1130
Rp1131
sS'simson_1781_v1_2_0256'
p1132
g2
(g6
S'`\xe4\xb5t\xaa\xc7\x9c>'
p1133
tp1134
Rp1135
sS'simson_1781_v1_2_0134'
p1136
g2
(g6
S'\x9db\xd7\xb5\xad<\x93>'
p1137
tp1138
Rp1139
sS'simson_1781_v1_2_0135'
p1140
g2
(g6
S'\x9db\xd7\xb5\xad<\x93>'
p1141
tp1142
Rp1143
sS'simson_1781_v1_2_0136'
p1144
g2
(g6
S'\xec\x13\xc3\x90\x04\xdb\x9c>'
p1145
tp1146
Rp1147
sS'simson_1781_v1_2_0137'
p1148
g2
(g6
S'\x9db\xd7\xb5\xad<\x93>'
p1149
tp1150
Rp1151
sS'simson_1781_v1_2_0130'
p1152
g2
(g6
S'\xec\x13\xc3\x90\x04\xdb\x8c>'
p1153
tp1154
Rp1155
sS'simson_1781_v1_2_0131'
p1156
g2
(g6
S'\x9db\xd7\xb5\xad<\x93>'
p1157
tp1158
Rp1159
sS'simson_1781_v1_2_0132'
p1160
g2
(g6
S'\x9db\xd7\xb5\xad<\x93>'
p1161
tp1162
Rp1163
sS'simson_1781_v1_2_0133'
p1164
g2
(g6
S'\x9db\xd7\xb5\xad<\x93>'
p1165
tp1166
Rp1167
sS'simson_1781_v1_2_0138'
p1168
g2
(g6
S'\x9db\xd7\xb5\xad<\x93>'
p1169
tp1170
Rp1171
sS'simson_1781_v1_2_0139'
p1172
g2
(g6
S'\x9db\xd7\xb5\xad<\x93>'
p1173
tp1174
Rp1175
sS'simson_1781_v1_2_0426'
p1176
g2
(g6
S'e\xdbJ\xcb\xe5b\x93>'
p1177
tp1178
Rp1179
sS'simson_1781_v1_2_0427'
p1180
g2
(g6
S'e\xdbJ\xcb\xe5b\x93>'
p1181
tp1182
Rp1183
sS'simson_1781_v1_2_0477'
p1184
g2
(g6
S'\x18I\xf0\xb0X\x14\x9d>'
p1185
tp1186
Rp1187
sS'simson_1781_v1_2_0378'
p1188
g2
(g6
S'\xa1&"\xf8\xa9\x99\x93>'
p1189
tp1190
Rp1191
sS'simson_1781_v1_2_0379'
p1192
g2
(g6
S'\xf393\xf4~f\x9d>'
p1193
tp1194
Rp1195
sS'simson_1781_v1_2_0376'
p1196
g2
(g6
S'\xa1&"\xf8\xa9\x99\x83>'
p1197
tp1198
Rp1199
sS'simson_1781_v1_2_0377'
p1200
g2
(g6
S'\xa1&"\xf8\xa9\x99\x93>'
p1201
tp1202
Rp1203
sS'simson_1781_v1_2_0374'
p1204
g2
(g6
S'\xa1&"\xf8\xa9\x99\x93>'
p1205
tp1206
Rp1207
sS'simson_1781_v1_2_0375'
p1208
g2
(g6
S'\xa1&"\xf8\xa9\x99\x93>'
p1209
tp1210
Rp1211
sS'simson_1781_v1_2_0372'
p1212
g2
(g6
S'\xa1&"\xf8\xa9\x99\x83>'
p1213
tp1214
Rp1215
sS'simson_1781_v1_2_0373'
p1216
g2
(g6
S'\xa1&"\xf8\xa9\x99\x93>'
p1217
tp1218
Rp1219
sS'simson_1781_v1_2_0370'
p1220
g2
(g6
S'\xf393\xf4~f\x8d>'
p1221
tp1222
Rp1223
sS'simson_1781_v1_2_0371'
p1224
g2
(g6
S'\xa1&"\xf8\xa9\x99\x93>'
p1225
tp1226
Rp1227
sS'simson_1781_v1_2_0406'
p1228
g2
(g6
S'\xf293\xf4~f\x8d>'
p1229
tp1230
Rp1231
sS'simson_1781_v1_2_0400'
p1232
g2
(g6
S'\xf293\xf4~f\x9d>'
p1233
tp1234
Rp1235
sS'simson_1781_v1_2_0401'
p1236
g2
(g6
S'\xa1&"\xf8\xa9\x99\x93>'
p1237
tp1238
Rp1239
sS'simson_1781_v1_2_0402'
p1240
g2
(g6
S'\xa1&"\xf8\xa9\x99\x93>'
p1241
tp1242
Rp1243
sS'simson_1781_v1_2_0453'
p1244
g2
(g6
S'e\xdbJ\xcb\xe5b\x93>'
p1245
tp1246
Rp1247
sS'simson_1781_v1_2_0452'
p1248
g2
(g6
S'e\xdbJ\xcb\xe5b\x93>'
p1249
tp1250
Rp1251
sS'simson_1781_v1_2_0451'
p1252
g2
(g6
S'\x18I\xf0\xb0X\x14\x9d>'
p1253
tp1254
Rp1255
sS'simson_1781_v1_2_0403'
p1256
g2
(g6
S'\xa1&"\xf8\xa9\x99\x93>'
p1257
tp1258
Rp1259
sS'simson_1781_v1_2_0109'
p1260
g2
(g6
S'\x9db\xd7\xb5\xad<\x93>'
p1261
tp1262
Rp1263
sS'simson_1781_v1_2_0108'
p1264
g2
(g6
S'\x9db\xd7\xb5\xad<\x93>'
p1265
tp1266
Rp1267
sS'simson_1781_v1_2_0455'
p1268
g2
(g6
S'\x18I\xf0\xb0X\x14\x9d>'
p1269
tp1270
Rp1271
sS'simson_1781_v1_2_0454'
p1272
g2
(g6
S'\x18I\xf0\xb0X\x14\x9d>'
p1273
tp1274
Rp1275
sS'simson_1781_v1_2_0105'
p1276
g2
(g6
S'\x9db\xd7\xb5\xad<\x93>'
p1277
tp1278
Rp1279
sS'simson_1781_v1_2_0104'
p1280
g2
(g6
S'\x9db\xd7\xb5\xad<\x93>'
p1281
tp1282
Rp1283
sS'simson_1781_v1_2_0107'
p1284
g2
(g6
S'\xec\x13\xc3\x90\x04\xdb\x9c>'
p1285
tp1286
Rp1287
sS'simson_1781_v1_2_0106'
p1288
g2
(g6
S'\x9db\xd7\xb5\xad<\x93>'
p1289
tp1290
Rp1291
sS'simson_1781_v1_2_0101'
p1292
g2
(g6
S'\x9db\xd7\xb5\xad<\x93>'
p1293
tp1294
Rp1295
sS'simson_1781_v1_2_0100'
p1296
g2
(g6
S'\x9db\xd7\xb5\xad<\x93>'
p1297
tp1298
Rp1299
sS'simson_1781_v1_2_0103'
p1300
g2
(g6
S'\xec\x13\xc3\x90\x04\xdb\x9c>'
p1301
tp1302
Rp1303
sS'simson_1781_v1_2_0102'
p1304
g2
(g6
S'\x9db\xd7\xb5\xad<\x83>'
p1305
tp1306
Rp1307
sS'simson_1781_v1_2_0178'
p1308
g2
(g6
S'\x9db\xd7\xb5\xad<\x93>'
p1309
tp1310
Rp1311
sS'simson_1781_v1_2_0179'
p1312
g2
(g6
S'\xec\x13\xc3\x90\x04\xdb\x9c>'
p1313
tp1314
Rp1315
sS'simson_1781_v1_2_0073'
p1316
g2
(g6
S'\x1bO\xe5\xad?_\x83>'
p1317
tp1318
Rp1319
sS'simson_1781_v1_2_0072'
p1320
g2
(g6
S'\x1bO\xe5\xad?_\x93>'
p1321
tp1322
Rp1323
sS'simson_1781_v1_2_0075'
p1324
g2
(g6
S'\xaa\xf6\xd7\x84\xdf\x0e\x9d>'
p1325
tp1326
Rp1327
sS'simson_1781_v1_2_0074'
p1328
g2
(g6
S'\x1bO\xe5\xad?_\x93>'
p1329
tp1330
Rp1331
sS'simson_1781_v1_2_0077'
p1332
g2
(g6
S'\xaa\xf6\xd7\x84\xdf\x0e\x9d>'
p1333
tp1334
Rp1335
sS'simson_1781_v1_2_0076'
p1336
g2
(g6
S'\xaa\xf6\xd7\x84\xdf\x0e\x9d>'
p1337
tp1338
Rp1339
sS'simson_1781_v1_2_0170'
p1340
g2
(g6
S'\x9db\xd7\xb5\xad<\x93>'
p1341
tp1342
Rp1343
sS'simson_1781_v1_2_0171'
p1344
g2
(g6
S'\x9db\xd7\xb5\xad<\x93>'
p1345
tp1346
Rp1347
sS'simson_1781_v1_2_0172'
p1348
g2
(g6
S'\x9db\xd7\xb5\xad<\x83>'
p1349
tp1350
Rp1351
sS'simson_1781_v1_2_0173'
p1352
g2
(g6
S'\xec\x13\xc3\x90\x04\xdb\x8c>'
p1353
tp1354
Rp1355
sS'simson_1781_v1_2_0174'
p1356
g2
(g6
S'\x9db\xd7\xb5\xad<\x93>'
p1357
tp1358
Rp1359
sS'simson_1781_v1_2_0175'
p1360
g2
(g6
S'\x9db\xd7\xb5\xad<\x93>'
p1361
tp1362
Rp1363
sS'simson_1781_v1_2_0176'
p1364
g2
(g6
S'\x9db\xd7\xb5\xad<\x83>'
p1365
tp1366
Rp1367
sS'simson_1781_v1_2_0177'
p1368
g2
(g6
S'\x9db\xd7\xb5\xad<\x93>'
p1369
tp1370
Rp1371
sS'simson_1781_v1_2_0196'
p1372
g2
(g6
S'\x9db\xd7\xb5\xad<\x93>'
p1373
tp1374
Rp1375
sS'simson_1781_v1_2_0197'
p1376
g2
(g6
S'\x9db\xd7\xb5\xad<\x93>'
p1377
tp1378
Rp1379
sS'simson_1781_v1_2_0194'
p1380
g2
(g6
S'\x9db\xd7\xb5\xad<\x93>'
p1381
tp1382
Rp1383
sS'simson_1781_v1_2_0195'
p1384
g2
(g6
S'\x9db\xd7\xb5\xad<\x93>'
p1385
tp1386
Rp1387
sS'simson_1781_v1_2_0192'
p1388
g2
(g6
S'\x9db\xd7\xb5\xad<\x93>'
p1389
tp1390
Rp1391
sS'simson_1781_v1_2_0193'
p1392
g2
(g6
S'\x9db\xd7\xb5\xad<\x93>'
p1393
tp1394
Rp1395
sS'simson_1781_v1_2_0190'
p1396
g2
(g6
S'\x9db\xd7\xb5\xad<\x93>'
p1397
tp1398
Rp1399
sS'simson_1781_v1_2_0191'
p1400
g2
(g6
S'\x9db\xd7\xb5\xad<\x93>'
p1401
tp1402
Rp1403
sS'simson_1781_v1_2_0198'
p1404
g2
(g6
S'\xec\x13\xc3\x90\x04\xdb\x8c>'
p1405
tp1406
Rp1407
sS'simson_1781_v1_2_0199'
p1408
g2
(g6
S'\x9db\xd7\xb5\xad<\x93>'
p1409
tp1410
Rp1411
sS'simson_1781_v1_2_0206'
p1412
g2
(g6
S'\xebBy\xf8\xc6/\x83>'
p1413
tp1414
Rp1415
sS'simson_1781_v1_2_0207'
p1416
g2
(g6
S'\xebBy\xf8\xc6/\x93>'
p1417
tp1418
Rp1419
sS'simson_1781_v1_2_0204'
p1420
g2
(g6
S'\x9db\xd7\xb5\xad<\x93>'
p1421
tp1422
Rp1423
sS'simson_1781_v1_2_0205'
p1424
g2
(g6
S'\x9db\xd7\xb5\xad<\x93>'
p1425
tp1426
Rp1427
sS'simson_1781_v1_2_0202'
p1428
g2
(g6
S'\xec\x13\xc3\x90\x04\xdb\x9c>'
p1429
tp1430
Rp1431
sS'simson_1781_v1_2_0203'
p1432
g2
(g6
S'\x9db\xd7\xb5\xad<\x93>'
p1433
tp1434
Rp1435
sS'simson_1781_v1_2_0200'
p1436
g2
(g6
S'\x9db\xd7\xb5\xad<\x93>'
p1437
tp1438
Rp1439
sS'simson_1781_v1_2_0201'
p1440
g2
(g6
S'\x9db\xd7\xb5\xad<\x93>'
p1441
tp1442
Rp1443
sS'simson_1781_v1_2_0446'
p1444
g2
(g6
S'e\xdbJ\xcb\xe5b\x93>'
p1445
tp1446
Rp1447
sS'simson_1781_v1_2_0208'
p1448
g2
(g6
S'\xebBy\xf8\xc6/\x93>'
p1449
tp1450
Rp1451
sS'simson_1781_v1_2_0209'
p1452
g2
(g6
S'\xebBy\xf8\xc6/\x93>'
p1453
tp1454
Rp1455
sS'simson_1781_v1_2_0447'
p1456
g2
(g6
S'\x18I\xf0\xb0X\x14\x9d>'
p1457
tp1458
Rp1459
sS'simson_1781_v1_2_0299'
p1460
g2
(g6
S'\xebBy\xf8\xc6/\x93>'
p1461
tp1462
Rp1463
sS'simson_1781_v1_2_0298'
p1464
g2
(g6
S'\xebBy\xf8\xc6/\x93>'
p1465
tp1466
Rp1467
sS'simson_1781_v1_2_0295'
p1468
g2
(g6
S'\xebBy\xf8\xc6/\x93>'
p1469
tp1470
Rp1471
sS'simson_1781_v1_2_0294'
p1472
g2
(g6
S'\x06\x08F\xb4(\x90\xb0>'
p1473
tp1474
Rp1475
sS'simson_1781_v1_2_0297'
p1476
g2
(g6
S'`\xe4\xb5t\xaa\xc7\x9c>'
p1477
tp1478
Rp1479
sS'simson_1781_v1_2_0296'
p1480
g2
(g6
S'\xebBy\xf8\xc6/\x93>'
p1481
tp1482
Rp1483
sS'simson_1781_v1_2_0291'
p1484
g2
(g6
S'\xebBy\xf8\xc6/\x93>'
p1485
tp1486
Rp1487
sS'simson_1781_v1_2_0290'
p1488
g2
(g6
S'\xebBy\xf8\xc6/\x93>'
p1489
tp1490
Rp1491
sS'simson_1781_v1_2_0293'
p1492
g2
(g6
S'\xebBy\xf8\xc6/\x93>'
p1493
tp1494
Rp1495
sS'simson_1781_v1_2_0292'
p1496
g2
(g6
S'\xebBy\xf8\xc6/\x93>'
p1497
tp1498
Rp1499
sS'simson_1781_v1_2_0442'
p1500
g2
(g6
S'e\xdbJ\xcb\xe5b\x93>'
p1501
tp1502
Rp1503
sS'simson_1781_v1_2_0443'
p1504
g2
(g6
S'e\xdbJ\xcb\xe5b\x93>'
p1505
tp1506
Rp1507
sS'simson_1781_v1_2_0381'
p1508
g2
(g6
S'\xa1&"\xf8\xa9\x99\x93>'
p1509
tp1510
Rp1511
sS'simson_1781_v1_2_0380'
p1512
g2
(g6
S'\xa1&"\xf8\xa9\x99s>'
p1513
tp1514
Rp1515
sS'simson_1781_v1_2_0389'
p1516
g2
(g6
S'\xa1&"\xf8\xa9\x99\x93>'
p1517
tp1518
Rp1519
sS'simson_1781_v1_2_0388'
p1520
g2
(g6
S'\xf293\xf4~f\x9d>'
p1521
tp1522
Rp1523
sS'simson_1781_v1_2_0387'
p1524
g2
(g6
S'\xf293\xf4~f\x9d>'
p1525
tp1526
Rp1527
sS'simson_1781_v1_2_0386'
p1528
g2
(g6
S'\xa1&"\xf8\xa9\x99s>'
p1529
tp1530
Rp1531
sS'simson_1781_v1_2_0385'
p1532
g2
(g6
S'\xf293\xf4~f\x9d>'
p1533
tp1534
Rp1535
sS'simson_1781_v1_2_0384'
p1536
g2
(g6
S'\xf293\xf4~f\x9d>'
p1537
tp1538
Rp1539
sS'simson_1781_v1_2_0383'
p1540
g2
(g6
S'\xa1&"\xf8\xa9\x99\x93>'
p1541
tp1542
Rp1543
sS'simson_1781_v1_2_0382'
p1544
g2
(g6
S'\xa1&"\xf8\xa9\x99\x93>'
p1545
tp1546
Rp1547
sS'simson_1781_v1_2_0028'
p1548
g2
(g6
S'\x1bO\xe5\xad?_\x93>'
p1549
tp1550
Rp1551
sS'simson_1781_v1_2_0029'
p1552
g2
(g6
S'\xaa\xf6\xd7\x84\xdf\x0e\x9d>'
p1553
tp1554
Rp1555
sS'simson_1781_v1_2_0026'
p1556
g2
(g6
S'\x1bO\xe5\xad?_\x93>'
p1557
tp1558
Rp1559
sS'simson_1781_v1_2_0027'
p1560
g2
(g6
S'\x1bO\xe5\xad?_\x93>'
p1561
tp1562
Rp1563
sS'simson_1781_v1_2_0024'
p1564
g2
(g6
S'\xaa\xf6\xd7\x84\xdf\x0e\x9d>'
p1565
tp1566
Rp1567
sS'simson_1781_v1_2_0025'
p1568
g2
(g6
S'\x1bO\xe5\xad?_\x93>'
p1569
tp1570
Rp1571
sS'simson_1781_v1_2_0022'
p1572
g2
(g6
S'\x1bO\xe5\xad?_\x93>'
p1573
tp1574
Rp1575
sS'simson_1781_v1_2_0023'
p1576
g2
(g6
S'\x1bO\xe5\xad?_\x93>'
p1577
tp1578
Rp1579
sS'simson_1781_v1_2_0020'
p1580
g2
(g6
S'\x1bO\xe5\xad?_\x93>'
p1581
tp1582
Rp1583
sS'simson_1781_v1_2_0021'
p1584
g2
(g6
S'\xaa\xf6\xd7\x84\xdf\x0e\x9d>'
p1585
tp1586
Rp1587
sS'simson_1781_v1_2_0332'
p1588
g2
(g6
S'\xa1&"\xf8\xa9\x99\x93>'
p1589
tp1590
Rp1591
sS'simson_1781_v1_2_0333'
p1592
g2
(g6
S'\xf293\xf4~f\x9d>'
p1593
tp1594
Rp1595
sS'simson_1781_v1_2_0330'
p1596
g2
(g6
S'\xa1&"\xf8\xa9\x99\x83>'
p1597
tp1598
Rp1599
sS'simson_1781_v1_2_0331'
p1600
g2
(g6
S'\xa1&"\xf8\xa9\x99\x93>'
p1601
tp1602
Rp1603
sS'simson_1781_v1_2_0336'
p1604
g2
(g6
S'\xf293\xf4~f\x8d>'
p1605
tp1606
Rp1607
sS'simson_1781_v1_2_0337'
p1608
g2
(g6
S'\xa1&"\xf8\xa9\x99\x93>'
p1609
tp1610
Rp1611
sS'simson_1781_v1_2_0334'
p1612
g2
(g6
S'\xa1&"\xf8\xa9\x99\x93>'
p1613
tp1614
Rp1615
sS'simson_1781_v1_2_0335'
p1616
g2
(g6
S'\xa1&"\xf8\xa9\x99\x93>'
p1617
tp1618
Rp1619
sS'simson_1781_v1_2_0338'
p1620
g2
(g6
S'\xf293\xf4~f\x9d>'
p1621
tp1622
Rp1623
sS'simson_1781_v1_2_0339'
p1624
g2
(g6
S'\xa1&"\xf8\xa9\x99\x93>'
p1625
tp1626
Rp1627
sS'simson_1781_v1_2_0093'
p1628
g2
(g6
S'\x1bO\xe5\xad?_\x93>'
p1629
tp1630
Rp1631
sS'simson_1781_v1_2_0092'
p1632
g2
(g6
S'\x1bO\xe5\xad?_\x93>'
p1633
tp1634
Rp1635
sS'simson_1781_v1_2_0091'
p1636
g2
(g6
S'\x1bO\xe5\xad?_\x93>'
p1637
tp1638
Rp1639
sS'simson_1781_v1_2_0090'
p1640
g2
(g6
S'\xe2\xa2^\x99\x0f7\xa8>'
p1641
tp1642
Rp1643
sS'simson_1781_v1_2_0097'
p1644
g2
(g6
S"\x01\xf9\xa1\xa3'\xcb\xa5>"
p1645
tp1646
Rp1647
sS'simson_1781_v1_2_0096'
p1648
g2
(g6
S'\x1bO\xe5\xad?_\x93>'
p1649
tp1650
Rp1651
sS'simson_1781_v1_2_0095'
p1652
g2
(g6
S'\xaa\xf6\xd7\x84\xdf\x0e\x8d>'
p1653
tp1654
Rp1655
sS'simson_1781_v1_2_0094'
p1656
g2
(g6
S'\xaa\xf6\xd7\x84\xdf\x0e\x9d>'
p1657
tp1658
Rp1659
sS'simson_1781_v1_2_0099'
p1660
g2
(g6
S'\x1bO\xe5\xad?_\x93>'
p1661
tp1662
Rp1663
sS'simson_1781_v1_2_0098'
p1664
g2
(g6
S'\xaa\xf6\xd7\x84\xdf\x0e\x9d>'
p1665
tp1666
Rp1667
sS'simson_1781_v1_2_0248'
p1668
g2
(g6
S'\x06\x08F\xb4(\x90\xb0>'
p1669
tp1670
Rp1671
sS'simson_1781_v1_2_0249'
p1672
g2
(g6
S'\xebBy\xf8\xc6/\x93>'
p1673
tp1674
Rp1675
sS'simson_1781_v1_2_0242'
p1676
g2
(g6
S'\xebBy\xf8\xc6/\x93>'
p1677
tp1678
Rp1679
sS'simson_1781_v1_2_0243'
p1680
g2
(g6
S'\xebBy\xf8\xc6/\x93>'
p1681
tp1682
Rp1683
sS'simson_1781_v1_2_0240'
p1684
g2
(g6
S'`\xe4\xb5t\xaa\xc7\x9c>'
p1685
tp1686
Rp1687
sS'simson_1781_v1_2_0241'
p1688
g2
(g6
S'\xebBy\xf8\xc6/\x93>'
p1689
tp1690
Rp1691
sS'simson_1781_v1_2_0246'
p1692
g2
(g6
S'\xebBy\xf8\xc6/\x83>'
p1693
tp1694
Rp1695
sS'simson_1781_v1_2_0247'
p1696
g2
(g6
S'\xebBy\xf8\xc6/\x93>'
p1697
tp1698
Rp1699
sS'simson_1781_v1_2_0244'
p1700
g2
(g6
S'\xebBy\xf8\xc6/\x93>'
p1701
tp1702
Rp1703
sS'simson_1781_v1_2_0245'
p1704
g2
(g6
S'\xebBy\xf8\xc6/\x93>'
p1705
tp1706
Rp1707
sS'simson_1781_v1_2_0141'
p1708
g2
(g6
S'\xec\x13\xc3\x90\x04\xdb\x9c>'
p1709
tp1710
Rp1711
sS'simson_1781_v1_2_0140'
p1712
g2
(g6
S'\x9db\xd7\xb5\xad<\x93>'
p1713
tp1714
Rp1715
sS'simson_1781_v1_2_0143'
p1716
g2
(g6
S'\x9db\xd7\xb5\xad<\x93>'
p1717
tp1718
Rp1719
sS'simson_1781_v1_2_0142'
p1720
g2
(g6
S'\x9db\xd7\xb5\xad<\x93>'
p1721
tp1722
Rp1723
sS'simson_1781_v1_2_0145'
p1724
g2
(g6
S'\x9db\xd7\xb5\xad<\x93>'
p1725
tp1726
Rp1727
sS'simson_1781_v1_2_0144'
p1728
g2
(g6
S'\xec\x13\xc3\x90\x04\xdb\x8c>'
p1729
tp1730
Rp1731
sS'simson_1781_v1_2_0147'
p1732
g2
(g6
S'\x9db\xd7\xb5\xad<\x93>'
p1733
tp1734
Rp1735
sS'simson_1781_v1_2_0146'
p1736
g2
(g6
S'\x9db\xd7\xb5\xad<\x93>'
p1737
tp1738
Rp1739
sS'simson_1781_v1_2_0149'
p1740
g2
(g6
S'\xec\x13\xc3\x90\x04\xdb\x9c>'
p1741
tp1742
Rp1743
sS'simson_1781_v1_2_0148'
p1744
g2
(g6
S'\x9db\xd7\xb5\xad<\x93>'
p1745
tp1746
Rp1747
sS'simson_1781_v1_2_0419'
p1748
g2
(g6
S'\xa1&"\xf8\xa9\x99\x93>'
p1749
tp1750
Rp1751
sS'simson_1781_v1_2_0418'
p1752
g2
(g6
S'\xa1&"\xf8\xa9\x99\x93>'
p1753
tp1754
Rp1755
sS'simson_1781_v1_2_0423'
p1756
g2
(g6
S'e\xdbJ\xcb\xe5b\x93>'
p1757
tp1758
Rp1759
sS'simson_1781_v1_2_0435'
p1760
g2
(g6
S'e\xdbJ\xcb\xe5b\x93>'
p1761
tp1762
Rp1763
sS'simson_1781_v1_2_0434'
p1764
g2
(g6
S'e\xdbJ\xcb\xe5b\x93>'
p1765
tp1766
Rp1767
sS'simson_1781_v1_2_0511'
p1768
g2
(g6
S'e\xdbJ\xcb\xe5b\x93>'
p1769
tp1770
Rp1771
sS'simson_1781_v1_2_0349'
p1772
g2
(g6
S'\xa1&"\xf8\xa9\x99\x93>'
p1773
tp1774
Rp1775
sS'simson_1781_v1_2_0348'
p1776
g2
(g6
S'\xa1&"\xf8\xa9\x99\x93>'
p1777
tp1778
Rp1779
sS'simson_1781_v1_2_0343'
p1780
g2
(g6
S'\xf393\xf4~f\x8d>'
p1781
tp1782
Rp1783
sS'simson_1781_v1_2_0342'
p1784
g2
(g6
S'\xa1&"\xf8\xa9\x99\x93>'
p1785
tp1786
Rp1787
sS'simson_1781_v1_2_0341'
p1788
g2
(g6
S'\xa1&"\xf8\xa9\x99\x93>'
p1789
tp1790
Rp1791
sS'simson_1781_v1_2_0340'
p1792
g2
(g6
S'\xa1&"\xf8\xa9\x99\x93>'
p1793
tp1794
Rp1795
sS'simson_1781_v1_2_0347'
p1796
g2
(g6
S'\xa1&"\xf8\xa9\x99\x93>'
p1797
tp1798
Rp1799
sS'simson_1781_v1_2_0346'
p1800
g2
(g6
S'\xa1&"\xf8\xa9\x99\x93>'
p1801
tp1802
Rp1803
sS'simson_1781_v1_2_0345'
p1804
g2
(g6
S'\xa1&"\xf8\xa9\x99\x93>'
p1805
tp1806
Rp1807
sS'simson_1781_v1_2_0344'
p1808
g2
(g6
S'\xf293\xf4~f\x9d>'
p1809
tp1810
Rp1811
sS'simson_1781_v1_2_0448'
p1812
g2
(g6
S'\x18I\xf0\xb0X\x14\x9d>'
p1813
tp1814
Rp1815
sS'simson_1781_v1_2_0449'
p1816
g2
(g6
S'e\xdbJ\xcb\xe5b\x93>'
p1817
tp1818
Rp1819
sS'simson_1781_v1_2_0118'
p1820
g2
(g6
S'\x9db\xd7\xb5\xad<\x93>'
p1821
tp1822
Rp1823
sS'simson_1781_v1_2_0119'
p1824
g2
(g6
S'\x9db\xd7\xb5\xad<\x93>'
p1825
tp1826
Rp1827
sS'simson_1781_v1_2_0116'
p1828
g2
(g6
S'\x9db\xd7\xb5\xad<\x93>'
p1829
tp1830
Rp1831
sS'simson_1781_v1_2_0117'
p1832
g2
(g6
S'\xec\x13\xc3\x90\x04\xdb\x9c>'
p1833
tp1834
Rp1835
sS'simson_1781_v1_2_0114'
p1836
g2
(g6
S'\xec\x13\xc3\x90\x04\xdb\x8c>'
p1837
tp1838
Rp1839
sS'simson_1781_v1_2_0115'
p1840
g2
(g6
S'\xec\x13\xc3\x90\x04\xdb\x9c>'
p1841
tp1842
Rp1843
sS'simson_1781_v1_2_0112'
p1844
g2
(g6
S'\xec\x13\xc3\x90\x04\xdb\x8c>'
p1845
tp1846
Rp1847
sS'simson_1781_v1_2_0113'
p1848
g2
(g6
S'\x9db\xd7\xb5\xad<\x93>'
p1849
tp1850
Rp1851
sS'simson_1781_v1_2_0110'
p1852
g2
(g6
S'\x9db\xd7\xb5\xad<\x93>'
p1853
tp1854
Rp1855
sS'simson_1781_v1_2_0111'
p1856
g2
(g6
S'\x9db\xd7\xb5\xad<\x93>'
p1857
tp1858
Rp1859
sS'simson_1781_v1_2_0062'
p1860
g2
(g6
S'\x1bO\xe5\xad?_\x93>'
p1861
tp1862
Rp1863
sS'simson_1781_v1_2_0063'
p1864
g2
(g6
S'\x1bO\xe5\xad?_\x93>'
p1865
tp1866
Rp1867
sS'simson_1781_v1_2_0060'
p1868
g2
(g6
S'\x1bO\xe5\xad?_\x93>'
p1869
tp1870
Rp1871
sS'simson_1781_v1_2_0061'
p1872
g2
(g6
S'\xaa\xf6\xd7\x84\xdf\x0e\x9d>'
p1873
tp1874
Rp1875
sS'simson_1781_v1_2_0066'
p1876
g2
(g6
S'\x1bO\xe5\xad?_\x93>'
p1877
tp1878
Rp1879
sS'simson_1781_v1_2_0067'
p1880
g2
(g6
S'\x1bO\xe5\xad?_\x93>'
p1881
tp1882
Rp1883
sS'simson_1781_v1_2_0064'
p1884
g2
(g6
S'\x1bO\xe5\xad?_\x93>'
p1885
tp1886
Rp1887
sS'simson_1781_v1_2_0065'
p1888
g2
(g6
S'\x1bO\xe5\xad?_\x83>'
p1889
tp1890
Rp1891
sS'simson_1781_v1_2_0068'
p1892
g2
(g6
S'\x1bO\xe5\xad?_\x93>'
p1893
tp1894
Rp1895
sS'simson_1781_v1_2_0069'
p1896
g2
(g6
S'\xaa\xf6\xd7\x84\xdf\x0e\x9d>'
p1897
tp1898
Rp1899
sS'simson_1781_v1_2_0417'
p1900
g2
(g6
S'\xa1&"\xf8\xa9\x99\x83>'
p1901
tp1902
Rp1903
sS'simson_1781_v1_2_0416'
p1904
g2
(g6
S'\xa1&"\xf8\xa9\x99\x93>'
p1905
tp1906
Rp1907
sS'simson_1781_v1_2_0415'
p1908
g2
(g6
S'2\x9f\xf8\x1b]\xa1\x93>'
p1909
tp1910
Rp1911
sS'simson_1781_v1_2_0233'
p1912
g2
(g6
S'\xebBy\xf8\xc6/\x93>'
p1913
tp1914
Rp1915
sS'simson_1781_v1_2_0232'
p1916
g2
(g6
S'\xebBy\xf8\xc6/\x93>'
p1917
tp1918
Rp1919
sS'simson_1781_v1_2_0231'
p1920
g2
(g6
S'\xebBy\xf8\xc6/\x93>'
p1921
tp1922
Rp1923
sS'simson_1781_v1_2_0230'
p1924
g2
(g6
S'\xebBy\xf8\xc6/\x93>'
p1925
tp1926
Rp1927
sS'simson_1781_v1_2_0237'
p1928
g2
(g6
S'\xebBy\xf8\xc6/\x83>'
p1929
tp1930
Rp1931
sS'simson_1781_v1_2_0236'
p1932
g2
(g6
S'\xebBy\xf8\xc6/\x93>'
p1933
tp1934
Rp1935
sS'simson_1781_v1_2_0235'
p1936
g2
(g6
S'\xebBy\xf8\xc6/\x93>'
p1937
tp1938
Rp1939
sS'simson_1781_v1_2_0234'
p1940
g2
(g6
S'`\xe4\xb5t\xaa\xc7\x9c>'
p1941
tp1942
Rp1943
sS'simson_1781_v1_2_0413'
p1944
g2
(g6
S'\xa1&"\xf8\xa9\x99\x93>'
p1945
tp1946
Rp1947
sS'simson_1781_v1_2_0239'
p1948
g2
(g6
S'\xebBy\xf8\xc6/\x93>'
p1949
tp1950
Rp1951
sS'simson_1781_v1_2_0238'
p1952
g2
(g6
S'`\xe4\xb5t\xaa\xc7\x9c>'
p1953
tp1954
Rp1955
sS'simson_1781_v1_2_0412'
p1956
g2
(g6
S'\xf293\xf4~f\x9d>'
p1957
tp1958
Rp1959
sS'simson_1781_v1_2_0411'
p1960
g2
(g6
S'\xa1&"\xf8\xa9\x99\x93>'
p1961
tp1962
Rp1963
sS'simson_1781_v1_2_0288'
p1964
g2
(g6
S'\xebBy\xf8\xc6/\x93>'
p1965
tp1966
Rp1967
sS'simson_1781_v1_2_0289'
p1968
g2
(g6
S'\xebBy\xf8\xc6/\x93>'
p1969
tp1970
Rp1971
sS'simson_1781_v1_2_0286'
p1972
g2
(g6
S'`\xe4\xb5t\xaa\xc7\x9c>'
p1973
tp1974
Rp1975
sS'simson_1781_v1_2_0287'
p1976
g2
(g6
S'\xebBy\xf8\xc6/\x93>'
p1977
tp1978
Rp1979
sS'simson_1781_v1_2_0284'
p1980
g2
(g6
S'\x06\x08F\xb4(\x90\xb0>'
p1981
tp1982
Rp1983
sS'simson_1781_v1_2_0285'
p1984
g2
(g6
S'\xebBy\xf8\xc6/\x93>'
p1985
tp1986
Rp1987
sS'simson_1781_v1_2_0282'
p1988
g2
(g6
S'\x06\x08F\xb4(\x90\xb0>'
p1989
tp1990
Rp1991
sS'simson_1781_v1_2_0283'
p1992
g2
(g6
S'\xebBy\xf8\xc6/\x93>'
p1993
tp1994
Rp1995
sS'simson_1781_v1_2_0280'
p1996
g2
(g6
S'\xebBy\xf8\xc6/\x93>'
p1997
tp1998
Rp1999
sS'simson_1781_v1_2_0281'
p2000
g2
(g6
S'\xebBy\xf8\xc6/\x93>'
p2001
tp2002
Rp2003
sS'simson_1781_v1_2_0450'
p2004
g2
(g6
S'e\xdbJ\xcb\xe5b\x93>'
p2005
tp2006
Rp2007
sS'simson_1781_v1_2_0457'
p2008
g2
(g6
S'e\xdbJ\xcb\xe5b\x93>'
p2009
tp2010
Rp2011
sS'simson_1781_v1_2_0456'
p2012
g2
(g6
S'e\xdbJ\xcb\xe5b\x93>'
p2013
tp2014
Rp2015
s.