(dp0
S'simson_1781_v1_2_0118.tif'
p1
(I2934
I4756
tp2
sS'simson_1781_v1_2_0048.tif'
p3
(I2916
I4752
tp4
sS'simson_1781_v1_2_0479.tif'
p5
(I2898
I4778
tp6
sS'simson_1781_v1_2_0349.tif'
p7
(I2876
I4762
tp8
sS'simson_1781_v1_2_0355.tif'
p9
(I2876
I4762
tp10
sS'simson_1781_v1_2_0189.tif'
p11
(I2934
I4756
tp12
sS'simson_1781_v1_2_0292.tif'
p13
(I2938
I4762
tp14
sS'simson_1781_v1_2_0424.tif'
p15
(I2898
I4778
tp16
sS'simson_1781_v1_2_0086.tif'
p17
(I2916
I4752
tp18
sS'simson_1781_v1_2_0324.tif'
p19
(I2856
I4788
tp20
sS'simson_1781_v1_2_0282.tif'
p21
(I802
I1263
tp22
sS'simson_1781_v1_2_0491.tif'
p23
(I2898
I4778
tp24
sS'simson_1781_v1_2_0330.tif'
p25
(I2876
I4762
tp26
sS'simson_1781_v1_2_0478.tif'
p27
(I2898
I4778
tp28
sS'simson_1781_v1_2_0097.tif'
p29
(I2916
I4752
tp30
sS'simson_1781_v1_2_0455.tif'
p31
(I2898
I4778
tp32
sS'simson_1781_v1_2_0412.tif'
p33
(I2876
I4762
tp34
sS'simson_1781_v1_2_0246.tif'
p35
(I2938
I4762
tp36
sS'simson_1781_v1_2_0188.tif'
p37
(I2934
I4756
tp38
sS'simson_1781_v1_2_0190.tif'
p39
(I2934
I4756
tp40
sS'simson_1781_v1_2_0063.tif'
p41
(I2916
I4752
tp42
sS'simson_1781_v1_2_0338.tif'
p43
(I2876
I4762
tp44
sS'simson_1781_v1_2_0201.tif'
p45
(I2934
I4756
tp46
sS'simson_1781_v1_2_0423.tif'
p47
(I2898
I4778
tp48
sS'simson_1781_v1_2_0452.tif'
p49
(I2898
I4778
tp50
sS'simson_1781_v1_2_0421.tif'
p51
(I2898
I4778
tp52
sS'simson_1781_v1_2_0294.tif'
p53
(I802
I1263
tp54
sS'simson_1781_v1_2_0285.tif'
p55
(I2938
I4762
tp56
sS'simson_1781_v1_2_0283.tif'
p57
(I2938
I4762
tp58
sS'simson_1781_v1_2_0402.tif'
p59
(I2876
I4762
tp60
sS'simson_1781_v1_2_0456.tif'
p61
(I2898
I4778
tp62
sS'simson_1781_v1_2_0274.tif'
p63
(I2938
I4762
tp64
sS'simson_1781_v1_2_0291.tif'
p65
(I2938
I4762
tp66
sS'simson_1781_v1_2_0252.tif'
p67
(I2938
I4762
tp68
sS'simson_1781_v1_2_0323.tif'
p69
(I2876
I4762
tp70
sS'simson_1781_v1_2_0247.tif'
p71
(I2938
I4762
tp72
sS'simson_1781_v1_2_0071.tif'
p73
(I2916
I4752
tp74
sS'simson_1781_v1_2_0128.tif'
p75
(I2934
I4756
tp76
sS'simson_1781_v1_2_0395.tif'
p77
(I2876
I4762
tp78
sS'simson_1781_v1_2_0301.tif'
p79
(I2938
I4762
tp80
sS'simson_1781_v1_2_0231.tif'
p81
(I2938
I4762
tp82
sS'simson_1781_v1_2_0193.tif'
p83
(I2934
I4756
tp84
sS'simson_1781_v1_2_0370.tif'
p85
(I2876
I4762
tp86
sS'simson_1781_v1_2_0457.tif'
p87
(I2898
I4778
tp88
sS'simson_1781_v1_2_0075.tif'
p89
(I2916
I4752
tp90
sS'simson_1781_v1_2_0506.tif'
p91
(I802
I1263
tp92
sS'simson_1781_v1_2_0367.tif'
p93
(I2876
I4762
tp94
sS'simson_1781_v1_2_0411.tif'
p95
(I2876
I4762
tp96
sS'simson_1781_v1_2_0132.tif'
p97
(I2934
I4756
tp98
sS'simson_1781_v1_2_0151.tif'
p99
(I2934
I4756
tp100
sS'simson_1781_v1_2_0225.tif'
p101
(I2938
I4762
tp102
sS'simson_1781_v1_2_0404.tif'
p103
(I2876
I4762
tp104
sS'simson_1781_v1_2_0308.tif'
p105
(I2938
I4762
tp106
sS'simson_1781_v1_2_0204.tif'
p107
(I2934
I4756
tp108
sS'simson_1781_v1_2_0485.tif'
p109
(I2898
I4778
tp110
sS'simson_1781_v1_2_0458.tif'
p111
(I2898
I4778
tp112
sS'simson_1781_v1_2_0152.tif'
p113
(I2934
I4756
tp114
sS'simson_1781_v1_2_0471.tif'
p115
(I2898
I4778
tp116
sS'simson_1781_v1_2_0245.tif'
p117
(I2938
I4762
tp118
sS'simson_1781_v1_2_0444.tif'
p119
(I2898
I4778
tp120
sS'simson_1781_v1_2_0441.tif'
p121
(I2898
I4778
tp122
sS'simson_1781_v1_2_0265.tif'
p123
(I2938
I4762
tp124
sS'simson_1781_v1_2_0486.tif'
p125
(I2898
I4778
tp126
sS'simson_1781_v1_2_0453.tif'
p127
(I2898
I4778
tp128
sS'simson_1781_v1_2_0396.tif'
p129
(I2876
I4762
tp130
sS'simson_1781_v1_2_0127.tif'
p131
(I2934
I4756
tp132
sS'simson_1781_v1_2_0267.tif'
p133
(I802
I1263
tp134
sS'simson_1781_v1_2_0279.tif'
p135
(I2938
I4762
tp136
sS'simson_1781_v1_2_0319.tif'
p137
(I2876
I4762
tp138
sS'simson_1781_v1_2_0251.tif'
p139
(I2938
I4762
tp140
sS'simson_1781_v1_2_0297.tif'
p141
(I2938
I4762
tp142
sS'simson_1781_v1_2_0437.tif'
p143
(I2850
I4800
tp144
sS'simson_1781_v1_2_0234.tif'
p145
(I2938
I4762
tp146
sS'simson_1781_v1_2_0208.tif'
p147
(I2938
I4762
tp148
sS'simson_1781_v1_2_0418.tif'
p149
(I2876
I4762
tp150
sS'simson_1781_v1_2_0207.tif'
p151
(I2938
I4762
tp152
sS'simson_1781_v1_2_0287.tif'
p153
(I2938
I4762
tp154
sS'simson_1781_v1_2_0448.tif'
p155
(I2898
I4778
tp156
sS'simson_1781_v1_2_0241.tif'
p157
(I2938
I4762
tp158
sS'simson_1781_v1_2_0359.tif'
p159
(I2876
I4762
tp160
sS'simson_1781_v1_2_0126.tif'
p161
(I2934
I4756
tp162
sS'simson_1781_v1_2_0028.tif'
p163
(I2916
I4752
tp164
sS'simson_1781_v1_2_0307.tif'
p165
(I2938
I4762
tp166
sS'simson_1781_v1_2_0465.tif'
p167
(I2898
I4778
tp168
sS'simson_1781_v1_2_0236.tif'
p169
(I2938
I4762
tp170
sS'simson_1781_v1_2_0112.tif'
p171
(I2934
I4756
tp172
sS'simson_1781_v1_2_0270.tif'
p173
(I2938
I4762
tp174
sS'simson_1781_v1_2_0051.tif'
p175
(I2916
I4752
tp176
sS'simson_1781_v1_2_0487.tif'
p177
(I2898
I4778
tp178
sS'simson_1781_v1_2_0095.tif'
p179
(I2916
I4752
tp180
sS'simson_1781_v1_2_0224.tif'
p181
(I2938
I4762
tp182
sS'simson_1781_v1_2_0195.tif'
p183
(I2934
I4756
tp184
sS'simson_1781_v1_2_0257.tif'
p185
(I2938
I4762
tp186
sS'simson_1781_v1_2_0177.tif'
p187
(I2934
I4756
tp188
sS'simson_1781_v1_2_0386.tif'
p189
(I2876
I4762
tp190
sS'simson_1781_v1_2_0148.tif'
p191
(I2934
I4756
tp192
sS'simson_1781_v1_2_0159.tif'
p193
(I2934
I4756
tp194
sS'simson_1781_v1_2_0184.tif'
p195
(I2934
I4756
tp196
sS'simson_1781_v1_2_0250.tif'
p197
(I2938
I4762
tp198
sS'simson_1781_v1_2_0106.tif'
p199
(I2934
I4756
tp200
sS'simson_1781_v1_2_0328.tif'
p201
(I2876
I4762
tp202
sS'simson_1781_v1_2_0113.tif'
p203
(I2934
I4756
tp204
sS'simson_1781_v1_2_0199.tif'
p205
(I2934
I4756
tp206
sS'simson_1781_v1_2_0477.tif'
p207
(I2898
I4778
tp208
sS'simson_1781_v1_2_0261.tif'
p209
(I2938
I4762
tp210
sS'simson_1781_v1_2_0096.tif'
p211
(I2916
I4752
tp212
sS'simson_1781_v1_2_0336.tif'
p213
(I2876
I4762
tp214
sS'simson_1781_v1_2_0191.tif'
p215
(I2934
I4756
tp216
sS'simson_1781_v1_2_0124.tif'
p217
(I2934
I4756
tp218
sS'simson_1781_v1_2_0077.tif'
p219
(I2916
I4752
tp220
sS'simson_1781_v1_2_0357.tif'
p221
(I2876
I4762
tp222
sS'simson_1781_v1_2_0298.tif'
p223
(I2938
I4762
tp224
sS'simson_1781_v1_2_0500.tif'
p225
(I2898
I4778
tp226
sS'simson_1781_v1_2_0206.tif'
p227
(I2938
I4762
tp228
sS'simson_1781_v1_2_0248.tif'
p229
(I802
I1263
tp230
sS'simson_1781_v1_2_0276.tif'
p231
(I2938
I4762
tp232
sS'simson_1781_v1_2_0284.tif'
p233
(I802
I1263
tp234
sS'simson_1781_v1_2_0430.tif'
p235
(I2898
I4778
tp236
sS'simson_1781_v1_2_0325.tif'
p237
(I2856
I4788
tp238
sS'simson_1781_v1_2_0354.tif'
p239
(I2876
I4762
tp240
sS'simson_1781_v1_2_0415.tif'
p241
(I2856
I4788
tp242
sS'simson_1781_v1_2_0111.tif'
p243
(I2934
I4756
tp244
sS'simson_1781_v1_2_0169.tif'
p245
(I2934
I4756
tp246
sS'simson_1781_v1_2_0131.tif'
p247
(I2934
I4756
tp248
sS'simson_1781_v1_2_0498.tif'
p249
(I2898
I4778
tp250
sS'simson_1781_v1_2_0387.tif'
p251
(I2876
I4762
tp252
sS'simson_1781_v1_2_0088.tif'
p253
(I2916
I4752
tp254
sS'simson_1781_v1_2_0286.tif'
p255
(I2938
I4762
tp256
sS'simson_1781_v1_2_0216.tif'
p257
(I2938
I4762
tp258
sS'simson_1781_v1_2_0229.tif'
p259
(I2938
I4762
tp260
sS'simson_1781_v1_2_0361.tif'
p261
(I2876
I4762
tp262
sS'simson_1781_v1_2_0133.tif'
p263
(I2934
I4756
tp264
sS'simson_1781_v1_2_0105.tif'
p265
(I2934
I4756
tp266
sS'simson_1781_v1_2_0400.tif'
p267
(I2876
I4762
tp268
sS'simson_1781_v1_2_0472.tif'
p269
(I2898
I4778
tp270
sS'simson_1781_v1_2_0244.tif'
p271
(I2938
I4762
tp272
sS'simson_1781_v1_2_0483.tif'
p273
(I2898
I4778
tp274
sS'simson_1781_v1_2_0436.tif'
p275
(I2850
I4800
tp276
sS'simson_1781_v1_2_0253.tif'
p277
(I2938
I4762
tp278
sS'simson_1781_v1_2_0409.tif'
p279
(I2876
I4762
tp280
sS'simson_1781_v1_2_0164.tif'
p281
(I2934
I4756
tp282
sS'simson_1781_v1_2_0394.tif'
p283
(I2876
I4762
tp284
sS'simson_1781_v1_2_0197.tif'
p285
(I2934
I4756
tp286
sS'simson_1781_v1_2_0053.tif'
p287
(I2916
I4752
tp288
sS'simson_1781_v1_2_0413.tif'
p289
(I2876
I4762
tp290
sS'simson_1781_v1_2_0115.tif'
p291
(I2934
I4756
tp292
sS'simson_1781_v1_2_0360.tif'
p293
(I2876
I4762
tp294
sS'simson_1781_v1_2_0429.tif'
p295
(I2898
I4778
tp296
sS'simson_1781_v1_2_0470.tif'
p297
(I2898
I4778
tp298
sS'simson_1781_v1_2_0017.tif'
p299
(I2916
I4752
tp300
sS'simson_1781_v1_2_0316.tif'
p301
(I2876
I4762
tp302
sS'simson_1781_v1_2_0501.tif'
p303
(I2898
I4778
tp304
sS'simson_1781_v1_2_0090.tif'
p305
(I2916
I4752
tp306
sS'simson_1781_v1_2_0119.tif'
p307
(I2934
I4756
tp308
sS'simson_1781_v1_2_0103.tif'
p309
(I2934
I4756
tp310
sS'simson_1781_v1_2_0496.tif'
p311
(I2898
I4778
tp312
sS'simson_1781_v1_2_0420.tif'
p313
(I2898
I4778
tp314
sS'simson_1781_v1_2_0435.tif'
p315
(I2898
I4778
tp316
sS'simson_1781_v1_2_0226.tif'
p317
(I2938
I4762
tp318
sS'simson_1781_v1_2_0054.tif'
p319
(I2916
I4752
tp320
sS'simson_1781_v1_2_0401.tif'
p321
(I2876
I4762
tp322
sS'simson_1781_v1_2_0052.tif'
p323
(I2916
I4752
tp324
sS'simson_1781_v1_2_0393.tif'
p325
(I2876
I4762
tp326
sS'simson_1781_v1_2_0104.tif'
p327
(I2934
I4756
tp328
sS'simson_1781_v1_2_0025.tif'
p329
(I2916
I4752
tp330
sS'simson_1781_v1_2_0016.tif'
p331
(I2916
I4752
tp332
sS'simson_1781_v1_2_0219.tif'
p333
(I2938
I4762
tp334
sS'simson_1781_v1_2_0129.tif'
p335
(I2934
I4756
tp336
sS'simson_1781_v1_2_0135.tif'
p337
(I2934
I4756
tp338
sS'simson_1781_v1_2_0442.tif'
p339
(I2898
I4778
tp340
sS'simson_1781_v1_2_0187.tif'
p341
(I2934
I4756
tp342
sS'simson_1781_v1_2_0094.tif'
p343
(I2916
I4752
tp344
sS'simson_1781_v1_2_0321.tif'
p345
(I2876
I4762
tp346
sS'simson_1781_v1_2_0302.tif'
p347
(I2938
I4762
tp348
sS'simson_1781_v1_2_0362.tif'
p349
(I2876
I4762
tp350
sS'simson_1781_v1_2_0334.tif'
p351
(I2876
I4762
tp352
sS'simson_1781_v1_2_0510.tif'
p353
(I2898
I4778
tp354
sS'simson_1781_v1_2_0144.tif'
p355
(I2934
I4756
tp356
sS'simson_1781_v1_2_0034.tif'
p357
(I2916
I4752
tp358
sS'simson_1781_v1_2_0150.tif'
p359
(I2934
I4756
tp360
sS'simson_1781_v1_2_0218.tif'
p361
(I2938
I4762
tp362
sS'simson_1781_v1_2_0235.tif'
p363
(I2938
I4762
tp364
sS'simson_1781_v1_2_0158.tif'
p365
(I2934
I4756
tp366
sS'simson_1781_v1_2_0459.tif'
p367
(I2898
I4778
tp368
sS'simson_1781_v1_2_0232.tif'
p369
(I2938
I4762
tp370
sS'simson_1781_v1_2_0318.tif'
p371
(I2876
I4762
tp372
sS'simson_1781_v1_2_0369.tif'
p373
(I2876
I4762
tp374
sS'simson_1781_v1_2_0327.tif'
p375
(I2876
I4762
tp376
sS'simson_1781_v1_2_0074.tif'
p377
(I2916
I4752
tp378
sS'simson_1781_v1_2_0143.tif'
p379
(I2934
I4756
tp380
sS'simson_1781_v1_2_0408.tif'
p381
(I2876
I4762
tp382
sS'simson_1781_v1_2_0495.tif'
p383
(I2898
I4778
tp384
sS'simson_1781_v1_2_0463.tif'
p385
(I2898
I4778
tp386
sS'simson_1781_v1_2_0076.tif'
p387
(I2916
I4752
tp388
sS'simson_1781_v1_2_0161.tif'
p389
(I2934
I4756
tp390
sS'simson_1781_v1_2_0196.tif'
p391
(I2934
I4756
tp392
sS'simson_1781_v1_2_0026.tif'
p393
(I2916
I4752
tp394
sS'simson_1781_v1_2_0068.tif'
p395
(I2916
I4752
tp396
sS'simson_1781_v1_2_0110.tif'
p397
(I2934
I4756
tp398
sS'simson_1781_v1_2_0481.tif'
p399
(I2898
I4778
tp400
sS'simson_1781_v1_2_0300.tif'
p401
(I2938
I4762
tp402
sS'simson_1781_v1_2_0107.tif'
p403
(I2934
I4756
tp404
sS'simson_1781_v1_2_0056.tif'
p405
(I2916
I4752
tp406
sS'simson_1781_v1_2_0516.tif'
p407
(I2898
I4778
tp408
sS'simson_1781_v1_2_0043.tif'
p409
(I2916
I4752
tp410
sS'simson_1781_v1_2_0092.tif'
p411
(I2916
I4752
tp412
sS'simson_1781_v1_2_0263.tif'
p413
(I2938
I4762
tp414
sS'simson_1781_v1_2_0314.tif'
p415
(I2876
I4762
tp416
sS'simson_1781_v1_2_0168.tif'
p417
(I2934
I4756
tp418
sS'simson_1781_v1_2_0035.tif'
p419
(I2916
I4752
tp420
sS'simson_1781_v1_2_0089.tif'
p421
(I2916
I4752
tp422
sS'simson_1781_v1_2_0397.tif'
p423
(I2876
I4762
tp424
sS'simson_1781_v1_2_0020.tif'
p425
(I2916
I4752
tp426
sS'simson_1781_v1_2_0194.tif'
p427
(I2934
I4756
tp428
sS'simson_1781_v1_2_0299.tif'
p429
(I2938
I4762
tp430
sS'simson_1781_v1_2_0440.tif'
p431
(I2898
I4778
tp432
sS'simson_1781_v1_2_0509.tif'
p433
(I2898
I4778
tp434
sS'simson_1781_v1_2_0503.tif'
p435
(I2898
I4778
tp436
sS'simson_1781_v1_2_0306.tif'
p437
(I2938
I4762
tp438
sS'simson_1781_v1_2_0260.tif'
p439
(I2938
I4762
tp440
sS'simson_1781_v1_2_0313.tif'
p441
(I2876
I4762
tp442
sS'simson_1781_v1_2_0315.tif'
p443
(I2876
I4762
tp444
sS'simson_1781_v1_2_0211.tif'
p445
(I2938
I4762
tp446
sS'simson_1781_v1_2_0322.tif'
p447
(I2876
I4762
tp448
sS'simson_1781_v1_2_0303.tif'
p449
(I2938
I4762
tp450
sS'simson_1781_v1_2_0027.tif'
p451
(I2916
I4752
tp452
sS'simson_1781_v1_2_0233.tif'
p453
(I2938
I4762
tp454
sS'simson_1781_v1_2_0340.tif'
p455
(I2876
I4762
tp456
sS'simson_1781_v1_2_0460.tif'
p457
(I2898
I4778
tp458
sS'simson_1781_v1_2_0489.tif'
p459
(I2898
I4778
tp460
sS'simson_1781_v1_2_0255.tif'
p461
(I2938
I4762
tp462
sS'simson_1781_v1_2_0179.tif'
p463
(I2934
I4756
tp464
sS'simson_1781_v1_2_0278.tif'
p465
(I2938
I4762
tp466
sS'simson_1781_v1_2_0443.tif'
p467
(I2898
I4778
tp468
sS'simson_1781_v1_2_0228.tif'
p469
(I2938
I4762
tp470
sS'simson_1781_v1_2_0480.tif'
p471
(I2898
I4778
tp472
sS'simson_1781_v1_2_0067.tif'
p473
(I2916
I4752
tp474
sS'simson_1781_v1_2_0414.tif'
p475
(I2876
I4762
tp476
sS'simson_1781_v1_2_0377.tif'
p477
(I2876
I4762
tp478
sS'simson_1781_v1_2_0356.tif'
p479
(I2876
I4762
tp480
sS'simson_1781_v1_2_0254.tif'
p481
(I2938
I4762
tp482
sS'simson_1781_v1_2_0473.tif'
p483
(I2898
I4778
tp484
sS'simson_1781_v1_2_0167.tif'
p485
(I2934
I4756
tp486
sS'simson_1781_v1_2_0205.tif'
p487
(I2934
I4756
tp488
sS'simson_1781_v1_2_0220.tif'
p489
(I2938
I4762
tp490
sS'simson_1781_v1_2_0087.tif'
p491
(I2916
I4752
tp492
sS'simson_1781_v1_2_0019.tif'
p493
(I2916
I4752
tp494
sS'simson_1781_v1_2_0055.tif'
p495
(I2916
I4752
tp496
sS'simson_1781_v1_2_0281.tif'
p497
(I2938
I4762
tp498
sS'simson_1781_v1_2_0474.tif'
p499
(I2898
I4778
tp500
sS'simson_1781_v1_2_0432.tif'
p501
(I2898
I4778
tp502
sS'simson_1781_v1_2_0484.tif'
p503
(I2850
I4800
tp504
sS'simson_1781_v1_2_0416.tif'
p505
(I2876
I4762
tp506
sS'simson_1781_v1_2_0422.tif'
p507
(I2898
I4778
tp508
sS'simson_1781_v1_2_0427.tif'
p509
(I2898
I4778
tp510
sS'simson_1781_v1_2_0337.tif'
p511
(I2876
I4762
tp512
sS'simson_1781_v1_2_0238.tif'
p513
(I2938
I4762
tp514
sS'simson_1781_v1_2_0060.tif'
p515
(I2916
I4752
tp516
sS'simson_1781_v1_2_0221.tif'
p517
(I2938
I4762
tp518
sS'simson_1781_v1_2_0057.tif'
p519
(I2916
I4752
tp520
sS'simson_1781_v1_2_0450.tif'
p521
(I2898
I4778
tp522
sS'simson_1781_v1_2_0038.tif'
p523
(I2916
I4752
tp524
sS'simson_1781_v1_2_0335.tif'
p525
(I2876
I4762
tp526
sS'simson_1781_v1_2_0046.tif'
p527
(I2916
I4752
tp528
sS'simson_1781_v1_2_0093.tif'
p529
(I2916
I4752
tp530
sS'simson_1781_v1_2_0217.tif'
p531
(I2938
I4762
tp532
sS'simson_1781_v1_2_0343.tif'
p533
(I2876
I4762
tp534
sS'simson_1781_v1_2_0305.tif'
p535
(I2938
I4762
tp536
sS'simson_1781_v1_2_0389.tif'
p537
(I2876
I4762
tp538
sS'simson_1781_v1_2_0015.tif'
p539
(I2916
I4752
tp540
sS'simson_1781_v1_2_0488.tif'
p541
(I2898
I4778
tp542
sS'simson_1781_v1_2_0156.tif'
p543
(I2934
I4756
tp544
sS'simson_1781_v1_2_0391.tif'
p545
(I2876
I4762
tp546
sS'simson_1781_v1_2_0024.tif'
p547
(I2916
I4752
tp548
sS'simson_1781_v1_2_0311.tif'
p549
(I2938
I4762
tp550
sS'simson_1781_v1_2_0410.tif'
p551
(I2876
I4762
tp552
sS'simson_1781_v1_2_0256.tif'
p553
(I2938
I4762
tp554
sS'simson_1781_v1_2_0288.tif'
p555
(I2938
I4762
tp556
sS'simson_1781_v1_2_0137.tif'
p557
(I2934
I4756
tp558
sS'simson_1781_v1_2_0403.tif'
p559
(I2876
I4762
tp560
sS'simson_1781_v1_2_0368.tif'
p561
(I2876
I4762
tp562
sS'simson_1781_v1_2_0326.tif'
p563
(I2876
I4762
tp564
sS'simson_1781_v1_2_0376.tif'
p565
(I2876
I4762
tp566
sS'simson_1781_v1_2_0345.tif'
p567
(I2876
I4762
tp568
sS'simson_1781_v1_2_0091.tif'
p569
(I2916
I4752
tp570
sS'simson_1781_v1_2_0145.tif'
p571
(I2934
I4756
tp572
sS'simson_1781_v1_2_0037.tif'
p573
(I2916
I4752
tp574
sS'simson_1781_v1_2_0134.tif'
p575
(I2934
I4756
tp576
sS'simson_1781_v1_2_0223.tif'
p577
(I2938
I4762
tp578
sS'simson_1781_v1_2_0512.tif'
p579
(I2898
I4778
tp580
sS'simson_1781_v1_2_0099.tif'
p581
(I2916
I4752
tp582
sS'simson_1781_v1_2_0342.tif'
p583
(I2876
I4762
tp584
sS'simson_1781_v1_2_0475.tif'
p585
(I2898
I4778
tp586
sS'simson_1781_v1_2_0181.tif'
p587
(I2934
I4756
tp588
sS'simson_1781_v1_2_0101.tif'
p589
(I2934
I4756
tp590
sS'simson_1781_v1_2_0333.tif'
p591
(I2876
I4762
tp592
sS'simson_1781_v1_2_0329.tif'
p593
(I2876
I4762
tp594
sS'simson_1781_v1_2_0212.tif'
p595
(I2938
I4762
tp596
sS'simson_1781_v1_2_0511.tif'
p597
(I2898
I4778
tp598
sS'simson_1781_v1_2_0082.tif'
p599
(I2916
I4752
tp600
sS'simson_1781_v1_2_0269.tif'
p601
(I802
I1263
tp602
sS'simson_1781_v1_2_0296.tif'
p603
(I2938
I4762
tp604
sS'simson_1781_v1_2_0462.tif'
p605
(I2898
I4778
tp606
sS'simson_1781_v1_2_0138.tif'
p607
(I2934
I4756
tp608
sS'simson_1781_v1_2_0390.tif'
p609
(I2876
I4762
tp610
sS'simson_1781_v1_2_0227.tif'
p611
(I2938
I4762
tp612
sS'simson_1781_v1_2_0100.tif'
p613
(I2934
I4756
tp614
sS'simson_1781_v1_2_0040.tif'
p615
(I2916
I4752
tp616
sS'simson_1781_v1_2_0249.tif'
p617
(I2938
I4762
tp618
sS'simson_1781_v1_2_0482.tif'
p619
(I2850
I4800
tp620
sS'simson_1781_v1_2_0210.tif'
p621
(I2938
I4762
tp622
sS'simson_1781_v1_2_0505.tif'
p623
(I2898
I4778
tp624
sS'simson_1781_v1_2_0176.tif'
p625
(I2934
I4756
tp626
sS'simson_1781_v1_2_0049.tif'
p627
(I2916
I4752
tp628
sS'simson_1781_v1_2_0312.tif'
p629
(I2876
I4762
tp630
sS'simson_1781_v1_2_0438.tif'
p631
(I2898
I4778
tp632
sS'simson_1781_v1_2_0493.tif'
p633
(I2898
I4778
tp634
sS'simson_1781_v1_2_0320.tif'
p635
(I2876
I4762
tp636
sS'simson_1781_v1_2_0139.tif'
p637
(I2934
I4756
tp638
sS'simson_1781_v1_2_0353.tif'
p639
(I2876
I4762
tp640
sS'simson_1781_v1_2_0504.tif'
p641
(I2898
I4778
tp642
sS'simson_1781_v1_2_0310.tif'
p643
(I2938
I4762
tp644
sS'simson_1781_v1_2_0384.tif'
p645
(I2876
I4762
tp646
sS'simson_1781_v1_2_0079.tif'
p647
(I2916
I4752
tp648
sS'simson_1781_v1_2_0492.tif'
p649
(I2898
I4778
tp650
sS'simson_1781_v1_2_0350.tif'
p651
(I2876
I4762
tp652
sS'simson_1781_v1_2_0388.tif'
p653
(I2876
I4762
tp654
sS'simson_1781_v1_2_0341.tif'
p655
(I2876
I4762
tp656
sS'simson_1781_v1_2_0352.tif'
p657
(I2876
I4762
tp658
sS'simson_1781_v1_2_0141.tif'
p659
(I2934
I4756
tp660
sS'simson_1781_v1_2_0162.tif'
p661
(I802
I1263
tp662
sS'simson_1781_v1_2_0102.tif'
p663
(I2934
I4756
tp664
sS'simson_1781_v1_2_0154.tif'
p665
(I2934
I4756
tp666
sS'simson_1781_v1_2_0072.tif'
p667
(I2916
I4752
tp668
sS'simson_1781_v1_2_0272.tif'
p669
(I2938
I4762
tp670
sS'simson_1781_v1_2_0243.tif'
p671
(I2938
I4762
tp672
sS'simson_1781_v1_2_0262.tif'
p673
(I2938
I4762
tp674
sS'simson_1781_v1_2_0358.tif'
p675
(I2876
I4762
tp676
sS'simson_1781_v1_2_0445.tif'
p677
(I2898
I4778
tp678
sS'simson_1781_v1_2_0066.tif'
p679
(I2916
I4752
tp680
sS'simson_1781_v1_2_0084.tif'
p681
(I2916
I4752
tp682
sS'simson_1781_v1_2_0374.tif'
p683
(I2876
I4762
tp684
sS'simson_1781_v1_2_0447.tif'
p685
(I2898
I4778
tp686
sS'simson_1781_v1_2_0178.tif'
p687
(I2934
I4756
tp688
sS'simson_1781_v1_2_0070.tif'
p689
(I2916
I4752
tp690
sS'simson_1781_v1_2_0109.tif'
p691
(I2934
I4756
tp692
sS'simson_1781_v1_2_0469.tif'
p693
(I2898
I4778
tp694
sS'simson_1781_v1_2_0147.tif'
p695
(I2934
I4756
tp696
sS'simson_1781_v1_2_0439.tif'
p697
(I2898
I4778
tp698
sS'simson_1781_v1_2_0275.tif'
p699
(I2938
I4762
tp700
sS'simson_1781_v1_2_0378.tif'
p701
(I2876
I4762
tp702
sS'simson_1781_v1_2_0268.tif'
p703
(I2938
I4762
tp704
sS'simson_1781_v1_2_0203.tif'
p705
(I2934
I4756
tp706
sS'simson_1781_v1_2_0022.tif'
p707
(I2916
I4752
tp708
sS'simson_1781_v1_2_0289.tif'
p709
(I2938
I4762
tp710
sS'simson_1781_v1_2_0293.tif'
p711
(I2938
I4762
tp712
sS'simson_1781_v1_2_0380.tif'
p713
(I2876
I4762
tp714
sS'simson_1781_v1_2_0186.tif'
p715
(I2934
I4756
tp716
sS'simson_1781_v1_2_0080.tif'
p717
(I2916
I4752
tp718
sS'simson_1781_v1_2_0222.tif'
p719
(I2938
I4762
tp720
sS'simson_1781_v1_2_0160.tif'
p721
(I2934
I4756
tp722
sS'simson_1781_v1_2_0239.tif'
p723
(I2938
I4762
tp724
sS'simson_1781_v1_2_0039.tif'
p725
(I2916
I4752
tp726
sS'simson_1781_v1_2_0174.tif'
p727
(I2934
I4756
tp728
sS'simson_1781_v1_2_0502.tif'
p729
(I2898
I4778
tp730
sS'simson_1781_v1_2_0023.tif'
p731
(I2916
I4752
tp732
sS'simson_1781_v1_2_0426.tif'
p733
(I2898
I4778
tp734
sS'simson_1781_v1_2_0031.tif'
p735
(I2916
I4752
tp736
sS'simson_1781_v1_2_0081.tif'
p737
(I2916
I4752
tp738
sS'simson_1781_v1_2_0242.tif'
p739
(I2938
I4762
tp740
sS'simson_1781_v1_2_0180.tif'
p741
(I2934
I4756
tp742
sS'simson_1781_v1_2_0461.tif'
p743
(I2898
I4778
tp744
sS'simson_1781_v1_2_0433.tif'
p745
(I2898
I4778
tp746
sS'simson_1781_v1_2_0050.tif'
p747
(I2916
I4752
tp748
sS'simson_1781_v1_2_0166.tif'
p749
(I2934
I4756
tp750
sS'simson_1781_v1_2_0173.tif'
p751
(I2934
I4756
tp752
sS'simson_1781_v1_2_0175.tif'
p753
(I2934
I4756
tp754
sS'simson_1781_v1_2_0142.tif'
p755
(I2934
I4756
tp756
sS'simson_1781_v1_2_0163.tif'
p757
(I2934
I4756
tp758
sS'simson_1781_v1_2_0120.tif'
p759
(I2934
I4756
tp760
sS'simson_1781_v1_2_0030.tif'
p761
(I2916
I4752
tp762
sS'simson_1781_v1_2_0200.tif'
p763
(I2934
I4756
tp764
sS'simson_1781_v1_2_0348.tif'
p765
(I2876
I4762
tp766
sS'simson_1781_v1_2_0451.tif'
p767
(I2898
I4778
tp768
sS'simson_1781_v1_2_0514.tif'
p769
(I2898
I4778
tp770
sS'simson_1781_v1_2_0062.tif'
p771
(I2916
I4752
tp772
sS'simson_1781_v1_2_0045.tif'
p773
(I2916
I4752
tp774
sS'simson_1781_v1_2_0021.tif'
p775
(I2916
I4752
tp776
sS'simson_1781_v1_2_0059.tif'
p777
(I2916
I4752
tp778
sS'simson_1781_v1_2_0331.tif'
p779
(I2876
I4762
tp780
sS'simson_1781_v1_2_0117.tif'
p781
(I2934
I4756
tp782
sS'simson_1781_v1_2_0136.tif'
p783
(I2934
I4756
tp784
sS'simson_1781_v1_2_0083.tif'
p785
(I2916
I4752
tp786
sS'simson_1781_v1_2_0213.tif'
p787
(I2938
I4762
tp788
sS'simson_1781_v1_2_0295.tif'
p789
(I2938
I4762
tp790
sS'simson_1781_v1_2_0464.tif'
p791
(I2898
I4778
tp792
sS'simson_1781_v1_2_0494.tif'
p793
(I2898
I4778
tp794
sS'simson_1781_v1_2_0214.tif'
p795
(I2938
I4762
tp796
sS'simson_1781_v1_2_0332.tif'
p797
(I2876
I4762
tp798
sS'simson_1781_v1_2_0383.tif'
p799
(I2876
I4762
tp800
sS'simson_1781_v1_2_0032.tif'
p801
(I2916
I4752
tp802
sS'simson_1781_v1_2_0064.tif'
p803
(I2916
I4752
tp804
sS'simson_1781_v1_2_0157.tif'
p805
(I2934
I4756
tp806
sS'simson_1781_v1_2_0230.tif'
p807
(I2938
I4762
tp808
sS'simson_1781_v1_2_0347.tif'
p809
(I2876
I4762
tp810
sS'simson_1781_v1_2_0155.tif'
p811
(I2934
I4756
tp812
sS'simson_1781_v1_2_0419.tif'
p813
(I2876
I4762
tp814
sS'simson_1781_v1_2_0085.tif'
p815
(I2916
I4752
tp816
sS'simson_1781_v1_2_0123.tif'
p817
(I2934
I4756
tp818
sS'simson_1781_v1_2_0165.tif'
p819
(I2934
I4756
tp820
sS'simson_1781_v1_2_0454.tif'
p821
(I2898
I4778
tp822
sS'simson_1781_v1_2_0468.tif'
p823
(I2898
I4778
tp824
sS'simson_1781_v1_2_0264.tif'
p825
(I2938
I4762
tp826
sS'simson_1781_v1_2_0047.tif'
p827
(I2916
I4752
tp828
sS'simson_1781_v1_2_0425.tif'
p829
(I2898
I4778
tp830
sS'simson_1781_v1_2_0467.tif'
p831
(I2898
I4778
tp832
sS'simson_1781_v1_2_0171.tif'
p833
(I2934
I4756
tp834
sS'simson_1781_v1_2_0069.tif'
p835
(I2916
I4752
tp836
sS'simson_1781_v1_2_0036.tif'
p837
(I2916
I4752
tp838
sS'simson_1781_v1_2_0346.tif'
p839
(I2876
I4762
tp840
sS'simson_1781_v1_2_0018.tif'
p841
(I2916
I4752
tp842
sS'simson_1781_v1_2_0405.tif'
p843
(I2876
I4762
tp844
sS'simson_1781_v1_2_0108.tif'
p845
(I2934
I4756
tp846
sS'simson_1781_v1_2_0372.tif'
p847
(I2876
I4762
tp848
sS'simson_1781_v1_2_0146.tif'
p849
(I2934
I4756
tp850
sS'simson_1781_v1_2_0392.tif'
p851
(I2876
I4762
tp852
sS'simson_1781_v1_2_0116.tif'
p853
(I2934
I4756
tp854
sS'simson_1781_v1_2_0125.tif'
p855
(I2934
I4756
tp856
sS'simson_1781_v1_2_0513.tif'
p857
(I2898
I4778
tp858
sS'simson_1781_v1_2_0273.tif'
p859
(I2938
I4762
tp860
sS'simson_1781_v1_2_0317.tif'
p861
(I2876
I4762
tp862
sS'simson_1781_v1_2_0240.tif'
p863
(I2938
I4762
tp864
sS'simson_1781_v1_2_0182.tif'
p865
(I2934
I4756
tp866
sS'simson_1781_v1_2_0041.tif'
p867
(I2916
I4752
tp868
sS'simson_1781_v1_2_0339.tif'
p869
(I2876
I4762
tp870
sS'simson_1781_v1_2_0061.tif'
p871
(I2916
I4752
tp872
sS'simson_1781_v1_2_0044.tif'
p873
(I2916
I4752
tp874
sS'simson_1781_v1_2_0122.tif'
p875
(I2934
I4756
tp876
sS'simson_1781_v1_2_0215.tif'
p877
(I2938
I4762
tp878
sS'simson_1781_v1_2_0366.tif'
p879
(I2876
I4762
tp880
sS'simson_1781_v1_2_0373.tif'
p881
(I2876
I4762
tp882
sS'simson_1781_v1_2_0417.tif'
p883
(I2876
I4762
tp884
sS'simson_1781_v1_2_0098.tif'
p885
(I2916
I4752
tp886
sS'simson_1781_v1_2_0385.tif'
p887
(I2876
I4762
tp888
sS'simson_1781_v1_2_0153.tif'
p889
(I2934
I4756
tp890
sS'simson_1781_v1_2_0515.tif'
p891
(I2898
I4778
tp892
sS'simson_1781_v1_2_0406.tif'
p893
(I2876
I4762
tp894
sS'simson_1781_v1_2_0202.tif'
p895
(I2934
I4756
tp896
sS'simson_1781_v1_2_0344.tif'
p897
(I2876
I4762
tp898
sS'simson_1781_v1_2_0407.tif'
p899
(I2876
I4762
tp900
sS'simson_1781_v1_2_0399.tif'
p901
(I2876
I4762
tp902
sS'simson_1781_v1_2_0466.tif'
p903
(I2898
I4778
tp904
sS'simson_1781_v1_2_0073.tif'
p905
(I2916
I4752
tp906
sS'simson_1781_v1_2_0192.tif'
p907
(I2934
I4756
tp908
sS'simson_1781_v1_2_0149.tif'
p909
(I2934
I4756
tp910
sS'simson_1781_v1_2_0280.tif'
p911
(I2938
I4762
tp912
sS'simson_1781_v1_2_0185.tif'
p913
(I2934
I4756
tp914
sS'simson_1781_v1_2_0428.tif'
p915
(I2898
I4778
tp916
sS'simson_1781_v1_2_0140.tif'
p917
(I2934
I4756
tp918
sS'simson_1781_v1_2_0172.tif'
p919
(I2934
I4756
tp920
sS'simson_1781_v1_2_0446.tif'
p921
(I2898
I4778
tp922
sS'simson_1781_v1_2_0258.tif'
p923
(I2938
I4762
tp924
sS'simson_1781_v1_2_0371.tif'
p925
(I2876
I4762
tp926
sS'simson_1781_v1_2_0309.tif'
p927
(I2938
I4762
tp928
sS'simson_1781_v1_2_0431.tif'
p929
(I2898
I4778
tp930
sS'simson_1781_v1_2_0434.tif'
p931
(I2898
I4778
tp932
sS'simson_1781_v1_2_0351.tif'
p933
(I2876
I4762
tp934
sS'simson_1781_v1_2_0170.tif'
p935
(I2934
I4756
tp936
sS'simson_1781_v1_2_0476.tif'
p937
(I2898
I4778
tp938
sS'simson_1781_v1_2_0449.tif'
p939
(I2898
I4778
tp940
sS'simson_1781_v1_2_0381.tif'
p941
(I2876
I4762
tp942
sS'simson_1781_v1_2_0058.tif'
p943
(I2916
I4752
tp944
sS'simson_1781_v1_2_0490.tif'
p945
(I2898
I4778
tp946
sS'simson_1781_v1_2_0183.tif'
p947
(I2934
I4756
tp948
sS'simson_1781_v1_2_0365.tif'
p949
(I2876
I4762
tp950
sS'simson_1781_v1_2_0042.tif'
p951
(I2916
I4752
tp952
sS'simson_1781_v1_2_0507.tif'
p953
(I2898
I4778
tp954
sS'simson_1781_v1_2_0029.tif'
p955
(I2916
I4752
tp956
sS'simson_1781_v1_2_0033.tif'
p957
(I2916
I4752
tp958
sS'simson_1781_v1_2_0130.tif'
p959
(I2934
I4756
tp960
sS'simson_1781_v1_2_0499.tif'
p961
(I2898
I4778
tp962
sS'simson_1781_v1_2_0121.tif'
p963
(I2934
I4756
tp964
sS'simson_1781_v1_2_0277.tif'
p965
(I2938
I4762
tp966
sS'simson_1781_v1_2_0304.tif'
p967
(I2938
I4762
tp968
sS'simson_1781_v1_2_0290.tif'
p969
(I2938
I4762
tp970
sS'simson_1781_v1_2_0266.tif'
p971
(I2938
I4762
tp972
sS'simson_1781_v1_2_0375.tif'
p973
(I2876
I4762
tp974
sS'simson_1781_v1_2_0382.tif'
p975
(I2876
I4762
tp976
sS'simson_1781_v1_2_0065.tif'
p977
(I2916
I4752
tp978
sS'simson_1781_v1_2_0508.tif'
p979
(I2898
I4778
tp980
sS'simson_1781_v1_2_0398.tif'
p981
(I2876
I4762
tp982
sS'simson_1781_v1_2_0379.tif'
p983
(I2876
I4762
tp984
sS'simson_1781_v1_2_0363.tif'
p985
(I2876
I4762
tp986
sS'simson_1781_v1_2_0114.tif'
p987
(I2934
I4756
tp988
sS'simson_1781_v1_2_0198.tif'
p989
(I2934
I4756
tp990
sS'simson_1781_v1_2_0237.tif'
p991
(I2938
I4762
tp992
sS'simson_1781_v1_2_0209.tif'
p993
(I2938
I4762
tp994
sS'simson_1781_v1_2_0271.tif'
p995
(I2938
I4762
tp996
sS'simson_1781_v1_2_0497.tif'
p997
(I2898
I4778
tp998
sS'simson_1781_v1_2_0364.tif'
p999
(I2876
I4762
tp1000
sS'simson_1781_v1_2_0259.tif'
p1001
(I2938
I4762
tp1002
sS'simson_1781_v1_2_0078.tif'
p1003
(I2916
I4752
tp1004
s.