(dp0
S'elementseuclidv03euclgoog_0028'
p1
cnumpy.core.multiarray
scalar
p2
(cnumpy
dtype
p3
(S'f8'
p4
I0
I1
tp5
Rp6
(I3
S'<'
p7
NNNI-1
I-1
I0
tp8
bS'\x15e\x8e\xd1o\xd5=?'
p9
tp10
Rp11
sS'elementseuclidv03euclgoog_0029'
p12
g2
(g6
S'\xb4\x99\xb6\xfd\r\x87A?'
p13
tp14
Rp15
sS'elementseuclidv03euclgoog_0026'
p16
g2
(g6
S'uF\xba\xd9\xb0\xbc>?'
p17
tp18
Rp19
sS'elementseuclidv03euclgoog_0027'
p20
g2
(g6
S'\xa8[\xb2\x01\xa5\x1d@?'
p21
tp22
Rp23
sS'elementseuclidv03euclgoog_0024'
p24
g2
(g6
S' KN\x17A5@?'
p25
tp26
Rp27
sS'elementseuclidv03euclgoog_0025'
p28
g2
(g6
S'Y\xc2nU\x01\x98A?'
p29
tp30
Rp31
sS'elementseuclidv03euclgoog_0022'
p32
g2
(g6
S'\x1c\xa1\xbcR\xe9\xaa;?'
p33
tp34
Rp35
sS'elementseuclidv03euclgoog_0023'
p36
g2
(g6
S'\x11;\x1d\xee\xd6nA?'
p37
tp38
Rp39
sS'elementseuclidv03euclgoog_0020'
p40
g2
(g6
S'\x1bG\xd7\xc8\xfa\xfaE?'
p41
tp42
Rp43
sS'elementseuclidv03euclgoog_0021'
p44
g2
(g6
S"}\xfdK\xb3g'A?"
p45
tp46
Rp47
sS'elementseuclidv03euclgoog_0457'
p48
g2
(g6
S'\xd26\xb4\x84B\xcf5?'
p49
tp50
Rp51
sS'elementseuclidv03euclgoog_0456'
p52
g2
(g6
S'?\xc3j\xe3\xfd\x917?'
p53
tp54
Rp55
sS'elementseuclidv03euclgoog_0455'
p56
g2
(g6
S'\x1a\x88\xee\xa4\x86a7?'
p57
tp58
Rp59
sS'elementseuclidv03euclgoog_0454'
p60
g2
(g6
S'\xafE\xb4\xff\x1f<C?'
p61
tp62
Rp63
sS'elementseuclidv03euclgoog_0453'
p64
g2
(g6
S'\xb6\xdcq\xe3Z\xc45?'
p65
tp66
Rp67
sS'elementseuclidv03euclgoog_0452'
p68
g2
(g6
S'\xf8\xaf\x1d4Z\x153?'
p69
tp70
Rp71
sS'elementseuclidv03euclgoog_0451'
p72
g2
(g6
S'-W\x02\xab\xe7k5?'
p73
tp74
Rp75
sS'elementseuclidv03euclgoog_0450'
p76
g2
(g6
S'\t\xdf\xa9~]]5?'
p77
tp78
Rp79
sS'elementseuclidv03euclgoog_0459'
p80
g2
(g6
S'x\xc2|b\xaf|2?'
p81
tp82
Rp83
sS'elementseuclidv03euclgoog_0458'
p84
g2
(g6
S'\xac\xa5,D\xc2y7?'
p85
tp86
Rp87
sS'elementseuclidv03euclgoog_0233'
p88
g2
(g6
S'\xcf\x92/\xf3U\xe77?'
p89
tp90
Rp91
sS'elementseuclidv03euclgoog_0232'
p92
g2
(g6
S'6\xb0g\xaa\xd6\xb0:?'
p93
tp94
Rp95
sS'elementseuclidv03euclgoog_0231'
p96
g2
(g6
S'\x88\xee\xb3\x144\xe3:?'
p97
tp98
Rp99
sS'elementseuclidv03euclgoog_0339'
p100
g2
(g6
S'#\xa0\x91\xfcJ{<?'
p101
tp102
Rp103
sS'elementseuclidv03euclgoog_0237'
p104
g2
(g6
S'6\xab\x86Q\xfa\xc98?'
p105
tp106
Rp107
sS'elementseuclidv03euclgoog_0236'
p108
g2
(g6
S'\x9c\xc3\xdd\xaf\x9e\xac9?'
p109
tp110
Rp111
sS'elementseuclidv03euclgoog_0235'
p112
g2
(g6
S'\xaa\x13_\xd4rE7?'
p113
tp114
Rp115
sS'elementseuclidv03euclgoog_0234'
p116
g2
(g6
S'\xad\x08\xf9p\x86\x159?'
p117
tp118
Rp119
sS'elementseuclidv03euclgoog_0332'
p120
g2
(g6
S'\x07\xc6\xb4\xf0UE:?'
p121
tp122
Rp123
sS'elementseuclidv03euclgoog_0333'
p124
g2
(g6
S'\xc9\xf2gb\x8f\x15:?'
p125
tp126
Rp127
sS'elementseuclidv03euclgoog_0239'
p128
g2
(g6
S'|\t\xd2\xf8t\x96:?'
p129
tp130
Rp131
sS'elementseuclidv03euclgoog_0331'
p132
g2
(g6
S'\x8f\xbfs\xe3(\xf89?'
p133
tp134
Rp135
sS'elementseuclidv03euclgoog_0336'
p136
g2
(g6
S'\xd4\xc3\xb2\x18\x9c\xfa9?'
p137
tp138
Rp139
sS'elementseuclidv03euclgoog_0337'
p140
g2
(g6
S'O[\x8d\xbd\x15\x08:?'
p141
tp142
Rp143
sS'elementseuclidv03euclgoog_0334'
p144
g2
(g6
S'@\xd8\x8a\xc7\xd8\x016?'
p145
tp146
Rp147
sS'elementseuclidv03euclgoog_0335'
p148
g2
(g6
S'\xa7^i\x97\x85\x056?'
p149
tp150
Rp151
sS'elementseuclidv03euclgoog_0011'
p152
g2
(g6
S'\x93\xdf\xde\xb0k8:?'
p153
tp154
Rp155
sS'elementseuclidv03euclgoog_0404'
p156
g2
(g6
S'Y\xb1RL\x18\x18=?'
p157
tp158
Rp159
sS'elementseuclidv03euclgoog_0408'
p160
g2
(g6
S'\x17F\x17.\xd6\x8e:?'
p161
tp162
Rp163
sS'elementseuclidv03euclgoog_0405'
p164
g2
(g6
S'\xf9\xb9\x82\xe2\xb074?'
p165
tp166
Rp167
sS'elementseuclidv03euclgoog_0406'
p168
g2
(g6
S'\x17\x91\xbf5\xe9\xb02?'
p169
tp170
Rp171
sS'elementseuclidv03euclgoog_0246'
p172
g2
(g6
S'\xb5\x18\xcfh\xc3\xbf7?'
p173
tp174
Rp175
sS'elementseuclidv03euclgoog_0247'
p176
g2
(g6
S'wD\r\x91\xbb\n9?'
p177
tp178
Rp179
sS'elementseuclidv03euclgoog_0244'
p180
g2
(g6
S'\xb5\x18\xcfh\xc3\xbf7?'
p181
tp182
Rp183
sS'elementseuclidv03euclgoog_0245'
p184
g2
(g6
S'\xbb\xf7\x9c>\xfe/=?'
p185
tp186
Rp187
sS'elementseuclidv03euclgoog_0242'
p188
g2
(g6
S'\x01\xb7\xc5<\xd5z8?'
p189
tp190
Rp191
sS'elementseuclidv03euclgoog_0243'
p192
g2
(g6
S'^\x9a\xd7\xd1\xce\x9e8?'
p193
tp194
Rp195
sS'elementseuclidv03euclgoog_0240'
p196
g2
(g6
S'\x94\xc3Nt*\x19;?'
p197
tp198
Rp199
sS'elementseuclidv03euclgoog_0241'
p200
g2
(g6
S'\x14\xac}P\xd1q7?'
p201
tp202
Rp203
sS'elementseuclidv03euclgoog_0400'
p204
g2
(g6
S'\xa2\x84x\xf07\xd5H?'
p205
tp206
Rp207
sS'elementseuclidv03euclgoog_0248'
p208
g2
(g6
S'\xa9\x02m\x0fv\xff5?'
p209
tp210
Rp211
sS'elementseuclidv03euclgoog_0249'
p212
g2
(g6
S'\x8b)~\xe8\xee\xea7?'
p213
tp214
Rp215
sS'elementseuclidv03euclgoog_0484'
p216
g2
(g6
S']\xe9\x9d\x01\x07\xc9A?'
p217
tp218
Rp219
sS'elementseuclidv03euclgoog_0485'
p220
g2
(g6
S'\xc4je\xefr\x12??'
p221
tp222
Rp223
sS'elementseuclidv03euclgoog_0409'
p224
g2
(g6
S'\xd5[\xa1\xa8\x17T<?'
p225
tp226
Rp227
sS'elementseuclidv03euclgoog_0487'
p228
g2
(g6
S'\xc4je\xefr\x12??'
p229
tp230
Rp231
sS'elementseuclidv03euclgoog_0480'
p232
g2
(g6
S'\xabt\x16+\xefO@?'
p233
tp234
Rp235
sS'elementseuclidv03euclgoog_0150'
p236
g2
(g6
S'=\xcfe\xc2&X>?'
p237
tp238
Rp239
sS'elementseuclidv03euclgoog_0482'
p240
g2
(g6
S'\x15\x8cJ\xea\x044A?'
p241
tp242
Rp243
sS'elementseuclidv03euclgoog_0483'
p244
g2
(g6
S'\xb8pjV\x04\xff@?'
p245
tp246
Rp247
sS'elementseuclidv03euclgoog_0151'
p248
g2
(g6
S'\xdb\xb2b\x96\x10\x93>?'
p249
tp250
Rp251
sS'elementseuclidv03euclgoog_0488'
p252
g2
(g6
S'\x19\xac\xd2\n/%A?'
p253
tp254
Rp255
sS'elementseuclidv03euclgoog_0489'
p256
g2
(g6
S'\x05{$\xba\x10nD?'
p257
tp258
Rp259
sS'elementseuclidv03euclgoog_0062'
p260
g2
(g6
S'\xf46\xb1\x88h&<?'
p261
tp262
Rp263
sS'elementseuclidv03euclgoog_0063'
p264
g2
(g6
S'~\x84\x89.\x818C?'
p265
tp266
Rp267
sS'elementseuclidv03euclgoog_0060'
p268
g2
(g6
S'\x85\xbb\xfa&y\x7f=?'
p269
tp270
Rp271
sS'elementseuclidv03euclgoog_0061'
p272
g2
(g6
S'\x82\xbb\xc5\x7f\xe0\x91@?'
p273
tp274
Rp275
sS'elementseuclidv03euclgoog_0149'
p276
g2
(g6
S"\xa1Y'\x99\xe5\x06@?"
p277
tp278
Rp279
sS'elementseuclidv03euclgoog_0148'
p280
g2
(g6
S'\x86\x13\xd7\xf4I`;?'
p281
tp282
Rp283
sS'elementseuclidv03euclgoog_0064'
p284
g2
(g6
S'\xc5s\x06o4F@?'
p285
tp286
Rp287
sS'elementseuclidv03euclgoog_0065'
p288
g2
(g6
S'#\xff\x18+\x1e\x95;?'
p289
tp290
Rp291
sS'elementseuclidv03euclgoog_0145'
p292
g2
(g6
S'\xb5\x9a\xc4\xf9\xb1r??'
p293
tp294
Rp295
sS'elementseuclidv03euclgoog_0144'
p296
g2
(g6
S'\xe2"\xbb\xc2=\x088?'
p297
tp298
Rp299
sS'elementseuclidv03euclgoog_0147'
p300
g2
(g6
S'\x9d\x03\x0f\xb3\x1d\xa6<?'
p301
tp302
Rp303
sS'elementseuclidv03euclgoog_0146'
p304
g2
(g6
S"\x1e' R\xf5\xac8?"
p305
tp306
Rp307
sS'elementseuclidv03euclgoog_0141'
p308
g2
(g6
S'\xc2\x04\x10O\xbf\xc0A?'
p309
tp310
Rp311
sS'elementseuclidv03euclgoog_0140'
p312
g2
(g6
S'\x14\xd3\xde\xb5#\x82=?'
p313
tp314
Rp315
sS'elementseuclidv03euclgoog_0143'
p316
g2
(g6
S'Oa\xdeA\x8e\x8a=?'
p317
tp318
Rp319
sS'elementseuclidv03euclgoog_0142'
p320
g2
(g6
S'\xfd\x10Wul\xe8A?'
p321
tp322
Rp323
sS'elementseuclidv03euclgoog_0099'
p324
g2
(g6
S'\x86\x12\x8fT\xa4Y9?'
p325
tp326
Rp327
sS'elementseuclidv03euclgoog_0098'
p328
g2
(g6
S'\xf0\xa2s\xf8\xef4<?'
p329
tp330
Rp331
sS'elementseuclidv03euclgoog_0097'
p332
g2
(g6
S'\xf9\xfd\xb3\x1b\xfa6??'
p333
tp334
Rp335
sS'elementseuclidv03euclgoog_0096'
p336
g2
(g6
S'\x1f8\x16\x98\x8c\x848?'
p337
tp338
Rp339
sS'elementseuclidv03euclgoog_0095'
p340
g2
(g6
S's\xf5]\x16\xdb\xb2<?'
p341
tp342
Rp343
sS'elementseuclidv03euclgoog_0094'
p344
g2
(g6
S'\xceG\t\x17%7A?'
p345
tp346
Rp347
sS'elementseuclidv03euclgoog_0093'
p348
g2
(g6
S'M\x8a\xd7j\x86\xecF?'
p349
tp350
Rp351
sS'elementseuclidv03euclgoog_0092'
p352
g2
(g6
S'\xceG\t\x17%7A?'
p353
tp354
Rp355
sS'elementseuclidv03euclgoog_0091'
p356
g2
(g6
S'eL\xdd\xe4%\x8fD?'
p357
tp358
Rp359
sS'elementseuclidv03euclgoog_0090'
p360
g2
(g6
S'\x15\xe0\xf1)\xadjB?'
p361
tp362
Rp363
sS'elementseuclidv03euclgoog_0468'
p364
g2
(g6
S'5\xc9\x012x%9?'
p365
tp366
Rp367
sS'elementseuclidv03euclgoog_0469'
p368
g2
(g6
S'\xe5N3\xc1j?4?'
p369
tp370
Rp371
sS'elementseuclidv03euclgoog_0466'
p372
g2
(g6
S'\x8bT\xb4z\xfd\xa80?'
p373
tp374
Rp375
sS'elementseuclidv03euclgoog_0467'
p376
g2
(g6
S'\x14\xce\x94j\xbcy0?'
p377
tp378
Rp379
sS'elementseuclidv03euclgoog_0464'
p380
g2
(g6
S'\n\xc7\x8b\xed\xf4M4?'
p381
tp382
Rp383
sS'elementseuclidv03euclgoog_0465'
p384
g2
(g6
S'-W\x02\xab\xe7k5?'
p385
tp386
Rp387
sS'elementseuclidv03euclgoog_0462'
p388
g2
(g6
S'\x81f\xda\x11,\xc42?'
p389
tp390
Rp391
sS'elementseuclidv03euclgoog_0463'
p392
g2
(g6
S'\xd4\xca\xac\xf7\xeb\t1?'
p393
tp394
Rp395
sS'elementseuclidv03euclgoog_0460'
p396
g2
(g6
S'\xed"\xcd\x92\xb8\xa56?'
p397
tp398
Rp399
sS'elementseuclidv03euclgoog_0461'
p400
g2
(g6
S'ZAZ^\x0249?'
p401
tp402
Rp403
sS'elementseuclidv03euclgoog_0407'
p404
g2
(g6
S'8\x86zxH\xce1?'
p405
tp406
Rp407
sS'elementseuclidv03euclgoog_0365'
p408
g2
(g6
S';\x1b\xc9O\x07k@?'
p409
tp410
Rp411
sS'elementseuclidv03euclgoog_0364'
p412
g2
(g6
S'\x1e\xf5.\xb5I\xf3:?'
p413
tp414
Rp415
sS'elementseuclidv03euclgoog_0367'
p416
g2
(g6
S'9\xa7\x98 ,/F?'
p417
tp418
Rp419
sS'elementseuclidv03euclgoog_0366'
p420
g2
(g6
S'l\xa5H\x1c\xf9\xa7P?'
p421
tp422
Rp423
sS'elementseuclidv03euclgoog_0361'
p424
g2
(g6
S"\xa6\x82'\xf8%#>?"
p425
tp426
Rp427
sS'elementseuclidv03euclgoog_0360'
p428
g2
(g6
S'\xb1\x03\x8cm\r\x14@?'
p429
tp430
Rp431
sS'elementseuclidv03euclgoog_0363'
p432
g2
(g6
S'\x8c\xa1\xf5\xf3\x01T9?'
p433
tp434
Rp435
sS'elementseuclidv03euclgoog_0362'
p436
g2
(g6
S'\x99\x85\xb4a\x94g8?'
p437
tp438
Rp439
sS'elementseuclidv03euclgoog_0369'
p440
g2
(g6
S'B{\x83\x8f\xf5\xd09?'
p441
tp442
Rp443
sS'elementseuclidv03euclgoog_0368'
p444
g2
(g6
S'\xb4\xd2\xac\x15\xaf\xb9\xf9>'
p445
tp446
Rp447
sS'elementseuclidv03euclgoog_0208'
p448
g2
(g6
S'\x9cI*\xd8h?5?'
p449
tp450
Rp451
sS'elementseuclidv03euclgoog_0209'
p452
g2
(g6
S'\x9c\xc3\xdd\xaf\x9e\xac9?'
p453
tp454
Rp455
sS'elementseuclidv03euclgoog_0202'
p456
g2
(g6
S'\x04z`R%\xbd>?'
p457
tp458
Rp459
sS'elementseuclidv03euclgoog_0203'
p460
g2
(g6
S';\xdb\xb8$\x97\x9c=?'
p461
tp462
Rp463
sS'elementseuclidv03euclgoog_0200'
p464
g2
(g6
S'\x0c\x13\xefl\xd0\x999?'
p465
tp466
Rp467
sS'elementseuclidv03euclgoog_0201'
p468
g2
(g6
S'\xa7S\xdf\x83t\x0f8?'
p469
tp470
Rp471
sS'elementseuclidv03euclgoog_0206'
p472
g2
(g6
S'C\xca\xffS\xcc(=?'
p473
tp474
Rp475
sS'elementseuclidv03euclgoog_0207'
p476
g2
(g6
S'\xc0B\xae\xce\x81N:?'
p477
tp478
Rp479
sS'elementseuclidv03euclgoog_0204'
p480
g2
(g6
S'\xb4\xa2\xa6\x90\xa7\xf5>?'
p481
tp482
Rp483
sS'elementseuclidv03euclgoog_0205'
p484
g2
(g6
S't\x07\x88\xa6\x1a\xd0;?'
p485
tp486
Rp487
sS'elementseuclidv03euclgoog_0402'
p488
g2
(g6
S'o\xe0\xcc\x10\x0c\xc6-?'
p489
tp490
Rp491
sS'elementseuclidv03euclgoog_0403'
p492
g2
(g6
S'\xf2\x11\xc0Sll6?'
p493
tp494
Rp495
sS'elementseuclidv03euclgoog_0101'
p496
g2
(g6
S"\xac'\x04\xc6-\xbf:?"
p497
tp498
Rp499
sS'elementseuclidv03euclgoog_0100'
p500
g2
(g6
S'\xc4\x13\xcb\xb8\x86C<?'
p501
tp502
Rp503
sS'elementseuclidv03euclgoog_0103'
p504
g2
(g6
S'2+\x8d\t/\xba8?'
p505
tp506
Rp507
sS'elementseuclidv03euclgoog_0102'
p508
g2
(g6
S'k\x06\xbc\xaah\xf77?'
p509
tp510
Rp511
sS'elementseuclidv03euclgoog_0105'
p512
g2
(g6
S'E\xf6\xff\xa4\xffY8?'
p513
tp514
Rp515
sS'elementseuclidv03euclgoog_0104'
p516
g2
(g6
S'2+\x8d\t/\xba8?'
p517
tp518
Rp519
sS'elementseuclidv03euclgoog_0107'
p520
g2
(g6
S'\xae=\x0e\x7fi\xe2A?'
p521
tp522
Rp523
sS'elementseuclidv03euclgoog_0106'
p524
g2
(g6
S'"\x85\xdf\x90a\xc0:?'
p525
tp526
Rp527
sS'elementseuclidv03euclgoog_0109'
p528
g2
(g6
S')\xcb\xf8\n\xedJ>?'
p529
tp530
Rp531
sS'elementseuclidv03euclgoog_0108'
p532
g2
(g6
S'\x8f\x8ey\xbf\xc3\x96??'
p533
tp534
Rp535
sS'elementseuclidv03euclgoog_0398'
p536
g2
(g6
S'-\xd2\x98*\xadm7?'
p537
tp538
Rp539
sS'elementseuclidv03euclgoog_0399'
p540
g2
(g6
S'l\x93\x86\x88\xa3\x8e3?'
p541
tp542
Rp543
sS'elementseuclidv03euclgoog_0198'
p544
g2
(g6
S'\xf2F\xb0\xd5M!6?'
p545
tp546
Rp547
sS'elementseuclidv03euclgoog_0199'
p548
g2
(g6
S'\xba\xddul\xe6\xbe7?'
p549
tp550
Rp551
sS'elementseuclidv03euclgoog_0192'
p552
g2
(g6
S'\xa9\xfe\xcd\xd7\xafW9?'
p553
tp554
Rp555
sS'elementseuclidv03euclgoog_0193'
p556
g2
(g6
S'D\xfappz\x1b8?'
p557
tp558
Rp559
sS'elementseuclidv03euclgoog_0190'
p560
g2
(g6
S'Ex\xb8\n\xbd:8?'
p561
tp562
Rp563
sS'elementseuclidv03euclgoog_0191'
p564
g2
(g6
S'N\xebx>A\xee<?'
p565
tp566
Rp567
sS'elementseuclidv03euclgoog_0196'
p568
g2
(g6
S'\xa5\xe1\xeaK\xa247?'
p569
tp570
Rp571
sS'elementseuclidv03euclgoog_0197'
p572
g2
(g6
S'\x93\xd9\x0c\xc9\xede7?'
p573
tp574
Rp575
sS'elementseuclidv03euclgoog_0194'
p576
g2
(g6
S"uq\x9aG\xf7'=?"
p577
tp578
Rp579
sS'elementseuclidv03euclgoog_0195'
p580
g2
(g6
S'5\x8d\xbd\x13\x16\x8f:?'
p581
tp582
Rp583
sS'elementseuclidv03euclgoog_0291'
p584
g2
(g6
S'\xe0,\x8f\xba\x05\xa99?'
p585
tp586
Rp587
sS'elementseuclidv03euclgoog_0290'
p588
g2
(g6
S'm?\x9d\xfcj\x908?'
p589
tp590
Rp591
sS'elementseuclidv03euclgoog_0293'
p592
g2
(g6
S'\x03f/\xa2A\x13??'
p593
tp594
Rp595
sS'elementseuclidv03euclgoog_0292'
p596
g2
(g6
S'@\xb0\xf6\xe5JD9?'
p597
tp598
Rp599
sS'elementseuclidv03euclgoog_0295'
p600
g2
(g6
S'|\xb4\x8d\xf2\xac=8?'
p601
tp602
Rp603
sS'elementseuclidv03euclgoog_0294'
p604
g2
(g6
S'\x1c\x1a\xe3\x8cg\x1d=?'
p605
tp606
Rp607
sS'elementseuclidv03euclgoog_0297'
p608
g2
(g6
S'\xb2xy\xd2wH8?'
p609
tp610
Rp611
sS'elementseuclidv03euclgoog_0296'
p612
g2
(g6
S'\xf8\xd6\xc4y\xf2\x14:?'
p613
tp614
Rp615
sS'elementseuclidv03euclgoog_0299'
p616
g2
(g6
S'\xe1\xecr\xc9\xe2M9?'
p617
tp618
Rp619
sS'elementseuclidv03euclgoog_0298'
p620
g2
(g6
S'\x07\\\xfc+\xfd\xd89?'
p621
tp622
Rp623
sS'elementseuclidv03euclgoog_0039'
p624
g2
(g6
S'\xa5b\x9a\xf4f\x1d=?'
p625
tp626
Rp627
sS'elementseuclidv03euclgoog_0038'
p628
g2
(g6
S'\xd9E}\xa2\xae\x8e>?'
p629
tp630
Rp631
sS'elementseuclidv03euclgoog_0035'
p632
g2
(g6
S'[@#\n\x02\x03@?'
p633
tp634
Rp635
sS'elementseuclidv03euclgoog_0034'
p636
g2
(g6
S'\x1c\xc3\xea\xa9\xa4\xbf=?'
p637
tp638
Rp639
sS'elementseuclidv03euclgoog_0037'
p640
g2
(g6
S'\xff\x14c\xe9\xf4!A?'
p641
tp642
Rp643
sS'elementseuclidv03euclgoog_0036'
p644
g2
(g6
S'\xe6\x90L\x0c\xde\xea@?'
p645
tp646
Rp647
sS'elementseuclidv03euclgoog_0031'
p648
g2
(g6
S'\xd9(\x0c\xd4t\x08@?'
p649
tp650
Rp651
sS'elementseuclidv03euclgoog_0030'
p652
g2
(g6
S'\x9b\xc4x\x04\xba3<?'
p653
tp654
Rp655
sS'elementseuclidv03euclgoog_0033'
p656
g2
(g6
S'Ay+`H\xe4A?'
p657
tp658
Rp659
sS'elementseuclidv03euclgoog_0032'
p660
g2
(g6
S'\x05\x0e\xb0\x9d\xcb\x0fA?'
p661
tp662
Rp663
sS'elementseuclidv03euclgoog_0422'
p664
g2
(g6
S'c/4\xc7\xd3\x187?'
p665
tp666
Rp667
sS'elementseuclidv03euclgoog_0423'
p668
g2
(g6
S'\xd16\xb4\x84B\xcf5?'
p669
tp670
Rp671
sS'elementseuclidv03euclgoog_0420'
p672
g2
(g6
S'\xf6\x1b%\xc1\xb0\xda7?'
p673
tp674
Rp675
sS'elementseuclidv03euclgoog_0421'
p676
g2
(g6
S'\x9c\x83@\xc5\x00\xf12?'
p677
tp678
Rp679
sS'elementseuclidv03euclgoog_0426'
p680
g2
(g6
S'e\x00\t(\x9012?'
p681
tp682
Rp683
sS'elementseuclidv03euclgoog_0427'
p684
g2
(g6
S'F5jj\x8eK;?'
p685
tp686
Rp687
sS'elementseuclidv03euclgoog_0424'
p688
g2
(g6
S'd`\x81l2o6?'
p689
tp690
Rp691
sS'elementseuclidv03euclgoog_0425'
p692
g2
(g6
S'\xb8&\xee\x9c\xafa3?'
p693
tp694
Rp695
sS'elementseuclidv03euclgoog_0428'
p696
g2
(g6
S'R\xdb\xe9\x1f&\x026?'
p697
tp698
Rp699
sS'elementseuclidv03euclgoog_0429'
p700
g2
(g6
S'\x00\xa8d\xdf\xc4\x127?'
p701
tp702
Rp703
sS'elementseuclidv03euclgoog_0329'
p704
g2
(g6
S'\x1a`\xe0\xdd\x8aV<?'
p705
tp706
Rp707
sS'elementseuclidv03euclgoog_0328'
p708
g2
(g6
S'\x82s\xa3\x05\x12>=?'
p709
tp710
Rp711
sS'elementseuclidv03euclgoog_0321'
p712
g2
(g6
S'\xa2\xd7\xc4\xb0$\x9b<?'
p713
tp714
Rp715
sS'elementseuclidv03euclgoog_0320'
p716
g2
(g6
S'\xa2Y\x9f\xd0]\t<?'
p717
tp718
Rp719
sS'elementseuclidv03euclgoog_0323'
p720
g2
(g6
S'\xed\x8e\xd0\xac}\xde;?'
p721
tp722
Rp723
sS'elementseuclidv03euclgoog_0322'
p724
g2
(g6
S'\x85\xf92e\xbd\x88;?'
p725
tp726
Rp727
sS'elementseuclidv03euclgoog_0325'
p728
g2
(g6
S'c\x98T%\x16Y<?'
p729
tp730
Rp731
sS'elementseuclidv03euclgoog_0324'
p732
g2
(g6
S'\x1b1J{\x96\xc8@?'
p733
tp734
Rp735
sS'elementseuclidv03euclgoog_0327'
p736
g2
(g6
S'B\x86\x8d\xc7\x96F;?'
p737
tp738
Rp739
sS'elementseuclidv03euclgoog_0326'
p740
g2
(g6
S'\x9c(\xad)\xb16<?'
p741
tp742
Rp743
sS'elementseuclidv03euclgoog_0255'
p744
g2
(g6
S'\x9c\xc3\xdd\xaf\x9e\xac9?'
p745
tp746
Rp747
sS'elementseuclidv03euclgoog_0254'
p748
g2
(g6
S'\x03\xf1\\#\xe8\x8c<?'
p749
tp750
Rp751
sS'elementseuclidv03euclgoog_0257'
p752
g2
(g6
S'\xf4V\xfd[8\xcb:?'
p753
tp754
Rp755
sS'elementseuclidv03euclgoog_0256'
p756
g2
(g6
S'\x18la_\xae\x167?'
p757
tp758
Rp759
sS'elementseuclidv03euclgoog_0251'
p760
g2
(g6
S'\x91T\x01\x00\xe1\xdb4?'
p761
tp762
Rp763
sS'elementseuclidv03euclgoog_0250'
p764
g2
(g6
S'\x91T\x01\x00\xe1\xdb4?'
p765
tp766
Rp767
sS'elementseuclidv03euclgoog_0253'
p768
g2
(g6
S'z\x19\x19\xb5=\xad:?'
p769
tp770
Rp771
sS'elementseuclidv03euclgoog_0252'
p772
g2
(g6
S'\xbeM\x142n~8?'
p773
tp774
Rp775
sS'elementseuclidv03euclgoog_0394'
p776
g2
(g6
S'\xa1\xb6\xa6\x08A:8?'
p777
tp778
Rp779
sS'elementseuclidv03euclgoog_0395'
p780
g2
(g6
S'm\xa9\x9a\xf8\xe5y6?'
p781
tp782
Rp783
sS'elementseuclidv03euclgoog_0396'
p784
g2
(g6
S'm\xbf\xaeh(e9?'
p785
tp786
Rp787
sS'elementseuclidv03euclgoog_0397'
p788
g2
(g6
S'\x17F\x17.\xd6\x8e:?'
p789
tp790
Rp791
sS'elementseuclidv03euclgoog_0259'
p792
g2
(g6
S'|\xb4\x8d\xf2\xac=8?'
p793
tp794
Rp795
sS'elementseuclidv03euclgoog_0258'
p796
g2
(g6
S'\x9e\x93\x08{Dh9?'
p797
tp798
Rp799
sS'elementseuclidv03euclgoog_0392'
p800
g2
(g6
S'sc\xbc\xb7\xfaS8?'
p801
tp802
Rp803
sS'elementseuclidv03euclgoog_0393'
p804
g2
(g6
S'o\xbc\x0e\xb0k\xa85?'
p805
tp806
Rp807
sS'elementseuclidv03euclgoog_0493'
p808
g2
(g6
S'\xc4je\xefr\x12??'
p809
tp810
Rp811
sS'elementseuclidv03euclgoog_0492'
p812
g2
(g6
S'\xb8&\xee\x9c\xafaC?'
p813
tp814
Rp815
sS'elementseuclidv03euclgoog_0491'
p816
g2
(g6
S'm\xbbs\xe5\xe7PF?'
p817
tp818
Rp819
sS'elementseuclidv03euclgoog_0490'
p820
g2
(g6
S'\x13\x9c\xff\xb5D\xbfK?'
p821
tp822
Rp823
sS'elementseuclidv03euclgoog_0497'
p824
g2
(g6
S'\xbd\x89+R\xe3\xec>?'
p825
tp826
Rp827
sS'elementseuclidv03euclgoog_0496'
p828
g2
(g6
S'\xaaM\xff;\x9e\xe5>?'
p829
tp830
Rp831
sS'elementseuclidv03euclgoog_0495'
p832
g2
(g6
S'\xa3\xe8\x9f\x80O\xeb8?'
p833
tp834
Rp835
sS'elementseuclidv03euclgoog_0494'
p836
g2
(g6
S"\x92'=\xc9\xbd\xd7E?"
p837
tp838
Rp839
sS'elementseuclidv03euclgoog_0499'
p840
g2
(g6
S'\x06J\xa0\x88&\xeb<?'
p841
tp842
Rp843
sS'elementseuclidv03euclgoog_0498'
p844
g2
(g6
S'\xd8"\xa3s\x84qA?'
p845
tp846
Rp847
sS'elementseuclidv03euclgoog_0071'
p848
g2
(g6
S'\x11\x00J\x06y\xeb@?'
p849
tp850
Rp851
sS'elementseuclidv03euclgoog_0070'
p852
g2
(g6
S'=\x96g\x87\xe9|C?'
p853
tp854
Rp855
sS'elementseuclidv03euclgoog_0073'
p856
g2
(g6
S'\xaa`\xa41\xbf\x99@?'
p857
tp858
Rp859
sS'elementseuclidv03euclgoog_0072'
p860
g2
(g6
S'u:\xe0\xb6\xd4@A?'
p861
tp862
Rp863
sS'elementseuclidv03euclgoog_0075'
p864
g2
(g6
S'=V\xd7\x16\nk??'
p865
tp866
Rp867
sS'elementseuclidv03euclgoog_0074'
p868
g2
(g6
S'\xd5x\r\xfe.\xc0D?'
p869
tp870
Rp871
sS'elementseuclidv03euclgoog_0077'
p872
g2
(g6
S'\x9cK\xb6\x7f\xd3D>?'
p873
tp874
Rp875
sS'elementseuclidv03euclgoog_0076'
p876
g2
(g6
S'%d(O|\x91;?'
p877
tp878
Rp879
sS'elementseuclidv03euclgoog_0079'
p880
g2
(g6
S'=[\x94\x9f\x8b\xf9B?'
p881
tp882
Rp883
sS'elementseuclidv03euclgoog_0078'
p884
g2
(g6
S'\xc9\xc4b2\nPB?'
p885
tp886
Rp887
sS'elementseuclidv03euclgoog_0172'
p888
g2
(g6
S'\r\x07\x9c\n`U:?'
p889
tp890
Rp891
sS'elementseuclidv03euclgoog_0173'
p892
g2
(g6
S'94;\x9c\xd6\x15<?'
p893
tp894
Rp895
sS'elementseuclidv03euclgoog_0174'
p896
g2
(g6
S'"\x85\xdf\x90a\xc0:?'
p897
tp898
Rp899
sS'elementseuclidv03euclgoog_0175'
p900
g2
(g6
S'\x0e\xec\x8d>(\x8e@?'
p901
tp902
Rp903
sS'elementseuclidv03euclgoog_0176'
p904
g2
(g6
S'k\x06\xbc\xaah\xf77?'
p905
tp906
Rp907
sS'elementseuclidv03euclgoog_0177'
p908
g2
(g6
S'Oa\xdeA\x8e\x8a=?'
p909
tp910
Rp911
sS'elementseuclidv03euclgoog_0338'
p912
g2
(g6
S'\xa3\xe6\x83(8\xed<?'
p913
tp914
Rp915
sS'elementseuclidv03euclgoog_0230'
p916
g2
(g6
S'\xf9\xb66\x01a\xe79?'
p917
tp918
Rp919
sS'elementseuclidv03euclgoog_0178'
p920
g2
(g6
S'\x81\xfe\xd5\xff1\xc08?'
p921
tp922
Rp923
sS'elementseuclidv03euclgoog_0179'
p924
g2
(g6
S'\x96\xfa` vJ9?'
p925
tp926
Rp927
sS'elementseuclidv03euclgoog_0330'
p928
g2
(g6
S'\xc2?\x9b\x9b\xa9\xd4:?'
p929
tp930
Rp931
sS'elementseuclidv03euclgoog_0238'
p932
g2
(g6
S'\x10\xfb\xad\x10\x15\xee>?'
p933
tp934
Rp935
sS'elementseuclidv03euclgoog_0390'
p936
g2
(g6
S'9\xa7\x98 ,/6?'
p937
tp938
Rp939
sS'elementseuclidv03euclgoog_0170'
p940
g2
(g6
S'\xc9\x05\xdcJq\x995?'
p941
tp942
Rp943
sS'elementseuclidv03euclgoog_0479'
p944
g2
(g6
S'f\x86PLjuB?'
p945
tp946
Rp947
sS'elementseuclidv03euclgoog_0478'
p948
g2
(g6
S'\xd3\xca\xac\xf7\xeb\t\xf1>'
p949
tp950
Rp951
sS'elementseuclidv03euclgoog_0171'
p952
g2
(g6
S"0\xb5'\x06\xe2\x1d8?"
p953
tp954
Rp955
sS'elementseuclidv03euclgoog_0475'
p956
g2
(g6
S'v.\x84\xef\x05B7?'
p957
tp958
Rp959
sS'elementseuclidv03euclgoog_0474'
p960
g2
(g6
S'\x81~\xf8\xa2\x94\xd33?'
p961
tp962
Rp963
sS'elementseuclidv03euclgoog_0477'
p964
g2
(g6
S'\xf2\xe8\xec\xa1\xc2AF?'
p965
tp966
Rp967
sS'elementseuclidv03euclgoog_0476'
p968
g2
(g6
S'\x8b#g\xd5\x9eR1?'
p969
tp970
Rp971
sS'elementseuclidv03euclgoog_0471'
p972
g2
(g6
S'\xf8\xd4\xdb\x90\x04\xe41?'
p973
tp974
Rp975
sS'elementseuclidv03euclgoog_0470'
p976
g2
(g6
S'\xc2\x089\xbd\xcc\xbe0?'
p977
tp978
Rp979
sS'elementseuclidv03euclgoog_0473'
p980
g2
(g6
S'\xa4\xd1\x92rt\x135?'
p981
tp982
Rp983
sS'elementseuclidv03euclgoog_0472'
p984
g2
(g6
S'\xf5d\x90\xf7w@8?'
p985
tp986
Rp987
sS'elementseuclidv03euclgoog_0401'
p988
g2
(g6
S'\x99\x85\xb4a\x94g8?'
p989
tp990
Rp991
sS'elementseuclidv03euclgoog_0350'
p992
g2
(g6
S'\x1aU\xd6\xa5\xe9\xe0:?'
p993
tp994
Rp995
sS'elementseuclidv03euclgoog_0351'
p996
g2
(g6
S'o\xb1\x04x\xca24?'
p997
tp998
Rp999
sS'elementseuclidv03euclgoog_0352'
p1000
g2
(g6
S'&G?\x04\xda&??'
p1001
tp1002
Rp1003
sS'elementseuclidv03euclgoog_0353'
p1004
g2
(g6
S's\x80% l\xd8=?'
p1005
tp1006
Rp1007
sS'elementseuclidv03euclgoog_0354'
p1008
g2
(g6
S's\x80% l\xd8=?'
p1009
tp1010
Rp1011
sS'elementseuclidv03euclgoog_0355'
p1012
g2
(g6
S'\xf2\x18\x15L\x9b\x059?'
p1013
tp1014
Rp1015
sS'elementseuclidv03euclgoog_0356'
p1016
g2
(g6
S'\x98\xd0\\i\xa7\x89@?'
p1017
tp1018
Rp1019
sS'elementseuclidv03euclgoog_0357'
p1020
g2
(g6
S'\xbc\x90\x83\x146p:?'
p1021
tp1022
Rp1023
sS'elementseuclidv03euclgoog_0358'
p1024
g2
(g6
S'\x89\x05R$\x14\x1e8?'
p1025
tp1026
Rp1027
sS'elementseuclidv03euclgoog_0359'
p1028
g2
(g6
S'p\xbc\x0e\xb0k\xa85?'
p1029
tp1030
Rp1031
sS'elementseuclidv03euclgoog_0514'
p1032
g2
(g6
S'\x07poh^\xf1H?'
p1033
tp1034
Rp1035
sS'elementseuclidv03euclgoog_0219'
p1036
g2
(g6
S'\xddG<\xda\xba\xef7?'
p1037
tp1038
Rp1039
sS'elementseuclidv03euclgoog_0218'
p1040
g2
(g6
S'\xf6\x8c\xe6\xd6\x16\xec5?'
p1041
tp1042
Rp1043
sS'elementseuclidv03euclgoog_0515'
p1044
g2
(g6
S'e\x00\t(\x901B?'
p1045
tp1046
Rp1047
sS'elementseuclidv03euclgoog_0211'
p1048
g2
(g6
S'\xb9\x88O\xca\xb4\xf26?'
p1049
tp1050
Rp1051
sS'elementseuclidv03euclgoog_0210'
p1052
g2
(g6
S'\x02b\x816\r"6?'
p1053
tp1054
Rp1055
sS'elementseuclidv03euclgoog_0213'
p1056
g2
(g6
S';\xc6\xc2\xac#\xa45?'
p1057
tp1058
Rp1059
sS'elementseuclidv03euclgoog_0212'
p1060
g2
(g6
S'\xcf=\xeb\xec\x8d\x8e5?'
p1061
tp1062
Rp1063
sS'elementseuclidv03euclgoog_0215'
p1064
g2
(g6
S'\xb1S\n\x01\n46?'
p1065
tp1066
Rp1067
sS'elementseuclidv03euclgoog_0214'
p1068
g2
(g6
S'\xb6\xb3C\xa62P5?'
p1069
tp1070
Rp1071
sS'elementseuclidv03euclgoog_0217'
p1072
g2
(g6
S'\xd5\xd2\xda\x1f\xed\xd56?'
p1073
tp1074
Rp1075
sS'elementseuclidv03euclgoog_0216'
p1076
g2
(g6
S'\x15\xac}P\xd1q7?'
p1077
tp1078
Rp1079
sS'elementseuclidv03euclgoog_0510'
p1080
g2
(g6
S'E\x8ad\xe9\t9<?'
p1081
tp1082
Rp1083
sS'elementseuclidv03euclgoog_0511'
p1084
g2
(g6
S'\xb4#\xbb\x13\x07\xbb;?'
p1085
tp1086
Rp1087
sS'elementseuclidv03euclgoog_0505'
p1088
g2
(g6
S'\x8e\xdc\xe6\x18g/C?'
p1089
tp1090
Rp1091
sS'elementseuclidv03euclgoog_0504'
p1092
g2
(g6
S'\xfb*yz\xf6\xaf??'
p1093
tp1094
Rp1095
sS'elementseuclidv03euclgoog_0507'
p1096
g2
(g6
S'\xe0\x88\x13\xb2`\xa3D?'
p1097
tp1098
Rp1099
sS'elementseuclidv03euclgoog_0506'
p1100
g2
(g6
S'\x98\xb5{\xa7P\xccC?'
p1101
tp1102
Rp1103
sS'elementseuclidv03euclgoog_0501'
p1104
g2
(g6
S'\x99\xc9xr\x1f\xb0;?'
p1105
tp1106
Rp1107
sS'elementseuclidv03euclgoog_0500'
p1108
g2
(g6
S'\xc4je\xefr\x12??'
p1109
tp1110
Rp1111
sS'elementseuclidv03euclgoog_0503'
p1112
g2
(g6
S'\xcf5\xda\x8d@\xc4@?'
p1113
tp1114
Rp1115
sS'elementseuclidv03euclgoog_0502'
p1116
g2
(g6
S'\x07\x0e\xd5\x1d\xa1D:?'
p1117
tp1118
Rp1119
sS'elementseuclidv03euclgoog_0509'
p1120
g2
(g6
S'\xe1\xf6\x05\xb9F\xab;?'
p1121
tp1122
Rp1123
sS'elementseuclidv03euclgoog_0508'
p1124
g2
(g6
S'\xca{I\xc7\xea\xafA?'
p1125
tp1126
Rp1127
sS'elementseuclidv03euclgoog_0138'
p1128
g2
(g6
S'\xe6\xe3\xb3\xcf\xb4s@?'
p1129
tp1130
Rp1131
sS'elementseuclidv03euclgoog_0139'
p1132
g2
(g6
S"\xea\x04\x08'=XB?"
p1133
tp1134
Rp1135
sS'elementseuclidv03euclgoog_0134'
p1136
g2
(g6
S'g\x86\x9fPP|??'
p1137
tp1138
Rp1139
sS'elementseuclidv03euclgoog_0135'
p1140
g2
(g6
S'\xa2\x8eu\xab\x82\xe2??'
p1141
tp1142
Rp1143
sS'elementseuclidv03euclgoog_0136'
p1144
g2
(g6
S'DJC\xcb\xf1^C?'
p1145
tp1146
Rp1147
sS'elementseuclidv03euclgoog_0137'
p1148
g2
(g6
S'\x7f^l\x88\x94\tC?'
p1149
tp1150
Rp1151
sS'elementseuclidv03euclgoog_0130'
p1152
g2
(g6
S'$u\x1bcv\xba;?'
p1153
tp1154
Rp1155
sS'elementseuclidv03euclgoog_0131'
p1156
g2
(g6
S'>\xc7\x83+1\xd5>?'
p1157
tp1158
Rp1159
sS'elementseuclidv03euclgoog_0132'
p1160
g2
(g6
S'o\xf5)\xf7\xaa>E?'
p1161
tp1162
Rp1163
sS'elementseuclidv03euclgoog_0133'
p1164
g2
(g6
S'\x1es\x81\xe1\xf1.D?'
p1165
tp1166
Rp1167
sS'elementseuclidv03euclgoog_0189'
p1168
g2
(g6
S"' \n\xb7\xb1\x02=?"
p1169
tp1170
Rp1171
sS'elementseuclidv03euclgoog_0188'
p1172
g2
(g6
S'\xe5\n\x15\xfe\\\x7f9?'
p1173
tp1174
Rp1175
sS'elementseuclidv03euclgoog_0181'
p1176
g2
(g6
S'\xe3S\xd3G\xb1\xf28?'
p1177
tp1178
Rp1179
sS'elementseuclidv03euclgoog_0180'
p1180
g2
(g6
S'\xefu\xf3\x9a\xeb\xaf>?'
p1181
tp1182
Rp1183
sS'elementseuclidv03euclgoog_0183'
p1184
g2
(g6
S'\xb5\x01o\x937\x8c5?'
p1185
tp1186
Rp1187
sS'elementseuclidv03euclgoog_0182'
p1188
g2
(g6
S'3h\xf8\xf0\x12\xe98?'
p1189
tp1190
Rp1191
sS'elementseuclidv03euclgoog_0185'
p1192
g2
(g6
S'\x86\x13\xd7\xf4I`;?'
p1193
tp1194
Rp1195
sS'elementseuclidv03euclgoog_0184'
p1196
g2
(g6
S'UW`\x9f\xf3\xa16?'
p1197
tp1198
Rp1199
sS'elementseuclidv03euclgoog_0187'
p1200
g2
(g6
S'\x1a\x06\xcc\xfal\xc86?'
p1201
tp1202
Rp1203
sS'elementseuclidv03euclgoog_0186'
p1204
g2
(g6
S'"\x85\xdf\x90a\xc0:?'
p1205
tp1206
Rp1207
sS'elementseuclidv03euclgoog_0516'
p1208
g2
(g6
S'\xf9Y\xdb\xa5\xc5\xc3L?'
p1209
tp1210
Rp1211
sS'elementseuclidv03euclgoog_0431'
p1212
g2
(g6
S'u\t\xc6\x92[s8?'
p1213
tp1214
Rp1215
sS'elementseuclidv03euclgoog_0430'
p1216
g2
(g6
S'\xab\xbdJ\xd5*\x898?'
p1217
tp1218
Rp1219
sS'elementseuclidv03euclgoog_0433'
p1220
g2
(g6
S'\xfe!\x1d\xbb\xea\xce6?'
p1221
tp1222
Rp1223
sS'elementseuclidv03euclgoog_0432'
p1224
g2
(g6
S"\xb5\x92\xf5)\x06'8?"
p1225
tp1226
Rp1227
sS'elementseuclidv03euclgoog_0435'
p1228
g2
(g6
S'5\x80\x96\xfb\xb0\xbf8?'
p1229
tp1230
Rp1231
sS'elementseuclidv03euclgoog_0434'
p1232
g2
(g6
S'\xd0\xc6h\xeb\xb5+<?'
p1233
tp1234
Rp1235
sS'elementseuclidv03euclgoog_0437'
p1236
g2
(g6
S'0\xf7\x1f\xed\xd7\xed3?'
p1237
tp1238
Rp1239
sS'elementseuclidv03euclgoog_0436'
p1240
g2
(g6
S'\xfe\x12\xe5\xea\xd0\xd77?'
p1241
tp1242
Rp1243
sS'elementseuclidv03euclgoog_0439'
p1244
g2
(g6
S'\xd16\xb4\x84B\xcf5?'
p1245
tp1246
Rp1247
sS'elementseuclidv03euclgoog_0438'
p1248
g2
(g6
S'5\xa5TX[\x8e7?'
p1249
tp1250
Rp1251
sS'elementseuclidv03euclgoog_0486'
p1252
g2
(g6
S'o\xe1B\xc5\x1fWB?'
p1253
tp1254
Rp1255
sS'elementseuclidv03euclgoog_0481'
p1256
g2
(g6
S'5gg\xe7\xbax:?'
p1257
tp1258
Rp1259
sS'elementseuclidv03euclgoog_0512'
p1260
g2
(g6
S'\xfd\x13ll\x1b\xd8K?'
p1261
tp1262
Rp1263
sS'elementseuclidv03euclgoog_0314'
p1264
g2
(g6
S'i\x1fVY\xc8R9?'
p1265
tp1266
Rp1267
sS'elementseuclidv03euclgoog_0315'
p1268
g2
(g6
S'\xd4\xce\xbcP=p;?'
p1269
tp1270
Rp1271
sS'elementseuclidv03euclgoog_0316'
p1272
g2
(g6
S'\x93f!\xeb\xb7\xa3<?'
p1273
tp1274
Rp1275
sS'elementseuclidv03euclgoog_0317'
p1276
g2
(g6
S'x$3o>\xc7<?'
p1277
tp1278
Rp1279
sS'elementseuclidv03euclgoog_0310'
p1280
g2
(g6
S'55\x81\xe5\xf8M=?'
p1281
tp1282
Rp1283
sS'elementseuclidv03euclgoog_0311'
p1284
g2
(g6
S'<\xba)\\\x8f~>?'
p1285
tp1286
Rp1287
sS'elementseuclidv03euclgoog_0312'
p1288
g2
(g6
S',\xf6V\x8bM\x8b??'
p1289
tp1290
Rp1291
sS'elementseuclidv03euclgoog_0313'
p1292
g2
(g6
S'\xd05\xb99\x0c\xf7=?'
p1293
tp1294
Rp1295
sS'elementseuclidv03euclgoog_0318'
p1296
g2
(g6
S'\x93f!\xeb\xb7\xa3<?'
p1297
tp1298
Rp1299
sS'elementseuclidv03euclgoog_0319'
p1300
g2
(g6
S'u}\x85g\xaf\x1b:?'
p1301
tp1302
Rp1303
sS'elementseuclidv03euclgoog_0513'
p1304
g2
(g6
S'p\xee\xe2\x90a\x16@?'
p1305
tp1306
Rp1307
sS'elementseuclidv03euclgoog_0522'
p1308
g2
(g6
S'\xd4\xca\xac\xf7\xeb\t\xf1>'
p1309
tp1310
Rp1311
sS'elementseuclidv03euclgoog_0260'
p1312
g2
(g6
S'\xe0]\x97\xdc\x07\xe32?'
p1313
tp1314
Rp1315
sS'elementseuclidv03euclgoog_0261'
p1316
g2
(g6
S'\xcf\x92/\xf3U\xe77?'
p1317
tp1318
Rp1319
sS'elementseuclidv03euclgoog_0262'
p1320
g2
(g6
S'E\x00\xe9\xce\xaaI8?'
p1321
tp1322
Rp1323
sS'elementseuclidv03euclgoog_0263'
p1324
g2
(g6
S'\xbeM\x142n~8?'
p1325
tp1326
Rp1327
sS'elementseuclidv03euclgoog_0264'
p1328
g2
(g6
S'\xcf\x92/\xf3U\xe77?'
p1329
tp1330
Rp1331
sS'elementseuclidv03euclgoog_0265'
p1332
g2
(g6
S'&\x01\xe0\xcd\x81\xf16?'
p1333
tp1334
Rp1335
sS'elementseuclidv03euclgoog_0266'
p1336
g2
(g6
S'"\x96@\xc5l\xa59?'
p1337
tp1338
Rp1339
sS'elementseuclidv03euclgoog_0267'
p1340
g2
(g6
S'\xa9\x02m\x0fv\xff5?'
p1341
tp1342
Rp1343
sS'elementseuclidv03euclgoog_0268'
p1344
g2
(g6
S'\xd7\xe7\x025\x92\xd38?'
p1345
tp1346
Rp1347
sS'elementseuclidv03euclgoog_0269'
p1348
g2
(g6
S'\x01D\xa3\xb8\xa2\xa34?'
p1349
tp1350
Rp1351
sS'elementseuclidv03euclgoog_0381'
p1352
g2
(g6
S'\xcf\x84\x16\x81\x91\xf54?'
p1353
tp1354
Rp1355
sS'elementseuclidv03euclgoog_0380'
p1356
g2
(g6
S'\x1e9\x82\xc4-|@?'
p1357
tp1358
Rp1359
sS'elementseuclidv03euclgoog_0387'
p1360
g2
(g6
S'\xe1\x0f\x83\xf6\xb2\xb46?'
p1361
tp1362
Rp1363
sS'elementseuclidv03euclgoog_0386'
p1364
g2
(g6
S'\xc2\x99\x02\x1b\xd0H3?'
p1365
tp1366
Rp1367
sS'elementseuclidv03euclgoog_0385'
p1368
g2
(g6
S'!\xf2\x8e\xfc\x8c67?'
p1369
tp1370
Rp1371
sS'elementseuclidv03euclgoog_0384'
p1372
g2
(g6
S'\xd3\xad\x9e\xa8Y\x0f7?'
p1373
tp1374
Rp1375
sS'elementseuclidv03euclgoog_0391'
p1376
g2
(g6
S'\x13\x85\xa0v\x92\x1b6?'
p1377
tp1378
Rp1379
sS'elementseuclidv03euclgoog_0167'
p1380
g2
(g6
S'\x08tS{\x05\x967?'
p1381
tp1382
Rp1383
sS'elementseuclidv03euclgoog_0166'
p1384
g2
(g6
S'UW`\x9f\xf3\xa16?'
p1385
tp1386
Rp1387
sS'elementseuclidv03euclgoog_0165'
p1388
g2
(g6
S'\xb0\x07|jW\xb3<?'
p1389
tp1390
Rp1391
sS'elementseuclidv03euclgoog_0164'
p1392
g2
(g6
S'\x84\x1f*W\xba\xa4:?'
p1393
tp1394
Rp1395
sS'elementseuclidv03euclgoog_0163'
p1396
g2
(g6
S'=s{C\x90\xa04?'
p1397
tp1398
Rp1399
sS'elementseuclidv03euclgoog_0162'
p1400
g2
(g6
S'\xd1`\xf2\xdaFR6?'
p1401
tp1402
Rp1403
sS'elementseuclidv03euclgoog_0161'
p1404
g2
(g6
S'\xd7\xb3kZ4\x16C?'
p1405
tp1406
Rp1407
sS'elementseuclidv03euclgoog_0160'
p1408
g2
(g6
S'k\x8c\xe5\xdb\xa0\x997?'
p1409
tp1410
Rp1411
sS'elementseuclidv03euclgoog_0169'
p1412
g2
(g6
S'\xba\xddul\xe6\xbe7?'
p1413
tp1414
Rp1415
sS'elementseuclidv03euclgoog_0168'
p1416
g2
(g6
S'qPF\xf0nC;?'
p1417
tp1418
Rp1419
sS'elementseuclidv03euclgoog_0048'
p1420
g2
(g6
S'\x86\xbb\xfa&y\x7f=?'
p1421
tp1422
Rp1423
sS'elementseuclidv03euclgoog_0049'
p1424
g2
(g6
S'\xf7"\xfe\'\xe03>?'
p1425
tp1426
Rp1427
sS'elementseuclidv03euclgoog_0044'
p1428
g2
(g6
S'\xd5\xf7<\x94\x03m9?'
p1429
tp1430
Rp1431
sS'elementseuclidv03euclgoog_0045'
p1432
g2
(g6
S'%\x97\xedQ\x95\xb0>?'
p1433
tp1434
Rp1435
sS'elementseuclidv03euclgoog_0046'
p1436
g2
(g6
S'\xb7M\x81\x11\xeb\xe6<?'
p1437
tp1438
Rp1439
sS'elementseuclidv03euclgoog_0047'
p1440
g2
(g6
S'Q\xb3\x98\xc5\xb2#@?'
p1441
tp1442
Rp1443
sS'elementseuclidv03euclgoog_0040'
p1444
g2
(g6
S'\xe0\x1c\x9c\xff\xc9g<?'
p1445
tp1446
Rp1447
sS'elementseuclidv03euclgoog_0041'
p1448
g2
(g6
S'E\x08\xacg?G>?'
p1449
tp1450
Rp1451
sS'elementseuclidv03euclgoog_0042'
p1452
g2
(g6
S'\x05\x0e\xb0\x9d\xcb\x0fA?'
p1453
tp1454
Rp1455
sS'elementseuclidv03euclgoog_0043'
p1456
g2
(g6
S'\x01\xc1\x1f\x18\x8d\x1d??'
p1457
tp1458
Rp1459
sS'elementseuclidv03euclgoog_0448'
p1460
g2
(g6
S'\x8a\xfd\x97\xf5fL5?'
p1461
tp1462
Rp1463
sS'elementseuclidv03euclgoog_0449'
p1464
g2
(g6
S'\x12:\x9c\xf7\x12?5?'
p1465
tp1466
Rp1467
sS'elementseuclidv03euclgoog_0440'
p1468
g2
(g6
S'\xed.\\\xdbl-7?'
p1469
tp1470
Rp1471
sS'elementseuclidv03euclgoog_0441'
p1472
g2
(g6
S'e\xdbJ\xcb\xe5b3?'
p1473
tp1474
Rp1475
sS'elementseuclidv03euclgoog_0442'
p1476
g2
(g6
S'\xb4#\xbb\x13\x07\xbb;?'
p1477
tp1478
Rp1479
sS'elementseuclidv03euclgoog_0443'
p1480
g2
(g6
S'H\x98\x158\xd9/7?'
p1481
tp1482
Rp1483
sS'elementseuclidv03euclgoog_0444'
p1484
g2
(g6
S'\xd2[r\xe1\xec\x9d4?'
p1485
tp1486
Rp1487
sS'elementseuclidv03euclgoog_0445'
p1488
g2
(g6
S'\x80~\xf8\xa2\x94\xd33?'
p1489
tp1490
Rp1491
sS'elementseuclidv03euclgoog_0446'
p1492
g2
(g6
S"\xb5\x92\xf5)\x06'8?"
p1493
tp1494
Rp1495
sS'elementseuclidv03euclgoog_0447'
p1496
g2
(g6
S'bk\xff1Y\xbf9?'
p1497
tp1498
Rp1499
sS'elementseuclidv03euclgoog_0349'
p1500
g2
(g6
S'S\x9a)U \r??'
p1501
tp1502
Rp1503
sS'elementseuclidv03euclgoog_0348'
p1504
g2
(g6
S'\xcf\xa8\xd4\xe11\x13=?'
p1505
tp1506
Rp1507
sS'elementseuclidv03euclgoog_0419'
p1508
g2
(g6
S's\xcf\x82g\xf1\xd64?'
p1509
tp1510
Rp1511
sS'elementseuclidv03euclgoog_0418'
p1512
g2
(g6
S'\x80G{%\x8dg7?'
p1513
tp1514
Rp1515
sS'elementseuclidv03euclgoog_0066'
p1516
g2
(g6
S'J\xdcyh\x97JB?'
p1517
tp1518
Rp1519
sS'elementseuclidv03euclgoog_0067'
p1520
g2
(g6
S'\x1a(\xc5&j\xce@?'
p1521
tp1522
Rp1523
sS'elementseuclidv03euclgoog_0122'
p1524
g2
(g6
S'94;\x9c\xd6\x15<?'
p1525
tp1526
Rp1527
sS'elementseuclidv03euclgoog_0343'
p1528
g2
(g6
S'\xa6\xf9\xf7\xdf\xbd\x1b<?'
p1529
tp1530
Rp1531
sS'elementseuclidv03euclgoog_0342'
p1532
g2
(g6
S's\x80% l\xd8=?'
p1533
tp1534
Rp1535
sS'elementseuclidv03euclgoog_0413'
p1536
g2
(g6
S'\xe0\x04y\xbe\x11?5?'
p1537
tp1538
Rp1539
sS'elementseuclidv03euclgoog_0412'
p1540
g2
(g6
S'\xe8\xdf\xb8%\nz;?'
p1541
tp1542
Rp1543
sS'elementseuclidv03euclgoog_0068'
p1544
g2
(g6
S'\xeb\xa6\n\x8f\xee^??'
p1545
tp1546
Rp1547
sS'elementseuclidv03euclgoog_0069'
p1548
g2
(g6
S'\xfb1\x9f\x10\x96\xbaB?'
p1549
tp1550
Rp1551
sS'elementseuclidv03euclgoog_0417'
p1552
g2
(g6
S'\x96\\,:\xccM6?'
p1553
tp1554
Rp1555
sS'elementseuclidv03euclgoog_0416'
p1556
g2
(g6
S'\xc2\x99\x02\x1b\xd0H3?'
p1557
tp1558
Rp1559
sS'elementseuclidv03euclgoog_0224'
p1560
g2
(g6
S"\xa7s\t>'\xce7?"
p1561
tp1562
Rp1563
sS'elementseuclidv03euclgoog_0225'
p1564
g2
(g6
S'\x90x=\xe4\xa6\xfa=?'
p1565
tp1566
Rp1567
sS'elementseuclidv03euclgoog_0226'
p1568
g2
(g6
S'?\x8b\x87\x14\xdd/7?'
p1569
tp1570
Rp1571
sS'elementseuclidv03euclgoog_0227'
p1572
g2
(g6
S'\x15\xac}P\xd1q7?'
p1573
tp1574
Rp1575
sS'elementseuclidv03euclgoog_0220'
p1576
g2
(g6
S'\x07\xd2\x01\x98\xfeT5?'
p1577
tp1578
Rp1579
sS'elementseuclidv03euclgoog_0221'
p1580
g2
(g6
S'\xf1\xa2\xb2\x9d\xefK2?'
p1581
tp1582
Rp1583
sS'elementseuclidv03euclgoog_0222'
p1584
g2
(g6
S'\xde\xf7\xd8,\xcf}7?'
p1585
tp1586
Rp1587
sS'elementseuclidv03euclgoog_0223'
p1588
g2
(g6
S'\x91\xae&_\x85\x1b9?'
p1589
tp1590
Rp1591
sS'elementseuclidv03euclgoog_0347'
p1592
g2
(g6
S'd\x8d\xa7:\xc6r>?'
p1593
tp1594
Rp1595
sS'elementseuclidv03euclgoog_0346'
p1596
g2
(g6
S'\xeb\x86f-\x99%>?'
p1597
tp1598
Rp1599
sS'elementseuclidv03euclgoog_0345'
p1600
g2
(g6
S'\xf8\xd26\x0b\xb0\xdf:?'
p1601
tp1602
Rp1603
sS'elementseuclidv03euclgoog_0344'
p1604
g2
(g6
S'\xda\x06\x04\xf0\x18\xdc=?'
p1605
tp1606
Rp1607
sS'elementseuclidv03euclgoog_0228'
p1608
g2
(g6
S'|\t\xd2\xf8t\x96:?'
p1609
tp1610
Rp1611
sS'elementseuclidv03euclgoog_0229'
p1612
g2
(g6
S'\xf5\x16\xe1j\x15p:?'
p1613
tp1614
Rp1615
sS'elementseuclidv03euclgoog_0341'
p1616
g2
(g6
S'\xa3\xed\xd8 g\x86??'
p1617
tp1618
Rp1619
sS'elementseuclidv03euclgoog_0340'
p1620
g2
(g6
S'\x0fQ\x0e\x17)\x8cB?'
p1621
tp1622
Rp1623
sS'elementseuclidv03euclgoog_0080'
p1624
g2
(g6
S'_\xbb\xbb\t\xd8\x85A?'
p1625
tp1626
Rp1627
sS'elementseuclidv03euclgoog_0081'
p1628
g2
(g6
S'\xef&`\x17FpD?'
p1629
tp1630
Rp1631
sS'elementseuclidv03euclgoog_0082'
p1632
g2
(g6
S'%\x99\x8e%\xecVE?'
p1633
tp1634
Rp1635
sS'elementseuclidv03euclgoog_0083'
p1636
g2
(g6
S'(|R\xfeJ\xbeC?'
p1637
tp1638
Rp1639
sS'elementseuclidv03euclgoog_0084'
p1640
g2
(g6
S'\x01<\x83p\xca\xb2C?'
p1641
tp1642
Rp1643
sS'elementseuclidv03euclgoog_0085'
p1644
g2
(g6
S'\x96\x81b\x90~^A?'
p1645
tp1646
Rp1647
sS'elementseuclidv03euclgoog_0086'
p1648
g2
(g6
S'y\xc6\x0fb\x08\xceC?'
p1649
tp1650
Rp1651
sS'elementseuclidv03euclgoog_0087'
p1652
g2
(g6
S'!\xb0];\x9f1@?'
p1653
tp1654
Rp1655
sS'elementseuclidv03euclgoog_0088'
p1656
g2
(g6
S'\x8d\xa0\x94z\xc7z??'
p1657
tp1658
Rp1659
sS'elementseuclidv03euclgoog_0089'
p1660
g2
(g6
S'\xe2&K\xb8er@?'
p1661
tp1662
Rp1663
sS'elementseuclidv03euclgoog_0121'
p1664
g2
(g6
S'\x8c\xc8|\x9fP\x87D?'
p1665
tp1666
Rp1667
sS'elementseuclidv03euclgoog_0120'
p1668
g2
(g6
S'\xa2\x8a?\x1eY\xf1@?'
p1669
tp1670
Rp1671
sS'elementseuclidv03euclgoog_0127'
p1672
g2
(g6
S'9\xef\xed\x1d\xfdc<?'
p1673
tp1674
Rp1675
sS'elementseuclidv03euclgoog_0126'
p1676
g2
(g6
S'7@\x8e\xfeFZ;?'
p1677
tp1678
Rp1679
sS'elementseuclidv03euclgoog_0125'
p1680
g2
(g6
S'#\xe06\xc8v\x95A?'
p1681
tp1682
Rp1683
sS'elementseuclidv03euclgoog_0124'
p1684
g2
(g6
S'\x1a\x06\xcc\xfal\xc8F?'
p1685
tp1686
Rp1687
sS'elementseuclidv03euclgoog_0017'
p1688
g2
(g6
S'\x05U]\xa8\x05\x0fO?'
p1689
tp1690
Rp1691
sS'elementseuclidv03euclgoog_0016'
p1692
g2
(g6
S'[\x98g\xc0\x99\x0c??'
p1693
tp1694
Rp1695
sS'elementseuclidv03euclgoog_0015'
p1696
g2
(g6
S'\x10\x11\xe1\xb1\xd6\xf5A?'
p1697
tp1698
Rp1699
sS'elementseuclidv03euclgoog_0014'
p1700
g2
(g6
S'\x95yT\xab9\xfa\xe3>'
p1701
tp1702
Rp1703
sS'elementseuclidv03euclgoog_0013'
p1704
g2
(g6
S'\xef&`\x17FpD?'
p1705
tp1706
Rp1707
sS'elementseuclidv03euclgoog_0012'
p1708
g2
(g6
S'\xd6\xf9\xddgZ\x13@?'
p1709
tp1710
Rp1711
sS'elementseuclidv03euclgoog_0158'
p1712
g2
(g6
S'\xd6\x1f\x1a\x07\xb6\xd3;?'
p1713
tp1714
Rp1715
sS'elementseuclidv03euclgoog_0159'
p1716
g2
(g6
S'\x1a\xc5\xefG\x0e\xd86?'
p1717
tp1718
Rp1719
sS'elementseuclidv03euclgoog_0156'
p1720
g2
(g6
S'\xe6C\x0f\x1a\xc6\xec9?'
p1721
tp1722
Rp1723
sS'elementseuclidv03euclgoog_0157'
p1724
g2
(g6
S'\xbex\xa0\x926\x01:?'
p1725
tp1726
Rp1727
sS'elementseuclidv03euclgoog_0154'
p1728
g2
(g6
S'\xfdh\xd0(\x88\xde;?'
p1729
tp1730
Rp1731
sS'elementseuclidv03euclgoog_0155'
p1732
g2
(g6
S'\x14Y\x08\xe7[$=?'
p1733
tp1734
Rp1735
sS'elementseuclidv03euclgoog_0152'
p1736
g2
(g6
S'\x1f\xa1\xf6 \xbd\n9?'
p1737
tp1738
Rp1739
sS'elementseuclidv03euclgoog_0153'
p1740
g2
(g6
S'\x83lYl\x89\xd99?'
p1741
tp1742
Rp1743
sS'elementseuclidv03euclgoog_0019'
p1744
g2
(g6
S'\xb9>\x8b9\xe4\x82B?'
p1745
tp1746
Rp1747
sS'elementseuclidv03euclgoog_0018'
p1748
g2
(g6
S"'\xf5\x14\x831\xadA?"
p1749
tp1750
Rp1751
sS'elementseuclidv03euclgoog_0411'
p1752
g2
(g6
S'\xffh\x9ai$\x9c4?'
p1753
tp1754
Rp1755
sS'elementseuclidv03euclgoog_0410'
p1756
g2
(g6
S'\x18\x1e\xa4\x8d\xc3\x943?'
p1757
tp1758
Rp1759
sS'elementseuclidv03euclgoog_0303'
p1760
g2
(g6
S'\x0f\xa1\x88\xb1p\xae:?'
p1761
tp1762
Rp1763
sS'elementseuclidv03euclgoog_0302'
p1764
g2
(g6
S'X5\xbd\xd3\xc9\x9b\xf7>'
p1765
tp1766
Rp1767
sS'elementseuclidv03euclgoog_0301'
p1768
g2
(g6
S'\x9a\xbc%!(MC?'
p1769
tp1770
Rp1771
sS'elementseuclidv03euclgoog_0300'
p1772
g2
(g6
S'D\xff\xb5\xe1\x02T\xef>'
p1773
tp1774
Rp1775
sS'elementseuclidv03euclgoog_0307'
p1776
g2
(g6
S'\xb3\x9d\xe8\xa3\xe5\\:?'
p1777
tp1778
Rp1779
sS'elementseuclidv03euclgoog_0306'
p1780
g2
(g6
S'!\x0b\x13D\xc6+<?'
p1781
tp1782
Rp1783
sS'elementseuclidv03euclgoog_0305'
p1784
g2
(g6
S'30\xa0\x8c\x1cg;?'
p1785
tp1786
Rp1787
sS'elementseuclidv03euclgoog_0304'
p1788
g2
(g6
S"'[\x05-&1;?"
p1789
tp1790
Rp1791
sS'elementseuclidv03euclgoog_0309'
p1792
g2
(g6
S'\x84\x93[\xc8\xe7\xad=?'
p1793
tp1794
Rp1795
sS'elementseuclidv03euclgoog_0308'
p1796
g2
(g6
S'\x03f/\xa2A\x13??'
p1797
tp1798
Rp1799
sS'elementseuclidv03euclgoog_0129'
p1800
g2
(g6
S"\xa9N\xa02'\x9bD?"
p1801
tp1802
Rp1803
sS'elementseuclidv03euclgoog_0415'
p1804
g2
(g6
S's\x04~\r\x86\xe83?'
p1805
tp1806
Rp1807
sS'elementseuclidv03euclgoog_0128'
p1808
g2
(g6
S'!\xb7\x00\xda\xf8-@?'
p1809
tp1810
Rp1811
sS'elementseuclidv03euclgoog_0376'
p1812
g2
(g6
S'\x82\xed\xd9lq\x08A?'
p1813
tp1814
Rp1815
sS'elementseuclidv03euclgoog_0377'
p1816
g2
(g6
S'\xb3^B\xad\xde\x92A?'
p1817
tp1818
Rp1819
sS'elementseuclidv03euclgoog_0374'
p1820
g2
(g6
S'\\\xd3\x85{\xb1\x98<?'
p1821
tp1822
Rp1823
sS'elementseuclidv03euclgoog_0375'
p1824
g2
(g6
S'\xf0*t|k\x14=?'
p1825
tp1826
Rp1827
sS'elementseuclidv03euclgoog_0372'
p1828
g2
(g6
S'\x940\x04ZGw@?'
p1829
tp1830
Rp1831
sS'elementseuclidv03euclgoog_0373'
p1832
g2
(g6
S'S\r\x0b\xc4P>@?'
p1833
tp1834
Rp1835
sS'elementseuclidv03euclgoog_0370'
p1836
g2
(g6
S'\xe9\xb4\xa5\xcc:\xc3@?'
p1837
tp1838
Rp1839
sS'elementseuclidv03euclgoog_0371'
p1840
g2
(g6
S'\xdb\x84\xef\x96\xea\x82@?'
p1841
tp1842
Rp1843
sS'elementseuclidv03euclgoog_0389'
p1844
g2
(g6
S'k\x88|P\x02\x192?'
p1845
tp1846
Rp1847
sS'elementseuclidv03euclgoog_0378'
p1848
g2
(g6
S'\x8e\xbfs\xe3(\xf89?'
p1849
tp1850
Rp1851
sS'elementseuclidv03euclgoog_0379'
p1852
g2
(g6
S',f\xd2z\xb6\xea:?'
p1853
tp1854
Rp1855
sS'elementseuclidv03euclgoog_0414'
p1856
g2
(g6
S'\xe2%\x97f\xf5\x9f9?'
p1857
tp1858
Rp1859
sS'elementseuclidv03euclgoog_0123'
p1860
g2
(g6
S'\\\x04$\xb3\x04F@?'
p1861
tp1862
Rp1863
sS'elementseuclidv03euclgoog_0388'
p1864
g2
(g6
S's\xcf\x82g\xf1\xd64?'
p1865
tp1866
Rp1867
sS'elementseuclidv03euclgoog_0279'
p1868
g2
(g6
S'&\xbc\xe2\x83\x82\xaf4?'
p1869
tp1870
Rp1871
sS'elementseuclidv03euclgoog_0278'
p1872
g2
(g6
S'|\x7f\xd7dv\x126?'
p1873
tp1874
Rp1875
sS'elementseuclidv03euclgoog_0277'
p1876
g2
(g6
S'\xe0]\x97\xdc\x07\xe32?'
p1877
tp1878
Rp1879
sS'elementseuclidv03euclgoog_0276'
p1880
g2
(g6
S'g0\xfa\xf1\xd5\xdb2?'
p1881
tp1882
Rp1883
sS'elementseuclidv03euclgoog_0275'
p1884
g2
(g6
S'\x02\xdc4\x0eC\x8f:?'
p1885
tp1886
Rp1887
sS'elementseuclidv03euclgoog_0274'
p1888
g2
(g6
S'\x16&1(\x07\xdf;?'
p1889
tp1890
Rp1891
sS'elementseuclidv03euclgoog_0273'
p1892
g2
(g6
S'\xf1\x1cfu%\xb96?'
p1893
tp1894
Rp1895
sS'elementseuclidv03euclgoog_0272'
p1896
g2
(g6
S'\xb5\x18\xcfh\xc3\xbf7?'
p1897
tp1898
Rp1899
sS'elementseuclidv03euclgoog_0271'
p1900
g2
(g6
S'\xf1\x1cfu%\xb96?'
p1901
tp1902
Rp1903
sS'elementseuclidv03euclgoog_0270'
p1904
g2
(g6
S'\x95N|\xf5\xd0\x928?'
p1905
tp1906
Rp1907
sS'elementseuclidv03euclgoog_0383'
p1908
g2
(g6
S'\x80\xa4\x82]p\x983?'
p1909
tp1910
Rp1911
sS'elementseuclidv03euclgoog_0382'
p1912
g2
(g6
S'u\xdeA\xdf\x04)5?'
p1913
tp1914
Rp1915
sS'elementseuclidv03euclgoog_0112'
p1916
g2
(g6
S'J5@L\xb9\xe4@?'
p1917
tp1918
Rp1919
sS'elementseuclidv03euclgoog_0113'
p1920
g2
(g6
S'#b\xef-4vA?'
p1921
tp1922
Rp1923
sS'elementseuclidv03euclgoog_0110'
p1924
g2
(g6
S'\x0c\x13\xefl\xd0\x999?'
p1925
tp1926
Rp1927
sS'elementseuclidv03euclgoog_0111'
p1928
g2
(g6
S'\xb8A}\xc0\xc3\xc9A?'
p1929
tp1930
Rp1931
sS'elementseuclidv03euclgoog_0116'
p1932
g2
(g6
S'+9\xb7\xb5\x954@?'
p1933
tp1934
Rp1935
sS'elementseuclidv03euclgoog_0117'
p1936
g2
(g6
S'\xed)\xcdI@\xfeC?'
p1937
tp1938
Rp1939
sS'elementseuclidv03euclgoog_0114'
p1940
g2
(g6
S'\xd8\xb7\xdc%\xaf\xd7B?'
p1941
tp1942
Rp1943
sS'elementseuclidv03euclgoog_0115'
p1944
g2
(g6
S"\xbe '\xdf\x1a\x0b@?"
p1945
tp1946
Rp1947
sS'elementseuclidv03euclgoog_0118'
p1948
g2
(g6
S'\x84\x86\xd4\xf0?\xbe@?'
p1949
tp1950
Rp1951
sS'elementseuclidv03euclgoog_0119'
p1952
g2
(g6
S':eS!J\x00=?'
p1953
tp1954
Rp1955
sS'elementseuclidv03euclgoog_0059'
p1956
g2
(g6
S'\xb89\xce\xb0b\xf4>?'
p1957
tp1958
Rp1959
sS'elementseuclidv03euclgoog_0058'
p1960
g2
(g6
S'=V\xd7\x16\nk??'
p1961
tp1962
Rp1963
sS'elementseuclidv03euclgoog_0053'
p1964
g2
(g6
S'\xa8=P\xe8\x80 >?'
p1965
tp1966
Rp1967
sS'elementseuclidv03euclgoog_0052'
p1968
g2
(g6
S'k\xff,\x17/\xad9?'
p1969
tp1970
Rp1971
sS'elementseuclidv03euclgoog_0051'
p1972
g2
(g6
S'\xc5s\x06o4F@?'
p1973
tp1974
Rp1975
sS'elementseuclidv03euclgoog_0050'
p1976
g2
(g6
S'\x9f\x04>\x1c23=?'
p1977
tp1978
Rp1979
sS'elementseuclidv03euclgoog_0057'
p1980
g2
(g6
S'\xaf\x8a\x15\x15X\x00=?'
p1981
tp1982
Rp1983
sS'elementseuclidv03euclgoog_0056'
p1984
g2
(g6
S'U\x93@\xe9\xe6\xa2A?'
p1985
tp1986
Rp1987
sS'elementseuclidv03euclgoog_0055'
p1988
g2
(g6
S'\x16\xca\x9d\xf5\xcd\xd1=?'
p1989
tp1990
Rp1991
sS'elementseuclidv03euclgoog_0054'
p1992
g2
(g6
S'R\x0b\xdd{J-??'
p1993
tp1994
Rp1995
sS'elementseuclidv03euclgoog_0282'
p1996
g2
(g6
S'$! \xcc\xfc???'
p1997
tp1998
Rp1999
sS'elementseuclidv03euclgoog_0283'
p2000
g2
(g6
S';\xc6\xc2\xac#\xa45?'
p2001
tp2002
Rp2003
sS'elementseuclidv03euclgoog_0280'
p2004
g2
(g6
S'\x9c\xc3\xdd\xaf\x9e\xac9?'
p2005
tp2006
Rp2007
sS'elementseuclidv03euclgoog_0281'
p2008
g2
(g6
S'\xdb\xa8\x191\x17n1?'
p2009
tp2010
Rp2011
sS'elementseuclidv03euclgoog_0286'
p2012
g2
(g6
S"\xa7s\t>'\xce7?"
p2013
tp2014
Rp2015
sS'elementseuclidv03euclgoog_0287'
p2016
g2
(g6
S'\xb02I\x9b\xd0\x10=?'
p2017
tp2018
Rp2019
sS'elementseuclidv03euclgoog_0284'
p2020
g2
(g6
S' \\t[\xe3\xe54?'
p2021
tp2022
Rp2023
sS'elementseuclidv03euclgoog_0285'
p2024
g2
(g6
S'\x8a\x04\x0f\x17\x81\xd65?'
p2025
tp2026
Rp2027
sS'elementseuclidv03euclgoog_0288'
p2028
g2
(g6
S'\x80Y\xc4\xe1\xd4\x9b9?'
p2029
tp2030
Rp2031
sS'elementseuclidv03euclgoog_0289'
p2032
g2
(g6
S'\xcd\x07\x02r\xafm:?'
p2033
tp2034
Rp2035
s.