(lp0
I27
aI3
aI3
aI5
aI48
aI27
aI18
aI17
aI17
aI60
aI57
aI46
aI29
aI31
aI25
aI24
aI23
aI21
aI21
aI18
aI36
aI26
aI23
aI23
aI36
aI40
aI21
aI49
aI23
aI18
aI19
aI20
aI21
aI19
aI21
aI17
aI23
aI19
aI21
aI21
aI26
aI17
aI18
aI21
aI73
aI27
aI19
aI17
aI21
aI21
aI19
aI29
aI23
aI20
aI19
aI27
aI23
aI23
aI18
aI27
aI17
aI21
aI15
aI15
aI18
aI17
aI17
aI23
aI21
aI17
aI25
aI23
aI21
aI17
aI16
aI18
aI17
aI23
aI23
aI31
aI27
aI19
aI21
aI18
aI24
aI19
aI19
aI23
aI16
aI19
aI16
aI20
aI15
aI17
aI23
aI17
aI18
aI17
aI17
aI17
aI16
aI17
aI21
aI15
aI18
aI51
aI34
aI21
aI13
aI13
aI52
aI21
aI23
aI15
aI17
aI11
aI17
aI18
aI16
aI19
aI14
aI16
aI21
aI19
aI15
aI57
aI27
aI19
aI51
aI46
aI16
aI21
aI28
aI31
aI21
aI16
aI21
aI19
aI20
aI27
aI19
aI20
aI22
aI17
aI18
aI17
aI19
aI18
aI23
aI18
aI17
aI12
aI22
aI21
aI17
aI17
aI16
aI20
aI15
aI21
aI18
aI15
aI21
aI20
aI14
aI18
aI19
aI17
aI16
aI23
aI25
aI19
aI16
aI21
aI16
aI16
aI17
aI17
aI16
aI18
aI14
aI25
aI20
aI23
aI15
aI16
aI12
aI17
aI17
aI24
aI31
aI16
aI39
aI28
aI23
aI23
aI11
aI21
aI17
aI21
aI2
aI2
aI2
aI27
aI20
aI15
aI15
aI1
aI29
aI15
aI27
aI35
aI19
aI15
aI1
aI16
aI1
aI4
aI6
aI1
aI1
aI1
aI2
aI2
aI4
aI48
aI27
aI21
aI27
aI24
aI26
aI25
aI57
aI54
aI27
aI19
aI18
aI19
aI19
aI17
aI23
aI15
aI19
aI19
aI27
aI27
aI31
aI19
aI17
aI17
aI20
aI21
aI19
aI21
aI21
aI24
aI23
aI18
aI19
aI19
aI16
aI15
aI41
aI18
aI47
aI45
aI15
aI43
aI50
aI44
aI45
aI23
aI55
aI23
aI45
aI29
aI32
aI1
aI3
aI1
aI3
aI9
aI5
aI1
aI1
aI1
aI1
aI1
aI35
aI15
aI7
aI21
aI19
aI13
aI25
aI17
aI19
aI19
aI19
aI18
aI23
aI17
aI17
aI22
aI24
aI17
aI25
aI19
aI29
aI17
aI22
aI21
aI20
aI17
aI20
aI9
aI11
aI13
aI46
aI27
aI49
aI46
aI4
aI15
aI19
aI19
aI15
aI12
aI15
aI13
aI16
aI38
aI25
a.