(dp0
S'1-15'
p1
(lp2
S'ratdolt_1482_v1_1_0013.tiff'
p3
aI2167
aI3000
aI897
aI560
aI1132
aI244
asS'1-14'
p4
(lp5
S'ratdolt_1482_v1_1_0012.tiff'
p6
aI2167
aI3000
aI174
aI1838
aI1112
aI236
asS'1-17'
p7
(lp8
S'ratdolt_1482_v1_1_0013.tiff'
p9
aI2167
aI3000
aI895
aI1698
aI1118
aI228
asS'1-16'
p10
(lp11
S'ratdolt_1482_v1_1_0013.tiff'
p12
aI2167
aI3000
aI897
aI986
aI1128
aI232
asS'1-11'
p13
(lp14
S'ratdolt_1482_v1_1_0012.tiff'
p15
aI2167
aI3000
aI171
aI460
aI1120
aI234
asS'1-10'
p16
(lp17
S'ratdolt_1482_v1_1_0011.tiff'
p18
aI2167
aI3000
aI881
aI1950
aI974
aI232
asS'1-13'
p19
(lp20
S'ratdolt_1482_v1_1_0012.tiff'
p21
aI2167
aI3000
aI176
aI1378
aI1118
aI236
asS'1-12'
p22
(lp23
S'ratdolt_1482_v1_1_0012.tiff'
p24
aI2167
aI3000
aI171
aI882
aI1122
aI230
asS'3-18'
p25
(lp26
S'ratdolt_1482_v1_1_0039.tiff'
p27
aI2167
aI3000
aI953
aI1854
aI1104
aI232
asS'1-19'
p28
(lp29
S'ratdolt_1482_v1_1_0014.tiff'
p30
aI2167
aI3000
aI179
aI444
aI1118
aI236
asS'1-18'
p31
(lp32
S'ratdolt_1482_v1_1_0013.tiff'
p33
aI2167
aI3000
aI885
aI2030
aI1126
aI234
asS'1-28'
p34
(lp35
S'ratdolt_1482_v1_1_0016.tiff'
p36
aI2167
aI3000
aI176
aI2062
aI1108
aI232
asS'1-29'
p37
(lp38
S'ratdolt_1482_v1_1_0017.tiff'
p39
aI2167
aI3000
aI897
aI726
aI1116
aI230
asS'6-21'
p40
(lp41
S'ratdolt_1482_v1_1_0095.tiff'
p42
aI2167
aI3000
aI933
aI2028
aI1132
aI246
asS'6-20'
p43
(lp44
S'ratdolt_1482_v1_1_0094.tiff'
p45
aI2167
aI3000
aI134
aI1714
aI1106
aI238
asS'4-8'
p46
(lp47
S'ratdolt_1482_v1_1_0053.tiff'
p48
aI2167
aI3000
aI917
aI966
aI1016
aI236
asS'4-9'
p49
(lp50
S'ratdolt_1482_v1_1_0053.tiff'
p51
aI2167
aI3000
aI923
aI1430
aI990
aI234
asS'4-12'
p52
(lp53
S'ratdolt_1482_v1_1_0055.tiff'
p54
aI2167
aI3000
aI947
aI1274
aI1112
aI240
asS'4-13'
p55
(lp56
S'ratdolt_1482_v1_1_0056.tiff'
p57
aI2167
aI3000
aI110
aI976
aI1116
aI248
asS'4-10'
p58
(lp59
S'ratdolt_1482_v1_1_0053.tiff'
p60
aI2167
aI3000
aI923
aI2014
aI1108
aI240
asS'4-11'
p61
(lp62
S'ratdolt_1482_v1_1_0055.tiff'
p63
aI2167
aI3000
aI961
aI610
aI1110
aI238
asS'4-16'
p64
(lp65
S'ratdolt_1482_v1_1_0058.tiff'
p66
aI2167
aI3000
aI117
aI1350
aI1102
aI244
asS'4-14'
p67
(lp68
S'ratdolt_1482_v1_1_0057.tiff'
p69
aI2167
aI3000
aI949
aI744
aI1114
aI242
asS'4-15'
p70
(lp71
S'ratdolt_1482_v1_1_0057.tiff'
p72
aI2167
aI3000
aI953
aI1414
aI1112
aI246
asS'1-36'
p73
(lp74
S'ratdolt_1482_v1_1_0020.tiff'
p75
aI2167
aI3000
aI125
aI1008
aI1106
aI236
asS'1-48'
p76
(lp77
S'ratdolt_1482_v1_1_0024.tiff'
p78
aI2167
aI3000
aI132
aI1038
aI1106
aI236
asS'6-9'
p79
(lp80
S'ratdolt_1482_v1_1_0091.tiff'
p81
aI2167
aI3000
aI953
aI2080
aI1112
aI232
asS'1-46'
p82
(lp83
S'ratdolt_1482_v1_1_0023.tiff'
p84
aI2167
aI3000
aI921
aI1272
aI794
aI246
asS'1-47'
p85
(lp86
S'ratdolt_1482_v1_1_0023.tiff'
p87
aI2167
aI3000
aI895
aI1854
aI1138
aI250
asS'1-44'
p88
(lp89
S'ratdolt_1482_v1_1_0022.tiff'
p90
aI2167
aI3000
aI130
aI1902
aI1104
aI246
asS'6-5'
p91
(lp92
S'ratdolt_1482_v1_1_0089.tiff'
p93
aI2167
aI3000
aI925
aI1238
aI1120
aI246
asS'6-2'
p94
(lp95
S'ratdolt_1482_v1_1_0088.tiff'
p96
aI2167
aI3000
aI104
aI644
aI1110
aI234
asS'1-43'
p97
(lp98
S'ratdolt_1482_v1_1_0022.tiff'
p99
aI2167
aI3000
aI112
aI1194
aI1106
aI246
asS'1-40'
p100
(lp101
S'ratdolt_1482_v1_1_0021.tiff'
p102
aI2167
aI3000
aI963
aI1230
aI1120
aI230
asS'1-41'
p103
(lp104
S'ratdolt_1482_v1_1_0021.tiff'
p105
aI2167
aI3000
aI951
aI1814
aI1118
aI234
asS'6-8'
p106
(lp107
S'ratdolt_1482_v1_1_0090.tiff'
p108
aI2167
aI3000
aI128
aI1970
aI1114
aI318
asS'1-add1'
p109
(lp110
S'ratdolt_1482_v1_1_0024.tiff'
p111
aI2167
aI3000
aI138
aI1664
aI1098
aI228
asS'6-6'
p112
(lp113
S'ratdolt_1482_v1_1_0089.tiff'
p114
aI2167
aI3000
aI917
aI1990
aI1122
aI256
asS'6-7'
p115
(lp116
S'ratdolt_1482_v1_1_0090.tiff'
p117
aI2167
aI3000
aI122
aI760
aI1110
aI282
asS'6-4'
p118
(lp119
S'ratdolt_1482_v1_1_0089.tiff'
p120
aI2167
aI3000
aI933
aI486
aI1116
aI236
asS'1-42'
p121
(lp122
S'ratdolt_1482_v1_1_0022.tiff'
p123
aI2167
aI3000
aI89
aI522
aI1130
aI256
asS'6-3'
p124
(lp125
S'ratdolt_1482_v1_1_0088.tiff'
p126
aI2167
aI3000
aI116
aI1436
aI1108
aI234
asS'3-13'
p127
(lp128
S'ratdolt_1482_v1_1_0036.tiff'
p129
aI2167
aI3000
aI142
aI1826
aI1086
aI226
asS'3-11'
p130
(lp131
S'ratdolt_1482_v1_1_0036.tiff'
p132
aI2167
aI3000
aI134
aI1328
aI1110
aI226
asS'3-10'
p133
(lp134
S'ratdolt_1482_v1_1_0036.tiff'
p135
aI2167
aI3000
aI130
aI950
aI1110
aI232
asS'3-17'
p136
(lp137
S'ratdolt_1482_v1_1_0039.tiff'
p138
aI2167
aI3000
aI951
aI1316
aI1106
aI230
asS'3-16'
p139
(lp140
S'ratdolt_1482_v1_1_0037.tiff'
p141
aI2167
aI3000
aI913
aI2092
aI1106
aI232
asS'3-15'
p142
(lp143
S'ratdolt_1482_v1_1_0037.tiff'
p144
aI2167
aI3000
aI925
aI1460
aI1104
aI236
asS'3-14'
p145
(lp146
S'ratdolt_1482_v1_1_0037.tiff'
p147
aI2167
aI3000
aI907
aI440
aI1140
aI254
asS'3-19'
p148
(lp149
S'ratdolt_1482_v1_1_0040.tiff'
p150
aI2167
aI3000
aI140
aI460
aI1108
aI238
asS'6-1'
p151
(lp152
S'ratdolt_1482_v1_1_0087.tiff'
p153
aI2167
aI3000
aI949
aI1566
aI1110
aI234
asS'2-2'
p154
(lp155
S'ratdolt_1482_v1_1_0026.tiff'
p156
aI2167
aI3000
aI145
aI416
aI1102
aI226
asS'2-3'
p157
(lp158
S'ratdolt_1482_v1_1_0026.tiff'
p159
aI2167
aI3000
aI146
aI834
aI1102
aI232
asS'2-1'
p160
(lp161
S'ratdolt_1482_v1_1_0025.tiff'
p162
aI2167
aI3000
aI937
aI1566
aI1106
aI232
asS'2-6'
p163
(lp164
S'ratdolt_1482_v1_1_0027.tiff'
p165
aI2167
aI3000
aI937
aI1358
aI1108
aI228
asS'2-7'
p166
(lp167
S'ratdolt_1482_v1_1_0027.tiff'
p168
aI2167
aI3000
aI933
aI1988
aI1102
aI230
asS'2-4'
p169
(lp170
S'ratdolt_1482_v1_1_0026.tiff'
p171
aI2167
aI3000
aI140
aI1332
aI1102
aI232
asS'2-5'
p172
(lp173
S'ratdolt_1482_v1_1_0027.tiff'
p174
aI2167
aI3000
aI937
aI684
aI1114
aI244
asS'2-8'
p175
(lp176
S'ratdolt_1482_v1_1_0028.tiff'
p177
aI2167
aI3000
aI133
aI660
aI1138
aI242
asS'2-9'
p178
(lp179
S'ratdolt_1482_v1_1_0028.tiff'
p180
aI2167
aI3000
aI142
aI1364
aI1118
aI246
asS'4-1'
p181
(lp182
S'ratdolt_1482_v1_1_0049.tiff'
p183
aI2167
aI3000
aI929
aI1906
aI1104
aI228
asS'4-2'
p184
(lp185
S'ratdolt_1482_v1_1_0050.tiff'
p186
aI2167
aI3000
aI145
aI506
aI1114
aI226
asS'4-3'
p187
(lp188
S'ratdolt_1482_v1_1_0050.tiff'
p189
aI2167
aI3000
aI148
aI1092
aI1112
aI236
asS'4-4'
p190
(lp191
S'ratdolt_1482_v1_1_0051.tiff'
p192
aI2167
aI3000
aI949
aI400
aI912
aI230
asS'4-5'
p193
(lp194
S'ratdolt_1482_v1_1_0051.tiff'
p195
aI2167
aI3000
aI939
aI1112
aI1104
aI230
asS'4-6'
p196
(lp197
S'ratdolt_1482_v1_1_0052.tiff'
p198
aI2167
aI3000
aI141
aI1642
aI916
aI236
asS'4-7'
p199
(lp200
S'ratdolt_1482_v1_1_0052.tiff'
p201
aI2167
aI3000
aI142
aI2100
aI1004
aI238
asS'1-24'
p202
(lp203
S'ratdolt_1482_v1_1_0015.tiff'
p204
aI2167
aI3000
aI889
aI942
aI1114
aI230
asS'1-25'
p205
(lp206
S'ratdolt_1482_v1_1_0015.tiff'
p207
aI2167
aI3000
aI887
aI1942
aI1122
aI240
asS'1-26'
p208
(lp209
S'ratdolt_1482_v1_1_0016.tiff'
p210
aI2167
aI3000
aI175
aI466
aI1120
aI332
asS'1-27'
p211
(lp212
S'ratdolt_1482_v1_1_0016.tiff'
p213
aI2167
aI3000
aI174
aI1604
aI1114
aI232
asS'1-20'
p214
(lp215
S'ratdolt_1482_v1_1_0014.tiff'
p216
aI2167
aI3000
aI180
aI698
aI1120
aI236
asS'1-21'
p217
(lp218
S'ratdolt_1482_v1_1_0014.tiff'
p219
aI2167
aI3000
aI178
aI986
aI1122
aI240
asS'1-22'
p220
(lp221
S'ratdolt_1482_v1_1_0014.tiff'
p222
aI2167
aI3000
aI170
aI1624
aI1124
aI226
asS'1-23'
p223
(lp224
S'ratdolt_1482_v1_1_0015.tiff'
p225
aI2167
aI3000
aI885
aI476
aI1118
aI240
asS'3-28'
p226
(lp227
S'ratdolt_1482_v1_1_0043.tiff'
p228
aI2167
aI3000
aI929
aI1634
aI1106
aI234
asS'3-29'
p229
(lp230
S'ratdolt_1482_v1_1_0044.tiff'
p231
aI2167
aI3000
aI135
aI512
aI1116
aI234
asS'3-26'
p232
(lp233
S'ratdolt_1482_v1_1_0042.tiff'
p234
aI2167
aI3000
aI143
aI1986
aI1112
aI238
asS'3-27'
p235
(lp236
S'ratdolt_1482_v1_1_0043.tiff'
p237
aI2167
aI3000
aI935
aI924
aI1106
aI226
asS'3-24'
p238
(lp239
S'ratdolt_1482_v1_1_0041.tiff'
p240
aI2167
aI3000
aI925
aI1704
aI1114
aI232
asS'3-25'
p241
(lp242
S'ratdolt_1482_v1_1_0041.tiff'
p243
aI2167
aI3000
aI921
aI2086
aI1108
aI228
asS'3-22'
p244
(lp245
S'ratdolt_1482_v1_1_0040.tiff'
p246
aI2167
aI3000
aI128
aI2050
aI1106
aI230
asS'3-23'
p247
(lp248
S'ratdolt_1482_v1_1_0041.tiff'
p249
aI2167
aI3000
aI931
aI658
aI1114
aI238
asS'3-20'
p250
(lp251
S'ratdolt_1482_v1_1_0040.tiff'
p252
aI2167
aI3000
aI132
aI838
aI1124
aI244
asS'3-21'
p253
(lp254
S'ratdolt_1482_v1_1_0040.tiff'
p255
aI2167
aI3000
aI128
aI1718
aI1112
aI242
asS'6-15_2'
p256
(lp257
S'ratdolt_1482_v1_1_0093.tiff'
p258
aI2167
aI3000
aI911
aI414
aI352
aI78
asS'3-4'
p259
(lp260
S'ratdolt_1482_v1_1_0033.tiff'
p261
aI2167
aI3000
aI961
aI1648
aI1106
aI236
asS'3-16_2'
p262
(lp263
S'ratdolt_1482_v1_1_0038.tiff'
p264
aI2167
aI3000
aI122
aI466
aI1104
aI284
asS'6-10'
p265
(lp266
S'ratdolt_1482_v1_1_0092.tiff'
p267
aI2167
aI3000
aI117
aI642
aI1130
aI242
asS'6-11'
p268
(lp269
S'ratdolt_1482_v1_1_0091.tiff'
p270
aI2167
aI3000
aI939
aI1326
aI1118
aI254
asS'6-13'
p271
(lp272
S'ratdolt_1482_v1_1_0091.tiff'
p273
aI2167
aI3000
aI939
aI818
aI1116
aI250
asS'6-14'
p274
(lp275
S'ratdolt_1482_v1_1_0092.tiff'
p276
aI2167
aI3000
aI122
aI1178
aI1116
aI246
asS'6-15'
p277
(lp278
S'ratdolt_1482_v1_1_0092.tiff'
p279
aI2167
aI3000
aI128
aI2102
aI1114
aI230
asS'1-39'
p280
(lp281
S'ratdolt_1482_v1_1_0020.tiff'
p282
aI2167
aI3000
aI132
aI2044
aI1114
aI244
asS'6-17'
p283
(lp284
S'ratdolt_1482_v1_1_0093.tiff'
p285
aI2167
aI3000
aI929
aI1886
aI1124
aI254
asS'6-18'
p286
(lp287
S'ratdolt_1482_v1_1_0095.tiff'
p288
aI2167
aI3000
aI951
aI1242
aI1110
aI230
asS'6-19'
p289
(lp290
S'ratdolt_1482_v1_1_0094.tiff'
p291
aI2167
aI3000
aI116
aI460
aI1122
aI286
asS'1-35'
p292
(lp293
S'ratdolt_1482_v1_1_0019.tiff'
p294
aI2167
aI3000
aI921
aI1956
aI1114
aI242
asS'1-34'
p295
(lp296
S'ratdolt_1482_v1_1_0019.tiff'
p297
aI2167
aI3000
aI927
aI1334
aI1108
aI234
asS'1-33'
p298
(lp299
S'ratdolt_1482_v1_1_0019.tiff'
p300
aI2167
aI3000
aI921
aI882
aI1116
aI226
asS'1-32'
p301
(lp302
S'ratdolt_1482_v1_1_0018.tiff'
p303
aI2167
aI3000
aI179
aI564
aI1110
aI232
asS'1-31'
p304
(lp305
S'ratdolt_1482_v1_1_0017.tiff'
p306
aI2167
aI3000
aI891
aI2102
aI1126
aI236
asS'1-30'
p307
(lp308
S'ratdolt_1482_v1_1_0017.tiff'
p309
aI2167
aI3000
aI901
aI1562
aI1106
aI226
asS'3-31'
p310
(lp311
S'ratdolt_1482_v1_1_0044.tiff'
p312
aI2167
aI3000
aI134
aI1306
aI1116
aI272
asS'3-30'
p313
(lp314
S'ratdolt_1482_v1_1_0044.tiff'
p315
aI2167
aI3000
aI134
aI932
aI774
aI228
asS'3-33'
p316
(lp317
S'ratdolt_1482_v1_1_0046.tiff'
p318
aI2167
aI3000
aI147
aI912
aI1126
aI250
asS'3-32'
p319
(lp320
S'ratdolt_1482_v1_1_0045.tiff'
p321
aI2167
aI3000
aI919
aI1788
aI1118
aI234
asS'3-35'
p322
(lp323
S'ratdolt_1482_v1_1_0047.tiff'
p324
aI2167
aI3000
aI929
aI478
aI1106
aI228
asS'3-34'
p325
(lp326
S'ratdolt_1482_v1_1_0046.tiff'
p327
aI2167
aI3000
aI162
aI1964
aI1102
aI234
asS'3-37'
p328
(lp329
S'ratdolt_1482_v1_1_0049.tiff'
p330
aI2167
aI3000
aI919
aI434
aI1122
aI248
asS'3-36'
p331
(lp332
S'ratdolt_1482_v1_1_0047.tiff'
p333
aI2167
aI3000
aI913
aI2056
aI1120
aI250
asS'1-9'
p334
(lp335
S'ratdolt_1482_v1_1_0011.tiff'
p336
aI2167
aI3000
aI891
aI1538
aI772
aI228
asS'1-8'
p337
(lp338
S'ratdolt_1482_v1_1_0011.tiff'
p339
aI2167
aI3000
aI897
aI908
aI1122
aI226
asS'1-1'
p340
(lp341
S'ratdolt_1482_v1_1_0007.tiff'
p342
aI2167
aI3000
aI905
aI2098
aI1126
aI238
asS'1-3'
p343
(lp344
S'ratdolt_1482_v1_1_0009.tiff'
p345
aI2167
aI3000
aI895
aI908
aI1122
aI236
asS'1-2'
p346
(lp347
S'ratdolt_1482_v1_1_0008.tiff'
p348
aI2167
aI3000
aI179
aI1956
aI1116
aI228
asS'1-5'
p349
(lp350
S'ratdolt_1482_v1_1_0009.tiff'
p351
aI2167
aI3000
aI895
aI2072
aI1130
aI244
asS'1-4'
p352
(lp353
S'ratdolt_1482_v1_1_0009.tiff'
p354
aI2167
aI3000
aI905
aI1284
aI1110
aI284
asS'1-7'
p355
(lp356
S'ratdolt_1482_v1_1_0010.tiff'
p357
aI2167
aI3000
aI163
aI1610
aI1122
aI236
asS'1-6'
p358
(lp359
S'ratdolt_1482_v1_1_0010.tiff'
p360
aI2167
aI3000
aI161
aI1068
aI1120
aI238
asS'6-16'
p361
(lp362
S'ratdolt_1482_v1_1_0093.tiff'
p363
aI2167
aI3000
aI919
aI1130
aI1130
aI244
asS'3-9'
p364
(lp365
S'ratdolt_1482_v1_1_0036.tiff'
p366
aI2167
aI3000
aI127
aI404
aI1108
aI236
asS'3-8'
p367
(lp368
S'ratdolt_1482_v1_1_0035.tiff'
p369
aI2167
aI3000
aI933
aI886
aI1124
aI362
asS'3-7'
p370
(lp371
S'ratdolt_1482_v1_1_0034.tiff'
p372
aI2167
aI3000
aI106
aI1398
aI1100
aI308
asS'3-6'
p373
(lp374
S'ratdolt_1482_v1_1_0034.tiff'
p375
aI2167
aI3000
aI96
aI892
aI1108
aI240
asS'3-5'
p376
(lp377
S'ratdolt_1482_v1_1_0034.tiff'
p378
aI2167
aI3000
aI98
aI466
aI1020
aI244
asS'1-38'
p379
(lp380
S'ratdolt_1482_v1_1_0020.tiff'
p381
aI2167
aI3000
aI126
aI1758
aI1116
aI234
asS'3-3'
p382
(lp383
S'ratdolt_1482_v1_1_0033.tiff'
p384
aI2167
aI3000
aI967
aI942
aI1106
aI228
asS'3-2'
p385
(lp386
S'ratdolt_1482_v1_1_0033.tiff'
p387
aI2167
aI3000
aI969
aI396
aI1112
aI238
asS'3-1'
p388
(lp389
S'ratdolt_1482_v1_1_0032.tiff'
p390
aI2167
aI3000
aI149
aI1642
aI1104
aI234
asS'2-14'
p391
(lp392
S'ratdolt_1482_v1_1_0031.tiff'
p393
aI2167
aI3000
aI919
aI1334
aI908
aI242
asS'1-37'
p394
(lp395
S'ratdolt_1482_v1_1_0020.tiff'
p396
aI2167
aI3000
aI124
aI1424
aI1110
aI238
asS'2-10'
p397
(lp398
S'ratdolt_1482_v1_1_0029.tiff'
p399
aI2167
aI3000
aI921
aI570
aI1124
aI280
asS'2-11'
p400
(lp401
S'ratdolt_1482_v1_1_0029.tiff'
p402
aI2167
aI3000
aI909
aI1736
aI1120
aI236
asS'2-12'
p403
(lp404
S'ratdolt_1482_v1_1_0030.tiff'
p405
aI2167
aI3000
aI155
aI726
aI1116
aI244
asS'2-13'
p406
(lp407
S'ratdolt_1482_v1_1_0030.tiff'
p408
aI2167
aI3000
aI158
aI1646
aI1102
aI238
as.