(lp0
S'simson_v1_1762_1,elementseuclid00simsgoog,0249,quad,none,none,2890,4682,1479,2719,511,551'
p1
aS'simson_v1_1762_1,elementseuclid00simsgoog,0249,quad,none,none,2890,4682,1718,2719,272,217'
p2
aS'simson_v1_1762_1,elementseuclid00simsgoog,0249,quad,none,none,2890,4682,1479,2741,373,529'
p3
aS'simson_v1_1762_1,elementseuclid00simsgoog,0249,quad,none,none,2890,4682,1677,2741,307,383'
p4
aS'simson_v1_1762_1,elementseuclid00simsgoog,0249,quad,none,none,2890,4682,1479,2765,505,505'
p5
aS'simson_v1_1762_1,elementseuclid00simsgoog,0249,quad,none,none,2890,4682,1653,2893,331,337'
p6
aS'simson_v1_1762_1,elementseuclid00simsgoog,0249,quad,none,none,2890,4682,1677,2893,307,231'
p7
aS'simson_v1_1762_1,elementseuclid00simsgoog,0249,quad,none,none,2890,4682,1479,2765,391,505'
p8
aS'simson_v1_1762_1,elementseuclid00simsgoog,0158,quad,none,none,2870,4696,1895,2210,771,312'
p9
aS'simson_v1_1762_1,elementseuclid00simsgoog,0158,quad,none,none,2870,4696,1895,2245,747,285'
p10
aS'simson_v1_1762_1,elementseuclid00simsgoog,0175,quad,none,none,2870,4696,1177,565,991,651'
p11
aS'simson_v1_1762_1,elementseuclid00simsgoog,0175,quad,none,none,2870,4696,1177,565,1063,651'
p12
aS'simson_v1_1762_1,elementseuclid00simsgoog,0175,quad,none,none,2870,4696,1304,2739,927,471'
p13
aS'simson_v1_1762_1,elementseuclid00simsgoog,0016,quad,none,none,2860,4670,1083,3195,1177,336'
p14
aS'simson_v1_1762_1,elementseuclid00simsgoog,0053,quad,none,none,2860,4670,886,751,912,611'
p15
aS'simson_v1_1762_1,elementseuclid00simsgoog,0247,quad,none,none,2890,4682,1451,2137,781,769'
p16
aS'simson_v1_1762_1,elementseuclid00simsgoog,0247,quad,none,none,2890,4682,1775,2139,496,670'
p17
aS'simson_v1_1762_1,elementseuclid00simsgoog,0247,quad,none,none,2890,4682,1451,2137,820,769'
p18
aS'simson_v1_1762_1,elementseuclid00simsgoog,0247,quad,none,none,2890,4682,1642,2247,629,660'
p19
aS'simson_v1_1762_1,elementseuclid00simsgoog,0247,quad,none,none,2890,4682,1451,2137,558,769'
p20
aS'simson_v1_1762_1,elementseuclid00simsgoog,0247,quad,none,none,2890,4682,1451,2137,558,770'
p21
aS'simson_v1_1762_1,elementseuclid00simsgoog,0434,quad,none,none,2898,4694,1831,2398,691,612'
p22
aS'simson_v1_1762_1,elementseuclid00simsgoog,0113,quad,none,none,2870,4696,1566,2951,624,631'
p23
aS'simson_v1_1762_1,elementseuclid00simsgoog,0186,quad,none,none,2870,4696,1428,1741,335,191'
p24
aS'simson_v1_1762_1,elementseuclid00simsgoog,0215,quad,none,none,2890,4682,1397,2158,874,707'
p25
aS'simson_v1_1762_1,elementseuclid00simsgoog,0230,quad,none,none,2890,4682,1925,2645,685,580'
p26
aS'simson_v1_1762_1,elementseuclid00simsgoog,0352,quad,none,none,2880,4686,591,1297,716,329'
p27
aS'simson_v1_1762_1,elementseuclid00simsgoog,0352,quad,none,none,2880,4686,1019,1190,658,430'
p28
aS'simson_v1_1762_1,elementseuclid00simsgoog,0352,quad,none,none,2880,4686,591,1297,525,589'
p29
aS'simson_v1_1762_1,elementseuclid00simsgoog,0352,quad,none,none,2880,4686,1237,1190,440,690'
p30
aS'simson_v1_1762_1,elementseuclid00simsgoog,0091,quad,none,none,2860,4670,1577,1893,687,693'
p31
aS'simson_v1_1762_1,elementseuclid00simsgoog,0177,quad,none,none,2870,4696,1544,2172,858,542'
p32
aS'simson_v1_1762_1,elementseuclid00simsgoog,0196,quad,none,none,2890,4682,1632,639,1024,742'
p33
aS'simson_v1_1762_1,elementseuclid00simsgoog,0250,quad,none,none,2890,4682,1630,2009,679,552'
p34
aS'simson_v1_1762_1,elementseuclid00simsgoog,0250,quad,none,none,2890,4682,1712,2009,597,313'
p35
aS'simson_v1_1762_1,elementseuclid00simsgoog,0250,quad,none,none,2890,4682,1630,2184,502,377'
p36
aS'simson_v1_1762_1,elementseuclid00simsgoog,0250,quad,none,none,2890,4682,1827,2193,309,192'
p37
aS'simson_v1_1762_1,elementseuclid00simsgoog,0250,quad,none,none,2890,4682,1712,2009,597,376'
p38
aS'simson_v1_1762_1,elementseuclid00simsgoog,0250,quad,none,none,2890,4682,1630,2184,506,377'
p39
aS'simson_v1_1762_1,elementseuclid00simsgoog,0193,quad,none,none,2870,4696,914,3039,292,817'
p40
aS'simson_v1_1762_1,elementseuclid00simsgoog,0193,quad,none,none,2870,4696,1236,3613,1003,457'
p41
aS'simson_v1_1762_1,elementseuclid00simsgoog,0164,quad,none,none,2870,4696,609,823,565,705'
p42
aS'simson_v1_1762_1,elementseuclid00simsgoog,0164,quad,none,none,2870,4696,1319,853,610,679'
p43
aS'simson_v1_1762_1,elementseuclid00simsgoog,0351,quad,none,none,2880,4686,523,2588,650,322'
p44
aS'simson_v1_1762_1,elementseuclid00simsgoog,0351,quad,none,none,2880,4686,737,2589,436,585'
p45
aS'simson_v1_1762_1,elementseuclid00simsgoog,0242,quad,none,none,2890,4682,1815,2295,907,875'
p46
aS'simson_v1_1762_1,elementseuclid00simsgoog,0432,quad,none,none,2898,4694,2181,2234,585,358'
p47
aS'simson_v1_1762_1,elementseuclid00simsgoog,0466,quad,none,none,2898,4694,2267,1867,541,618'
p48
aS'simson_v1_1762_1,elementseuclid00simsgoog,0466,quad,none,none,2898,4694,2082,1873,738,769'
p49
aS'simson_v1_1762_1,elementseuclid00simsgoog,0466,quad,none,none,2898,4694,2177,1873,496,612'
p50
aS'simson_v1_1762_1,elementseuclid00simsgoog,0466,quad,none,none,2898,4694,2155,1875,275,559'
p51
aS'simson_v1_1762_1,elementseuclid00simsgoog,0466,quad,none,none,2898,4694,2082,2107,738,535'
p52
aS'simson_v1_1762_1,elementseuclid00simsgoog,0466,quad,none,none,2898,4694,2267,1873,406,613'
p53
aS'simson_v1_1762_1,elementseuclid00simsgoog,0466,quad,none,none,2898,4694,2082,2320,738,322'
p54
aS'simson_v1_1762_1,elementseuclid00simsgoog,0438,quad,none,none,2898,4694,1433,2541,783,407'
p55
aS'simson_v1_1762_1,elementseuclid00simsgoog,0438,quad,none,none,2898,4694,1843,2552,803,384'
p56
aS'simson_v1_1762_1,elementseuclid00simsgoog,0442,quad,none,none,2898,4694,1725,2104,1091,558'
p57
aS'simson_v1_1762_1,elementseuclid00simsgoog,0380,quad,none,none,2880,4686,2097,1387,761,821'
p58
aS'simson_v1_1762_1,elementseuclid00simsgoog,0415,quad,none,none,2898,4694,1335,2595,319,380'
p59
aS'simson_v1_1762_1,elementseuclid00simsgoog,0098,quad,none,none,2870,4696,2039,3259,804,1437'
p60
aS'simson_v1_1762_1,elementseuclid00simsgoog,0098,quad,none,none,2870,4696,2039,3259,636,237'
p61
aS'simson_v1_1762_1,elementseuclid00simsgoog,0208,quad,none,none,2890,4682,2044,3047,530,877'
p62
aS'simson_v1_1762_1,elementseuclid00simsgoog,0188,quad,none,none,2870,4696,1955,901,791,545'
p63
aS'simson_v1_1762_1,elementseuclid00simsgoog,0188,quad,none,none,2870,4696,2213,1114,415,334'
p64
aS'simson_v1_1762_1,elementseuclid00simsgoog,0188,quad,none,none,2870,4696,2290,1114,409,330'
p65
aS'simson_v1_1762_1,elementseuclid00simsgoog,0253,quad,none,none,2890,4682,1263,2677,373,401'
p66
aS'simson_v1_1762_1,elementseuclid00simsgoog,0038,quad,none,none,2860,4670,1288,659,564,613'
p67
aS'simson_v1_1762_1,elementseuclid00simsgoog,0038,quad,none,none,2860,4670,1963,796,563,480'
p68
aS'simson_v1_1762_1,elementseuclid00simsgoog,0419,quad,none,none,2898,4694,2070,1867,190,283'
p69
aS'simson_v1_1762_1,elementseuclid00simsgoog,0245,quad,none,none,2890,4682,1847,1829,445,489'
p70
aS'simson_v1_1762_1,elementseuclid00simsgoog,0205,quad,none,none,2890,4682,1361,1281,930,340'
p71
aS'simson_v1_1762_1,elementseuclid00simsgoog,0255,quad,none,none,2890,4682,1408,757,520,419'
p72
aS'simson_v1_1762_1,elementseuclid00simsgoog,0255,quad,none,none,2890,4682,1408,757,520,558'
p73
aS'simson_v1_1762_1,elementseuclid00simsgoog,0255,quad,none,none,2890,4682,897,2937,1291,1193'
p74
aS'simson_v1_1762_1,elementseuclid00simsgoog,0291,quad,none,none,2880,4686,1431,1231,933,942'
p75
aS'simson_v1_1762_1,elementseuclid00simsgoog,0291,quad,none,none,2880,4686,1431,1239,933,934'
p76
aS'simson_v1_1762_1,elementseuclid00simsgoog,0270,quad,none,none,2890,4682,865,2194,655,590'
p77
aS'simson_v1_1762_1,elementseuclid00simsgoog,0270,quad,none,none,2890,4682,1003,2194,517,570'
p78
aS'simson_v1_1762_1,elementseuclid00simsgoog,0270,quad,none,none,2890,4682,865,2565,641,219'
p79
aS'simson_v1_1762_1,elementseuclid00simsgoog,0453,quad,none,none,2898,4694,1687,2289,656,450'
p80
aS'simson_v1_1762_1,elementseuclid00simsgoog,0106,quad,none,none,2870,4696,1777,1061,644,897'
p81
aS'simson_v1_1762_1,elementseuclid00simsgoog,0106,quad,none,none,2870,4696,2073,1245,361,451'
p82
aS'simson_v1_1762_1,elementseuclid00simsgoog,0106,quad,none,none,2870,4696,1777,1061,657,897'
p83
aS'simson_v1_1762_1,elementseuclid00simsgoog,0111,quad,none,none,2870,4696,802,705,1394,711'
p84
aS'simson_v1_1762_1,elementseuclid00simsgoog,0244,quad,none,none,2890,4682,1456,1731,984,920'
p85
aS'simson_v1_1762_1,elementseuclid00simsgoog,0244,quad,none,none,2890,4682,1456,1731,482,497'
p86
aS'simson_v1_1762_1,elementseuclid00simsgoog,0244,quad,none,none,2890,4682,1471,1815,969,836'
p87
aS'simson_v1_1762_1,elementseuclid00simsgoog,0244,quad,none,none,2890,4682,1582,1815,858,847'
p88
aS'simson_v1_1762_1,elementseuclid00simsgoog,0160,quad,none,none,2870,4696,551,1719,2231,643'
p89
aS'simson_v1_1762_1,elementseuclid00simsgoog,0378,quad,none,none,2880,4686,2041,416,835,266'
p90
aS'simson_v1_1762_1,elementseuclid00simsgoog,0241,quad,none,none,2890,4682,1358,2167,842,503'
p91
aS'simson_v1_1762_1,elementseuclid00simsgoog,0197,quad,none,none,2890,4682,1299,2795,697,705'
p92
aS'simson_v1_1762_1,elementseuclid00simsgoog,0197,quad,none,none,2890,4682,439,2793,699,707'
p93
aS'simson_v1_1762_1,elementseuclid00simsgoog,0157,quad,none,none,2870,4696,1896,1381,484,313'
p94
aS'simson_v1_1762_1,elementseuclid00simsgoog,0194,quad,none,none,2870,4696,1597,1997,1005,455'
p95
aS'simson_v1_1762_1,elementseuclid00simsgoog,0194,quad,none,none,2870,4696,1701,2019,901,435'
p96
aS'simson_v1_1762_1,elementseuclid00simsgoog,0153,quad,none,none,2870,4696,1835,2616,487,312'
p97
aS'simson_v1_1762_1,elementseuclid00simsgoog,0153,quad,none,none,2870,4696,1855,2616,481,326'
p98
aS'simson_v1_1762_1,elementseuclid00simsgoog,0153,quad,none,none,2870,4696,1835,2622,501,320'
p99
aS'simson_v1_1762_1,elementseuclid00simsgoog,0341,quad,none,none,2880,4686,1290,2841,897,559'
p100
aS'simson_v1_1762_1,elementseuclid00simsgoog,0341,quad,none,none,2880,4686,1290,2843,706,557'
p101
aS'simson_v1_1762_1,elementseuclid00simsgoog,0259,quad,none,none,2890,4682,581,2693,675,695'
p102
aS'simson_v1_1762_1,elementseuclid00simsgoog,0259,quad,none,none,2890,4682,567,2693,689,695'
p103
aS'simson_v1_1762_1,elementseuclid00simsgoog,0199,quad,none,none,2890,4682,471,1525,688,681'
p104
aS'simson_v1_1762_1,elementseuclid00simsgoog,0210,quad,none,none,2890,4682,2041,1778,521,864'
p105
aS'simson_v1_1762_1,elementseuclid00simsgoog,0400,quad,none,none,2898,4694,813,1163,809,569'
p106
aS'simson_v1_1762_1,elementseuclid00simsgoog,0282,quad,none,none,790,1242,467,347,202,273'
p107
aS'simson_v1_1762_1,elementseuclid00simsgoog,0180,quad,none,none,2870,4696,1264,2271,646,485'
p108
aS'simson_v1_1762_1,elementseuclid00simsgoog,0185,quad,none,none,2870,4696,907,1427,922,417'
p109
aS'simson_v1_1762_1,elementseuclid00simsgoog,0185,quad,none,none,2870,4696,1487,1427,756,423'
p110
aS'simson_v1_1762_1,elementseuclid00simsgoog,0280,quad,none,none,2890,4682,1143,2359,402,663'
p111
aS'simson_v1_1762_1,elementseuclid00simsgoog,0280,quad,none,none,2890,4682,1707,2792,351,237'
p112
aS'simson_v1_1762_1,elementseuclid00simsgoog,0198,quad,none,none,2890,4682,791,1195,671,670'
p113
aS'simson_v1_1762_1,elementseuclid00simsgoog,0198,quad,none,none,2890,4682,1649,1199,686,701'
p114
aS'simson_v1_1762_1,elementseuclid00simsgoog,0198,quad,none,none,2890,4682,1752,1199,583,506'
p115
aS'simson_v1_1762_1,elementseuclid00simsgoog,0198,quad,none,none,2890,4682,791,1195,641,679'
p116
aS'simson_v1_1762_1,elementseuclid00simsgoog,0198,quad,none,none,2890,4682,1649,1331,443,569'
p117
aS'simson_v1_1762_1,elementseuclid00simsgoog,0198,quad,none,none,2890,4682,1752,1362,354,510'
p118
aS'simson_v1_1762_1,elementseuclid00simsgoog,0198,quad,none,none,2890,4682,791,1195,657,653'
p119
aS'simson_v1_1762_1,elementseuclid00simsgoog,0198,quad,none,none,2890,4682,1138,1383,324,482'
p120
aS'simson_v1_1762_1,elementseuclid00simsgoog,0198,quad,none,none,2890,4682,1179,1413,307,452'
p121
aS'simson_v1_1762_1,elementseuclid00simsgoog,0198,quad,none,none,2890,4682,1649,1331,693,569'
p122
aS'simson_v1_1762_1,elementseuclid00simsgoog,0198,quad,none,none,2890,4682,1981,1502,361,370'
p123
aS'simson_v1_1762_1,elementseuclid00simsgoog,0198,quad,none,none,2890,4682,791,1195,641,653'
p124
aS'simson_v1_1762_1,elementseuclid00simsgoog,0198,quad,none,none,2890,4682,1138,1383,310,420'
p125
aS'simson_v1_1762_1,elementseuclid00simsgoog,0198,quad,none,none,2890,4682,1143,1555,319,310'
p126
aS'simson_v1_1762_1,elementseuclid00simsgoog,0198,quad,none,none,2890,4682,1111,1555,148,249'
p127
aS'simson_v1_1762_1,elementseuclid00simsgoog,0198,quad,none,none,2890,4682,1111,1561,351,304'
p128
aS'simson_v1_1762_1,elementseuclid00simsgoog,0198,quad,none,none,2890,4682,1649,1331,457,569'
p129
aS'simson_v1_1762_1,elementseuclid00simsgoog,0198,quad,none,none,2890,4682,1987,1502,355,377'
p130
aS'simson_v1_1762_1,elementseuclid00simsgoog,0209,quad,none,none,2890,4682,1341,2770,913,423'
p131
aS'simson_v1_1762_1,elementseuclid00simsgoog,0183,quad,none,none,2870,4696,786,1919,722,485'
p132
aS'simson_v1_1762_1,elementseuclid00simsgoog,0117,quad,none,none,2870,4696,1461,2829,783,701'
p133
aS'simson_v1_1762_1,elementseuclid00simsgoog,0162,quad,none,none,2870,4696,1691,2353,424,477'
p134
aS'simson_v1_1762_1,elementseuclid00simsgoog,0162,quad,none,none,2870,4696,1691,2477,424,353'
p135
aS'simson_v1_1762_1,elementseuclid00simsgoog,0162,quad,none,none,2870,4696,1385,2477,501,357'
p136
aS'simson_v1_1762_1,elementseuclid00simsgoog,0162,quad,none,none,2870,4696,1691,2482,899,348'
p137
aS'simson_v1_1762_1,elementseuclid00simsgoog,0162,quad,none,none,2870,4696,1385,2482,730,352'
p138
aS'simson_v1_1762_1,elementseuclid00simsgoog,0162,quad,none,none,2870,4696,1691,2482,509,348'
p139
aS'simson_v1_1762_1,elementseuclid00simsgoog,0162,quad,none,none,2870,4696,2097,2483,493,347'
p140
aS'simson_v1_1762_1,elementseuclid00simsgoog,0162,quad,none,none,2870,4696,1385,2506,355,328'
p141
aS'simson_v1_1762_1,elementseuclid00simsgoog,0102,quad,none,none,2870,4696,1635,455,968,701'
p142
aS'simson_v1_1762_1,elementseuclid00simsgoog,0405,quad,none,none,2898,4694,1239,1860,987,456'
p143
aS'simson_v1_1762_1,elementseuclid00simsgoog,0222,quad,none,none,2890,4682,1379,1361,607,461'
p144
aS'simson_v1_1762_1,elementseuclid00simsgoog,0262,quad,none,none,2890,4682,1343,2737,531,535'
p145
aS'simson_v1_1762_1,elementseuclid00simsgoog,0216,quad,none,none,2890,4682,1699,1717,845,836'
p146
aS'simson_v1_1762_1,elementseuclid00simsgoog,0159,quad,none,none,2870,4696,111,3089,2206,597'
p147
aS'simson_v1_1762_1,elementseuclid00simsgoog,0159,quad,none,none,2870,4696,87,3093,2227,593'
p148
aS'simson_v1_1762_1,elementseuclid00simsgoog,0189,quad,none,none,2870,4696,639,970,1071,601'
p149
aS'simson_v1_1762_1,elementseuclid00simsgoog,0189,quad,none,none,2870,4696,1328,1065,753,418'
p150
aS'simson_v1_1762_1,elementseuclid00simsgoog,0018,quad,none,none,2860,4670,1073,3547,1216,420'
p151
aS'simson_v1_1762_1,elementseuclid00simsgoog,0227,quad,none,none,2890,4682,1724,2092,506,564'
p152
aS'simson_v1_1762_1,elementseuclid00simsgoog,0227,quad,none,none,2890,4682,1823,2092,419,505'
p153
aS'simson_v1_1762_1,elementseuclid00simsgoog,0058,quad,none,none,2860,4670,1729,643,891,659'
p154
aS'simson_v1_1762_1,elementseuclid00simsgoog,0293,quad,none,none,2880,4686,283,1163,2008,2103'
p155
aS'simson_v1_1762_1,elementseuclid00simsgoog,0293,quad,none,none,2880,4686,2029,2215,174,376'
p156
aS'simson_v1_1762_1,elementseuclid00simsgoog,0293,quad,none,none,2880,4686,2029,2215,247,403'
p157
aS'simson_v1_1762_1,elementseuclid00simsgoog,0293,quad,none,none,2880,4686,1771,2215,421,662'
p158
aS'simson_v1_1762_1,elementseuclid00simsgoog,0293,quad,none,none,2880,4686,2027,2215,165,278'
p159
aS'simson_v1_1762_1,elementseuclid00simsgoog,0293,quad,none,none,2880,4686,1303,2247,548,606'
p160
aS'simson_v1_1762_1,elementseuclid00simsgoog,0293,quad,none,none,2880,4686,2103,2267,173,351'
p161
aS'simson_v1_1762_1,elementseuclid00simsgoog,0293,quad,none,none,2880,4686,1303,2275,765,602'
p162
aS'simson_v1_1762_1,elementseuclid00simsgoog,0293,quad,none,none,2880,4686,1285,2275,495,731'
p163
aS'simson_v1_1762_1,elementseuclid00simsgoog,0293,quad,none,none,2880,4686,791,2263,506,349'
p164
aS'simson_v1_1762_1,elementseuclid00simsgoog,0293,quad,none,none,2880,4686,1285,2334,783,672'
p165
aS'simson_v1_1762_1,elementseuclid00simsgoog,0293,quad,none,none,2880,4686,1771,2334,297,543'
p166
aS'simson_v1_1762_1,elementseuclid00simsgoog,0248,quad,none,none,2890,4682,698,1619,500,765'
p167
aS'simson_v1_1762_1,elementseuclid00simsgoog,0248,quad,none,none,2890,4682,771,1619,320,520'
p168
aS'simson_v1_1762_1,elementseuclid00simsgoog,0248,quad,none,none,2890,4682,698,1722,500,662'
p169
aS'simson_v1_1762_1,elementseuclid00simsgoog,0248,quad,none,none,2890,4682,1611,1588,816,770'
p170
aS'simson_v1_1762_1,elementseuclid00simsgoog,0101,quad,none,none,2870,4696,1450,1803,812,380'
p171
aS'simson_v1_1762_1,elementseuclid00simsgoog,0225,quad,none,none,2890,4682,326,1080,1248,713'
p172
aS'simson_v1_1762_1,elementseuclid00simsgoog,0223,quad,none,none,2890,4682,1565,845,631,474'
p173
aS'simson_v1_1762_1,elementseuclid00simsgoog,0223,quad,none,none,2890,4682,819,1094,669,448'
p174
aS'simson_v1_1762_1,elementseuclid00simsgoog,0052,quad,none,none,2860,4670,989,457,575,665'
p175
aS'simson_v1_1762_1,elementseuclid00simsgoog,0221,quad,none,none,2890,4682,1159,3191,609,465'
p176
a.