(dp0
S'elementseuclid00simsgoog_0160'
p1
cnumpy.core.multiarray
scalar
p2
(cnumpy
dtype
p3
(S'f8'
p4
I0
I1
tp5
Rp6
(I3
S'<'
p7
NNNI-1
I-1
I0
tp8
bS':oOd\xe26@?'
p9
tp10
Rp11
sS'elementseuclid00simsgoog_0161'
p12
g2
(g6
S'\xcb\xa6bd\x83bC?'
p13
tp14
Rp15
sS'elementseuclid00simsgoog_0162'
p16
g2
(g6
S'\xc3\x14\xe3\xba\x817@?'
p17
tp18
Rp19
sS'elementseuclid00simsgoog_0163'
p20
g2
(g6
S'\xd4y\xb7\x99\x19\xd48?'
p21
tp22
Rp23
sS'elementseuclid00simsgoog_0164'
p24
g2
(g6
S'\x95\x9e\xc0\x03\xfd\x86A?'
p25
tp26
Rp27
sS'elementseuclid00simsgoog_0165'
p28
g2
(g6
S'\xb8\x97\xe5\xb2<\xb4B?'
p29
tp30
Rp31
sS'elementseuclid00simsgoog_0166'
p32
g2
(g6
S'i\x1b\x1f%\x07\x9a9?'
p33
tp34
Rp35
sS'elementseuclid00simsgoog_0167'
p36
g2
(g6
S'V\x91u\x92!\xce@?'
p37
tp38
Rp39
sS'elementseuclid00simsgoog_0168'
p40
g2
(g6
S'\xd9m\n\xd4cDA?'
p41
tp42
Rp43
sS'elementseuclid00simsgoog_0169'
p44
g2
(g6
S'\xfc_/\xcd\xd1\xebA?'
p45
tp46
Rp47
sS'elementseuclid00simsgoog_0021'
p48
g2
(g6
S'\x88\xa0\x98\xfe\xf6AI?'
p49
tp50
Rp51
sS'elementseuclid00simsgoog_0020'
p52
g2
(g6
S'*_F\xe5\t\x05D?'
p53
tp54
Rp55
sS'elementseuclid00simsgoog_0023'
p56
g2
(g6
S'r@({D\xe7B?'
p57
tp58
Rp59
sS'elementseuclid00simsgoog_0022'
p60
g2
(g6
S',\xb6\x8f\xe1\xbbFC?'
p61
tp62
Rp63
sS'elementseuclid00simsgoog_0025'
p64
g2
(g6
S'\x8a{<\xde\\-G?'
p65
tp66
Rp67
sS'elementseuclid00simsgoog_0024'
p68
g2
(g6
S'\x8c\x9a\x7f\x96\xd0\tH?'
p69
tp70
Rp71
sS'elementseuclid00simsgoog_0188'
p72
g2
(g6
S'\x91\x1flV;[B?'
p73
tp74
Rp75
sS'elementseuclid00simsgoog_0189'
p76
g2
(g6
S'\xf8\x9b[H\x11UE?'
p77
tp78
Rp79
sS'elementseuclid00simsgoog_0029'
p80
g2
(g6
S'B\xa5O\xa5^HG?'
p81
tp82
Rp83
sS'elementseuclid00simsgoog_0028'
p84
g2
(g6
S'F#\x91 \xec\xb9D?'
p85
tp86
Rp87
sS'elementseuclid00simsgoog_0184'
p88
g2
(g6
S'\xe8+\xddg=\x0eA?'
p89
tp90
Rp91
sS'elementseuclid00simsgoog_0185'
p92
g2
(g6
S'\x1d\x08\xaa^\xa44B?'
p93
tp94
Rp95
sS'elementseuclid00simsgoog_0182'
p96
g2
(g6
S'\x92[\x16R3\xaeA?'
p97
tp98
Rp99
sS'elementseuclid00simsgoog_0183'
p100
g2
(g6
S'\x05l\xd8\x93\xf8NA?'
p101
tp102
Rp103
sS'elementseuclid00simsgoog_0180'
p104
g2
(g6
S'q\xc3pR9\x03@?'
p105
tp106
Rp107
sS'elementseuclid00simsgoog_0181'
p108
g2
(g6
S'\xd2\x9d\x0b\t54A?'
p109
tp110
Rp111
sS'elementseuclid00simsgoog_0115'
p112
g2
(g6
S'\x81jn\x9eh\xa9@?'
p113
tp114
Rp115
sS'elementseuclid00simsgoog_0114'
p116
g2
(g6
S'Z\x00\xf5\xad\n\\A?'
p117
tp118
Rp119
sS'elementseuclid00simsgoog_0117'
p120
g2
(g6
S'b\xce\x1eS\x04\xdaC?'
p121
tp122
Rp123
sS'elementseuclid00simsgoog_0116'
p124
g2
(g6
S'\x15A\x80o|<@?'
p125
tp126
Rp127
sS'elementseuclid00simsgoog_0111'
p128
g2
(g6
S'=\xb0$\xf0v}B?'
p129
tp130
Rp131
sS'elementseuclid00simsgoog_0110'
p132
g2
(g6
S'\xcb\xa6bd\x83bC?'
p133
tp134
Rp135
sS'elementseuclid00simsgoog_0113'
p136
g2
(g6
S'\xf5\x8f0\x02\xa3\xdbA?'
p137
tp138
Rp139
sS'elementseuclid00simsgoog_0112'
p140
g2
(g6
S'\x8d\x89Ba\xcf\x0bD?'
p141
tp142
Rp143
sS'elementseuclid00simsgoog_0119'
p144
g2
(g6
S'\xa5S\xbe\xbb\xcf8C?'
p145
tp146
Rp147
sS'elementseuclid00simsgoog_0118'
p148
g2
(g6
S'\xff\xb9\xae\xc6E\xe8@?'
p149
tp150
Rp151
sS'elementseuclid00simsgoog_0234'
p152
g2
(g6
S'Z\xe5\xfc`\xb9`>?'
p153
tp154
Rp155
sS'elementseuclid00simsgoog_0235'
p156
g2
(g6
S'\xee\xaf\x9d\xe1\xa1\x05??'
p157
tp158
Rp159
sS'elementseuclid00simsgoog_0236'
p160
g2
(g6
S'\xe3\xf6eBW\xb8D?'
p161
tp162
Rp163
sS'elementseuclid00simsgoog_0237'
p164
g2
(g6
S'\xac\x99\x13\x95u\x15H?'
p165
tp166
Rp167
sS'elementseuclid00simsgoog_0230'
p168
g2
(g6
S"'\x15-\xc5Y\x8e8?"
p169
tp170
Rp171
sS'elementseuclid00simsgoog_0231'
p172
g2
(g6
S'.\xd5\x111\x19\x99=?'
p173
tp174
Rp175
sS'elementseuclid00simsgoog_0232'
p176
g2
(g6
S'.\x1b\x0b\x85)\xedG?'
p177
tp178
Rp179
sS'elementseuclid00simsgoog_0233'
p180
g2
(g6
S'"=\x80\xc0\x92:F?'
p181
tp182
Rp183
sS'elementseuclid00simsgoog_0335'
p184
g2
(g6
S'\xc1\r\xa0\xd3k\xc59?'
p185
tp186
Rp187
sS'elementseuclid00simsgoog_0334'
p188
g2
(g6
S'k\x0c\x9f\r"\xd54?'
p189
tp190
Rp191
sS'elementseuclid00simsgoog_0337'
p192
g2
(g6
S'\x8e\xa6\xe4\xffC\xee7?'
p193
tp194
Rp195
sS'elementseuclid00simsgoog_0336'
p196
g2
(g6
S'\xcc\xbf\xfd\x8cDU6?'
p197
tp198
Rp199
sS'elementseuclid00simsgoog_0331'
p200
g2
(g6
S'\xf6p\xb9\xcbm\xd4:?'
p201
tp202
Rp203
sS'elementseuclid00simsgoog_0330'
p204
g2
(g6
S'\x0f\xd5\xcem5\x919?'
p205
tp206
Rp207
sS'elementseuclid00simsgoog_0333'
p208
g2
(g6
S'\xc2\xcb\xe3\x1f\xb6\xad8?'
p209
tp210
Rp211
sS'elementseuclid00simsgoog_0332'
p212
g2
(g6
S'\xd3\xdao\xe4\x87 >?'
p213
tp214
Rp215
sS'elementseuclid00simsgoog_0348'
p216
g2
(g6
S'\xd6u\xb1\x80o\xe7>?'
p217
tp218
Rp219
sS'elementseuclid00simsgoog_0090'
p220
g2
(g6
S'5\n\x00\x0c\x1c\xfaB?'
p221
tp222
Rp223
sS'elementseuclid00simsgoog_0438'
p224
g2
(g6
S'3\xd0\xdf\xde\\\xf5>?'
p225
tp226
Rp227
sS'elementseuclid00simsgoog_0091'
p228
g2
(g6
S'\x0b\x14a0\x9f\xfcB?'
p229
tp230
Rp231
sS'elementseuclid00simsgoog_0340'
p232
g2
(g6
S'\x89*\xb0O$O7?'
p233
tp234
Rp235
sS'elementseuclid00simsgoog_0341'
p236
g2
(g6
S'-\x12@\x84td9?'
p237
tp238
Rp239
sS'elementseuclid00simsgoog_0342'
p240
g2
(g6
S'fR\xa3m\xe7\x17A?'
p241
tp242
Rp243
sS'elementseuclid00simsgoog_0343'
p244
g2
(g6
S'\xd6\xb3j\xe2G.A?'
p245
tp246
Rp247
sS'elementseuclid00simsgoog_0344'
p248
g2
(g6
S'\x1c\xc5\xec\xcf\x87\xd3@?'
p249
tp250
Rp251
sS'elementseuclid00simsgoog_0345'
p252
g2
(g6
S'\xa4\x0e\xf6\xacG\x10=?'
p253
tp254
Rp255
sS'elementseuclid00simsgoog_0346'
p256
g2
(g6
S'\xa2\x92n\x14\xb3???'
p257
tp258
Rp259
sS'elementseuclid00simsgoog_0347'
p260
g2
(g6
S'\xb4\xdb\xbev\xc2\xff8?'
p261
tp262
Rp263
sS'elementseuclid00simsgoog_0431'
p264
g2
(g6
S'\x1d0k.\x94\x9aA?'
p265
tp266
Rp267
sS'elementseuclid00simsgoog_0098'
p268
g2
(g6
S'4X\xfc\x9b\x7f)E?'
p269
tp270
Rp271
sS'elementseuclid00simsgoog_0099'
p272
g2
(g6
S'\xa1\x11\x17\xce\x7fE??'
p273
tp274
Rp275
sS'elementseuclid00simsgoog_0328'
p276
g2
(g6
S'\x0f\xd5\xcem5\x919?'
p277
tp278
Rp279
sS'elementseuclid00simsgoog_0329'
p280
g2
(g6
S'\xca\xc3\xf9\x97\x80\xba<?'
p281
tp282
Rp283
sS'elementseuclid00simsgoog_0326'
p284
g2
(g6
S'Fv\xfb\xf6%\x842?'
p285
tp286
Rp287
sS'elementseuclid00simsgoog_0327'
p288
g2
(g6
S'\xdd\xed\xe9%S!9?'
p289
tp290
Rp291
sS'elementseuclid00simsgoog_0159'
p292
g2
(g6
S'\xa8\x0f\xc0(\x03\x9d=?'
p293
tp294
Rp295
sS'elementseuclid00simsgoog_0158'
p296
g2
(g6
S'\xe8\xd6\x88\xfee\x05E?'
p297
tp298
Rp299
sS'elementseuclid00simsgoog_0092'
p300
g2
(g6
S'\x1f\xb50\xf6\x8a\x9eJ?'
p301
tp302
Rp303
sS'elementseuclid00simsgoog_0093'
p304
g2
(g6
S'Q@\x9f>\xa1\x96K?'
p305
tp306
Rp307
sS'elementseuclid00simsgoog_0094'
p308
g2
(g6
S'\x1a\x8aT\xa9G6E?'
p309
tp310
Rp311
sS'elementseuclid00simsgoog_0095'
p312
g2
(g6
S'\x1f\xab3\xc0\xfc-B?'
p313
tp314
Rp315
sS'elementseuclid00simsgoog_0096'
p316
g2
(g6
S'\xaa\xe0\x12\xd54pC?'
p317
tp318
Rp319
sS'elementseuclid00simsgoog_0097'
p320
g2
(g6
S'\x00\xa1\x04Yf2D?'
p321
tp322
Rp323
sS'elementseuclid00simsgoog_0151'
p324
g2
(g6
S'\xfb\x03\xdb\xad(]E?'
p325
tp326
Rp327
sS'elementseuclid00simsgoog_0150'
p328
g2
(g6
S'$\xdf\xa8\xdf\xa4\xcaB?'
p329
tp330
Rp331
sS'elementseuclid00simsgoog_0153'
p332
g2
(g6
S'\xf9\xa9[\xb4\xb4`F?'
p333
tp334
Rp335
sS'elementseuclid00simsgoog_0152'
p336
g2
(g6
S'\xadH\x92:LxC?'
p337
tp338
Rp339
sS'elementseuclid00simsgoog_0155'
p340
g2
(g6
S'\xe6\xc1\x88\xdc\xf0sC?'
p341
tp342
Rp343
sS'elementseuclid00simsgoog_0154'
p344
g2
(g6
S'\xd0J\x8c\xc5\x92\xbdB?'
p345
tp346
Rp347
sS'elementseuclid00simsgoog_0157'
p348
g2
(g6
S'\x97\xb3\xc0%r\x18C?'
p349
tp350
Rp351
sS'elementseuclid00simsgoog_0156'
p352
g2
(g6
S'\x07Z.\xdc\xea\x1eE?'
p353
tp354
Rp355
sS'elementseuclid00simsgoog_0377'
p356
g2
(g6
S'4\xad\xdbOr\xc8??'
p357
tp358
Rp359
sS'elementseuclid00simsgoog_0376'
p360
g2
(g6
S'\xca\xc3\xf9\x97\x80\xba<?'
p361
tp362
Rp363
sS'elementseuclid00simsgoog_0371'
p364
g2
(g6
S'\x8f&h\xa3\x14$<?'
p365
tp366
Rp367
sS'elementseuclid00simsgoog_0370'
p368
g2
(g6
S'\xb5\xbc\x0b\xba\x10u\xee>'
p369
tp370
Rp371
sS'elementseuclid00simsgoog_0373'
p372
g2
(g6
S'\xdf\x0cQA1\xe6>?'
p373
tp374
Rp375
sS'elementseuclid00simsgoog_0372'
p376
g2
(g6
S'\xc1jmh\xad\x9fD?'
p377
tp378
Rp379
sS'elementseuclid00simsgoog_0375'
p380
g2
(g6
S'\x93\xbf$\xf3\xbcLA?'
p381
tp382
Rp383
sS'elementseuclid00simsgoog_0374'
p384
g2
(g6
S'_;\xe1\x7f\x0c\xec:?'
p385
tp386
Rp387
sS'elementseuclid00simsgoog_0078'
p388
g2
(g6
S'\x8f\xf2l\xca\x15\xdaL?'
p389
tp390
Rp391
sS'elementseuclid00simsgoog_0079'
p392
g2
(g6
S'\xf9*!\x99\xa5NB?'
p393
tp394
Rp395
sS'elementseuclid00simsgoog_0076'
p396
g2
(g6
S'\x9f%\xb9\x91^\xafB?'
p397
tp398
Rp399
sS'elementseuclid00simsgoog_0077'
p400
g2
(g6
S'\xe6\x8b\x99B\xe0\xc9E?'
p401
tp402
Rp403
sS'elementseuclid00simsgoog_0074'
p404
g2
(g6
S'\x82F\x0flpVH?'
p405
tp406
Rp407
sS'elementseuclid00simsgoog_0075'
p408
g2
(g6
S'2\x8c\xbe\x90\x8e\x88E?'
p409
tp410
Rp411
sS'elementseuclid00simsgoog_0072'
p412
g2
(g6
S'mc\xe8<\x9d\xe0H?'
p413
tp414
Rp415
sS'elementseuclid00simsgoog_0073'
p416
g2
(g6
S'\xfdy\xb5\xce\xef<D?'
p417
tp418
Rp419
sS'elementseuclid00simsgoog_0070'
p420
g2
(g6
S'b\xca4\x02\x9c\xad@?'
p421
tp422
Rp423
sS'elementseuclid00simsgoog_0071'
p424
g2
(g6
S'SK\x94\x9b\xdd\x93J?'
p425
tp426
Rp427
sS'elementseuclid00simsgoog_0472'
p428
g2
(g6
S'(m\x07+\xf6\xf0??'
p429
tp430
Rp431
sS'elementseuclid00simsgoog_0473'
p432
g2
(g6
S'6\xa2\\9\xd5\x13<?'
p433
tp434
Rp435
sS'elementseuclid00simsgoog_0470'
p436
g2
(g6
S"'\x08]kE\xfa7?"
p437
tp438
Rp439
sS'elementseuclid00simsgoog_0471'
p440
g2
(g6
S'\xb1af\xf1*\xd3:?'
p441
tp442
Rp443
sS'elementseuclid00simsgoog_0476'
p444
g2
(g6
S'\xf7f|\xcb\xfa\xe8@?'
p445
tp446
Rp447
sS'elementseuclid00simsgoog_0477'
p448
g2
(g6
S'/\x88\xe4\x1fw\xd5<?'
p449
tp450
Rp451
sS'elementseuclid00simsgoog_0474'
p452
g2
(g6
S')\xe8~\xd8\x1119?'
p453
tp454
Rp455
sS'elementseuclid00simsgoog_0475'
p456
g2
(g6
S'S\xea^\x0c\x1aD:?'
p457
tp458
Rp459
sS'elementseuclid00simsgoog_0478'
p460
g2
(g6
S'\xcb\xf7\xc9\xfc*\xae:?'
p461
tp462
Rp463
sS'elementseuclid00simsgoog_0479'
p464
g2
(g6
S'D\xd4\x82\xb5KD??'
p465
tp466
Rp467
sS'elementseuclid00simsgoog_0388'
p468
g2
(g6
S'\xaex\x1c\xe5\xba\x95@?'
p469
tp470
Rp471
sS'elementseuclid00simsgoog_0389'
p472
g2
(g6
S'\xee0>\xb7\xf6L@?'
p473
tp474
Rp475
sS'elementseuclid00simsgoog_0384'
p476
g2
(g6
S'\x16,|!\xb3p@?'
p477
tp478
Rp479
sS'elementseuclid00simsgoog_0385'
p480
g2
(g6
S'"\x9eHD\xff\xe9A?'
p481
tp482
Rp483
sS'elementseuclid00simsgoog_0386'
p484
g2
(g6
S'\xa2\x92n\x14\xb3???'
p485
tp486
Rp487
sS'elementseuclid00simsgoog_0387'
p488
g2
(g6
S'S(\xba&\xb6\x1c=?'
p489
tp490
Rp491
sS'elementseuclid00simsgoog_0380'
p492
g2
(g6
S' \xe0W\xe0)3@?'
p493
tp494
Rp495
sS'elementseuclid00simsgoog_0381'
p496
g2
(g6
S'\xce^;4h\x81=?'
p497
tp498
Rp499
sS'elementseuclid00simsgoog_0382'
p500
g2
(g6
S'\xfc\x8b~\x0b&\xd1??'
p501
tp502
Rp503
sS'elementseuclid00simsgoog_0383'
p504
g2
(g6
S'\xa4\x0e\xf6\xacG\x10=?'
p505
tp506
Rp507
sS'elementseuclid00simsgoog_0209'
p508
g2
(g6
S'4\xb9\xa8b>IA?'
p509
tp510
Rp511
sS'elementseuclid00simsgoog_0208'
p512
g2
(g6
S'-\xec8j:"B?'
p513
tp514
Rp515
sS'elementseuclid00simsgoog_0205'
p516
g2
(g6
S'}\x08\x90\x80\xb1\xd9A?'
p517
tp518
Rp519
sS'elementseuclid00simsgoog_0204'
p520
g2
(g6
S'\x06R\xa9\x12\xfb\xa1C?'
p521
tp522
Rp523
sS'elementseuclid00simsgoog_0207'
p524
g2
(g6
S'4\x08\x80L\x0bCA?'
p525
tp526
Rp527
sS'elementseuclid00simsgoog_0206'
p528
g2
(g6
S'O\xcf\xc1\xebv=A?'
p529
tp530
Rp531
sS'elementseuclid00simsgoog_0201'
p532
g2
(g6
S'p\x0fNC\xab.C?'
p533
tp534
Rp535
sS'elementseuclid00simsgoog_0200'
p536
g2
(g6
S'c\xdf\xfc\xb4\xdf\xd2A?'
p537
tp538
Rp539
sS'elementseuclid00simsgoog_0203'
p540
g2
(g6
S'\xeb4\xf4\xb2\xd2\x87??'
p541
tp542
Rp543
sS'elementseuclid00simsgoog_0202'
p544
g2
(g6
S'\x99\xd2\xc0\xff\x84\x83A?'
p545
tp546
Rp547
sS'elementseuclid00simsgoog_0278'
p548
g2
(g6
S'\x7f{\xfcx\xaaq4?'
p549
tp550
Rp551
sS'elementseuclid00simsgoog_0279'
p552
g2
(g6
S'\x1aB\xdf\x0c\x86\x08:?'
p553
tp554
Rp555
sS'elementseuclid00simsgoog_0379'
p556
g2
(g6
S'~vza\x97\xefA?'
p557
tp558
Rp559
sS'elementseuclid00simsgoog_0270'
p560
g2
(g6
S'\x05\x08 \x7f\x9c\xde@?'
p561
tp562
Rp563
sS'elementseuclid00simsgoog_0271'
p564
g2
(g6
S'\x06\x04s\x88\x14h<?'
p565
tp566
Rp567
sS'elementseuclid00simsgoog_0272'
p568
g2
(g6
S'\xe8Z\xe87\x05\xad??'
p569
tp570
Rp571
sS'elementseuclid00simsgoog_0273'
p572
g2
(g6
S'Na\x86\x92\xb2\xd4??'
p573
tp574
Rp575
sS'elementseuclid00simsgoog_0274'
p576
g2
(g6
S'*\x18\x1c\xa5\xc1=8?'
p577
tp578
Rp579
sS'elementseuclid00simsgoog_0275'
p580
g2
(g6
S'\x1bk\xc2q \xdd9?'
p581
tp582
Rp583
sS'elementseuclid00simsgoog_0276'
p584
g2
(g6
S'\xd8\x06\x02\x9b\r\xb3;?'
p585
tp586
Rp587
sS'elementseuclid00simsgoog_0277'
p588
g2
(g6
S'\xc1\x83Z\xd9\xab\x858?'
p589
tp590
Rp591
sS'elementseuclid00simsgoog_0429'
p592
g2
(g6
S'\xa1[\xf9c\xf67??'
p593
tp594
Rp595
sS'elementseuclid00simsgoog_0378'
p596
g2
(g6
S'c\xf5{\xa9\x8f\xa0@?'
p597
tp598
Rp599
sS'elementseuclid00simsgoog_0027'
p600
g2
(g6
S'\xeb\xb5\xd1W\x90\xa3E?'
p601
tp602
Rp603
sS'elementseuclid00simsgoog_0026'
p604
g2
(g6
S"m~G'\xa9\x84B?"
p605
tp606
Rp607
sS'elementseuclid00simsgoog_0428'
p608
g2
(g6
S'=3\xb8\x92\xc3\xf9=?'
p609
tp610
Rp611
sS'elementseuclid00simsgoog_0186'
p612
g2
(g6
S'I\xe8\xa2 \xbd\x95B?'
p613
tp614
Rp615
sS'elementseuclid00simsgoog_0187'
p616
g2
(g6
S'\x12\xdf.^{\r??'
p617
tp618
Rp619
sS'elementseuclid00simsgoog_0032'
p620
g2
(g6
S'\x88\x83\xf1\xa4\xc4\x80D?'
p621
tp622
Rp623
sS'elementseuclid00simsgoog_0033'
p624
g2
(g6
S'\xa09\x07\xed\x95\x8eD?'
p625
tp626
Rp627
sS'elementseuclid00simsgoog_0030'
p628
g2
(g6
S'\xc8p\x05\x0bL\xd3E?'
p629
tp630
Rp631
sS'elementseuclid00simsgoog_0031'
p632
g2
(g6
S'\x81M \xfbD\x1b@?'
p633
tp634
Rp635
sS'elementseuclid00simsgoog_0036'
p636
g2
(g6
S' s-|\xbe\xc8C?'
p637
tp638
Rp639
sS'elementseuclid00simsgoog_0037'
p640
g2
(g6
S']fZJlSF?'
p641
tp642
Rp643
sS'elementseuclid00simsgoog_0034'
p644
g2
(g6
S'\x92J\xae\xedu\xa8B?'
p645
tp646
Rp647
sS'elementseuclid00simsgoog_0035'
p648
g2
(g6
S'3K_NUAD?'
p649
tp650
Rp651
sS'elementseuclid00simsgoog_0038'
p652
g2
(g6
S'zo\xe8\x95\xef\x87??'
p653
tp654
Rp655
sS'elementseuclid00simsgoog_0039'
p656
g2
(g6
S'\x92J\xae\xedu\xa8B?'
p657
tp658
Rp659
sS'elementseuclid00simsgoog_0106'
p660
g2
(g6
S'\xda\x92\xdf\x87\xb1sA?'
p661
tp662
Rp663
sS'elementseuclid00simsgoog_0107'
p664
g2
(g6
S'\xcb\xa6bd\x83bC?'
p665
tp666
Rp667
sS'elementseuclid00simsgoog_0104'
p668
g2
(g6
S'\x19\xa0*\xf9\x8c,B?'
p669
tp670
Rp671
sS'elementseuclid00simsgoog_0105'
p672
g2
(g6
S'\xc6\xe9\x8e\x95\x94QG?'
p673
tp674
Rp675
sS'elementseuclid00simsgoog_0102'
p676
g2
(g6
S'\x00\xde\xb1\x18\xd8j??'
p677
tp678
Rp679
sS'elementseuclid00simsgoog_0103'
p680
g2
(g6
S'b\xc0\x1e\xe7`\xceB?'
p681
tp682
Rp683
sS'elementseuclid00simsgoog_0100'
p684
g2
(g6
S'BMN\x9b\xb4RA?'
p685
tp686
Rp687
sS'elementseuclid00simsgoog_0101'
p688
g2
(g6
S'G\xba\xf8\x90hND?'
p689
tp690
Rp691
sS'elementseuclid00simsgoog_0108'
p692
g2
(g6
S'cw\xf5\xc3\xf7>J?'
p693
tp694
Rp695
sS'elementseuclid00simsgoog_0109'
p696
g2
(g6
S'\xbe\x0b\x90^\xc25F?'
p697
tp698
Rp699
sS'elementseuclid00simsgoog_0241'
p700
g2
(g6
S'\x1cXH/\x87\xca9?'
p701
tp702
Rp703
sS'elementseuclid00simsgoog_0240'
p704
g2
(g6
S'\xc9\n\xd1}\x9fX=?'
p705
tp706
Rp707
sS'elementseuclid00simsgoog_0243'
p708
g2
(g6
S'\x15\x16\r\xc8\x83\x84:?'
p709
tp710
Rp711
sS'elementseuclid00simsgoog_0242'
p712
g2
(g6
S'\x8aG\xaeZ\x8e\xd1>?'
p713
tp714
Rp715
sS'elementseuclid00simsgoog_0245'
p716
g2
(g6
S'\xf3\\%\xc2\x01\x05@?'
p717
tp718
Rp719
sS'elementseuclid00simsgoog_0244'
p720
g2
(g6
S'\xa4)\xa7ri\xc4;?'
p721
tp722
Rp723
sS'elementseuclid00simsgoog_0247'
p724
g2
(g6
S'\x06\x8f\xa7\x19\x15I<?'
p725
tp726
Rp727
sS'elementseuclid00simsgoog_0246'
p728
g2
(g6
S'\xffr`7D(=?'
p729
tp730
Rp731
sS'elementseuclid00simsgoog_0249'
p732
g2
(g6
S'\xf2\xee\xe9h=\x9c>?'
p733
tp734
Rp735
sS'elementseuclid00simsgoog_0248'
p736
g2
(g6
S'\x9a]\xf5\x90\x85dA?'
p737
tp738
Rp739
sS'elementseuclid00simsgoog_0324'
p740
g2
(g6
S'\x03#\xc4\x9c\xd12:?'
p741
tp742
Rp743
sS'elementseuclid00simsgoog_0325'
p744
g2
(g6
S'\xc3\xeaC\xf4\xf2\x066?'
p745
tp746
Rp747
sS'elementseuclid00simsgoog_0322'
p748
g2
(g6
S'\x87\xae(\xb7\x8f~9?'
p749
tp750
Rp751
sS'elementseuclid00simsgoog_0323'
p752
g2
(g6
S'\xe7\xe1\xb0\xaal\x979?'
p753
tp754
Rp755
sS'elementseuclid00simsgoog_0320'
p756
g2
(g6
S'\x8e\xa6\xe4\xffC\xee7?'
p757
tp758
Rp759
sS'elementseuclid00simsgoog_0321'
p760
g2
(g6
S'\xc6\xa8\x8e\x87\xdeZ=?'
p761
tp762
Rp763
sS'elementseuclid00simsgoog_0409'
p764
g2
(g6
S'\xb4\xba5U\xcd\xfd9?'
p765
tp766
Rp767
sS'elementseuclid00simsgoog_0408'
p768
g2
(g6
S'\xc7\x15\xde\xd8\x18+>?'
p769
tp770
Rp771
sS'elementseuclid00simsgoog_0403'
p772
g2
(g6
S"|\x1b'\xc1\xcc\xde;?"
p773
tp774
Rp775
sS'elementseuclid00simsgoog_0402'
p776
g2
(g6
S'e\xf2\x95P\x94+A?'
p777
tp778
Rp779
sS'elementseuclid00simsgoog_0401'
p780
g2
(g6
S'\xea\x0e\x1a\x98\x7f\n=?'
p781
tp782
Rp783
sS'elementseuclid00simsgoog_0400'
p784
g2
(g6
S'}s\x91ILc=?'
p785
tp786
Rp787
sS'elementseuclid00simsgoog_0407'
p788
g2
(g6
S'3H(\xfa\x0fC??'
p789
tp790
Rp791
sS'elementseuclid00simsgoog_0406'
p792
g2
(g6
S'\x89\xb6\x8bj\x7f\x9e=?'
p793
tp794
Rp795
sS'elementseuclid00simsgoog_0405'
p796
g2
(g6
S'\n9\x08\x8f\xd6\xbd7?'
p797
tp798
Rp799
sS'elementseuclid00simsgoog_0404'
p800
g2
(g6
S'\x9d\x15\xc8[Vd8?'
p801
tp802
Rp803
sS'elementseuclid00simsgoog_0423'
p804
g2
(g6
S'$8\xaa\xc7\x12(6?'
p805
tp806
Rp807
sS'elementseuclid00simsgoog_0083'
p808
g2
(g6
S'#\x0e\x16Q~\xfbE?'
p809
tp810
Rp811
sS'elementseuclid00simsgoog_0422'
p812
g2
(g6
S'&(;\xfex\xc36?'
p813
tp814
Rp815
sS'elementseuclid00simsgoog_0082'
p816
g2
(g6
S'\x1f\xab3\xc0\xfc-B?'
p817
tp818
Rp819
sS'elementseuclid00simsgoog_0122'
p820
g2
(g6
S'@\t\xd2\x87/\xcd??'
p821
tp822
Rp823
sS'elementseuclid00simsgoog_0339'
p824
g2
(g6
S'\xa8\nT\xd1!H<?'
p825
tp826
Rp827
sS'elementseuclid00simsgoog_0123'
p828
g2
(g6
S'\x83\xad\x18P2\x82@?'
p829
tp830
Rp831
sS'elementseuclid00simsgoog_0338'
p832
g2
(g6
S'Qj\xc9\xc2\xe0e;?'
p833
tp834
Rp835
sS'elementseuclid00simsgoog_0238'
p836
g2
(g6
S'\x0c\t\xb0\xe8\xfd\x06C?'
p837
tp838
Rp839
sS'elementseuclid00simsgoog_0239'
p840
g2
(g6
S'\xb7\x80|\xef\xc8m??'
p841
tp842
Rp843
sS'elementseuclid00simsgoog_0148'
p844
g2
(g6
S'\xaa\xe0\x12\xd54pC?'
p845
tp846
Rp847
sS'elementseuclid00simsgoog_0149'
p848
g2
(g6
S'\xf3\x15\x07\xe5}\xa3E?'
p849
tp850
Rp851
sS'elementseuclid00simsgoog_0142'
p852
g2
(g6
S'ru\x1c\x9f3\x80D?'
p853
tp854
Rp855
sS'elementseuclid00simsgoog_0143'
p856
g2
(g6
S'\xc5)\xe3\xdc\xf6\xc8A?'
p857
tp858
Rp859
sS'elementseuclid00simsgoog_0140'
p860
g2
(g6
S'\xf1\x10\xdcT\xe1\xafB?'
p861
tp862
Rp863
sS'elementseuclid00simsgoog_0141'
p864
g2
(g6
S'\xde\xc5\xb4\xa7\xa2\xaeB?'
p865
tp866
Rp867
sS'elementseuclid00simsgoog_0146'
p868
g2
(g6
S'`\x9bI3\x13\x9fB?'
p869
tp870
Rp871
sS'elementseuclid00simsgoog_0147'
p872
g2
(g6
S'\xb1\x92<\xa2\xe7\xd6C?'
p873
tp874
Rp875
sS'elementseuclid00simsgoog_0144'
p876
g2
(g6
S'\rC\xd7\x14\xf9\xe4A?'
p877
tp878
Rp879
sS'elementseuclid00simsgoog_0145'
p880
g2
(g6
S'^1\xf5\xa7\xc6\x04E?'
p881
tp882
Rp883
sS'elementseuclid00simsgoog_0349'
p884
g2
(g6
S'\xfd\xc9>\xb4\x9f\x83:?'
p885
tp886
Rp887
sS'elementseuclid00simsgoog_0362'
p888
g2
(g6
S'\x91\x83\x8fgl\x9b<?'
p889
tp890
Rp891
sS'elementseuclid00simsgoog_0363'
p892
g2
(g6
S'\xef\xba\xb96o|=?'
p893
tp894
Rp895
sS'elementseuclid00simsgoog_0049'
p896
g2
(g6
S"\xeb|'\xdc\xbe\xafA?"
p897
tp898
Rp899
sS'elementseuclid00simsgoog_0048'
p900
g2
(g6
S'\t\xb4\xbe5\xf2\xd8@?'
p901
tp902
Rp903
sS'elementseuclid00simsgoog_0366'
p904
g2
(g6
S'\xf6p\xb9\xcbm\xd4:?'
p905
tp906
Rp907
sS'elementseuclid00simsgoog_0367'
p908
g2
(g6
S"Vf'\xe7\xba\x9d:?"
p909
tp910
Rp911
sS'elementseuclid00simsgoog_0364'
p912
g2
(g6
S'$^d\xc5\xfd\xa1I?'
p913
tp914
Rp915
sS'elementseuclid00simsgoog_0365'
p916
g2
(g6
S'\xa1\xafI\x9c\xb0\xfa@?'
p917
tp918
Rp919
sS'elementseuclid00simsgoog_0043'
p920
g2
(g6
S'\xea\t\xdb\xbdm;C?'
p921
tp922
Rp923
sS'elementseuclid00simsgoog_0042'
p924
g2
(g6
S'\xa3\xcb\x96\xc3Z\xdfC?'
p925
tp926
Rp927
sS'elementseuclid00simsgoog_0041'
p928
g2
(g6
S'\x8a{<\xde\\-G?'
p929
tp930
Rp931
sS'elementseuclid00simsgoog_0040'
p932
g2
(g6
S'\x0bD\xb2\xadu\x0eD?'
p933
tp934
Rp935
sS'elementseuclid00simsgoog_0047'
p936
g2
(g6
S'\\\xb1\n\xb2N\tA?'
p937
tp938
Rp939
sS'elementseuclid00simsgoog_0046'
p940
g2
(g6
S'>\xaa\xc4\xd5\xf1\xf1B?'
p941
tp942
Rp943
sS'elementseuclid00simsgoog_0045'
p944
g2
(g6
S'\x87$\xf3\xe1\xaa\xebG?'
p945
tp946
Rp947
sS'elementseuclid00simsgoog_0044'
p948
g2
(g6
S'\x13\xbd~\xf8o\xd6E?'
p949
tp950
Rp951
sS'elementseuclid00simsgoog_0439'
p952
g2
(g6
S'\xd2\x9d\x8dha7@?'
p953
tp954
Rp955
sS'elementseuclid00simsgoog_0436'
p956
g2
(g6
S'9\x87w\xefO\x89A?'
p957
tp958
Rp959
sS'elementseuclid00simsgoog_0449'
p960
g2
(g6
S'\xc3i\x9d5\xa5\xbaA?'
p961
tp962
Rp963
sS'elementseuclid00simsgoog_0437'
p964
g2
(g6
S'(\xf8\xed\xa1\xab\x958?'
p965
tp966
Rp967
sS'elementseuclid00simsgoog_0447'
p968
g2
(g6
S'\x1d0k.\x94\x9aA?'
p969
tp970
Rp971
sS'elementseuclid00simsgoog_0300'
p972
g2
(g6
S'\xf5\xf0\x88\x10\x12\xd0\xf3>'
p973
tp974
Rp975
sS'elementseuclid00simsgoog_0445'
p976
g2
(g6
S'd\xfep\xac\xa2\xf79?'
p977
tp978
Rp979
sS'elementseuclid00simsgoog_0444'
p980
g2
(g6
S'\x1c\xf4\xc6\xa0\xbasA?'
p981
tp982
Rp983
sS'elementseuclid00simsgoog_0443'
p984
g2
(g6
S'3H(\xfa\x0fC??'
p985
tp986
Rp987
sS'elementseuclid00simsgoog_0434'
p988
g2
(g6
S'pUn\x04\xfb/@?'
p989
tp990
Rp991
sS'elementseuclid00simsgoog_0441'
p992
g2
(g6
S'2\xe0N\xa8\xf6Y>?'
p993
tp994
Rp995
sS'elementseuclid00simsgoog_0068'
p996
g2
(g6
S'6\xe5\xa3\xeb\x81\xe5@?'
p997
tp998
Rp999
sS'elementseuclid00simsgoog_0435'
p1000
g2
(g6
S'\x93*8\xc3\xa2\xad9?'
p1001
tp1002
Rp1003
sS'elementseuclid00simsgoog_0432'
p1004
g2
(g6
S']M7\xc0\x80H9?'
p1005
tp1006
Rp1007
sS'elementseuclid00simsgoog_0433'
p1008
g2
(g6
S'\xd4m@\x0c\x94\tB?'
p1009
tp1010
Rp1011
sS'elementseuclid00simsgoog_0430'
p1012
g2
(g6
S'6-C\xb0\x8a\xb84?'
p1013
tp1014
Rp1015
sS'elementseuclid00simsgoog_0218'
p1016
g2
(g6
S'\xa0\x9f0\xf8\x88\xaa@?'
p1017
tp1018
Rp1019
sS'elementseuclid00simsgoog_0219'
p1020
g2
(g6
S'k\xe8\xc9T\x17\xe1@?'
p1021
tp1022
Rp1023
sS'elementseuclid00simsgoog_0216'
p1024
g2
(g6
S'o\x97\x93\xf4C`C?'
p1025
tp1026
Rp1027
sS'elementseuclid00simsgoog_0217'
p1028
g2
(g6
S'[\x82\n\xd5l\x94E?'
p1029
tp1030
Rp1031
sS'elementseuclid00simsgoog_0214'
p1032
g2
(g6
S'4\x08\x80L\x0bCA?'
p1033
tp1034
Rp1035
sS'elementseuclid00simsgoog_0215'
p1036
g2
(g6
S'\x9a]\xf5\x90\x85dA?'
p1037
tp1038
Rp1039
sS'elementseuclid00simsgoog_0212'
p1040
g2
(g6
S'1z\\\xdb\xa2\xb2A?'
p1041
tp1042
Rp1043
sS'elementseuclid00simsgoog_0213'
p1044
g2
(g6
S'/Qyv\x08\xdeA?'
p1045
tp1046
Rp1047
sS'elementseuclid00simsgoog_0210'
p1048
g2
(g6
S'[\x83\xab4ST>?'
p1049
tp1050
Rp1051
sS'elementseuclid00simsgoog_0211'
p1052
g2
(g6
S'\xc5\xf1x{6\xe7=?'
p1053
tp1054
Rp1055
sS'elementseuclid00simsgoog_0285'
p1056
g2
(g6
S'\xf3\xdbo&\xa4\x89>?'
p1057
tp1058
Rp1059
sS'elementseuclid00simsgoog_0284'
p1060
g2
(g6
S"\\'\xb2\xd0Q\x1aC?"
p1061
tp1062
Rp1063
sS'elementseuclid00simsgoog_0287'
p1064
g2
(g6
S'\xba\xa8\xbe\xf4|\x82F?'
p1065
tp1066
Rp1067
sS'elementseuclid00simsgoog_0286'
p1068
g2
(g6
S'\x0c\x992\xd0l\x1e@?'
p1069
tp1070
Rp1071
sS'elementseuclid00simsgoog_0281'
p1072
g2
(g6
S'\xa4)\xa7ri\xc4;?'
p1073
tp1074
Rp1075
sS'elementseuclid00simsgoog_0280'
p1076
g2
(g6
S'\xec\xd5\x91f\xd4*??'
p1077
tp1078
Rp1079
sS'elementseuclid00simsgoog_0283'
p1080
g2
(g6
S'i\x7f\xdcQ\xc1\xae<?'
p1081
tp1082
Rp1083
sS'elementseuclid00simsgoog_0282'
p1084
g2
(g6
S'\xb3\x16\x16\x1d~\x88A?'
p1085
tp1086
Rp1087
sS'elementseuclid00simsgoog_0061'
p1088
g2
(g6
S'Rf\xf3\x85\xe97D?'
p1089
tp1090
Rp1091
sS'elementseuclid00simsgoog_0289'
p1092
g2
(g6
S'\x8dE\xc10\xb0\x11A?'
p1093
tp1094
Rp1095
sS'elementseuclid00simsgoog_0288'
p1096
g2
(g6
S'\x17M\x0eZ\xba6<?'
p1097
tp1098
Rp1099
sS'elementseuclid00simsgoog_0309'
p1100
g2
(g6
S'\xc2\xac0c\x04#>?'
p1101
tp1102
Rp1103
sS'elementseuclid00simsgoog_0393'
p1104
g2
(g6
S'0\xd9\xf0\xbf\x98\x9f@?'
p1105
tp1106
Rp1107
sS'elementseuclid00simsgoog_0392'
p1108
g2
(g6
S'\x11UJ_zHB?'
p1109
tp1110
Rp1111
sS'elementseuclid00simsgoog_0463'
p1112
g2
(g6
S'0z?\r#\xbd8?'
p1113
tp1114
Rp1115
sS'elementseuclid00simsgoog_0462'
p1116
g2
(g6
S'\x1e \xfcd\xfa5B?'
p1117
tp1118
Rp1119
sS'elementseuclid00simsgoog_0465'
p1120
g2
(g6
S'i\x9f;\xcf*B;?'
p1121
tp1122
Rp1123
sS'elementseuclid00simsgoog_0464'
p1124
g2
(g6
S'\xf9Co\xa6^-9?'
p1125
tp1126
Rp1127
sS'elementseuclid00simsgoog_0467'
p1128
g2
(g6
S'u\xf3\t\x95\x1a\x888?'
p1129
tp1130
Rp1131
sS'elementseuclid00simsgoog_0466'
p1132
g2
(g6
S'\x06f&Y;\xf9<?'
p1133
tp1134
Rp1135
sS'elementseuclid00simsgoog_0468'
p1136
g2
(g6
S'+\xd8\x0f\x0fx\xcc9?'
p1137
tp1138
Rp1139
sS'elementseuclid00simsgoog_0199'
p1140
g2
(g6
S'\x89y\x8c\x0c\x1fS@?'
p1141
tp1142
Rp1143
sS'elementseuclid00simsgoog_0399'
p1144
g2
(g6
S'\xc7*F\xeb`\xceA?'
p1145
tp1146
Rp1147
sS'elementseuclid00simsgoog_0198'
p1148
g2
(g6
S'=\r\xa0\xf5\xba\xda;?'
p1149
tp1150
Rp1151
sS'elementseuclid00simsgoog_0398'
p1152
g2
(g6
S'\xdeX\xd0\xa4G\xc0@?'
p1153
tp1154
Rp1155
sS'elementseuclid00simsgoog_0191'
p1156
g2
(g6
S'\x12\xe0\x00\xc06\xba@?'
p1157
tp1158
Rp1159
sS'elementseuclid00simsgoog_0190'
p1160
g2
(g6
S'\xe1=\t\x9f\x92TA?'
p1161
tp1162
Rp1163
sS'elementseuclid00simsgoog_0133'
p1164
g2
(g6
S'\xaf\x94\x11\xc8\x1ciA?'
p1165
tp1166
Rp1167
sS'elementseuclid00simsgoog_0132'
p1168
g2
(g6
S'F\xb5\xcd\x00\xccZA?'
p1169
tp1170
Rp1171
sS'elementseuclid00simsgoog_0131'
p1172
g2
(g6
S'\xce\xf0\x0c\xcc\x1e\xc1C?'
p1173
tp1174
Rp1175
sS'elementseuclid00simsgoog_0130'
p1176
g2
(g6
S'\xf5\xcc\xdd\xc1\x14\x14=?'
p1177
tp1178
Rp1179
sS'elementseuclid00simsgoog_0137'
p1180
g2
(g6
S'O\x8a\xf7[\x97^D?'
p1181
tp1182
Rp1183
sS'elementseuclid00simsgoog_0136'
p1184
g2
(g6
S'gt\x1d\xdaH\xc7@?'
p1185
tp1186
Rp1187
sS'elementseuclid00simsgoog_0135'
p1188
g2
(g6
S'KY\xf7a\xdb\xb5@?'
p1189
tp1190
Rp1191
sS'elementseuclid00simsgoog_0134'
p1192
g2
(g6
S'\x02Q\xdb\x7f+\x1d;?'
p1193
tp1194
Rp1195
sS'elementseuclid00simsgoog_0139'
p1196
g2
(g6
S'\xe2;4y]\xc2C?'
p1197
tp1198
Rp1199
sS'elementseuclid00simsgoog_0138'
p1200
g2
(g6
S'q\xc3pR9\x03@?'
p1201
tp1202
Rp1203
sS'elementseuclid00simsgoog_0480'
p1204
g2
(g6
S'4\xc2:\xcc\x08\xdd:?'
p1205
tp1206
Rp1207
sS'elementseuclid00simsgoog_0252'
p1208
g2
(g6
S'\xec\xd5\x91f\xd4*??'
p1209
tp1210
Rp1211
sS'elementseuclid00simsgoog_0253'
p1212
g2
(g6
S'\xe2J\x8b\x82\x92\xe8A?'
p1213
tp1214
Rp1215
sS'elementseuclid00simsgoog_0319'
p1216
g2
(g6
S'u\xc2\xf8\xd16\xca7?'
p1217
tp1218
Rp1219
sS'elementseuclid00simsgoog_0318'
p1220
g2
(g6
S'\xd2X\xc1#\x8e\xe9C?'
p1221
tp1222
Rp1223
sS'elementseuclid00simsgoog_0256'
p1224
g2
(g6
S'\x90\xeb:\xee\xf7#>?'
p1225
tp1226
Rp1227
sS'elementseuclid00simsgoog_0257'
p1228
g2
(g6
S'\\N\xeac\x0f\x93B?'
p1229
tp1230
Rp1231
sS'elementseuclid00simsgoog_0254'
p1232
g2
(g6
S'\xf1\x82\x19G4*@?'
p1233
tp1234
Rp1235
sS'elementseuclid00simsgoog_0255'
p1236
g2
(g6
S'\xd9F\x0c9\xc9\x10@?'
p1237
tp1238
Rp1239
sS'elementseuclid00simsgoog_0313'
p1240
g2
(g6
S'\xf2\xb6\xc4r\xd4\x82??'
p1241
tp1242
Rp1243
sS'elementseuclid00simsgoog_0312'
p1244
g2
(g6
S'//u;\x88\xbc@?'
p1245
tp1246
Rp1247
sS'elementseuclid00simsgoog_0311'
p1248
g2
(g6
S'dT!s\x85JD?'
p1249
tp1250
Rp1251
sS'elementseuclid00simsgoog_0310'
p1252
g2
(g6
S'\x00\xc4q\xbbP\xbaC?'
p1253
tp1254
Rp1255
sS'elementseuclid00simsgoog_0317'
p1256
g2
(g6
S'\xdf\x0cQA1\xe6>?'
p1257
tp1258
Rp1259
sS'elementseuclid00simsgoog_0316'
p1260
g2
(g6
S'\x04\xa3G@\xa2h>?'
p1261
tp1262
Rp1263
sS'elementseuclid00simsgoog_0315'
p1264
g2
(g6
S'\x89\xaa,\xacS\x19C?'
p1265
tp1266
Rp1267
sS'elementseuclid00simsgoog_0314'
p1268
g2
(g6
S'\xaf@\xd0\xc2OjE?'
p1269
tp1270
Rp1271
sS'elementseuclid00simsgoog_0414'
p1272
g2
(g6
S'!\xb4\n{S\xe1C?'
p1273
tp1274
Rp1275
sS'elementseuclid00simsgoog_0415'
p1276
g2
(g6
S']\\A\xae\xf7\x06;?'
p1277
tp1278
Rp1279
sS'elementseuclid00simsgoog_0416'
p1280
g2
(g6
S'\x88N\xb2\x18f\xb5<?'
p1281
tp1282
Rp1283
sS'elementseuclid00simsgoog_0417'
p1284
g2
(g6
S'\xf5a\x83\x82L\xaa<?'
p1285
tp1286
Rp1287
sS'elementseuclid00simsgoog_0410'
p1288
g2
(g6
S'48\xb90v\xde??'
p1289
tp1290
Rp1291
sS'elementseuclid00simsgoog_0411'
p1292
g2
(g6
S'\x0e\rO\xa0\x94(@?'
p1293
tp1294
Rp1295
sS'elementseuclid00simsgoog_0412'
p1296
g2
(g6
S'48\xb90v\xde??'
p1297
tp1298
Rp1299
sS'elementseuclid00simsgoog_0413'
p1300
g2
(g6
S'\x1c\xc8\x91\xdcz\xb1@?'
p1301
tp1302
Rp1303
sS'elementseuclid00simsgoog_0418'
p1304
g2
(g6
S'&\x18\xcc4\xdf^7?'
p1305
tp1306
Rp1307
sS'elementseuclid00simsgoog_0419'
p1308
g2
(g6
S'z\xb5\x17&\xf9A6?'
p1309
tp1310
Rp1311
sS'elementseuclid00simsgoog_0250'
p1312
g2
(g6
S'\x9d`\xe4p\xed\x13A?'
p1313
tp1314
Rp1315
sS'elementseuclid00simsgoog_0177'
p1316
g2
(g6
S'W\xb5x\xe4\xb3P??'
p1317
tp1318
Rp1319
sS'elementseuclid00simsgoog_0176'
p1320
g2
(g6
S'\xff\xd0\x83\x0e\xf0\x0b@?'
p1321
tp1322
Rp1323
sS'elementseuclid00simsgoog_0175'
p1324
g2
(g6
S'\x00\xe6\x830e\x9dA?'
p1325
tp1326
Rp1327
sS'elementseuclid00simsgoog_0174'
p1328
g2
(g6
S'\xef\xe4\x06\xeb\xc1\xfaA?'
p1329
tp1330
Rp1331
sS'elementseuclid00simsgoog_0173'
p1332
g2
(g6
S'\x88\x13\xc3\x8f\x14\xf8B?'
p1333
tp1334
Rp1335
sS'elementseuclid00simsgoog_0172'
p1336
g2
(g6
S'-\xcd|\xa8O\x84B?'
p1337
tp1338
Rp1339
sS'elementseuclid00simsgoog_0171'
p1340
g2
(g6
S'\x00\xe6\x830e\x9dA?'
p1341
tp1342
Rp1343
sS'elementseuclid00simsgoog_0170'
p1344
g2
(g6
S'\xee\xdc4\xd34\xc8??'
p1345
tp1346
Rp1347
sS'elementseuclid00simsgoog_0179'
p1348
g2
(g6
S'\xde 7e\x90\x90=?'
p1349
tp1350
Rp1351
sS'elementseuclid00simsgoog_0178'
p1352
g2
(g6
S'\t\n\x05\x03\xb0\t<?'
p1353
tp1354
Rp1355
sS'elementseuclid00simsgoog_0054'
p1356
g2
(g6
S'lj\xf9\xcbq\xa5@?'
p1357
tp1358
Rp1359
sS'elementseuclid00simsgoog_0055'
p1360
g2
(g6
S'\x80\xc8\xcd\xf0\xe2\xe4:?'
p1361
tp1362
Rp1363
sS'elementseuclid00simsgoog_0056'
p1364
g2
(g6
S'\xc8\xaaS\xbe\xb0U??'
p1365
tp1366
Rp1367
sS'elementseuclid00simsgoog_0057'
p1368
g2
(g6
S'E\x94A\xe0\xfb\x12G?'
p1369
tp1370
Rp1371
sS'elementseuclid00simsgoog_0050'
p1372
g2
(g6
S'\xa2\x87\xf7\xeaL\xee@?'
p1373
tp1374
Rp1375
sS'elementseuclid00simsgoog_0051'
p1376
g2
(g6
S'D\x93\x9d\xa8h\x84A?'
p1377
tp1378
Rp1379
sS'elementseuclid00simsgoog_0052'
p1380
g2
(g6
S'\x98O\x8a\xe2\x8bm@?'
p1381
tp1382
Rp1383
sS'elementseuclid00simsgoog_0053'
p1384
g2
(g6
S'\xc8\xcf\x03\xceehB?'
p1385
tp1386
Rp1387
sS'elementseuclid00simsgoog_0195'
p1388
g2
(g6
S'\xae\xc3\xbe\x1b\xeb\x95;?'
p1389
tp1390
Rp1391
sS'elementseuclid00simsgoog_0194'
p1392
g2
(g6
S'C\x81&\x7f\x1fs>?'
p1393
tp1394
Rp1395
sS'elementseuclid00simsgoog_0197'
p1396
g2
(g6
S'!\x96\xf3V<\xa1@?'
p1397
tp1398
Rp1399
sS'elementseuclid00simsgoog_0196'
p1400
g2
(g6
S'\xaf\xe6\x8b\x08<\x88:?'
p1401
tp1402
Rp1403
sS'elementseuclid00simsgoog_0058'
p1404
g2
(g6
S'@\xb5\xb92.\xefA?'
p1405
tp1406
Rp1407
sS'elementseuclid00simsgoog_0059'
p1408
g2
(g6
S'2\x1b\x0e\xd1~/C?'
p1409
tp1410
Rp1411
sS'elementseuclid00simsgoog_0193'
p1412
g2
(g6
S'7\x14\xfe\x08\xb3\x8d??'
p1413
tp1414
Rp1415
sS'elementseuclid00simsgoog_0192'
p1416
g2
(g6
S'\x08!\xdaJZ-;?'
p1417
tp1418
Rp1419
sS'elementseuclid00simsgoog_0359'
p1420
g2
(g6
S'\xec\xfc\xc8\xd2\x99\xc5;?'
p1421
tp1422
Rp1423
sS'elementseuclid00simsgoog_0458'
p1424
g2
(g6
S'\x0f\xfd\xdf\xd6\xfa\xc3@?'
p1425
tp1426
Rp1427
sS'elementseuclid00simsgoog_0459'
p1428
g2
(g6
S'q\x81\xa3\xc8:\xf2@?'
p1429
tp1430
Rp1431
sS'elementseuclid00simsgoog_0450'
p1432
g2
(g6
S'2h\x06\x8dC\x0c>?'
p1433
tp1434
Rp1435
sS'elementseuclid00simsgoog_0451'
p1436
g2
(g6
S'/\x98S\xe9\x10:<?'
p1437
tp1438
Rp1439
sS'elementseuclid00simsgoog_0452'
p1440
g2
(g6
S'\xff\xac)\xa9\x98\xe9@?'
p1441
tp1442
Rp1443
sS'elementseuclid00simsgoog_0453'
p1444
g2
(g6
S'\x90\xe0rMwA<?'
p1445
tp1446
Rp1447
sS'elementseuclid00simsgoog_0454'
p1448
g2
(g6
S't\x8d\xfa\xf9F\xebB?'
p1449
tp1450
Rp1451
sS'elementseuclid00simsgoog_0455'
p1452
g2
(g6
S'\x1d\xf4\xc6\xa0\xbasA?'
p1453
tp1454
Rp1455
sS'elementseuclid00simsgoog_0456'
p1456
g2
(g6
S'j\xdfs\xca\x8f\x01B?'
p1457
tp1458
Rp1459
sS'elementseuclid00simsgoog_0457'
p1460
g2
(g6
S'\xef\xd4\xbb\x96\xe9\\A?'
p1461
tp1462
Rp1463
sS'elementseuclid00simsgoog_0358'
p1464
g2
(g6
S'\xda\x10\x99\xed@\x11:?'
p1465
tp1466
Rp1467
sS'elementseuclid00simsgoog_0229'
p1468
g2
(g6
S'\xf1AnI\x92\x0cC?'
p1469
tp1470
Rp1471
sS'elementseuclid00simsgoog_0228'
p1472
g2
(g6
S'\xc5m\xe0\xc0%,B?'
p1473
tp1474
Rp1475
sS'elementseuclid00simsgoog_0223'
p1476
g2
(g6
S'\xff\x85\xday\xdd:=?'
p1477
tp1478
Rp1479
sS'elementseuclid00simsgoog_0222'
p1480
g2
(g6
S'\x875\xf2.\x15\x86C?'
p1481
tp1482
Rp1483
sS'elementseuclid00simsgoog_0221'
p1484
g2
(g6
S'I+5X\r\xebA?'
p1485
tp1486
Rp1487
sS'elementseuclid00simsgoog_0220'
p1488
g2
(g6
S'-\xec8j:"B?'
p1489
tp1490
Rp1491
sS'elementseuclid00simsgoog_0227'
p1492
g2
(g6
S'#\x0fO\x05\x8a/9?'
p1493
tp1494
Rp1495
sS'elementseuclid00simsgoog_0226'
p1496
g2
(g6
S'[\xf2\x87\xed\xfd|8?'
p1497
tp1498
Rp1499
sS'elementseuclid00simsgoog_0225'
p1500
g2
(g6
S'\xe5\xeb(6\x94\x8bA?'
p1501
tp1502
Rp1503
sS'elementseuclid00simsgoog_0224'
p1504
g2
(g6
S'\xa1^\x85\xfa\xe6\x8cC?'
p1505
tp1506
Rp1507
sS'elementseuclid00simsgoog_0296'
p1508
g2
(g6
S'\xab%\xbf\xe1\xc3\xa7;?'
p1509
tp1510
Rp1511
sS'elementseuclid00simsgoog_0297'
p1512
g2
(g6
S'\xd2Z\x99XB\xb9<?'
p1513
tp1514
Rp1515
sS'elementseuclid00simsgoog_0294'
p1516
g2
(g6
S'\xa2\xa9,;\xbc\x08B?'
p1517
tp1518
Rp1519
sS'elementseuclid00simsgoog_0295'
p1520
g2
(g6
S'\\?0s\xbd\x82>?'
p1521
tp1522
Rp1523
sS'elementseuclid00simsgoog_0292'
p1524
g2
(g6
S'\x11\x93\x12\xba\x7fy8?'
p1525
tp1526
Rp1527
sS'elementseuclid00simsgoog_0293'
p1528
g2
(g6
S'\xab\x06_\r\x87N>?'
p1529
tp1530
Rp1531
sS'elementseuclid00simsgoog_0290'
p1532
g2
(g6
S'/o`\x01+pA?'
p1533
tp1534
Rp1535
sS'elementseuclid00simsgoog_0291'
p1536
g2
(g6
S'\xe7\x1f\xc4;[{A?'
p1537
tp1538
Rp1539
sS'elementseuclid00simsgoog_0357'
p1540
g2
(g6
S'\xf2\xb6\xc4r\xd4\x82??'
p1541
tp1542
Rp1543
sS'elementseuclid00simsgoog_0356'
p1544
g2
(g6
S'\xf2\xb6\xc4r\xd4\x82??'
p1545
tp1546
Rp1547
sS'elementseuclid00simsgoog_0355'
p1548
g2
(g6
S'\xc1\r\xa0\xd3k\xc59?'
p1549
tp1550
Rp1551
sS'elementseuclid00simsgoog_0354'
p1552
g2
(g6
S'\xe0iq\xbe\xe7\xf16?'
p1553
tp1554
Rp1555
sS'elementseuclid00simsgoog_0353'
p1556
g2
(g6
S'0\xef\x89u\xe5\x08@?'
p1557
tp1558
Rp1559
sS'elementseuclid00simsgoog_0352'
p1560
g2
(g6
S'\xf5\xf0\x88\x10\x12\xd0C?'
p1561
tp1562
Rp1563
sS'elementseuclid00simsgoog_0298'
p1564
g2
(g6
S'\xee\xb8\xe1\x01\xbb\xacD?'
p1565
tp1566
Rp1567
sS'elementseuclid00simsgoog_0299'
p1568
g2
(g6
S'\xc4\xe8r\x06\xe0\xa2E?'
p1569
tp1570
Rp1571
sS'elementseuclid00simsgoog_0425'
p1572
g2
(g6
S'g\xaeE\xbd\xa1\x00=?'
p1573
tp1574
Rp1575
sS'elementseuclid00simsgoog_0251'
p1576
g2
(g6
S'\xd9F\x0c9\xc9\x10@?'
p1577
tp1578
Rp1579
sS'elementseuclid00simsgoog_0424'
p1580
g2
(g6
S'\x8fg\xc5V\xa1M>?'
p1581
tp1582
Rp1583
sS'elementseuclid00simsgoog_0427'
p1584
g2
(g6
S'&\x18\xcc4\xdf^7?'
p1585
tp1586
Rp1587
sS'elementseuclid00simsgoog_0426'
p1588
g2
(g6
S'pB\xd0\xa8\xf8\xd87?'
p1589
tp1590
Rp1591
sS'elementseuclid00simsgoog_0421'
p1592
g2
(g6
S"z\x1b'\xc1\xcc\xde;?"
p1593
tp1594
Rp1595
sS'elementseuclid00simsgoog_0420'
p1596
g2
(g6
S'\xb1af\xf1*\xd3:?'
p1597
tp1598
Rp1599
sS'elementseuclid00simsgoog_0351'
p1600
g2
(g6
S'\xb58\xdf\xf3x\x0bA?'
p1601
tp1602
Rp1603
sS'elementseuclid00simsgoog_0350'
p1604
g2
(g6
S'*\xb5\x11y{\x81@?'
p1605
tp1606
Rp1607
sS'elementseuclid00simsgoog_0258'
p1608
g2
(g6
S'a\xb2lY\xbd\x87=?'
p1609
tp1610
Rp1611
sS'elementseuclid00simsgoog_0259'
p1612
g2
(g6
S'\x1e\xecZVDQ??'
p1613
tp1614
Rp1615
sS'elementseuclid00simsgoog_0360'
p1616
g2
(g6
S'qe$\xf6S\x84D?'
p1617
tp1618
Rp1619
sS'elementseuclid00simsgoog_0361'
p1620
g2
(g6
S'L\xee\x8d\xcb\x1f[B?'
p1621
tp1622
Rp1623
sS'elementseuclid00simsgoog_0368'
p1624
g2
(g6
S'\x19(\x87]\x18wB?'
p1625
tp1626
Rp1627
sS'elementseuclid00simsgoog_0369'
p1628
g2
(g6
S'\xc9\xc3\x9fhj\x1dG?'
p1629
tp1630
Rp1631
sS'elementseuclid00simsgoog_0087'
p1632
g2
(g6
S'\x8cE\xd2\xf8_\xe3D?'
p1633
tp1634
Rp1635
sS'elementseuclid00simsgoog_0086'
p1636
g2
(g6
S'!\x0b\xd6\xba\xa9QD?'
p1637
tp1638
Rp1639
sS'elementseuclid00simsgoog_0085'
p1640
g2
(g6
S'0\x82mk\xe5\x19L?'
p1641
tp1642
Rp1643
sS'elementseuclid00simsgoog_0084'
p1644
g2
(g6
S'g6p\x91\x18]G?'
p1645
tp1646
Rp1647
sS'elementseuclid00simsgoog_0128'
p1648
g2
(g6
S'/7\xd13\x9c\x1e@?'
p1649
tp1650
Rp1651
sS'elementseuclid00simsgoog_0129'
p1652
g2
(g6
S'\xf2\x00\x07\xc3\x08\x12D?'
p1653
tp1654
Rp1655
sS'elementseuclid00simsgoog_0081'
p1656
g2
(g6
S'\x9e\xc6\xba\xceD\x1aF?'
p1657
tp1658
Rp1659
sS'elementseuclid00simsgoog_0080'
p1660
g2
(g6
S'\xd3\x83\x16\xf3r?D?'
p1661
tp1662
Rp1663
sS'elementseuclid00simsgoog_0124'
p1664
g2
(g6
S'\x92\xf6\xecV\x83\x07G?'
p1665
tp1666
Rp1667
sS'elementseuclid00simsgoog_0125'
p1668
g2
(g6
S'\x88\xc5n\xdc\x0euG?'
p1669
tp1670
Rp1671
sS'elementseuclid00simsgoog_0126'
p1672
g2
(g6
S'3a\xd1w\x86AC?'
p1673
tp1674
Rp1675
sS'elementseuclid00simsgoog_0127'
p1676
g2
(g6
S'h\xd6\x9fM\x08/<?'
p1677
tp1678
Rp1679
sS'elementseuclid00simsgoog_0120'
p1680
g2
(g6
S'\xfc_/\xcd\xd1\xebA?'
p1681
tp1682
Rp1683
sS'elementseuclid00simsgoog_0121'
p1684
g2
(g6
S'\x00zZ\x7f\xe3pF?'
p1685
tp1686
Rp1687
sS'elementseuclid00simsgoog_0089'
p1688
g2
(g6
S'\x86\xe1\xf7@0\x89J?'
p1689
tp1690
Rp1691
sS'elementseuclid00simsgoog_0088'
p1692
g2
(g6
S'U\x86\xdau\xf0\xa2J?'
p1693
tp1694
Rp1695
sS'elementseuclid00simsgoog_0304'
p1696
g2
(g6
S'v#o\x89?\xd8;?'
p1697
tp1698
Rp1699
sS'elementseuclid00simsgoog_0305'
p1700
g2
(g6
S'\xadDy\xe5\x16\x9e>?'
p1701
tp1702
Rp1703
sS'elementseuclid00simsgoog_0306'
p1704
g2
(g6
S'\xadDy\xe5\x16\x9e>?'
p1705
tp1706
Rp1707
sS'elementseuclid00simsgoog_0307'
p1708
g2
(g6
S'\xefvx6z\xc6@?'
p1709
tp1710
Rp1711
sS'elementseuclid00simsgoog_0069'
p1712
g2
(g6
S'\xd2\xd7\x1fYP\xd7A?'
p1713
tp1714
Rp1715
sS'elementseuclid00simsgoog_0301'
p1716
g2
(g6
S'[\x7f\x14\xf2\xbe\xcaF?'
p1717
tp1718
Rp1719
sS'elementseuclid00simsgoog_0302'
p1720
g2
(g6
S'\x90\xe4\xfe\xd7\xd3=\xf8>'
p1721
tp1722
Rp1723
sS'elementseuclid00simsgoog_0303'
p1724
g2
(g6
S'\xa5k\x16*\xfe\x1bE?'
p1725
tp1726
Rp1727
sS'elementseuclid00simsgoog_0065'
p1728
g2
(g6
S'\xef\x0e\xb7\xb2\x83\x00A?'
p1729
tp1730
Rp1731
sS'elementseuclid00simsgoog_0064'
p1732
g2
(g6
S'\xf2I\xfd\x8c\x96\x0fA?'
p1733
tp1734
Rp1735
sS'elementseuclid00simsgoog_0067'
p1736
g2
(g6
S'B\xa5O\xa5^HG?'
p1737
tp1738
Rp1739
sS'elementseuclid00simsgoog_0066'
p1740
g2
(g6
S'\xdbw\xe4"&\xcfA?'
p1741
tp1742
Rp1743
sS'elementseuclid00simsgoog_0308'
p1744
g2
(g6
S"'{\xfa\xf2\xc8\x02??"
p1745
tp1746
Rp1747
sS'elementseuclid00simsgoog_0060'
p1748
g2
(g6
S'\xa4G<\xe0\xa65E?'
p1749
tp1750
Rp1751
sS'elementseuclid00simsgoog_0063'
p1752
g2
(g6
S'\xad\xdc\x0bM@0F?'
p1753
tp1754
Rp1755
sS'elementseuclid00simsgoog_0062'
p1756
g2
(g6
S'S\x8d\xeb\x04\xc5gB?'
p1757
tp1758
Rp1759
sS'elementseuclid00simsgoog_0018'
p1760
g2
(g6
S'\x8d\x9a\x7f\x96\xd0\tH?'
p1761
tp1762
Rp1763
sS'elementseuclid00simsgoog_0019'
p1764
g2
(g6
S'*|\xed><\xc6H?'
p1765
tp1766
Rp1767
sS'elementseuclid00simsgoog_0391'
p1768
g2
(g6
S'\x8f\xf1F\xf23L9?'
p1769
tp1770
Rp1771
sS'elementseuclid00simsgoog_0390'
p1772
g2
(g6
S'^\xd5\xee\xa4\xcd\xfa8?'
p1773
tp1774
Rp1775
sS'elementseuclid00simsgoog_0397'
p1776
g2
(g6
S'\xad\xffn\xee\xe4\xa1B?'
p1777
tp1778
Rp1779
sS'elementseuclid00simsgoog_0396'
p1780
g2
(g6
S'Cq\xa2\xac\xe0\x99B?'
p1781
tp1782
Rp1783
sS'elementseuclid00simsgoog_0395'
p1784
g2
(g6
S'e\xf2\x95P\x94+A?'
p1785
tp1786
Rp1787
sS'elementseuclid00simsgoog_0394'
p1788
g2
(g6
S'pE\xff:a\xcb@?'
p1789
tp1790
Rp1791
sS'elementseuclid00simsgoog_0469'
p1792
g2
(g6
S'L\xd0\xe6\xf2\xbb\x05;?'
p1793
tp1794
Rp1795
sS'elementseuclid00simsgoog_0011'
p1796
g2
(g6
S'\xca{\xfag\x88\xd04?'
p1797
tp1798
Rp1799
sS'elementseuclid00simsgoog_0012'
p1800
g2
(g6
S'\x00\x99\xf8\x86c\x195?'
p1801
tp1802
Rp1803
sS'elementseuclid00simsgoog_0013'
p1804
g2
(g6
S"\xf7a/\xb65':?"
p1805
tp1806
Rp1807
sS'elementseuclid00simsgoog_0014'
p1808
g2
(g6
S'G\x0826\xe0\x15+?'
p1809
tp1810
Rp1811
sS'elementseuclid00simsgoog_0015'
p1812
g2
(g6
S'\xee\x9bj\x942\x8cB?'
p1813
tp1814
Rp1815
sS'elementseuclid00simsgoog_0016'
p1816
g2
(g6
S'\x106\xe4~\xe7\x82E?'
p1817
tp1818
Rp1819
sS'elementseuclid00simsgoog_0017'
p1820
g2
(g6
S'i\xbd\n\x0b\xa1\xb0G?'
p1821
tp1822
Rp1823
sS'elementseuclid00simsgoog_0269'
p1824
g2
(g6
S';Em]\xa0RC?'
p1825
tp1826
Rp1827
sS'elementseuclid00simsgoog_0268'
p1828
g2
(g6
S'\xf7\xf8t\x1f\x95qB?'
p1829
tp1830
Rp1831
sS'elementseuclid00simsgoog_0267'
p1832
g2
(g6
S'\xb7\xe2\xcd\x1b/z??'
p1833
tp1834
Rp1835
sS'elementseuclid00simsgoog_0266'
p1836
g2
(g6
S'\x0e\r@(Lv;?'
p1837
tp1838
Rp1839
sS'elementseuclid00simsgoog_0265'
p1840
g2
(g6
S'\xa9\x13-Z\xe3jE?'
p1841
tp1842
Rp1843
sS'elementseuclid00simsgoog_0264'
p1844
g2
(g6
S'\xc5\x93\xd4EXQB?'
p1845
tp1846
Rp1847
sS'elementseuclid00simsgoog_0263'
p1848
g2
(g6
S' w\x8f\xe7D2??'
p1849
tp1850
Rp1851
sS'elementseuclid00simsgoog_0262'
p1852
g2
(g6
S'\xe3\x9a\x03\xccE\xa2:?'
p1853
tp1854
Rp1855
sS'elementseuclid00simsgoog_0261'
p1856
g2
(g6
S'`\xeb\xda \x89\xbf=?'
p1857
tp1858
Rp1859
sS'elementseuclid00simsgoog_0260'
p1860
g2
(g6
S'\xe2]\x05\xc5+\xfbA?'
p1861
tp1862
Rp1863
sS'elementseuclid00simsgoog_0461'
p1864
g2
(g6
S'\x15\x89B\xe7:k>?'
p1865
tp1866
Rp1867
sS'elementseuclid00simsgoog_0448'
p1868
g2
(g6
S'\x0f\xe7\x12\xe9\x8fz??'
p1869
tp1870
Rp1871
sS'elementseuclid00simsgoog_0446'
p1872
g2
(g6
S'!\xf0\xae\x08-\x08D?'
p1873
tp1874
Rp1875
sS'elementseuclid00simsgoog_0460'
p1876
g2
(g6
S'T8<\x1a\xd3\x1bE?'
p1877
tp1878
Rp1879
sS'elementseuclid00simsgoog_0442'
p1880
g2
(g6
S'48\xb90v\xde??'
p1881
tp1882
Rp1883
sS'elementseuclid00simsgoog_0440'
p1884
g2
(g6
S'\xc5\xbc\x0euv\x00??'
p1885
tp1886
Rp1887
s.