(lp0
I15
aI10
aI21
aI21
aI16
aI29
aI27
aI16
aI24
aI21
aI21
aI15
aI19
aI21
aI27
aI15
aI13
aI13
aI15
aI19
aI31
aI22
aI21
aI18
aI21
aI25
aI19
aI22
aI24
aI21
aI15
aI23
aI19
aI19
aI17
aI17
aI15
aI20
aI19
aI19
aI27
aI25
aI22
aI27
aI22
aI26
aI27
aI33
aI18
aI21
aI23
aI19
aI23
aI32
aI27
aI14
aI27
aI21
aI27
aI19
aI21
aI15
aI20
aI27
aI16
aI31
aI17
aI26
aI30
aI29
aI21
aI20
aI17
aI29
aI33
aI22
aI19
aI16
aI26
aI16
aI22
aI23
aI32
aI11
aI23
aI28
aI23
aI25
aI20
aI20
aI21
aI20
aI17
aI19
aI15
aI15
aI16
aI18
aI15
aI21
aI23
aI18
aI31
aI19
aI23
aI18
aI21
aI24
aI18
aI11
aI17
aI14
aI13
aI13
aI17
aI23
aI20
aI18
aI21
aI17
aI26
aI21
aI25
aI29
aI34
aI33
aI27
aI29
aI27
aI23
aI16
aI27
aI19
aI23
aI18
aI19
aI19
aI25
aI19
aI23
aI27
aI15
aI29
aI45
aI37
aI23
aI27
aI26
aI14
aI15
aI15
aI11
aI21
aI25
aI13
aI15
aI11
aI7
aI12
aI9
aI7
aI11
aI11
aI6
aI12
aI10
aI8
aI7
aI9
aI21
aI13
aI15
aI18
aI22
aI15
aI2
aI3
aI3
aI1
aI3
aI2
aI2
aI15
aI19
aI13
aI13
aI17
aI19
aI27
aI17
aI19
aI29
aI35
aI19
aI20
aI19
aI17
aI16
aI16
aI17
aI22
aI14
aI21
aI20
aI27
aI22
aI24
aI18
aI17
aI17
aI17
aI21
aI17
aI16
aI15
aI17
aI19
aI21
aI19
aI19
aI19
aI17
aI19
aI12
aI20
aI22
aI11
aI21
aI19
aI21
aI24
aI16
aI17
aI17
aI23
aI20
aI16
aI15
aI19
aI13
aI15
aI25
aI15
aI22
aI25
aI17
aI24
aI21
aI19
aI21
aI25
aI31
aI27
aI26
aI17
a.