(lp0
S'paciolo_1509_v1_1_0000.png'
p1
aS'paciolo_1509_v1_1_0001.png'
p2
aS'paciolo_1509_v1_1_0002.png'
p3
aS'paciolo_1509_v1_1_0003.png'
p4
aS'paciolo_1509_v1_1_0004.png'
p5
aS'paciolo_1509_v1_1_0005.png'
p6
aS'paciolo_1509_v1_1_0006.png'
p7
aS'paciolo_1509_v1_1_0296.png'
p8
aS'paciolo_1509_v1_1_0295.png'
p9
a.