(dp0
S'paciolo_1509_v1_1_0263.png'
p1
(I544
I782
tp2
sS'paciolo_1509_v1_1_0288.png'
p3
(I544
I782
tp4
sS'paciolo_1509_v1_1_0271.png'
p5
(I544
I782
tp6
sS'paciolo_1509_v1_1_0022.png'
p7
(I544
I782
tp8
sS'paciolo_1509_v1_1_0199.png'
p9
(I544
I782
tp10
sS'paciolo_1509_v1_1_0207.png'
p11
(I544
I782
tp12
sS'paciolo_1509_v1_1_0027.png'
p13
(I544
I782
tp14
sS'paciolo_1509_v1_1_0026.png'
p15
(I544
I782
tp16
sS'paciolo_1509_v1_1_0064.png'
p17
(I544
I782
tp18
sS'paciolo_1509_v1_1_0209.png'
p19
(I544
I782
tp20
sS'paciolo_1509_v1_1_0227.png'
p21
(I544
I782
tp22
sS'paciolo_1509_v1_1_0270.png'
p23
(I544
I782
tp24
sS'paciolo_1509_v1_1_0089.png'
p25
(I544
I782
tp26
sS'paciolo_1509_v1_1_0224.png'
p27
(I544
I782
tp28
sS'paciolo_1509_v1_1_0243.png'
p29
(I544
I782
tp30
sS'paciolo_1509_v1_1_0130.png'
p31
(I544
I782
tp32
sS'paciolo_1509_v1_1_0128.png'
p33
(I544
I782
tp34
sS'paciolo_1509_v1_1_0100.png'
p35
(I544
I782
tp36
sS'paciolo_1509_v1_1_0007.png'
p37
(I544
I782
tp38
sS'paciolo_1509_v1_1_0142.png'
p39
(I544
I782
tp40
sS'paciolo_1509_v1_1_0149.png'
p41
(I544
I782
tp42
sS'paciolo_1509_v1_1_0289.png'
p43
(I544
I782
tp44
sS'paciolo_1509_v1_1_0015.png'
p45
(I544
I782
tp46
sS'paciolo_1509_v1_1_0018.png'
p47
(I544
I782
tp48
sS'paciolo_1509_v1_1_0020.png'
p49
(I544
I782
tp50
sS'paciolo_1509_v1_1_0030.png'
p51
(I544
I782
tp52
sS'paciolo_1509_v1_1_0260.png'
p53
(I544
I782
tp54
sS'paciolo_1509_v1_1_0281.png'
p55
(I544
I782
tp56
sS'paciolo_1509_v1_1_0172.png'
p57
(I544
I782
tp58
sS'paciolo_1509_v1_1_0124.png'
p59
(I544
I782
tp60
sS'paciolo_1509_v1_1_0140.png'
p61
(I544
I782
tp62
sS'paciolo_1509_v1_1_0066.png'
p63
(I544
I782
tp64
sS'paciolo_1509_v1_1_0226.png'
p65
(I544
I782
tp66
sS'paciolo_1509_v1_1_0106.png'
p67
(I544
I782
tp68
sS'paciolo_1509_v1_1_0107.png'
p69
(I544
I782
tp70
sS'paciolo_1509_v1_1_0219.png'
p71
(I544
I782
tp72
sS'paciolo_1509_v1_1_0103.png'
p73
(I544
I782
tp74
sS'paciolo_1509_v1_1_0118.png'
p75
(I544
I782
tp76
sS'paciolo_1509_v1_1_0202.png'
p77
(I544
I782
tp78
sS'paciolo_1509_v1_1_0014.png'
p79
(I544
I782
tp80
sS'paciolo_1509_v1_1_0017.png'
p81
(I544
I782
tp82
sS'paciolo_1509_v1_1_0251.png'
p83
(I544
I782
tp84
sS'paciolo_1509_v1_1_0164.png'
p85
(I544
I782
tp86
sS'paciolo_1509_v1_1_0258.png'
p87
(I544
I782
tp88
sS'paciolo_1509_v1_1_0052.png'
p89
(I544
I782
tp90
sS'paciolo_1509_v1_1_0053.png'
p91
(I544
I782
tp92
sS'paciolo_1509_v1_1_0217.png'
p93
(I544
I782
tp94
sS'paciolo_1509_v1_1_0259.png'
p95
(I544
I782
tp96
sS'paciolo_1509_v1_1_0212.png'
p97
(I544
I782
tp98
sS'paciolo_1509_v1_1_0269.png'
p99
(I544
I782
tp100
sS'paciolo_1509_v1_1_0070.png'
p101
(I544
I782
tp102
sS'paciolo_1509_v1_1_0109.png'
p103
(I544
I782
tp104
sS'paciolo_1509_v1_1_0211.png'
p105
(I544
I782
tp106
sS'paciolo_1509_v1_1_0093.png'
p107
(I544
I782
tp108
sS'paciolo_1509_v1_1_0137.png'
p109
(I544
I782
tp110
sS'paciolo_1509_v1_1_0148.png'
p111
(I544
I782
tp112
sS'paciolo_1509_v1_1_0113.png'
p113
(I544
I782
tp114
sS'paciolo_1509_v1_1_0101.png'
p115
(I544
I782
tp116
sS'paciolo_1509_v1_1_0203.png'
p117
(I544
I782
tp118
sS'paciolo_1509_v1_1_0184.png'
p119
(I544
I782
tp120
sS'paciolo_1509_v1_1_0013.png'
p121
(I544
I782
tp122
sS'paciolo_1509_v1_1_0222.png'
p123
(I544
I782
tp124
sS'paciolo_1509_v1_1_0055.png'
p125
(I544
I782
tp126
sS'paciolo_1509_v1_1_0023.png'
p127
(I544
I782
tp128
sS'paciolo_1509_v1_1_0051.png'
p129
(I544
I782
tp130
sS'paciolo_1509_v1_1_0290.png'
p131
(I544
I782
tp132
sS'paciolo_1509_v1_1_0246.png'
p133
(I544
I782
tp134
sS'paciolo_1509_v1_1_0223.png'
p135
(I544
I782
tp136
sS'paciolo_1509_v1_1_0153.png'
p137
(I544
I782
tp138
sS'paciolo_1509_v1_1_0215.png'
p139
(I544
I782
tp140
sS'paciolo_1509_v1_1_0147.png'
p141
(I544
I782
tp142
sS'paciolo_1509_v1_1_0253.png'
p143
(I544
I782
tp144
sS'paciolo_1509_v1_1_0115.png'
p145
(I544
I782
tp146
sS'paciolo_1509_v1_1_0114.png'
p147
(I544
I782
tp148
sS'paciolo_1509_v1_1_0082.png'
p149
(I544
I782
tp150
sS'paciolo_1509_v1_1_0011.png'
p151
(I544
I782
tp152
sS'paciolo_1509_v1_1_0191.png'
p153
(I544
I782
tp154
sS'paciolo_1509_v1_1_0157.png'
p155
(I544
I782
tp156
sS'paciolo_1509_v1_1_0179.png'
p157
(I544
I782
tp158
sS'paciolo_1509_v1_1_0287.png'
p159
(I544
I782
tp160
sS'paciolo_1509_v1_1_0242.png'
p161
(I544
I782
tp162
sS'paciolo_1509_v1_1_0025.png'
p163
(I544
I782
tp164
sS'paciolo_1509_v1_1_0009.png'
p165
(I544
I782
tp166
sS'paciolo_1509_v1_1_0008.png'
p167
(I544
I782
tp168
sS'paciolo_1509_v1_1_0042.png'
p169
(I544
I782
tp170
sS'paciolo_1509_v1_1_0155.png'
p171
(I544
I782
tp172
sS'paciolo_1509_v1_1_0063.png'
p173
(I544
I782
tp174
sS'paciolo_1509_v1_1_0088.png'
p175
(I544
I782
tp176
sS'paciolo_1509_v1_1_0084.png'
p177
(I544
I782
tp178
sS'paciolo_1509_v1_1_0094.png'
p179
(I544
I782
tp180
sS'paciolo_1509_v1_1_0112.png'
p181
(I544
I782
tp182
sS'paciolo_1509_v1_1_0267.png'
p183
(I544
I782
tp184
sS'paciolo_1509_v1_1_0228.png'
p185
(I544
I782
tp186
sS'paciolo_1509_v1_1_0275.png'
p187
(I544
I782
tp188
sS'paciolo_1509_v1_1_0160.png'
p189
(I544
I782
tp190
sS'paciolo_1509_v1_1_0240.png'
p191
(I544
I782
tp192
sS'paciolo_1509_v1_1_0250.png'
p193
(I544
I782
tp194
sS'paciolo_1509_v1_1_0255.png'
p195
(I544
I782
tp196
sS'paciolo_1509_v1_1_0198.png'
p197
(I544
I782
tp198
sS'paciolo_1509_v1_1_0098.png'
p199
(I544
I782
tp200
sS'paciolo_1509_v1_1_0074.png'
p201
(I544
I782
tp202
sS'paciolo_1509_v1_1_0040.png'
p203
(I544
I782
tp204
sS'paciolo_1509_v1_1_0154.png'
p205
(I544
I782
tp206
sS'paciolo_1509_v1_1_0284.png'
p207
(I544
I782
tp208
sS'paciolo_1509_v1_1_0239.png'
p209
(I544
I782
tp210
sS'paciolo_1509_v1_1_0104.png'
p211
(I544
I782
tp212
sS'paciolo_1509_v1_1_0129.png'
p213
(I544
I782
tp214
sS'paciolo_1509_v1_1_0194.png'
p215
(I544
I782
tp216
sS'paciolo_1509_v1_1_0237.png'
p217
(I544
I782
tp218
sS'paciolo_1509_v1_1_0274.png'
p219
(I544
I782
tp220
sS'paciolo_1509_v1_1_0016.png'
p221
(I544
I782
tp222
sS'paciolo_1509_v1_1_0277.png'
p223
(I544
I782
tp224
sS'paciolo_1509_v1_1_0163.png'
p225
(I544
I782
tp226
sS'paciolo_1509_v1_1_0050.png'
p227
(I544
I782
tp228
sS'paciolo_1509_v1_1_0034.png'
p229
(I544
I782
tp230
sS'paciolo_1509_v1_1_0035.png'
p231
(I544
I782
tp232
sS'paciolo_1509_v1_1_0125.png'
p233
(I544
I782
tp234
sS'paciolo_1509_v1_1_0120.png'
p235
(I544
I782
tp236
sS'paciolo_1509_v1_1_0232.png'
p237
(I544
I782
tp238
sS'paciolo_1509_v1_1_0108.png'
p239
(I544
I782
tp240
sS'paciolo_1509_v1_1_0123.png'
p241
(I544
I782
tp242
sS'paciolo_1509_v1_1_0220.png'
p243
(I544
I782
tp244
sS'paciolo_1509_v1_1_0233.png'
p245
(I544
I782
tp246
sS'paciolo_1509_v1_1_0083.png'
p247
(I544
I782
tp248
sS'paciolo_1509_v1_1_0229.png'
p249
(I544
I782
tp250
sS'paciolo_1509_v1_1_0135.png'
p251
(I544
I782
tp252
sS'paciolo_1509_v1_1_0183.png'
p253
(I544
I782
tp254
sS'paciolo_1509_v1_1_0010.png'
p255
(I544
I782
tp256
sS'paciolo_1509_v1_1_0278.png'
p257
(I544
I782
tp258
sS'paciolo_1509_v1_1_0038.png'
p259
(I544
I782
tp260
sS'paciolo_1509_v1_1_0273.png'
p261
(I544
I782
tp262
sS'paciolo_1509_v1_1_0262.png'
p263
(I544
I782
tp264
sS'paciolo_1509_v1_1_0021.png'
p265
(I544
I782
tp266
sS'paciolo_1509_v1_1_0033.png'
p267
(I544
I782
tp268
sS'paciolo_1509_v1_1_0218.png'
p269
(I544
I782
tp270
sS'paciolo_1509_v1_1_0037.png'
p271
(I544
I782
tp272
sS'paciolo_1509_v1_1_0261.png'
p273
(I544
I782
tp274
sS'paciolo_1509_v1_1_0208.png'
p275
(I544
I782
tp276
sS'paciolo_1509_v1_1_0151.png'
p277
(I544
I782
tp278
sS'paciolo_1509_v1_1_0252.png'
p279
(I544
I782
tp280
sS'paciolo_1509_v1_1_0067.png'
p281
(I544
I782
tp282
sS'paciolo_1509_v1_1_0127.png'
p283
(I544
I782
tp284
sS'paciolo_1509_v1_1_0073.png'
p285
(I544
I782
tp286
sS'paciolo_1509_v1_1_0133.png'
p287
(I544
I782
tp288
sS'paciolo_1509_v1_1_0132.png'
p289
(I544
I782
tp290
sS'paciolo_1509_v1_1_0049.png'
p291
(I544
I782
tp292
sS'paciolo_1509_v1_1_0068.png'
p293
(I544
I782
tp294
sS'paciolo_1509_v1_1_0169.png'
p295
(I544
I782
tp296
sS'paciolo_1509_v1_1_0244.png'
p297
(I544
I782
tp298
sS'paciolo_1509_v1_1_0210.png'
p299
(I544
I782
tp300
sS'paciolo_1509_v1_1_0193.png'
p301
(I544
I782
tp302
sS'paciolo_1509_v1_1_0178.png'
p303
(I544
I782
tp304
sS'paciolo_1509_v1_1_0200.png'
p305
(I544
I782
tp306
sS'paciolo_1509_v1_1_0174.png'
p307
(I544
I782
tp308
sS'paciolo_1509_v1_1_0245.png'
p309
(I544
I782
tp310
sS'paciolo_1509_v1_1_0171.png'
p311
(I544
I782
tp312
sS'paciolo_1509_v1_1_0170.png'
p313
(I544
I782
tp314
sS'paciolo_1509_v1_1_0159.png'
p315
(I544
I782
tp316
sS'paciolo_1509_v1_1_0061.png'
p317
(I544
I782
tp318
sS'paciolo_1509_v1_1_0045.png'
p319
(I544
I782
tp320
sS'paciolo_1509_v1_1_0062.png'
p321
(I544
I782
tp322
sS'paciolo_1509_v1_1_0096.png'
p323
(I544
I782
tp324
sS'paciolo_1509_v1_1_0134.png'
p325
(I544
I782
tp326
sS'paciolo_1509_v1_1_0195.png'
p327
(I544
I782
tp328
sS'paciolo_1509_v1_1_0265.png'
p329
(I544
I782
tp330
sS'paciolo_1509_v1_1_0264.png'
p331
(I544
I782
tp332
sS'paciolo_1509_v1_1_0059.png'
p333
(I544
I782
tp334
sS'paciolo_1509_v1_1_0054.png'
p335
(I544
I782
tp336
sS'paciolo_1509_v1_1_0176.png'
p337
(I544
I782
tp338
sS'paciolo_1509_v1_1_0162.png'
p339
(I544
I782
tp340
sS'paciolo_1509_v1_1_0286.png'
p341
(I544
I782
tp342
sS'paciolo_1509_v1_1_0024.png'
p343
(I544
I782
tp344
sS'paciolo_1509_v1_1_0076.png'
p345
(I544
I782
tp346
sS'paciolo_1509_v1_1_0214.png'
p347
(I544
I782
tp348
sS'paciolo_1509_v1_1_0138.png'
p349
(I544
I782
tp350
sS'paciolo_1509_v1_1_0060.png'
p351
(I544
I782
tp352
sS'paciolo_1509_v1_1_0090.png'
p353
(I544
I782
tp354
sS'paciolo_1509_v1_1_0091.png'
p355
(I544
I782
tp356
sS'paciolo_1509_v1_1_0095.png'
p357
(I544
I782
tp358
sS'paciolo_1509_v1_1_0028.png'
p359
(I544
I782
tp360
sS'paciolo_1509_v1_1_0058.png'
p361
(I544
I782
tp362
sS'paciolo_1509_v1_1_0276.png'
p363
(I544
I782
tp364
sS'paciolo_1509_v1_1_0181.png'
p365
(I544
I782
tp366
sS'paciolo_1509_v1_1_0236.png'
p367
(I544
I782
tp368
sS'paciolo_1509_v1_1_0294.png'
p369
(I544
I782
tp370
sS'paciolo_1509_v1_1_0057.png'
p371
(I544
I782
tp372
sS'paciolo_1509_v1_1_0036.png'
p373
(I544
I782
tp374
sS'paciolo_1509_v1_1_0254.png'
p375
(I544
I782
tp376
sS'paciolo_1509_v1_1_0201.png'
p377
(I544
I782
tp378
sS'paciolo_1509_v1_1_0099.png'
p379
(I544
I782
tp380
sS'paciolo_1509_v1_1_0146.png'
p381
(I544
I782
tp382
sS'paciolo_1509_v1_1_0247.png'
p383
(I544
I782
tp384
sS'paciolo_1509_v1_1_0122.png'
p385
(I544
I782
tp386
sS'paciolo_1509_v1_1_0145.png'
p387
(I544
I782
tp388
sS'paciolo_1509_v1_1_0105.png'
p389
(I544
I782
tp390
sS'paciolo_1509_v1_1_0069.png'
p391
(I544
I782
tp392
sS'paciolo_1509_v1_1_0081.png'
p393
(I544
I782
tp394
sS'paciolo_1509_v1_1_0097.png'
p395
(I544
I782
tp396
sS'paciolo_1509_v1_1_0168.png'
p397
(I544
I782
tp398
sS'paciolo_1509_v1_1_0012.png'
p399
(I544
I782
tp400
sS'paciolo_1509_v1_1_0185.png'
p401
(I544
I782
tp402
sS'paciolo_1509_v1_1_0190.png'
p403
(I544
I782
tp404
sS'paciolo_1509_v1_1_0204.png'
p405
(I544
I782
tp406
sS'paciolo_1509_v1_1_0241.png'
p407
(I544
I782
tp408
sS'paciolo_1509_v1_1_0019.png'
p409
(I544
I782
tp410
sS'paciolo_1509_v1_1_0175.png'
p411
(I544
I782
tp412
sS'paciolo_1509_v1_1_0257.png'
p413
(I544
I782
tp414
sS'paciolo_1509_v1_1_0291.png'
p415
(I544
I782
tp416
sS'paciolo_1509_v1_1_0065.png'
p417
(I544
I782
tp418
sS'paciolo_1509_v1_1_0041.png'
p419
(I544
I782
tp420
sS'paciolo_1509_v1_1_0141.png'
p421
(I544
I782
tp422
sS'paciolo_1509_v1_1_0213.png'
p423
(I544
I782
tp424
sS'paciolo_1509_v1_1_0279.png'
p425
(I544
I782
tp426
sS'paciolo_1509_v1_1_0235.png'
p427
(I544
I782
tp428
sS'paciolo_1509_v1_1_0087.png'
p429
(I544
I782
tp430
sS'paciolo_1509_v1_1_0086.png'
p431
(I544
I782
tp432
sS'paciolo_1509_v1_1_0131.png'
p433
(I544
I782
tp434
sS'paciolo_1509_v1_1_0110.png'
p435
(I544
I782
tp436
sS'paciolo_1509_v1_1_0187.png'
p437
(I544
I782
tp438
sS'paciolo_1509_v1_1_0192.png'
p439
(I544
I782
tp440
sS'paciolo_1509_v1_1_0285.png'
p441
(I544
I782
tp442
sS'paciolo_1509_v1_1_0156.png'
p443
(I544
I782
tp444
sS'paciolo_1509_v1_1_0173.png'
p445
(I544
I782
tp446
sS'paciolo_1509_v1_1_0293.png'
p447
(I544
I782
tp448
sS'paciolo_1509_v1_1_0158.png'
p449
(I544
I782
tp450
sS'paciolo_1509_v1_1_0150.png'
p451
(I544
I782
tp452
sS'paciolo_1509_v1_1_0047.png'
p453
(I544
I782
tp454
sS'paciolo_1509_v1_1_0225.png'
p455
(I544
I782
tp456
sS'paciolo_1509_v1_1_0044.png'
p457
(I544
I782
tp458
sS'paciolo_1509_v1_1_0182.png'
p459
(I544
I782
tp460
sS'paciolo_1509_v1_1_0048.png'
p461
(I544
I782
tp462
sS'paciolo_1509_v1_1_0102.png'
p463
(I544
I782
tp464
sS'paciolo_1509_v1_1_0078.png'
p465
(I544
I782
tp466
sS'paciolo_1509_v1_1_0080.png'
p467
(I544
I782
tp468
sS'paciolo_1509_v1_1_0029.png'
p469
(I544
I782
tp470
sS'paciolo_1509_v1_1_0205.png'
p471
(I544
I782
tp472
sS'paciolo_1509_v1_1_0197.png'
p473
(I544
I782
tp474
sS'paciolo_1509_v1_1_0116.png'
p475
(I544
I782
tp476
sS'paciolo_1509_v1_1_0206.png'
p477
(I544
I782
tp478
sS'paciolo_1509_v1_1_0266.png'
p479
(I544
I782
tp480
sS'paciolo_1509_v1_1_0032.png'
p481
(I544
I782
tp482
sS'paciolo_1509_v1_1_0056.png'
p483
(I544
I782
tp484
sS'paciolo_1509_v1_1_0221.png'
p485
(I544
I782
tp486
sS'paciolo_1509_v1_1_0283.png'
p487
(I544
I782
tp488
sS'paciolo_1509_v1_1_0282.png'
p489
(I544
I782
tp490
sS'paciolo_1509_v1_1_0216.png'
p491
(I544
I782
tp492
sS'paciolo_1509_v1_1_0126.png'
p493
(I544
I782
tp494
sS'paciolo_1509_v1_1_0152.png'
p495
(I544
I782
tp496
sS'paciolo_1509_v1_1_0046.png'
p497
(I544
I782
tp498
sS'paciolo_1509_v1_1_0092.png'
p499
(I544
I782
tp500
sS'paciolo_1509_v1_1_0268.png'
p501
(I544
I782
tp502
sS'paciolo_1509_v1_1_0248.png'
p503
(I544
I782
tp504
sS'paciolo_1509_v1_1_0231.png'
p505
(I544
I782
tp506
sS'paciolo_1509_v1_1_0238.png'
p507
(I544
I782
tp508
sS'paciolo_1509_v1_1_0180.png'
p509
(I544
I782
tp510
sS'paciolo_1509_v1_1_0230.png'
p511
(I544
I782
tp512
sS'paciolo_1509_v1_1_0031.png'
p513
(I544
I782
tp514
sS'paciolo_1509_v1_1_0256.png'
p515
(I544
I782
tp516
sS'paciolo_1509_v1_1_0280.png'
p517
(I544
I782
tp518
sS'paciolo_1509_v1_1_0166.png'
p519
(I544
I782
tp520
sS'paciolo_1509_v1_1_0167.png'
p521
(I544
I782
tp522
sS'paciolo_1509_v1_1_0077.png'
p523
(I544
I782
tp524
sS'paciolo_1509_v1_1_0196.png'
p525
(I544
I782
tp526
sS'paciolo_1509_v1_1_0072.png'
p527
(I544
I782
tp528
sS'paciolo_1509_v1_1_0188.png'
p529
(I544
I782
tp530
sS'paciolo_1509_v1_1_0144.png'
p531
(I544
I782
tp532
sS'paciolo_1509_v1_1_0071.png'
p533
(I544
I782
tp534
sS'paciolo_1509_v1_1_0119.png'
p535
(I544
I782
tp536
sS'paciolo_1509_v1_1_0189.png'
p537
(I544
I782
tp538
sS'paciolo_1509_v1_1_0111.png'
p539
(I544
I782
tp540
sS'paciolo_1509_v1_1_0117.png'
p541
(I544
I782
tp542
sS'paciolo_1509_v1_1_0079.png'
p543
(I544
I782
tp544
sS'paciolo_1509_v1_1_0186.png'
p545
(I544
I782
tp546
sS'paciolo_1509_v1_1_0272.png'
p547
(I544
I782
tp548
sS'paciolo_1509_v1_1_0039.png'
p549
(I544
I782
tp550
sS'paciolo_1509_v1_1_0143.png'
p551
(I544
I782
tp552
sS'paciolo_1509_v1_1_0177.png'
p553
(I544
I782
tp554
sS'paciolo_1509_v1_1_0161.png'
p555
(I544
I782
tp556
sS'paciolo_1509_v1_1_0292.png'
p557
(I544
I782
tp558
sS'paciolo_1509_v1_1_0165.png'
p559
(I544
I782
tp560
sS'paciolo_1509_v1_1_0043.png'
p561
(I544
I782
tp562
sS'paciolo_1509_v1_1_0234.png'
p563
(I544
I782
tp564
sS'paciolo_1509_v1_1_0139.png'
p565
(I544
I782
tp566
sS'paciolo_1509_v1_1_0075.png'
p567
(I544
I782
tp568
sS'paciolo_1509_v1_1_0249.png'
p569
(I544
I782
tp570
sS'paciolo_1509_v1_1_0121.png'
p571
(I544
I782
tp572
sS'paciolo_1509_v1_1_0085.png'
p573
(I544
I782
tp574
sS'paciolo_1509_v1_1_0136.png'
p575
(I544
I782
tp576
s.