(dp0
S'paciolo_1509_v1_1_0210'
p1
cnumpy.core.multiarray
scalar
p2
(cnumpy
dtype
p3
(S'f8'
p4
I0
I1
tp5
Rp6
(I3
S'<'
p7
NNNI-1
I-1
I0
tp8
bS'\x9a\xf5\xe1S\xf2\xf4(?'
p9
tp10
Rp11
sS'paciolo_1509_v1_1_0270'
p12
g2
(g6
S'\xc2\xf6\x8fJ\x10/6?'
p13
tp14
Rp15
sS'paciolo_1509_v1_1_0277'
p16
g2
(g6
S't\xa2*{\x0e\xb8C?'
p17
tp18
Rp19
sS'paciolo_1509_v1_1_0228'
p20
g2
(g6
S'\xc2\xf6\x8fJ\x10/6?'
p21
tp22
Rp23
sS'paciolo_1509_v1_1_0068'
p24
g2
(g6
S'_\xf6U\xf8\xb0\x1bG?'
p25
tp26
Rp27
sS'paciolo_1509_v1_1_0069'
p28
g2
(g6
S'\xae\xa1\xb6\xd6O\x915?'
p29
tp30
Rp31
sS'paciolo_1509_v1_1_0066'
p32
g2
(g6
S'\xf7\xcafE:\xe1H?'
p33
tp34
Rp35
sS'paciolo_1509_v1_1_0067'
p36
g2
(g6
S'xv\xe4\xcc\x88\xe0F?'
p37
tp38
Rp39
sS'paciolo_1509_v1_1_0064'
p40
g2
(g6
S'\x07\xa3\x81v\x1dU2?'
p41
tp42
Rp43
sS'paciolo_1509_v1_1_0065'
p44
g2
(g6
S'\x8c"\xb9O\xe6|C?'
p45
tp46
Rp47
sS'paciolo_1509_v1_1_0062'
p48
g2
(g6
S'\xcbL\xfa\x0b?}D?'
p49
tp50
Rp51
sS'paciolo_1509_v1_1_0063'
p52
g2
(g6
S'%N\xc5\xab\x0cA1?'
p53
tp54
Rp55
sS'paciolo_1509_v1_1_0060'
p56
g2
(g6
S'`\x9fZ\xe9\x13\x1d+?'
p57
tp58
Rp59
sS'paciolo_1509_v1_1_0061'
p60
g2
(g6
S'\xc2\xf6\x8fJ\x10/&?'
p61
tp62
Rp63
sS'paciolo_1509_v1_1_0251'
p64
g2
(g6
S'\xd4\x9dr\xa0\x96\xcf.?'
p65
tp66
Rp67
sS'paciolo_1509_v1_1_0250'
p68
g2
(g6
S'\xe9\xf7=A.i#?'
p69
tp70
Rp71
sS'paciolo_1509_v1_1_0019'
p72
g2
(g6
S'\x07\xa3\x81v\x1dU2?'
p73
tp74
Rp75
sS'paciolo_1509_v1_1_0018'
p76
g2
(g6
S'\xe8\xf2K\x14Wm/?'
p77
tp78
Rp79
sS'paciolo_1509_v1_1_0234'
p80
g2
(g6
S'9\xa3\x9e\x1f\xcd\xdeA?'
p81
tp82
Rp83
sS'paciolo_1509_v1_1_0254'
p84
g2
(g6
S'\x9a\xf5\xe1S\xf2\xf4(?'
p85
tp86
Rp87
sS'paciolo_1509_v1_1_0257'
p88
g2
(g6
S'`\x9fZ\xe9\x13\x1d;?'
p89
tp90
Rp91
sS'paciolo_1509_v1_1_0256'
p92
g2
(g6
S'\xc2\xf6\x8fJ\x10/6?'
p93
tp94
Rp95
sS'paciolo_1509_v1_1_0013'
p96
g2
(g6
S'sK/lq\xb97?'
p97
tp98
Rp99
sS'paciolo_1509_v1_1_0012'
p100
g2
(g6
S'wv\xe4\xcc\x88\xe0F?'
p101
tp102
Rp103
sS'paciolo_1509_v1_1_0011'
p104
g2
(g6
S'\x9bL\xddb\x8f\xf34?'
p105
tp106
Rp107
sS'paciolo_1509_v1_1_0010'
p108
g2
(g6
S'\xae\xa1\xb6\xd6O\x91E?'
p109
tp110
Rp111
sS'paciolo_1509_v1_1_0017'
p112
g2
(g6
S'\x90\xf6r\xa1`\xa56?'
p113
tp114
Rp115
sS'paciolo_1509_v1_1_0016'
p116
g2
(g6
S'}\xf8\x94<=\x06B?'
p117
tp118
Rp119
sS'paciolo_1509_v1_1_0015'
p120
g2
(g6
S'\xc1\x9f\x94;s0*?'
p121
tp122
Rp123
sS'paciolo_1509_v1_1_0014'
p124
g2
(g6
S'\xd4\x9dr\xa0\x96\xcf>?'
p125
tp126
Rp127
sS'paciolo_1509_v1_1_0268'
p128
g2
(g6
S'%N\xc5\xab\x0cA1?'
p129
tp130
Rp131
sS'paciolo_1509_v1_1_0205'
p132
g2
(g6
S'%N\xc5\xab\x0cA1?'
p133
tp134
Rp135
sS'paciolo_1509_v1_1_0247'
p136
g2
(g6
S'\xae\xf3\xbf\xb8\x15\x94=?'
p137
tp138
Rp139
sS'paciolo_1509_v1_1_0289'
p140
g2
(g6
S'\x91Mn\xb0\xfd\xa3B?'
p141
tp142
Rp143
sS'paciolo_1509_v1_1_0269'
p144
g2
(g6
S'\xae\xf3\xbf\xb8\x15\x94=?'
p145
tp146
Rp147
sS'paciolo_1509_v1_1_0202'
p148
g2
(g6
S'L\xf8w\x93\x8d|2?'
p149
tp150
Rp151
sS'paciolo_1509_v1_1_0079'
p152
g2
(g6
S'\x9a\xf5\xe1S\xf2\xf48?'
p153
tp154
Rp155
sS'paciolo_1509_v1_1_0078'
p156
g2
(g6
S'\x06L\x86g\x80VF?'
p157
tp158
Rp159
sS'paciolo_1509_v1_1_0075'
p160
g2
(g6
S'%N\xc5\xab\x0cA1?'
p161
tp162
Rp163
sS'paciolo_1509_v1_1_0074'
p164
g2
(g6
S'r\xf43]\xd4\xba;?'
p165
tp166
Rp167
sS'paciolo_1509_v1_1_0077'
p168
g2
(g6
S'%\xf7\xc9\x9coB5?'
p169
tp170
Rp171
sS'paciolo_1509_v1_1_0076'
p172
g2
(g6
S'`\x9fZ\xe9\x13\x1d+?'
p173
tp174
Rp175
sS'paciolo_1509_v1_1_0071'
p176
g2
(g6
S'%N\xc5\xab\x0cA1?'
p177
tp178
Rp179
sS'paciolo_1509_v1_1_0070'
p180
g2
(g6
S'8\xf5\xa7\x01\x93\xe1\x19?'
p181
tp182
Rp183
sS'paciolo_1509_v1_1_0073'
p184
g2
(g6
S'\xd7\xa2d\xcdm\xcbB?'
p185
tp186
Rp187
sS'paciolo_1509_v1_1_0072'
p188
g2
(g6
S'%N\xc5\xab\x0cA1?'
p189
tp190
Rp191
sS'paciolo_1509_v1_1_0174'
p192
g2
(g6
S'~\xf8\x94<=\x062?'
p193
tp194
Rp195
sS'paciolo_1509_v1_1_0175'
p196
g2
(g6
S'\x87I\r\xd1\x94X<?'
p197
tp198
Rp199
sS'paciolo_1509_v1_1_0176'
p200
g2
(g6
S'%\xf7\xc9\x9coB5?'
p201
tp202
Rp203
sS'paciolo_1509_v1_1_0177'
p204
g2
(g6
S'sK/lq\xb97?'
p205
tp206
Rp207
sS'paciolo_1509_v1_1_0170'
p208
g2
(g6
S'C\xf9\x08\xe1\xfb,@?'
p209
tp210
Rp211
sS'paciolo_1509_v1_1_0171'
p212
g2
(g6
S'9\xa3\x9e\x1f\xcd\xdeA?'
p213
tp214
Rp215
sS'paciolo_1509_v1_1_0172'
p216
g2
(g6
S'%N\xc5\xab\x0cA1?'
p217
tp218
Rp219
sS'paciolo_1509_v1_1_0173'
p220
g2
(g6
S'\x9a\xf5\xe1S\xf2\xf48?'
p221
tp222
Rp223
sS'paciolo_1509_v1_1_0264'
p224
g2
(g6
S'\xfb\x9e \x97\xb4\t,?'
p225
tp226
Rp227
sS'paciolo_1509_v1_1_0265'
p228
g2
(g6
S'\xd1w\xaflV\xa4C?'
p229
tp230
Rp231
sS'paciolo_1509_v1_1_0266'
p232
g2
(g6
S'C\xf9\x08\xe1\xfb,@?'
p233
tp234
Rp235
sS'paciolo_1509_v1_1_0267'
p236
g2
(g6
S"UI\xf0'\xe5\xce<?"
p237
tp238
Rp239
sS'paciolo_1509_v1_1_0178'
p240
g2
(g6
S'\xa2\x9dU\xf7\xe6E??'
p241
tp242
Rp243
sS'paciolo_1509_v1_1_0179'
p244
g2
(g6
S'\xd4\x9dr\xa0\x96\xcf.?'
p245
tp246
Rp247
sS'paciolo_1509_v1_1_0262'
p248
g2
(g6
S'^\x9fZ\xe9\x13\x1d\x1b?'
p249
tp250
Rp251
sS'paciolo_1509_v1_1_0263'
p252
g2
(g6
S'\x9a\xf5\xe1S\xf2\xf4(?'
p253
tp254
Rp255
sS'paciolo_1509_v1_1_0203'
p256
g2
(g6
S'|\xa1\x99-\xa0\x07F?'
p257
tp258
Rp259
sS'paciolo_1509_v1_1_0142'
p260
g2
(g6
S'\x87\xf7\x03\xef\xceU$?'
p261
tp262
Rp263
sS'paciolo_1509_v1_1_0286'
p264
g2
(g6
S'8\xf5\xa7\x01\x93\xe1\x19?'
p265
tp266
Rp267
sS'paciolo_1509_v1_1_0252'
p268
g2
(g6
S'\x9a\xf5\xe1S\xf2\xf4(?'
p269
tp270
Rp271
sS'paciolo_1509_v1_1_0284'
p272
g2
(g6
S'\xb7\xf2.k\xa7\xe3??'
p273
tp274
Rp275
sS'paciolo_1509_v1_1_0183'
p276
g2
(g6
S'}\xf8\x94<=\x06B?'
p277
tp278
Rp279
sS'paciolo_1509_v1_1_0282'
p280
g2
(g6
S'\xb7\xf2.k\xa7\xe3??'
p281
tp282
Rp283
sS'paciolo_1509_v1_1_0283'
p284
g2
(g6
S's\xf43]\xd4\xba;?'
p285
tp286
Rp287
sS'paciolo_1509_v1_1_0280'
p288
g2
(g6
S'\xd5\x9dr\xa0\x96\xcf>?'
p289
tp290
Rp291
sS'paciolo_1509_v1_1_0281'
p292
g2
(g6
S'#I\xd3~5E=?'
p293
tp294
Rp295
sS'paciolo_1509_v1_1_0206'
p296
g2
(g6
S'\xe8\xf2K\x14Wm/?'
p297
tp298
Rp299
sS'paciolo_1509_v1_1_0200'
p300
g2
(g6
S'\xe8\xf2K\x14Wm/?'
p301
tp302
Rp303
sS'paciolo_1509_v1_1_0232'
p304
g2
(g6
S'\x82\xccN\x8e\xb7.E?'
p305
tp306
Rp307
sS'paciolo_1509_v1_1_0048'
p308
g2
(g6
S'\x90\xf6r\xa1`\xa56?'
p309
tp310
Rp311
sS'paciolo_1509_v1_1_0049'
p312
g2
(g6
S'\xc2\xf6\x8fJ\x10/6?'
p313
tp314
Rp315
sS'paciolo_1509_v1_1_0114'
p316
g2
(g6
S'\xd1w\xaflV\xa4C?'
p317
tp318
Rp319
sS'paciolo_1509_v1_1_0115'
p320
g2
(g6
S'\x06\xf5\x8aX\xe3W:?'
p321
tp322
Rp323
sS'paciolo_1509_v1_1_0112'
p324
g2
(g6
S'\xccL\xfa\x0b?}4?'
p325
tp326
Rp327
sS'paciolo_1509_v1_1_0113'
p328
g2
(g6
S'\xfc\xf5\x1b\xa6Q\x088?'
p329
tp330
Rp331
sS'paciolo_1509_v1_1_0110'
p332
g2
(g6
S'%N\xc5\xab\x0cA1?'
p333
tp334
Rp335
sS'paciolo_1509_v1_1_0111'
p336
g2
(g6
S'\x07\xa3\x81v\x1dU2?'
p337
tp338
Rp339
sS'paciolo_1509_v1_1_0040'
p340
g2
(g6
S'\x9a\xf5\xe1S\xf2\xf4(?'
p341
tp342
Rp343
sS'paciolo_1509_v1_1_0041'
p344
g2
(g6
S'`\x9fZ\xe9\x13\x1d;?'
p345
tp346
Rp347
sS'paciolo_1509_v1_1_0042'
p348
g2
(g6
S'%N\xc5\xab\x0cA1?'
p349
tp350
Rp351
sS'paciolo_1509_v1_1_0043'
p352
g2
(g6
S'\xfdL\x17\xb5\xee\x064?'
p353
tp354
Rp355
sS'paciolo_1509_v1_1_0044'
p356
g2
(g6
S'\x9fw\x92\xc3\xa6\x1aD?'
p357
tp358
Rp359
sS'paciolo_1509_v1_1_0045'
p360
g2
(g6
S'`\x9fZ\xe9\x13\x1d;?'
p361
tp362
Rp363
sS'paciolo_1509_v1_1_0046'
p364
g2
(g6
S'%N\xc5\xab\x0cA1?'
p365
tp366
Rp367
sS'paciolo_1509_v1_1_0047'
p368
g2
(g6
S'%N\xc5\xab\x0cA1?'
p369
tp370
Rp371
sS'paciolo_1509_v1_1_0163'
p372
g2
(g6
S'\x9bL\xddb\x8f\xf3D?'
p373
tp374
Rp375
sS'paciolo_1509_v1_1_0162'
p376
g2
(g6
S'`\x9fZ\xe9\x13\x1d;?'
p377
tp378
Rp379
sS'paciolo_1509_v1_1_0161'
p380
g2
(g6
S'\xe3u\x8d\xd1yCH?'
p381
tp382
Rp383
sS'paciolo_1509_v1_1_0160'
p384
g2
(g6
S'}\xf8\x94<=\x06B?'
p385
tp386
Rp387
sS'paciolo_1509_v1_1_0167'
p388
g2
(g6
S'%\xf7\xc9\x9coB5?'
p389
tp390
Rp391
sS'paciolo_1509_v1_1_0166'
p392
g2
(g6
S'\xa2\x9dU\xf7\xe6E??'
p393
tp394
Rp395
sS'paciolo_1509_v1_1_0165'
p396
g2
(g6
S'%N\xc5\xab\x0cA1?'
p397
tp398
Rp399
sS'paciolo_1509_v1_1_0164'
p400
g2
(g6
S'\xae\xa1\xb6\xd6O\x91E?'
p401
tp402
Rp403
sS'paciolo_1509_v1_1_0273'
p404
g2
(g6
S'L\xf8w\x93\x8d|B?'
p405
tp406
Rp407
sS'paciolo_1509_v1_1_0224'
p408
g2
(g6
S'\x12\xf9\xeb7L\xa3@?'
p409
tp410
Rp411
sS'paciolo_1509_v1_1_0169'
p412
g2
(g6
S'%\xf7\xc9\x9coB5?'
p413
tp414
Rp415
sS'paciolo_1509_v1_1_0168'
p416
g2
(g6
S'}\xf8\x94<=\x06B?'
p417
tp418
Rp419
sS'paciolo_1509_v1_1_0201'
p420
g2
(g6
S'\xae\xf3\xbf\xb8\x15\x94=?'
p421
tp422
Rp423
sS'paciolo_1509_v1_1_0276'
p424
g2
(g6
S'}\xf8\x94<=\x06B?'
p425
tp426
Rp427
sS'paciolo_1509_v1_1_0275'
p428
g2
(g6
S'`\x9fZ\xe9\x13\x1d;?'
p429
tp430
Rp431
sS'paciolo_1509_v1_1_0225'
p432
g2
(g6
S'9\xa3\x9e\x1f\xcd\xdeA?'
p433
tp434
Rp435
sS'paciolo_1509_v1_1_0211'
p436
g2
(g6
S'\xe9\xf7=A.i3?'
p437
tp438
Rp439
sS'paciolo_1509_v1_1_0285'
p440
g2
(g6
S'8\xf5\xa7\x01\x93\xe1)?'
p441
tp442
Rp443
sS'paciolo_1509_v1_1_0294'
p444
g2
(g6
S'\xd5\xf4m\xaf3\xce:?'
p445
tp446
Rp447
sS'paciolo_1509_v1_1_0291'
p448
g2
(g6
S'\x87\xf7\x03\xef\xceUD?'
p449
tp450
Rp451
sS'paciolo_1509_v1_1_0238'
p452
g2
(g6
S'\x9bL\xddb\x8f\xf34?'
p453
tp454
Rp455
sS'paciolo_1509_v1_1_0293'
p456
g2
(g6
S'\x87\xf7\x03\xef\xceU$?'
p457
tp458
Rp459
sS'paciolo_1509_v1_1_0292'
p460
g2
(g6
S'%N\xc5\xab\x0cA!?'
p461
tp462
Rp463
sS'paciolo_1509_v1_1_0253'
p464
g2
(g6
S'\x87\xf7\x03\xef\xceU$?'
p465
tp466
Rp467
sS'paciolo_1509_v1_1_0105'
p468
g2
(g6
S'\x9a\xf5\xe1S\xf2\xf48?'
p469
tp470
Rp471
sS'paciolo_1509_v1_1_0104'
p472
g2
(g6
S'\xc1\x9f\x94;s0:?'
p473
tp474
Rp475
sS'paciolo_1509_v1_1_0107'
p476
g2
(g6
S'\x9a\xf5\xe1S\xf2\xf4(?'
p477
tp478
Rp479
sS'paciolo_1509_v1_1_0106'
p480
g2
(g6
S'\xc2\xf6\x8fJ\x10/6?'
p481
tp482
Rp483
sS'paciolo_1509_v1_1_0101'
p484
g2
(g6
S'\x9a\xf5\xe1S\xf2\xf48?'
p485
tp486
Rp487
sS'paciolo_1509_v1_1_0100'
p488
g2
(g6
S'%N\xc5\xab\x0cA1?'
p489
tp490
Rp491
sS'paciolo_1509_v1_1_0103'
p492
g2
(g6
S'%N\xc5\xab\x0cA1?'
p493
tp494
Rp495
sS'paciolo_1509_v1_1_0102'
p496
g2
(g6
S'\x90\xf6r\xa1`\xa56?'
p497
tp498
Rp499
sS'paciolo_1509_v1_1_0215'
p500
g2
(g6
S'%N\xc5\xab\x0cA1?'
p501
tp502
Rp503
sS'paciolo_1509_v1_1_0189'
p504
g2
(g6
S'\xd5\x9dr\xa0\x96\xcf>?'
p505
tp506
Rp507
sS'paciolo_1509_v1_1_0217'
p508
g2
(g6
S'\xb7\xa0%\x89\xe1\xe0G?'
p509
tp510
Rp511
sS'paciolo_1509_v1_1_0216'
p512
g2
(g6
S'\xc2\xf6\x8fJ\x10/6?'
p513
tp514
Rp515
sS'paciolo_1509_v1_1_0109'
p516
g2
(g6
S'\xc2\xf6\x8fJ\x10/6?'
p517
tp518
Rp519
sS'paciolo_1509_v1_1_0108'
p520
g2
(g6
S'\xfe\xa3\x12\xc4\x8b\x050?'
p521
tp522
Rp523
sS'paciolo_1509_v1_1_0213'
p524
g2
(g6
S'\x9a\xf5\xe1S\xf2\xf48?'
p525
tp526
Rp527
sS'paciolo_1509_v1_1_0188'
p528
g2
(g6
S'`MQ\x07N\x1aC?'
p529
tp530
Rp531
sS'paciolo_1509_v1_1_0149'
p532
g2
(g6
S'\x07\xa3\x81v\x1dU2?'
p533
tp534
Rp535
sS'paciolo_1509_v1_1_0198'
p536
g2
(g6
S'C\xf9\x08\xe1\xfb,@?'
p537
tp538
Rp539
sS'paciolo_1509_v1_1_0148'
p540
g2
(g6
S'\x12\xf9\xeb7L\xa30?'
p541
tp542
Rp543
sS'paciolo_1509_v1_1_0196'
p544
g2
(g6
S'\xc2\xf6\x8fJ\x10/6?'
p545
tp546
Rp547
sS'paciolo_1509_v1_1_0197'
p548
g2
(g6
S'\xd4\x9dr\xa0\x96\xcf.?'
p549
tp550
Rp551
sS'paciolo_1509_v1_1_0194'
p552
g2
(g6
S'\xe9\xf7=A.i#?'
p553
tp554
Rp555
sS'paciolo_1509_v1_1_0195'
p556
g2
(g6
S'\xe8\xf2K\x14Wm/?'
p557
tp558
Rp559
sS'paciolo_1509_v1_1_0192'
p560
g2
(g6
S'\x96x#\x11\x15\xcbA?'
p561
tp562
Rp563
sS'paciolo_1509_v1_1_0193'
p564
g2
(g6
S'\xccL\xfa\x0b?}4?'
p565
tp566
Rp567
sS'paciolo_1509_v1_1_0190'
p568
g2
(g6
S'\xae\xf3\xbf\xb8\x15\x94=?'
p569
tp570
Rp571
sS'paciolo_1509_v1_1_0191'
p572
g2
(g6
S'\xc1\x9f\x94;s0:?'
p573
tp574
Rp575
sS'paciolo_1509_v1_1_0259'
p576
g2
(g6
S"TI\xf0'\xe5\xce<?"
p577
tp578
Rp579
sS'paciolo_1509_v1_1_0230'
p580
g2
(g6
S'\x9a\xf5\xe1S\xf2\xf4(?'
p581
tp582
Rp583
sS'paciolo_1509_v1_1_0258'
p584
g2
(g6
S'}\xf8\x94<=\x062?'
p585
tp586
Rp587
sS'paciolo_1509_v1_1_0219'
p588
g2
(g6
S'\x10\xf4\xf9\nu\xa7<?'
p589
tp590
Rp591
sS'paciolo_1509_v1_1_0220'
p592
g2
(g6
S'\xea\xa0B2\x91j7?'
p593
tp594
Rp595
sS'paciolo_1509_v1_1_0218'
p596
g2
(g6
S'\x9a\xf5\xe1S\xf2\xf4(?'
p597
tp598
Rp599
sS'paciolo_1509_v1_1_0260'
p600
g2
(g6
S'\xe8\xf2K\x14Wm??'
p601
tp602
Rp603
sS'paciolo_1509_v1_1_0287'
p604
g2
(g6
S'\xc2\xf6\x8fJ\x10/6?'
p605
tp606
Rp607
sS'paciolo_1509_v1_1_0156'
p608
g2
(g6
S'\x82\xccN\x8e\xb7.E?'
p609
tp610
Rp611
sS'paciolo_1509_v1_1_0246'
p612
g2
(g6
S'}\xf8\x94<=\x06B?'
p613
tp614
Rp615
sS'paciolo_1509_v1_1_0130'
p616
g2
(g6
S'\x87\xf7\x03\xef\xceU4?'
p617
tp618
Rp619
sS'paciolo_1509_v1_1_0131'
p620
g2
(g6
S'C\xf9\x08\xe1\xfb,0?'
p621
tp622
Rp623
sS'paciolo_1509_v1_1_0132'
p624
g2
(g6
S'%\xf7\xc9\x9coBE?'
p625
tp626
Rp627
sS'paciolo_1509_v1_1_0133'
p628
g2
(g6
S'\xea\xf7=A.i3?'
p629
tp630
Rp631
sS'paciolo_1509_v1_1_0134'
p632
g2
(g6
S'%N\xc5\xab\x0cA1?'
p633
tp634
Rp635
sS'paciolo_1509_v1_1_0135'
p636
g2
(g6
S'\x1aJd\xcc\xa3\xf5:?'
p637
tp638
Rp639
sS'paciolo_1509_v1_1_0136'
p640
g2
(g6
S'%N\xc5\xab\x0cA1?'
p641
tp642
Rp643
sS'paciolo_1509_v1_1_0137'
p644
g2
(g6
S'sK/lq\xb97?'
p645
tp646
Rp647
sS'paciolo_1509_v1_1_0138'
p648
g2
(g6
S'\x91Mn\xb0\xfd\xa32?'
p649
tp650
Rp651
sS'paciolo_1509_v1_1_0139'
p652
g2
(g6
S'%N\xc5\xab\x0cA1?'
p653
tp654
Rp655
sS'paciolo_1509_v1_1_0222'
p656
g2
(g6
S'\xf3\xf6\xac\xf3\xbf\xb8E?'
p657
tp658
Rp659
sS'paciolo_1509_v1_1_0182'
p660
g2
(g6
S'\xae\xf3\xbf\xb8\x15\x94=?'
p661
tp662
Rp663
sS'paciolo_1509_v1_1_0221'
p664
g2
(g6
S's\xf43]\xd4\xba;?'
p665
tp666
Rp667
sS'paciolo_1509_v1_1_0143'
p668
g2
(g6
S'\x9a\xf5\xe1S\xf2\xf48?'
p669
tp670
Rp671
sS'paciolo_1509_v1_1_0226'
p672
g2
(g6
S'\xae\xf3\xbf\xb8\x15\x94=?'
p673
tp674
Rp675
sS'paciolo_1509_v1_1_0227'
p676
g2
(g6
S"_\xf6U\xf8\xb0\x1b'?"
p677
tp678
Rp679
sS'paciolo_1509_v1_1_0057'
p680
g2
(g6
S'}\xf8\x94<=\x062?'
p681
tp682
Rp683
sS'paciolo_1509_v1_1_0056'
p684
g2
(g6
S'\x9a\xf5\xe1S\xf2\xf4(?'
p685
tp686
Rp687
sS'paciolo_1509_v1_1_0055'
p688
g2
(g6
S'rK/lq\xb97?'
p689
tp690
Rp691
sS'paciolo_1509_v1_1_0054'
p692
g2
(g6
S'}\xf8\x94<=\x06B?'
p693
tp694
Rp695
sS'paciolo_1509_v1_1_0053'
p696
g2
(g6
S'\xae\xa1\xb6\xd6O\x915?'
p697
tp698
Rp699
sS'paciolo_1509_v1_1_0052'
p700
g2
(g6
S'\xd4\x9dr\xa0\x96\xcf.?'
p701
tp702
Rp703
sS'paciolo_1509_v1_1_0051'
p704
g2
(g6
S'%N\xc5\xab\x0cA!?'
p705
tp706
Rp707
sS'paciolo_1509_v1_1_0050'
p708
g2
(g6
S'\x87\xf7\x03\xef\xceU$?'
p709
tp710
Rp711
sS'paciolo_1509_v1_1_0185'
p712
g2
(g6
S"TI\xf0'\xe5\xce<?"
p713
tp714
Rp715
sS'paciolo_1509_v1_1_0184'
p716
g2
(g6
S'%N\xc5\xab\x0cA1?'
p717
tp718
Rp719
sS'paciolo_1509_v1_1_0187'
p720
g2
(g6
S'\xe9\xf7=A.i#?'
p721
tp722
Rp723
sS'paciolo_1509_v1_1_0186'
p724
g2
(g6
S'9\xa3\x9e\x1f\xcd\xdeA?'
p725
tp726
Rp727
sS'paciolo_1509_v1_1_0181'
p728
g2
(g6
S'\x11\xf9\xeb7L\xa30?'
p729
tp730
Rp731
sS'paciolo_1509_v1_1_0180'
p732
g2
(g6
S'%N\xc5\xab\x0cA1?'
p733
tp734
Rp735
sS'paciolo_1509_v1_1_0059'
p736
g2
(g6
S'\xfc\x9e \x97\xb4\t,?'
p737
tp738
Rp739
sS'paciolo_1509_v1_1_0058'
p740
g2
(g6
S'%N\xc5\xab\x0cA1?'
p741
tp742
Rp743
sS'paciolo_1509_v1_1_0212'
p744
g2
(g6
S'\x87\xf7\x03\xef\xceU4?'
p745
tp746
Rp747
sS'paciolo_1509_v1_1_0125'
p748
g2
(g6
S'\xccL\xfa\x0b?}4?'
p749
tp750
Rp751
sS'paciolo_1509_v1_1_0274'
p752
g2
(g6
S'\xcb\x9e\x03\xee\x04\x80<?'
p753
tp754
Rp755
sS'paciolo_1509_v1_1_0261'
p756
g2
(g6
S'%N\xc5\xab\x0cA1?'
p757
tp758
Rp759
sS'paciolo_1509_v1_1_0255'
p760
g2
(g6
S'~\xf8\x94<=\x062?'
p761
tp762
Rp763
sS'paciolo_1509_v1_1_0288'
p764
g2
(g6
S'B\xf9\x08\xe1\xfb,0?'
p765
tp766
Rp767
sS'paciolo_1509_v1_1_0129'
p768
g2
(g6
S'sK/lq\xb97?'
p769
tp770
Rp771
sS'paciolo_1509_v1_1_0128'
p772
g2
(g6
S'\xd4\x9dr\xa0\x96\xcf.?'
p773
tp774
Rp775
sS'paciolo_1509_v1_1_0127'
p776
g2
(g6
S'\x96x#\x11\x15\xcbA?'
p777
tp778
Rp779
sS'paciolo_1509_v1_1_0126'
p780
g2
(g6
S'}\xf8\x94<=\x06B?'
p781
tp782
Rp783
sS'paciolo_1509_v1_1_0116'
p784
g2
(g6
S'%N\xc5\xab\x0cA1?'
p785
tp786
Rp787
sS'paciolo_1509_v1_1_0124'
p788
g2
(g6
S'\x12\xf9\xeb7L\xa30?'
p789
tp790
Rp791
sS'paciolo_1509_v1_1_0123'
p792
g2
(g6
S'`\x9fZ\xe9\x13\x1d+?'
p793
tp794
Rp795
sS'paciolo_1509_v1_1_0122'
p796
g2
(g6
S'#I\xd3~5E=?'
p797
tp798
Rp799
sS'paciolo_1509_v1_1_0121'
p800
g2
(g6
S'%\xf7\xc9\x9coB5?'
p801
tp802
Rp803
sS'paciolo_1509_v1_1_0120'
p804
g2
(g6
S'}\xf8\x94<=\x062?'
p805
tp806
Rp807
sS'paciolo_1509_v1_1_0022'
p808
g2
(g6
S'\xa5\xa2G$\xbeAC?'
p809
tp810
Rp811
sS'paciolo_1509_v1_1_0023'
p812
g2
(g6
S'\xe8\xf2K\x14Wm/?'
p813
tp814
Rp815
sS'paciolo_1509_v1_1_0020'
p816
g2
(g6
S'\x07\xa3\x81v\x1dUB?'
p817
tp818
Rp819
sS'paciolo_1509_v1_1_0021'
p820
g2
(g6
S'\xae\xa1\xb6\xd6O\x915?'
p821
tp822
Rp823
sS'paciolo_1509_v1_1_0026'
p824
g2
(g6
S'`\x9fZ\xe9\x13\x1d+?'
p825
tp826
Rp827
sS'paciolo_1509_v1_1_0027'
p828
g2
(g6
S'}\xf8\x94<=\x06B?'
p829
tp830
Rp831
sS'paciolo_1509_v1_1_0024'
p832
g2
(g6
S'\x9bL\xddb\x8f\xf3D?'
p833
tp834
Rp835
sS'paciolo_1509_v1_1_0025'
p836
g2
(g6
S'}\xf8\x94<=\x062?'
p837
tp838
Rp839
sS'paciolo_1509_v1_1_0028'
p840
g2
(g6
S'\x9a\xf5\xe1S\xf2\xf4(?'
p841
tp842
Rp843
sS'paciolo_1509_v1_1_0029'
p844
g2
(g6
S'\x9bL\xddb\x8f\xf34?'
p845
tp846
Rp847
sS'paciolo_1509_v1_1_0158'
p848
g2
(g6
S'}\xf8\x94<=\x06B?'
p849
tp850
Rp851
sS'paciolo_1509_v1_1_0290'
p852
g2
(g6
S'\xe9\xf7=A.iC?'
p853
tp854
Rp855
sS'paciolo_1509_v1_1_0159'
p856
g2
(g6
S'\xe8\xf2K\x14Wm??'
p857
tp858
Rp859
sS'paciolo_1509_v1_1_0278'
p860
g2
(g6
S'}\xf8\x94<=\x06B?'
p861
tp862
Rp863
sS'paciolo_1509_v1_1_0117'
p864
g2
(g6
S'`\x9fZ\xe9\x13\x1d;?'
p865
tp866
Rp867
sS'paciolo_1509_v1_1_0223'
p868
g2
(g6
S'\x12\xf9\xeb7L\xa3@?'
p869
tp870
Rp871
sS'paciolo_1509_v1_1_0233'
p872
g2
(g6
S'\xb7\xa0%\x89\xe1\xe0G?'
p873
tp874
Rp875
sS'paciolo_1509_v1_1_0249'
p876
g2
(g6
S'%N\xc5\xab\x0cA1?'
p877
tp878
Rp879
sS'paciolo_1509_v1_1_0208'
p880
g2
(g6
S'\x9a\xf5\xe1S\xf2\xf4(?'
p881
tp882
Rp883
sS'paciolo_1509_v1_1_0279'
p884
g2
(g6
S'C\xf9\x08\xe1\xfb,@?'
p885
tp886
Rp887
sS'paciolo_1509_v1_1_0229'
p888
g2
(g6
S'\x9bL\xddb\x8f\xf34?'
p889
tp890
Rp891
sS'paciolo_1509_v1_1_0214'
p892
g2
(g6
S'%N\xc5\xab\x0cA1?'
p893
tp894
Rp895
sS'paciolo_1509_v1_1_0209'
p896
g2
(g6
S'\xe8\xf2K\x14Wm/?'
p897
tp898
Rp899
sS'paciolo_1509_v1_1_0204'
p900
g2
(g6
S'\xcbL\xfa\x0b?}D?'
p901
tp902
Rp903
sS'paciolo_1509_v1_1_0084'
p904
g2
(g6
S'\xc1\x9f\x94;s0:?'
p905
tp906
Rp907
sS'paciolo_1509_v1_1_0085'
p908
g2
(g6
S'}\xf8\x94<=\x062?'
p909
tp910
Rp911
sS'paciolo_1509_v1_1_0086'
p912
g2
(g6
S'%N\xc5\xab\x0cA1?'
p913
tp914
Rp915
sS'paciolo_1509_v1_1_0087'
p916
g2
(g6
S'%N\xc5\xab\x0cA1?'
p917
tp918
Rp919
sS'paciolo_1509_v1_1_0080'
p920
g2
(g6
S'\xc2\xf6\x8fJ\x10/6?'
p921
tp922
Rp923
sS'paciolo_1509_v1_1_0081'
p924
g2
(g6
S'\x87I\r\xd1\x94X<?'
p925
tp926
Rp927
sS'paciolo_1509_v1_1_0082'
p928
g2
(g6
S'xv\xe4\xcc\x88\xe0F?'
p929
tp930
Rp931
sS'paciolo_1509_v1_1_0083'
p932
g2
(g6
S'\x87I\r\xd1\x94X<?'
p933
tp934
Rp935
sS'paciolo_1509_v1_1_0152'
p936
g2
(g6
S't\xa2*{\x0e\xb83?'
p937
tp938
Rp939
sS'paciolo_1509_v1_1_0153'
p940
g2
(g6
S'3x\xe9\xbe\xb5\xb7B?'
p941
tp942
Rp943
sS'paciolo_1509_v1_1_0150'
p944
g2
(g6
S'\x07\xa3\x81v\x1dU2?'
p945
tp946
Rp947
sS'paciolo_1509_v1_1_0151'
p948
g2
(g6
S'\x9a\xf5\xe1S\xf2\xf4(?'
p949
tp950
Rp951
sS'paciolo_1509_v1_1_0088'
p952
g2
(g6
S'\xfe\xa3\x12\xc4\x8b\x050?'
p953
tp954
Rp955
sS'paciolo_1509_v1_1_0089'
p956
g2
(g6
S'\xae\xa1\xb6\xd6O\x91E?'
p957
tp958
Rp959
sS'paciolo_1509_v1_1_0154'
p960
g2
(g6
S'\xe9\xf7=A.i3?'
p961
tp962
Rp963
sS'paciolo_1509_v1_1_0155'
p964
g2
(g6
S'}\xf8\x94<=\x062?'
p965
tp966
Rp967
sS'paciolo_1509_v1_1_0031'
p968
g2
(g6
S'\xc1\x9f\x94;s0*?'
p969
tp970
Rp971
sS'paciolo_1509_v1_1_0030'
p972
g2
(g6
S'C\xf9\x08\xe1\xfb,0?'
p973
tp974
Rp975
sS'paciolo_1509_v1_1_0033'
p976
g2
(g6
S'\xc2\xf6\x8fJ\x10/6?'
p977
tp978
Rp979
sS'paciolo_1509_v1_1_0032'
p980
g2
(g6
S"_\xf6U\xf8\xb0\x1b'?"
p981
tp982
Rp983
sS'paciolo_1509_v1_1_0035'
p984
g2
(g6
S'%N\xc5\xab\x0cA1?'
p985
tp986
Rp987
sS'paciolo_1509_v1_1_0034'
p988
g2
(g6
S'8\xf5\xa7\x01\x93\xe1)?'
p989
tp990
Rp991
sS'paciolo_1509_v1_1_0037'
p992
g2
(g6
S'}\xf8\x94<=\x06B?'
p993
tp994
Rp995
sS'paciolo_1509_v1_1_0036'
p996
g2
(g6
S'}\xf8\x94<=\x062?'
p997
tp998
Rp999
sS'paciolo_1509_v1_1_0039'
p1000
g2
(g6
S'\xe8\xf2K\x14Wm\x1f?'
p1001
tp1002
Rp1003
sS'paciolo_1509_v1_1_0038'
p1004
g2
(g6
S'|\xa1\x99-\xa0\x07F?'
p1005
tp1006
Rp1007
sS'paciolo_1509_v1_1_0239'
p1008
g2
(g6
S'}\xf8\x94<=\x062?'
p1009
tp1010
Rp1011
sS'paciolo_1509_v1_1_0157'
p1012
g2
(g6
S'`\x9fZ\xe9\x13\x1d;?'
p1013
tp1014
Rp1015
sS'paciolo_1509_v1_1_0118'
p1016
g2
(g6
S'\xc2\xf6\x8fJ\x10/6?'
p1017
tp1018
Rp1019
sS'paciolo_1509_v1_1_0231'
p1020
g2
(g6
S'\xc8x@\xba\xc4TA?'
p1021
tp1022
Rp1023
sS'paciolo_1509_v1_1_0119'
p1024
g2
(g6
S'\xae\xa1\xb6\xd6O\x915?'
p1025
tp1026
Rp1027
sS'paciolo_1509_v1_1_0237'
p1028
g2
(g6
S'}\xf8\x94<=\x06B?'
p1029
tp1030
Rp1031
sS'paciolo_1509_v1_1_0199'
p1032
g2
(g6
S'}\xf8\x94<=\x062?'
p1033
tp1034
Rp1035
sS'paciolo_1509_v1_1_0236'
p1036
g2
(g6
S'|\xa1\x99-\xa0\x07F?'
p1037
tp1038
Rp1039
sS'paciolo_1509_v1_1_0235'
p1040
g2
(g6
S'`MQ\x07N\x1aC?'
p1041
tp1042
Rp1043
sS'paciolo_1509_v1_1_0093'
p1044
g2
(g6
S'\xc8x@\xba\xc4TA?'
p1045
tp1046
Rp1047
sS'paciolo_1509_v1_1_0092'
p1048
g2
(g6
S'\x12\xf9\xeb7L\xa3@?'
p1049
tp1050
Rp1051
sS'paciolo_1509_v1_1_0091'
p1052
g2
(g6
S'\x9a\xf5\xe1S\xf2\xf4(?'
p1053
tp1054
Rp1055
sS'paciolo_1509_v1_1_0090'
p1056
g2
(g6
S'\xf4M\xa8\x02]\xb7A?'
p1057
tp1058
Rp1059
sS'paciolo_1509_v1_1_0097'
p1060
g2
(g6
S'\x9a\xf5\xe1S\xf2\xf48?'
p1061
tp1062
Rp1063
sS'paciolo_1509_v1_1_0096'
p1064
g2
(g6
S'\xe8\xf2K\x14Wm??'
p1065
tp1066
Rp1067
sS'paciolo_1509_v1_1_0095'
p1068
g2
(g6
S'%\xf7\xc9\x9coBE?'
p1069
tp1070
Rp1071
sS'paciolo_1509_v1_1_0094'
p1072
g2
(g6
S'\x07\xa3\x81v\x1dU2?'
p1073
tp1074
Rp1075
sS'paciolo_1509_v1_1_0141'
p1076
g2
(g6
S's\xf43]\xd4\xba+?'
p1077
tp1078
Rp1079
sS'paciolo_1509_v1_1_0140'
p1080
g2
(g6
S'\xe8\xf2K\x14Wm/?'
p1081
tp1082
Rp1083
sS'paciolo_1509_v1_1_0099'
p1084
g2
(g6
S'`\x9fZ\xe9\x13\x1d+?'
p1085
tp1086
Rp1087
sS'paciolo_1509_v1_1_0098'
p1088
g2
(g6
S'\x07\xa3\x81v\x1dU2?'
p1089
tp1090
Rp1091
sS'paciolo_1509_v1_1_0145'
p1092
g2
(g6
S'%N\xc5\xab\x0cA1?'
p1093
tp1094
Rp1095
sS'paciolo_1509_v1_1_0144'
p1096
g2
(g6
S'\xea\xf7=A.i3?'
p1097
tp1098
Rp1099
sS'paciolo_1509_v1_1_0147'
p1100
g2
(g6
S'%N\xc5\xab\x0cA1?'
p1101
tp1102
Rp1103
sS'paciolo_1509_v1_1_0146'
p1104
g2
(g6
S'%N\xc5\xab\x0cA1?'
p1105
tp1106
Rp1107
sS'paciolo_1509_v1_1_0242'
p1108
g2
(g6
S'\xe3u\x8d\xd1yCH?'
p1109
tp1110
Rp1111
sS'paciolo_1509_v1_1_0243'
p1112
g2
(g6
S'\x91Mn\xb0\xfd\xa32?'
p1113
tp1114
Rp1115
sS'paciolo_1509_v1_1_0240'
p1116
g2
(g6
S'\x82\xccN\x8e\xb7.E?'
p1117
tp1118
Rp1119
sS'paciolo_1509_v1_1_0241'
p1120
g2
(g6
S'`MQ\x07N\x1aC?'
p1121
tp1122
Rp1123
sS'paciolo_1509_v1_1_0008'
p1124
g2
(g6
S'%N\xc5\xab\x0cA!?'
p1125
tp1126
Rp1127
sS'paciolo_1509_v1_1_0009'
p1128
g2
(g6
S'\x87\xf7\x03\xef\xceUD?'
p1129
tp1130
Rp1131
sS'paciolo_1509_v1_1_0244'
p1132
g2
(g6
S'\x87\xf7\x03\xef\xceUD?'
p1133
tp1134
Rp1135
sS'paciolo_1509_v1_1_0245'
p1136
g2
(g6
S'\xc2\xf6\x8fJ\x10/6?'
p1137
tp1138
Rp1139
sS'paciolo_1509_v1_1_0248'
p1140
g2
(g6
S'%N\xc5\xab\x0cAA?'
p1141
tp1142
Rp1143
sS'paciolo_1509_v1_1_0007'
p1144
g2
(g6
S'\x12\xf9\xeb7L\xa3@?'
p1145
tp1146
Rp1147
sS'paciolo_1509_v1_1_0272'
p1148
g2
(g6
S'|\xa1\x99-\xa0\x07F?'
p1149
tp1150
Rp1151
sS'paciolo_1509_v1_1_0207'
p1152
g2
(g6
S'%N\xc5\xab\x0cA!?'
p1153
tp1154
Rp1155
sS'paciolo_1509_v1_1_0271'
p1156
g2
(g6
S'\xd5\xf4m\xaf3\xce:?'
p1157
tp1158
Rp1159
s.