(dp0
S'coets_1740_v1_1_0419'
p1
cnumpy.core.multiarray
scalar
p2
(cnumpy
dtype
p3
(S'f8'
p4
I0
I1
tp5
Rp6
(I3
S'<'
p7
NNNI-1
I-1
I0
tp8
bS'"Wm@]\xec\x90>'
p9
tp10
Rp11
sS'coets_1740_v1_1_0418'
p12
g2
(g6
S'\r=\x8e\x03Y\xa4\x80>'
p13
tp14
Rp15
sS'coets_1740_v1_1_0413'
p16
g2
(g6
S'"Wm@]\xec\x90>'
p17
tp18
Rp19
sS'coets_1740_v1_1_0412'
p20
g2
(g6
S'"Wm@]\xec\xa0>'
p21
tp22
Rp23
sS'coets_1740_v1_1_0411'
p24
g2
(g6
S'"Wm@]\xec\x80>'
p25
tp26
Rp27
sS'coets_1740_v1_1_0410'
p28
g2
(g6
S'"Wm@]\xec\x80>'
p29
tp30
Rp31
sS'coets_1740_v1_1_0417'
p32
g2
(g6
S'"Wm@]\xec\x90>'
p33
tp34
Rp35
sS'coets_1740_v1_1_0416'
p36
g2
(g6
S'"Wm@]\xec\x80>'
p37
tp38
Rp39
sS'coets_1740_v1_1_0415'
p40
g2
(g6
S'"Wm@]\xec\x80>'
p41
tp42
Rp43
sS'coets_1740_v1_1_0414'
p44
g2
(g6
S'\r=\x8e\x03Y\xa4\x90>'
p45
tp46
Rp47
sS'coets_1740_v1_1_0398'
p48
g2
(g6
S'"Wm@]\xec\x90>'
p49
tp50
Rp51
sS'coets_1740_v1_1_0399'
p52
g2
(g6
S'\xb4\x02\xa4\xe0\x8bb\x99>'
p53
tp54
Rp55
sS'coets_1740_v1_1_0394'
p56
g2
(g6
S'"Wm@]\xec\x90>'
p57
tp58
Rp59
sS'coets_1740_v1_1_0395'
p60
g2
(g6
S'"Wm@]\xec\xa0>'
p61
tp62
Rp63
sS'coets_1740_v1_1_0396'
p64
g2
(g6
S'"Wm@]\xec\x90>'
p65
tp66
Rp67
sS'coets_1740_v1_1_0397'
p68
g2
(g6
S'"Wm@]\xec\xa0>'
p69
tp70
Rp71
sS'coets_1740_v1_1_0390'
p72
g2
(g6
S'"Wm@]\xec\x80>'
p73
tp74
Rp75
sS'coets_1740_v1_1_0391'
p76
g2
(g6
S'\x84\x19\xdc.\x9e\x06\xbb>'
p77
tp78
Rp79
sS'coets_1740_v1_1_0392'
p80
g2
(g6
S'\r=\x8e\x03Y\xa4\x90>'
p81
tp82
Rp83
sS'coets_1740_v1_1_0393'
p84
g2
(g6
S'"Wm@]\xec\xa0>'
p85
tp86
Rp87
sS'coets_1740_v1_1_0307'
p88
g2
(g6
S'\xabF]\xe0\xf1\xfb\xa0>'
p89
tp90
Rp91
sS'coets_1740_v1_1_0306'
p92
g2
(g6
S'\xff\xe9\x8b\xd0\xeay\xa9>'
p93
tp94
Rp95
sS'coets_1740_v1_1_0305'
p96
g2
(g6
S'\xabF]\xe0\xf1\xfb\x90>'
p97
tp98
Rp99
sS'coets_1740_v1_1_0304'
p100
g2
(g6
S'\xabF]\xe0\xf1\xfb\x80>'
p101
tp102
Rp103
sS'coets_1740_v1_1_0303'
p104
g2
(g6
S'\xabF]\xe0\xf1\xfb\xa0>'
p105
tp106
Rp107
sS'coets_1740_v1_1_0302'
p108
g2
(g6
S'\xabF]\xe0\xf1\xfb\xa0>'
p109
tp110
Rp111
sS'coets_1740_v1_1_0301'
p112
g2
(g6
S'\xabF]\xe0\xf1\xfb\x90>'
p113
tp114
Rp115
sS'coets_1740_v1_1_0300'
p116
g2
(g6
S'\xff\xe9\x8b\xd0\xeay\x99>'
p117
tp118
Rp119
sS'coets_1740_v1_1_0309'
p120
g2
(g6
S'\xabF]\xe0\xf1\xfb\xa0>'
p121
tp122
Rp123
sS'coets_1740_v1_1_0308'
p124
g2
(g6
S'\xff\xe9\x8b\xd0\xeay\x99>'
p125
tp126
Rp127
sS'coets_1740_v1_1_0097'
p128
g2
(g6
S')a\xa2\xed\x18\xea\x90>'
p129
tp130
Rp131
sS'coets_1740_v1_1_0096'
p132
g2
(g6
S'\xbd\x91sd%_\x99>'
p133
tp134
Rp135
sS'coets_1740_v1_1_0095'
p136
g2
(g6
S'\xbd\x91sd%_\x99>'
p137
tp138
Rp139
sS'coets_1740_v1_1_0094'
p140
g2
(g6
S')a\xa2\xed\x18\xea\x90>'
p141
tp142
Rp143
sS'coets_1740_v1_1_0093'
p144
g2
(g6
S')a\xa2\xed\x18\xea\x90>'
p145
tp146
Rp147
sS'coets_1740_v1_1_0092'
p148
g2
(g6
S'\xbd\x91sd%_\x99>'
p149
tp150
Rp151
sS'coets_1740_v1_1_0091'
p152
g2
(g6
S')a\xa2\xed\x18\xea\xa0>'
p153
tp154
Rp155
sS'coets_1740_v1_1_0090'
p156
g2
(g6
S')a\xa2\xed\x18\xea\x90>'
p157
tp158
Rp159
sS'coets_1740_v1_1_0099'
p160
g2
(g6
S')a\xa2\xed\x18\xea\xa0>'
p161
tp162
Rp163
sS'coets_1740_v1_1_0098'
p164
g2
(g6
S')a\xa2\xed\x18\xea\xa0>'
p165
tp166
Rp167
sS'coets_1740_v1_1_0428'
p168
g2
(g6
S'"Wm@]\xec\x80>'
p169
tp170
Rp171
sS'coets_1740_v1_1_0233'
p172
g2
(g6
S'\x07fd5\x1c]\x99>'
p173
tp174
Rp175
sS'coets_1740_v1_1_0232'
p176
g2
(g6
S'Y\x99\xedx\xbd\xe8\xa0>'
p177
tp178
Rp179
sS'coets_1740_v1_1_0231'
p180
g2
(g6
S'Y\x99\xedx\xbd\xe8\xa0>'
p181
tp182
Rp183
sS'coets_1740_v1_1_0230'
p184
g2
(g6
S'\x07fd5\x1c]\x99>'
p185
tp186
Rp187
sS'coets_1740_v1_1_0237'
p188
g2
(g6
S'Y\x99\xedx\xbd\xe8\xa0>'
p189
tp190
Rp191
sS'coets_1740_v1_1_0236'
p192
g2
(g6
S'Y\x99\xedx\xbd\xe8\x90>'
p193
tp194
Rp195
sS'coets_1740_v1_1_0235'
p196
g2
(g6
S'Y\x99\xedx\xbd\xe8\xa0>'
p197
tp198
Rp199
sS'coets_1740_v1_1_0234'
p200
g2
(g6
S'Y\x99\xedx\xbd\xe8\xa0>'
p201
tp202
Rp203
sS'coets_1740_v1_1_0239'
p204
g2
(g6
S'\x07fd5\x1c]\x99>'
p205
tp206
Rp207
sS'coets_1740_v1_1_0238'
p208
g2
(g6
S'Y\x99\xedx\xbd\xe8\x80>'
p209
tp210
Rp211
sS'coets_1740_v1_1_0286'
p212
g2
(g6
S'\xabF]\xe0\xf1\xfb\x90>'
p213
tp214
Rp215
sS'coets_1740_v1_1_0287'
p216
g2
(g6
S'\xabF]\xe0\xf1\xfb\xa0>'
p217
tp218
Rp219
sS'coets_1740_v1_1_0284'
p220
g2
(g6
S'\xabF]\xe0\xf1\xfb\x90>'
p221
tp222
Rp223
sS'coets_1740_v1_1_0285'
p224
g2
(g6
S'\xabF]\xe0\xf1\xfb\x90>'
p225
tp226
Rp227
sS'coets_1740_v1_1_0282'
p228
g2
(g6
S'\xabF]\xe0\xf1\xfb\xa0>'
p229
tp230
Rp231
sS'coets_1740_v1_1_0283'
p232
g2
(g6
S'\xabF]\xe0\xf1\xfb\x90>'
p233
tp234
Rp235
sS'coets_1740_v1_1_0280'
p236
g2
(g6
S'\xabF]\xe0\xf1\xfb\x80>'
p237
tp238
Rp239
sS'coets_1740_v1_1_0281'
p240
g2
(g6
S'\xabF]\xe0\xf1\xfb\xa0>'
p241
tp242
Rp243
sS'coets_1740_v1_1_0127'
p244
g2
(g6
S')a\xa2\xed\x18\xea\xa0>'
p245
tp246
Rp247
sS'coets_1740_v1_1_0126'
p248
g2
(g6
S')a\xa2\xed\x18\xea\xa0>'
p249
tp250
Rp251
sS'coets_1740_v1_1_0125'
p252
g2
(g6
S')a\xa2\xed\x18\xea\xa0>'
p253
tp254
Rp255
sS'coets_1740_v1_1_0124'
p256
g2
(g6
S't\xd5\xc4\xb0\xebt\xa0>'
p257
tp258
Rp259
sS'coets_1740_v1_1_0123'
p260
g2
(g6
S')a\xa2\xed\x18\xea\x90>'
p261
tp262
Rp263
sS'coets_1740_v1_1_0122'
p264
g2
(g6
S')a\xa2\xed\x18\xea\x90>'
p265
tp266
Rp267
sS'coets_1740_v1_1_0288'
p268
g2
(g6
S'\xabF]\xe0\xf1\xfb\x90>'
p269
tp270
Rp271
sS'coets_1740_v1_1_0120'
p272
g2
(g6
S')a\xa2\xed\x18\xea\x80>'
p273
tp274
Rp275
sS'coets_1740_v1_1_0040'
p276
g2
(g6
S'\x0f\x00\xcf\x0f\x05\x14\xa1>'
p277
tp278
Rp279
sS'coets_1740_v1_1_0041'
p280
g2
(g6
S'\x0f\x00\xcf\x0f\x05\x14\x91>'
p281
tp282
Rp283
sS'coets_1740_v1_1_0042'
p284
g2
(g6
S'\x0f\x00\xcf\x0f\x05\x14\xa1>'
p285
tp286
Rp287
sS'coets_1740_v1_1_0043'
p288
g2
(g6
S'\x0f\x00\xcf\x0f\x05\x14\xa1>'
p289
tp290
Rp291
sS'coets_1740_v1_1_0044'
p292
g2
(g6
S'\x0f\x00\xcf\x0f\x05\x14\xa1>'
p293
tp294
Rp295
sS'coets_1740_v1_1_0045'
p296
g2
(g6
S'\x84\x19\xdc.\x9e\x06\xbb>'
p297
tp298
Rp299
sS'coets_1740_v1_1_0046'
p300
g2
(g6
S'\x0f\x00\xcf\x0f\x05\x14\xa1>'
p301
tp302
Rp303
sS'coets_1740_v1_1_0047'
p304
g2
(g6
S'\x0f\x00\xcf\x0f\x05\x14\xa1>'
p305
tp306
Rp307
sS'coets_1740_v1_1_0048'
p308
g2
(g6
S'\x0f\x00\xcf\x0f\x05\x14\x91>'
p309
tp310
Rp311
sS'coets_1740_v1_1_0049'
p312
g2
(g6
S'\x0f\x00\xcf\x0f\x05\x14\x91>'
p313
tp314
Rp315
sS'coets_1740_v1_1_0349'
p316
g2
(g6
S'\x01\xea\x8b\xd0\xeay\x99>'
p317
tp318
Rp319
sS'coets_1740_v1_1_0348'
p320
g2
(g6
S'\xabF]\xe0\xf1\xfb\xa0>'
p321
tp322
Rp323
sS'coets_1740_v1_1_0343'
p324
g2
(g6
S'\xabF]\xe0\xf1\xfb\x90>'
p325
tp326
Rp327
sS'coets_1740_v1_1_0342'
p328
g2
(g6
S'\xabF]\xe0\xf1\xfb\x80>'
p329
tp330
Rp331
sS'coets_1740_v1_1_0341'
p332
g2
(g6
S'\xff\xe9\x8b\xd0\xeay\x99>'
p333
tp334
Rp335
sS'coets_1740_v1_1_0340'
p336
g2
(g6
S'\xabF]\xe0\xf1\xfb\x80>'
p337
tp338
Rp339
sS'coets_1740_v1_1_0347'
p340
g2
(g6
S'\xabF]\xe0\xf1\xfb\x90>'
p341
tp342
Rp343
sS'coets_1740_v1_1_0346'
p344
g2
(g6
S'\xabF]\xe0\xf1\xfb\x90>'
p345
tp346
Rp347
sS'coets_1740_v1_1_0345'
p348
g2
(g6
S'\xabF]\xe0\xf1\xfb\x90>'
p349
tp350
Rp351
sS'coets_1740_v1_1_0344'
p352
g2
(g6
S'u|%\xd0\xd3\x94\xa0>'
p353
tp354
Rp355
sS'coets_1740_v1_1_0192'
p356
g2
(g6
S'Y\x99\xedx\xbd\xe8\x90>'
p357
tp358
Rp359
sS'coets_1740_v1_1_0193'
p360
g2
(g6
S'Y\x99\xedx\xbd\xe8\xa0>'
p361
tp362
Rp363
sS'coets_1740_v1_1_0190'
p364
g2
(g6
S'Y\x99\xedx\xbd\xe8\xa0>'
p365
tp366
Rp367
sS'coets_1740_v1_1_0191'
p368
g2
(g6
S'Y\x99\xedx\xbd\xe8\xa0>'
p369
tp370
Rp371
sS'coets_1740_v1_1_0196'
p372
g2
(g6
S'Y\x99\xedx\xbd\xe8\x90>'
p373
tp374
Rp375
sS'coets_1740_v1_1_0197'
p376
g2
(g6
S'\x07fd5\x1c]\x99>'
p377
tp378
Rp379
sS'coets_1740_v1_1_0194'
p380
g2
(g6
S'Y\x99\xedx\xbd\xe8\x90>'
p381
tp382
Rp383
sS'coets_1740_v1_1_0195'
p384
g2
(g6
S'Y\x99\xedx\xbd\xe8\xa0>'
p385
tp386
Rp387
sS'coets_1740_v1_1_0198'
p388
g2
(g6
S'Y\x99\xedx\xbd\xe8\xa0>'
p389
tp390
Rp391
sS'coets_1740_v1_1_0199'
p392
g2
(g6
S'Y\x99\xedx\xbd\xe8\xa0>'
p393
tp394
Rp395
sS'coets_1740_v1_1_0068'
p396
g2
(g6
S'\x0f\x00\xcf\x0f\x05\x14\xa1>'
p397
tp398
Rp399
sS'coets_1740_v1_1_0069'
p400
g2
(g6
S'\x0f\x00\xcf\x0f\x05\x14\x91>'
p401
tp402
Rp403
sS'coets_1740_v1_1_0109'
p404
g2
(g6
S')a\xa2\xed\x18\xea\x90>'
p405
tp406
Rp407
sS'coets_1740_v1_1_0108'
p408
g2
(g6
S')a\xa2\xed\x18\xea\xa0>'
p409
tp410
Rp411
sS'coets_1740_v1_1_0252'
p412
g2
(g6
S'Y\x99\xedx\xbd\xe8\xa0>'
p413
tp414
Rp415
sS'coets_1740_v1_1_0457'
p416
g2
(g6
S'"Wm@]\xec\x90>'
p417
tp418
Rp419
sS'coets_1740_v1_1_0248'
p420
g2
(g6
S'Y\x99\xedx\xbd\xe8\x90>'
p421
tp422
Rp423
sS'coets_1740_v1_1_0249'
p424
g2
(g6
S'Y\x99\xedx\xbd\xe8\x80>'
p425
tp426
Rp427
sS'coets_1740_v1_1_0158'
p428
g2
(g6
S')a\xa2\xed\x18\xea\xa0>'
p429
tp430
Rp431
sS'coets_1740_v1_1_0456'
p432
g2
(g6
S'"Wm@]\xec\x80>'
p433
tp434
Rp435
sS'coets_1740_v1_1_0242'
p436
g2
(g6
S'Y\x99\xedx\xbd\xe8\xa0>'
p437
tp438
Rp439
sS'coets_1740_v1_1_0243'
p440
g2
(g6
S'Y\x99\xedx\xbd\xe8\xa0>'
p441
tp442
Rp443
sS'coets_1740_v1_1_0240'
p444
g2
(g6
S'Y\x99\xedx\xbd\xe8\x90>'
p445
tp446
Rp447
sS'coets_1740_v1_1_0241'
p448
g2
(g6
S'Y\x99\xedx\xbd\xe8\xa0>'
p449
tp450
Rp451
sS'coets_1740_v1_1_0246'
p452
g2
(g6
S'Y\x99\xedx\xbd\xe8\xa0>'
p453
tp454
Rp455
sS'coets_1740_v1_1_0247'
p456
g2
(g6
S'Y\x99\xedx\xbd\xe8\x90>'
p457
tp458
Rp459
sS'coets_1740_v1_1_0244'
p460
g2
(g6
S'Y\x99\xedx\xbd\xe8\x80>'
p461
tp462
Rp463
sS'coets_1740_v1_1_0245'
p464
g2
(g6
S'Y\x99\xedx\xbd\xe8\x80>'
p465
tp466
Rp467
sS'coets_1740_v1_1_0163'
p468
g2
(g6
S')a\xa2\xed\x18\xea\xa0>'
p469
tp470
Rp471
sS'coets_1740_v1_1_0162'
p472
g2
(g6
S')a\xa2\xed\x18\xea\xa0>'
p473
tp474
Rp475
sS'coets_1740_v1_1_0161'
p476
g2
(g6
S')a\xa2\xed\x18\xea\xa0>'
p477
tp478
Rp479
sS'coets_1740_v1_1_0160'
p480
g2
(g6
S'\xbd\x91sd%_\xa9>'
p481
tp482
Rp483
sS'coets_1740_v1_1_0167'
p484
g2
(g6
S')a\xa2\xed\x18\xea\x90>'
p485
tp486
Rp487
sS'coets_1740_v1_1_0166'
p488
g2
(g6
S')a\xa2\xed\x18\xea\x90>'
p489
tp490
Rp491
sS'coets_1740_v1_1_0165'
p492
g2
(g6
S')a\xa2\xed\x18\xea\x90>'
p493
tp494
Rp495
sS'coets_1740_v1_1_0164'
p496
g2
(g6
S')a\xa2\xed\x18\xea\x90>'
p497
tp498
Rp499
sS'coets_1740_v1_1_0169'
p500
g2
(g6
S')a\xa2\xed\x18\xea\xa0>'
p501
tp502
Rp503
sS'coets_1740_v1_1_0168'
p504
g2
(g6
S')a\xa2\xed\x18\xea\x90>'
p505
tp506
Rp507
sS'coets_1740_v1_1_0152'
p508
g2
(g6
S')a\xa2\xed\x18\xea\x80>'
p509
tp510
Rp511
sS'coets_1740_v1_1_0153'
p512
g2
(g6
S')a\xa2\xed\x18\xea\x80>'
p513
tp514
Rp515
sS'coets_1740_v1_1_0019'
p516
g2
(g6
S'\x0f\x00\xcf\x0f\x05\x14\x81>'
p517
tp518
Rp519
sS'coets_1740_v1_1_0018'
p520
g2
(g6
S'\x84\x19\xdc.\x9e\x06\xbb>'
p521
tp522
Rp523
sS'coets_1740_v1_1_0426'
p524
g2
(g6
S'"Wm@]\xec\x90>'
p525
tp526
Rp527
sS'coets_1740_v1_1_0427'
p528
g2
(g6
S'"Wm@]\xec\x80>'
p529
tp530
Rp531
sS'coets_1740_v1_1_0424'
p532
g2
(g6
S'"Wm@]\xec\x80>'
p533
tp534
Rp535
sS'coets_1740_v1_1_0425'
p536
g2
(g6
S'"Wm@]\xec\x80>'
p537
tp538
Rp539
sS'coets_1740_v1_1_0422'
p540
g2
(g6
S'"Wm@]\xec\x80>'
p541
tp542
Rp543
sS'coets_1740_v1_1_0423'
p544
g2
(g6
S'\r=\x8e\x03Y\xa4\x90>'
p545
tp546
Rp547
sS'coets_1740_v1_1_0389'
p548
g2
(g6
S'\r=\x8e\x03Y\xa4\xa0>'
p549
tp550
Rp551
sS'coets_1740_v1_1_0388'
p552
g2
(g6
S'"Wm@]\xec\x90>'
p553
tp554
Rp555
sS'coets_1740_v1_1_0387'
p556
g2
(g6
S'"Wm@]\xec\x90>'
p557
tp558
Rp559
sS'coets_1740_v1_1_0386'
p560
g2
(g6
S'\x84\x19\xdc.\x9e\x06\xbb>'
p561
tp562
Rp563
sS'coets_1740_v1_1_0385'
p564
g2
(g6
S'"Wm@]\xec\x80>'
p565
tp566
Rp567
sS'coets_1740_v1_1_0384'
p568
g2
(g6
S'\x84\x19\xdc.\x9e\x06\xbb>'
p569
tp570
Rp571
sS'coets_1740_v1_1_0383'
p572
g2
(g6
S'"Wm@]\xec\x90>'
p573
tp574
Rp575
sS'coets_1740_v1_1_0382'
p576
g2
(g6
S'\r=\x8e\x03Y\xa4\x80>'
p577
tp578
Rp579
sS'coets_1740_v1_1_0381'
p580
g2
(g6
S'\x92[U\x85\x85\xf6\x98>'
p581
tp582
Rp583
sS'coets_1740_v1_1_0380'
p584
g2
(g6
S'\r=\x8e\x03Y\xa4\x90>'
p585
tp586
Rp587
sS'coets_1740_v1_1_0332'
p588
g2
(g6
S'\xabF]\xe0\xf1\xfb\xa0>'
p589
tp590
Rp591
sS'coets_1740_v1_1_0333'
p592
g2
(g6
S'\xabF]\xe0\xf1\xfb\xa0>'
p593
tp594
Rp595
sS'coets_1740_v1_1_0330'
p596
g2
(g6
S'\xabF]\xe0\xf1\xfb\x90>'
p597
tp598
Rp599
sS'coets_1740_v1_1_0331'
p600
g2
(g6
S'\xabF]\xe0\xf1\xfb\xa0>'
p601
tp602
Rp603
sS'coets_1740_v1_1_0336'
p604
g2
(g6
S'\xabF]\xe0\xf1\xfb\x90>'
p605
tp606
Rp607
sS'coets_1740_v1_1_0337'
p608
g2
(g6
S'\xabF]\xe0\xf1\xfb\x80>'
p609
tp610
Rp611
sS'coets_1740_v1_1_0334'
p612
g2
(g6
S'\xabF]\xe0\xf1\xfb\x80>'
p613
tp614
Rp615
sS'coets_1740_v1_1_0335'
p616
g2
(g6
S'\xabF]\xe0\xf1\xfb\x90>'
p617
tp618
Rp619
sS'coets_1740_v1_1_0338'
p620
g2
(g6
S'\xabF]\xe0\xf1\xfb\x90>'
p621
tp622
Rp623
sS'coets_1740_v1_1_0339'
p624
g2
(g6
S'\xabF]\xe0\xf1\xfb\x80>'
p625
tp626
Rp627
sS'coets_1740_v1_1_0458'
p628
g2
(g6
S'\x84\x19\xdc.\x9e\x06\xbb>'
p629
tp630
Rp631
sS'coets_1740_v1_1_0208'
p632
g2
(g6
S'\x07fd5\x1c]\x99>'
p633
tp634
Rp635
sS'coets_1740_v1_1_0209'
p636
g2
(g6
S'Y\x99\xedx\xbd\xe8\xa0>'
p637
tp638
Rp639
sS'coets_1740_v1_1_0206'
p640
g2
(g6
S'Y\x99\xedx\xbd\xe8\x90>'
p641
tp642
Rp643
sS'coets_1740_v1_1_0207'
p644
g2
(g6
S'\x07fd5\x1c]\xa9>'
p645
tp646
Rp647
sS'coets_1740_v1_1_0204'
p648
g2
(g6
S'Y\x99\xedx\xbd\xe8\x80>'
p649
tp650
Rp651
sS'coets_1740_v1_1_0205'
p652
g2
(g6
S'Y\x99\xedx\xbd\xe8\x90>'
p653
tp654
Rp655
sS'coets_1740_v1_1_0202'
p656
g2
(g6
S'Y\x99\xedx\xbd\xe8\x90>'
p657
tp658
Rp659
sS'coets_1740_v1_1_0203'
p660
g2
(g6
S'Y\x99\xedx\xbd\xe8\xa0>'
p661
tp662
Rp663
sS'coets_1740_v1_1_0200'
p664
g2
(g6
S'Y\x99\xedx\xbd\xe8\xa0>'
p665
tp666
Rp667
sS'coets_1740_v1_1_0201'
p668
g2
(g6
S'Y\x99\xedx\xbd\xe8\xa0>'
p669
tp670
Rp671
sS'coets_1740_v1_1_0291'
p672
g2
(g6
S'\xabF]\xe0\xf1\xfb\x90>'
p673
tp674
Rp675
sS'coets_1740_v1_1_0290'
p676
g2
(g6
S'\xabF]\xe0\xf1\xfb\xa0>'
p677
tp678
Rp679
sS'coets_1740_v1_1_0293'
p680
g2
(g6
S'\xabF]\xe0\xf1\xfb\xa0>'
p681
tp682
Rp683
sS'coets_1740_v1_1_0292'
p684
g2
(g6
S'\xabF]\xe0\xf1\xfb\xa0>'
p685
tp686
Rp687
sS'coets_1740_v1_1_0295'
p688
g2
(g6
S'\xabF]\xe0\xf1\xfb\x90>'
p689
tp690
Rp691
sS'coets_1740_v1_1_0294'
p692
g2
(g6
S'\xabF]\xe0\xf1\xfb\x90>'
p693
tp694
Rp695
sS'coets_1740_v1_1_0297'
p696
g2
(g6
S'\xabF]\xe0\xf1\xfb\xa0>'
p697
tp698
Rp699
sS'coets_1740_v1_1_0296'
p700
g2
(g6
S'\xabF]\xe0\xf1\xfb\x80>'
p701
tp702
Rp703
sS'coets_1740_v1_1_0112'
p704
g2
(g6
S')a\xa2\xed\x18\xea\x90>'
p705
tp706
Rp707
sS'coets_1740_v1_1_0113'
p708
g2
(g6
S'\xbd\x91sd%_\x99>'
p709
tp710
Rp711
sS'coets_1740_v1_1_0110'
p712
g2
(g6
S')a\xa2\xed\x18\xea\x90>'
p713
tp714
Rp715
sS'coets_1740_v1_1_0111'
p716
g2
(g6
S')a\xa2\xed\x18\xea\x90>'
p717
tp718
Rp719
sS'coets_1740_v1_1_0116'
p720
g2
(g6
S')a\xa2\xed\x18\xea\xa0>'
p721
tp722
Rp723
sS'coets_1740_v1_1_0117'
p724
g2
(g6
S')a\xa2\xed\x18\xea\xa0>'
p725
tp726
Rp727
sS'coets_1740_v1_1_0114'
p728
g2
(g6
S')a\xa2\xed\x18\xea\x90>'
p729
tp730
Rp731
sS'coets_1740_v1_1_0115'
p732
g2
(g6
S'\xbd\x91sd%_\x99>'
p733
tp734
Rp735
sS'coets_1740_v1_1_0053'
p736
g2
(g6
S'\x0f\x00\xcf\x0f\x05\x14\x81>'
p737
tp738
Rp739
sS'coets_1740_v1_1_0052'
p740
g2
(g6
S'\x0f\x00\xcf\x0f\x05\x14\x91>'
p741
tp742
Rp743
sS'coets_1740_v1_1_0051'
p744
g2
(g6
S'\x14\xc0\xc2S\x06Y\xa5>'
p745
tp746
Rp747
sS'coets_1740_v1_1_0050'
p748
g2
(g6
S'\x0f\x00\xcf\x0f\x05\x14\x91>'
p749
tp750
Rp751
sS'coets_1740_v1_1_0057'
p752
g2
(g6
S'\x0f\x00\xcf\x0f\x05\x14\xa1>'
p753
tp754
Rp755
sS'coets_1740_v1_1_0056'
p756
g2
(g6
S'\x0f\x00\xcf\x0f\x05\x14\x91>'
p757
tp758
Rp759
sS'coets_1740_v1_1_0055'
p760
g2
(g6
S'\x0f\x00\xcf\x0f\x05\x14\x81>'
p761
tp762
Rp763
sS'coets_1740_v1_1_0054'
p764
g2
(g6
S'\x0f\x00\xcf\x0f\x05\x14\x81>'
p765
tp766
Rp767
sS'coets_1740_v1_1_0059'
p768
g2
(g6
S'\x0f\x00\xcf\x0f\x05\x14\x91>'
p769
tp770
Rp771
sS'coets_1740_v1_1_0058'
p772
g2
(g6
S'\x0f\x00\xcf\x0f\x05\x14\x91>'
p773
tp774
Rp775
sS'coets_1740_v1_1_0118'
p776
g2
(g6
S'\xbd\x91sd%_\x99>'
p777
tp778
Rp779
sS'coets_1740_v1_1_0376'
p780
g2
(g6
S'"Wm@]\xec\x90>'
p781
tp782
Rp783
sS'coets_1740_v1_1_0377'
p784
g2
(g6
S'"Wm@]\xec\x90>'
p785
tp786
Rp787
sS'coets_1740_v1_1_0374'
p788
g2
(g6
S'"Wm@]\xec\x80>'
p789
tp790
Rp791
sS'coets_1740_v1_1_0119'
p792
g2
(g6
S'\xbd\x91sd%_\xa9>'
p793
tp794
Rp795
sS'coets_1740_v1_1_0372'
p796
g2
(g6
S'"Wm@]\xec\x80>'
p797
tp798
Rp799
sS'coets_1740_v1_1_0373'
p800
g2
(g6
S'"Wm@]\xec\x80>'
p801
tp802
Rp803
sS'coets_1740_v1_1_0370'
p804
g2
(g6
S'"Wm@]\xec\x80>'
p805
tp806
Rp807
sS'coets_1740_v1_1_0371'
p808
g2
(g6
S'\xb3\x02\xa4\xe0\x8bb\x99>'
p809
tp810
Rp811
sS'coets_1740_v1_1_0378'
p812
g2
(g6
S'"Wm@]\xec\x90>'
p813
tp814
Rp815
sS'coets_1740_v1_1_0379'
p816
g2
(g6
S'"Wm@]\xec\x90>'
p817
tp818
Rp819
sS'coets_1740_v1_1_0299'
p820
g2
(g6
S'\xabF]\xe0\xf1\xfb\x90>'
p821
tp822
Rp823
sS'coets_1740_v1_1_0189'
p824
g2
(g6
S'Y\x99\xedx\xbd\xe8\xa0>'
p825
tp826
Rp827
sS'coets_1740_v1_1_0188'
p828
g2
(g6
S"\xa5\r'\xe9n\x92\xa0>"
p829
tp830
Rp831
sS'coets_1740_v1_1_0298'
p832
g2
(g6
S'\xabF]\xe0\xf1\xfb\x80>'
p833
tp834
Rp835
sS'coets_1740_v1_1_0185'
p836
g2
(g6
S'\x07fd5\x1c]\x99>'
p837
tp838
Rp839
sS'coets_1740_v1_1_0184'
p840
g2
(g6
S'Y\x99\xedx\xbd\xe8\xa0>'
p841
tp842
Rp843
sS'coets_1740_v1_1_0187'
p844
g2
(g6
S'Y\x99\xedx\xbd\xe8\xa0>'
p845
tp846
Rp847
sS'coets_1740_v1_1_0186'
p848
g2
(g6
S'\x07fd5\x1c]\xa9>'
p849
tp850
Rp851
sS'coets_1740_v1_1_0181'
p852
g2
(g6
S'\xbd\x91sd%_\x99>'
p853
tp854
Rp855
sS'coets_1740_v1_1_0180'
p856
g2
(g6
S')a\xa2\xed\x18\xea\x80>'
p857
tp858
Rp859
sS'coets_1740_v1_1_0183'
p860
g2
(g6
S'Y\x99\xedx\xbd\xe8\x80>'
p861
tp862
Rp863
sS'coets_1740_v1_1_0182'
p864
g2
(g6
S')a\xa2\xed\x18\xea\xa0>'
p865
tp866
Rp867
sS'coets_1740_v1_1_0440'
p868
g2
(g6
S'"Wm@]\xec\x90>'
p869
tp870
Rp871
sS'coets_1740_v1_1_0255'
p872
g2
(g6
S'\x07fd5\x1c]\x99>'
p873
tp874
Rp875
sS'coets_1740_v1_1_0254'
p876
g2
(g6
S'Y\x99\xedx\xbd\xe8\x90>'
p877
tp878
Rp879
sS'coets_1740_v1_1_0257'
p880
g2
(g6
S'Y\x99\xedx\xbd\xe8\xa0>'
p881
tp882
Rp883
sS'coets_1740_v1_1_0256'
p884
g2
(g6
S'Y\x99\xedx\xbd\xe8\x90>'
p885
tp886
Rp887
sS'coets_1740_v1_1_0251'
p888
g2
(g6
S'Y\x99\xedx\xbd\xe8\xa0>'
p889
tp890
Rp891
sS'coets_1740_v1_1_0250'
p892
g2
(g6
S"\xa5\r'\xe9n\x92\x80>"
p893
tp894
Rp895
sS'coets_1740_v1_1_0253'
p896
g2
(g6
S'Y\x99\xedx\xbd\xe8\xa0>'
p897
tp898
Rp899
sS'coets_1740_v1_1_0159'
p900
g2
(g6
S')a\xa2\xed\x18\xea\xa0>'
p901
tp902
Rp903
sS'coets_1740_v1_1_0156'
p904
g2
(g6
S')a\xa2\xed\x18\xea\x80>'
p905
tp906
Rp907
sS'coets_1740_v1_1_0157'
p908
g2
(g6
S't\xd5\xc4\xb0\xebt\xa0>'
p909
tp910
Rp911
sS'coets_1740_v1_1_0154'
p912
g2
(g6
S')a\xa2\xed\x18\xea\x90>'
p913
tp914
Rp915
sS'coets_1740_v1_1_0155'
p916
g2
(g6
S't\xd5\xc4\xb0\xebt\x80>'
p917
tp918
Rp919
sS'coets_1740_v1_1_0259'
p920
g2
(g6
S'Y\x99\xedx\xbd\xe8\xa0>'
p921
tp922
Rp923
sS'coets_1740_v1_1_0258'
p924
g2
(g6
S'Y\x99\xedx\xbd\xe8\x90>'
p925
tp926
Rp927
sS'coets_1740_v1_1_0150'
p928
g2
(g6
S'\xbd\x91sd%_\x99>'
p929
tp930
Rp931
sS'coets_1740_v1_1_0151'
p932
g2
(g6
S')a\xa2\xed\x18\xea\x80>'
p933
tp934
Rp935
sS'coets_1740_v1_1_0028'
p936
g2
(g6
S'\x0f\x00\xcf\x0f\x05\x14\xa1>'
p937
tp938
Rp939
sS'coets_1740_v1_1_0029'
p940
g2
(g6
S'\x16\x80\xb6\x97\x07\x9e\x99>'
p941
tp942
Rp943
sS'coets_1740_v1_1_0022'
p944
g2
(g6
S'\x0f\x00\xcf\x0f\x05\x14\x91>'
p945
tp946
Rp947
sS'coets_1740_v1_1_0023'
p948
g2
(g6
S'\x0f\x00\xcf\x0f\x05\x14\x91>'
p949
tp950
Rp951
sS'coets_1740_v1_1_0020'
p952
g2
(g6
S'\x17\x80\xb6\x97\x07\x9e\x99>'
p953
tp954
Rp955
sS'coets_1740_v1_1_0021'
p956
g2
(g6
S'\x0f\x00\xcf\x0f\x05\x14\x81>'
p957
tp958
Rp959
sS'coets_1740_v1_1_0026'
p960
g2
(g6
S'\x0f\x00\xcf\x0f\x05\x14\x91>'
p961
tp962
Rp963
sS'coets_1740_v1_1_0027'
p964
g2
(g6
S'\x0f\x00\xcf\x0f\x05\x14\x91>'
p965
tp966
Rp967
sS'coets_1740_v1_1_0024'
p968
g2
(g6
S'\x0f\x00\xcf\x0f\x05\x14\x91>'
p969
tp970
Rp971
sS'coets_1740_v1_1_0025'
p972
g2
(g6
S'\x17\x80\xb6\x97\x07\x9e\x99>'
p973
tp974
Rp975
sS'coets_1740_v1_1_0431'
p976
g2
(g6
S'\x84\x19\xdc.\x9e\x06\xbb>'
p977
tp978
Rp979
sS'coets_1740_v1_1_0430'
p980
g2
(g6
S'"Wm@]\xec\x80>'
p981
tp982
Rp983
sS'coets_1740_v1_1_0433'
p984
g2
(g6
S'"Wm@]\xec\x80>'
p985
tp986
Rp987
sS'coets_1740_v1_1_0432'
p988
g2
(g6
S'"Wm@]\xec\x80>'
p989
tp990
Rp991
sS'coets_1740_v1_1_0435'
p992
g2
(g6
S'\xb3\x02\xa4\xe0\x8bb\x99>'
p993
tp994
Rp995
sS'coets_1740_v1_1_0434'
p996
g2
(g6
S'"Wm@]\xec\x80>'
p997
tp998
Rp999
sS'coets_1740_v1_1_0437'
p1000
g2
(g6
S'\x84\x19\xdc.\x9e\x06\xbb>'
p1001
tp1002
Rp1003
sS'coets_1740_v1_1_0436'
p1004
g2
(g6
S'"Wm@]\xec\x80>'
p1005
tp1006
Rp1007
sS'coets_1740_v1_1_0439'
p1008
g2
(g6
S'\r=\x8e\x03Y\xa4\x90>'
p1009
tp1010
Rp1011
sS'coets_1740_v1_1_0438'
p1012
g2
(g6
S'"Wm@]\xec\x90>'
p1013
tp1014
Rp1015
sS'coets_1740_v1_1_0441'
p1016
g2
(g6
S'"Wm@]\xec\x80>'
p1017
tp1018
Rp1019
sS'coets_1740_v1_1_0444'
p1020
g2
(g6
S'\x84\x19\xdc.\x9e\x06\xbb>'
p1021
tp1022
Rp1023
sS'coets_1740_v1_1_0445'
p1024
g2
(g6
S'\r=\x8e\x03Y\xa4\x80>'
p1025
tp1026
Rp1027
sS'coets_1740_v1_1_0446'
p1028
g2
(g6
S'"Wm@]\xec\x80>'
p1029
tp1030
Rp1031
sS'coets_1740_v1_1_0447'
p1032
g2
(g6
S'"Wm@]\xec\x80>'
p1033
tp1034
Rp1035
sS'coets_1740_v1_1_0329'
p1036
g2
(g6
S'\x01\xea\x8b\xd0\xeay\x99>'
p1037
tp1038
Rp1039
sS'coets_1740_v1_1_0328'
p1040
g2
(g6
S'\xabF]\xe0\xf1\xfb\x90>'
p1041
tp1042
Rp1043
sS'coets_1740_v1_1_0442'
p1044
g2
(g6
S'"Wm@]\xec\x80>'
p1045
tp1046
Rp1047
sS'coets_1740_v1_1_0443'
p1048
g2
(g6
S'\r=\x8e\x03Y\xa4\x90>'
p1049
tp1050
Rp1051
sS'coets_1740_v1_1_0325'
p1052
g2
(g6
S'\xabF]\xe0\xf1\xfb\x90>'
p1053
tp1054
Rp1055
sS'coets_1740_v1_1_0324'
p1056
g2
(g6
S'\xabF]\xe0\xf1\xfb\xa0>'
p1057
tp1058
Rp1059
sS'coets_1740_v1_1_0327'
p1060
g2
(g6
S'u|%\xd0\xd3\x94\xa0>'
p1061
tp1062
Rp1063
sS'coets_1740_v1_1_0326'
p1064
g2
(g6
S'\xabF]\xe0\xf1\xfb\x80>'
p1065
tp1066
Rp1067
sS'coets_1740_v1_1_0321'
p1068
g2
(g6
S'\xff\xe9\x8b\xd0\xeay\xa9>'
p1069
tp1070
Rp1071
sS'coets_1740_v1_1_0320'
p1072
g2
(g6
S'\xabF]\xe0\xf1\xfb\x90>'
p1073
tp1074
Rp1075
sS'coets_1740_v1_1_0323'
p1076
g2
(g6
S'\xabF]\xe0\xf1\xfb\x90>'
p1077
tp1078
Rp1079
sS'coets_1740_v1_1_0322'
p1080
g2
(g6
S'\xabF]\xe0\xf1\xfb\xa0>'
p1081
tp1082
Rp1083
sS'coets_1740_v1_1_0448'
p1084
g2
(g6
S'"Wm@]\xec\x80>'
p1085
tp1086
Rp1087
sS'coets_1740_v1_1_0449'
p1088
g2
(g6
S'"Wm@]\xec\x90>'
p1089
tp1090
Rp1091
sS'coets_1740_v1_1_0219'
p1092
g2
(g6
S'Y\x99\xedx\xbd\xe8\x90>'
p1093
tp1094
Rp1095
sS'coets_1740_v1_1_0218'
p1096
g2
(g6
S'Y\x99\xedx\xbd\xe8\xa0>'
p1097
tp1098
Rp1099
sS'coets_1740_v1_1_0211'
p1100
g2
(g6
S'Y\x99\xedx\xbd\xe8\x90>'
p1101
tp1102
Rp1103
sS'coets_1740_v1_1_0210'
p1104
g2
(g6
S'Y\x99\xedx\xbd\xe8\xa0>'
p1105
tp1106
Rp1107
sS'coets_1740_v1_1_0213'
p1108
g2
(g6
S'Y\x99\xedx\xbd\xe8\x90>'
p1109
tp1110
Rp1111
sS'coets_1740_v1_1_0212'
p1112
g2
(g6
S'Y\x99\xedx\xbd\xe8\x90>'
p1113
tp1114
Rp1115
sS'coets_1740_v1_1_0215'
p1116
g2
(g6
S'Y\x99\xedx\xbd\xe8\xa0>'
p1117
tp1118
Rp1119
sS'coets_1740_v1_1_0214'
p1120
g2
(g6
S"\xa5\r'\xe9n\x92\x80>"
p1121
tp1122
Rp1123
sS'coets_1740_v1_1_0217'
p1124
g2
(g6
S'Y\x99\xedx\xbd\xe8\xa0>'
p1125
tp1126
Rp1127
sS'coets_1740_v1_1_0216'
p1128
g2
(g6
S'Y\x99\xedx\xbd\xe8\x90>'
p1129
tp1130
Rp1131
sS'coets_1740_v1_1_0375'
p1132
g2
(g6
S'"Wm@]\xec\x90>'
p1133
tp1134
Rp1135
sS'coets_1740_v1_1_0268'
p1136
g2
(g6
S'Y\x99\xedx\xbd\xe8\xa0>'
p1137
tp1138
Rp1139
sS'coets_1740_v1_1_0269'
p1140
g2
(g6
S"\xa5\r'\xe9n\x92\x90>"
p1141
tp1142
Rp1143
sS'coets_1740_v1_1_0264'
p1144
g2
(g6
S"\xa5\r'\xe9n\x92\x90>"
p1145
tp1146
Rp1147
sS'coets_1740_v1_1_0265'
p1148
g2
(g6
S'Y\x99\xedx\xbd\xe8\xa0>'
p1149
tp1150
Rp1151
sS'coets_1740_v1_1_0266'
p1152
g2
(g6
S'Y\x99\xedx\xbd\xe8\x90>'
p1153
tp1154
Rp1155
sS'coets_1740_v1_1_0267'
p1156
g2
(g6
S'\x07fd5\x1c]\x99>'
p1157
tp1158
Rp1159
sS'coets_1740_v1_1_0260'
p1160
g2
(g6
S'Y\x99\xedx\xbd\xe8\x80>'
p1161
tp1162
Rp1163
sS'coets_1740_v1_1_0261'
p1164
g2
(g6
S'Y\x99\xedx\xbd\xe8\xa0>'
p1165
tp1166
Rp1167
sS'coets_1740_v1_1_0262'
p1168
g2
(g6
S'Y\x99\xedx\xbd\xe8\x80>'
p1169
tp1170
Rp1171
sS'coets_1740_v1_1_0263'
p1172
g2
(g6
S'Y\x99\xedx\xbd\xe8\xa0>'
p1173
tp1174
Rp1175
sS'coets_1740_v1_1_0105'
p1176
g2
(g6
S')a\xa2\xed\x18\xea\xa0>'
p1177
tp1178
Rp1179
sS'coets_1740_v1_1_0104'
p1180
g2
(g6
S')a\xa2\xed\x18\xea\x90>'
p1181
tp1182
Rp1183
sS'coets_1740_v1_1_0107'
p1184
g2
(g6
S')a\xa2\xed\x18\xea\xa0>'
p1185
tp1186
Rp1187
sS'coets_1740_v1_1_0106'
p1188
g2
(g6
S')a\xa2\xed\x18\xea\xa0>'
p1189
tp1190
Rp1191
sS'coets_1740_v1_1_0101'
p1192
g2
(g6
S')a\xa2\xed\x18\xea\xa0>'
p1193
tp1194
Rp1195
sS'coets_1740_v1_1_0100'
p1196
g2
(g6
S')a\xa2\xed\x18\xea\xa0>'
p1197
tp1198
Rp1199
sS'coets_1740_v1_1_0103'
p1200
g2
(g6
S')a\xa2\xed\x18\xea\x90>'
p1201
tp1202
Rp1203
sS'coets_1740_v1_1_0102'
p1204
g2
(g6
S')a\xa2\xed\x18\xea\xa0>'
p1205
tp1206
Rp1207
sS'coets_1740_v1_1_0066'
p1208
g2
(g6
S'\x0f\x00\xcf\x0f\x05\x14\xa1>'
p1209
tp1210
Rp1211
sS'coets_1740_v1_1_0067'
p1212
g2
(g6
S'\x0f\x00\xcf\x0f\x05\x14\x81>'
p1213
tp1214
Rp1215
sS'coets_1740_v1_1_0064'
p1216
g2
(g6
S'\xe6\xa5\x9b\xc9i\x83\xa0>'
p1217
tp1218
Rp1219
sS'coets_1740_v1_1_0065'
p1220
g2
(g6
S'\x0f\x00\xcf\x0f\x05\x14\xa1>'
p1221
tp1222
Rp1223
sS'coets_1740_v1_1_0062'
p1224
g2
(g6
S'\x0f\x00\xcf\x0f\x05\x14\x81>'
p1225
tp1226
Rp1227
sS'coets_1740_v1_1_0063'
p1228
g2
(g6
S'\x0f\x00\xcf\x0f\x05\x14\xa1>'
p1229
tp1230
Rp1231
sS'coets_1740_v1_1_0060'
p1232
g2
(g6
S'\x0f\x00\xcf\x0f\x05\x14\x91>'
p1233
tp1234
Rp1235
sS'coets_1740_v1_1_0061'
p1236
g2
(g6
S'\x16\x80\xb6\x97\x07\x9e\x99>'
p1237
tp1238
Rp1239
sS'coets_1740_v1_1_0408'
p1240
g2
(g6
S'"Wm@]\xec\x90>'
p1241
tp1242
Rp1243
sS'coets_1740_v1_1_0409'
p1244
g2
(g6
S'\r=\x8e\x03Y\xa4\x90>'
p1245
tp1246
Rp1247
sS'coets_1740_v1_1_0400'
p1248
g2
(g6
S'\r=\x8e\x03Y\xa4\xa0>'
p1249
tp1250
Rp1251
sS'coets_1740_v1_1_0401'
p1252
g2
(g6
S'\x84\x19\xdc.\x9e\x06\xbb>'
p1253
tp1254
Rp1255
sS'coets_1740_v1_1_0402'
p1256
g2
(g6
S'\r=\x8e\x03Y\xa4\x90>'
p1257
tp1258
Rp1259
sS'coets_1740_v1_1_0403'
p1260
g2
(g6
S'\r=\x8e\x03Y\xa4\xa0>'
p1261
tp1262
Rp1263
sS'coets_1740_v1_1_0404'
p1264
g2
(g6
S'"Wm@]\xec\xa0>'
p1265
tp1266
Rp1267
sS'coets_1740_v1_1_0405'
p1268
g2
(g6
S'\r=\x8e\x03Y\xa4\x90>'
p1269
tp1270
Rp1271
sS'coets_1740_v1_1_0406'
p1272
g2
(g6
S'"Wm@]\xec\x90>'
p1273
tp1274
Rp1275
sS'coets_1740_v1_1_0407'
p1276
g2
(g6
S'"Wm@]\xec\x90>'
p1277
tp1278
Rp1279
sS'coets_1740_v1_1_0361'
p1280
g2
(g6
S'\xabF]\xe0\xf1\xfb\x90>'
p1281
tp1282
Rp1283
sS'coets_1740_v1_1_0360'
p1284
g2
(g6
S'\xabF]\xe0\xf1\xfb\x90>'
p1285
tp1286
Rp1287
sS'coets_1740_v1_1_0363'
p1288
g2
(g6
S'\xabF]\xe0\xf1\xfb\xa0>'
p1289
tp1290
Rp1291
sS'coets_1740_v1_1_0362'
p1292
g2
(g6
S'\xabF]\xe0\xf1\xfb\xa0>'
p1293
tp1294
Rp1295
sS'coets_1740_v1_1_0365'
p1296
g2
(g6
S'\xabF]\xe0\xf1\xfb\xa0>'
p1297
tp1298
Rp1299
sS'coets_1740_v1_1_0364'
p1300
g2
(g6
S'\xabF]\xe0\xf1\xfb\xa0>'
p1301
tp1302
Rp1303
sS'coets_1740_v1_1_0367'
p1304
g2
(g6
S'\xabF]\xe0\xf1\xfb\x80>'
p1305
tp1306
Rp1307
sS'coets_1740_v1_1_0366'
p1308
g2
(g6
S'\xabF]\xe0\xf1\xfb\x90>'
p1309
tp1310
Rp1311
sS'coets_1740_v1_1_0369'
p1312
g2
(g6
S'"Wm@]\xec\x90>'
p1313
tp1314
Rp1315
sS'coets_1740_v1_1_0368'
p1316
g2
(g6
S'\xabF]\xe0\xf1\xfb\x90>'
p1317
tp1318
Rp1319
sS'coets_1740_v1_1_0314'
p1320
g2
(g6
S'\xff\xe9\x8b\xd0\xeay\x99>'
p1321
tp1322
Rp1323
sS'coets_1740_v1_1_0315'
p1324
g2
(g6
S'\xabF]\xe0\xf1\xfb\x80>'
p1325
tp1326
Rp1327
sS'coets_1740_v1_1_0316'
p1328
g2
(g6
S'\xabF]\xe0\xf1\xfb\xa0>'
p1329
tp1330
Rp1331
sS'coets_1740_v1_1_0317'
p1332
g2
(g6
S'\xff\xe9\x8b\xd0\xeay\x99>'
p1333
tp1334
Rp1335
sS'coets_1740_v1_1_0310'
p1336
g2
(g6
S'\xabF]\xe0\xf1\xfb\xa0>'
p1337
tp1338
Rp1339
sS'coets_1740_v1_1_0311'
p1340
g2
(g6
S'\xabF]\xe0\xf1\xfb\xa0>'
p1341
tp1342
Rp1343
sS'coets_1740_v1_1_0312'
p1344
g2
(g6
S'\xabF]\xe0\xf1\xfb\x90>'
p1345
tp1346
Rp1347
sS'coets_1740_v1_1_0313'
p1348
g2
(g6
S'\xabF]\xe0\xf1\xfb\x90>'
p1349
tp1350
Rp1351
sS'coets_1740_v1_1_0421'
p1352
g2
(g6
S'\x84\x19\xdc.\x9e\x06\xbb>'
p1353
tp1354
Rp1355
sS'coets_1740_v1_1_0318'
p1356
g2
(g6
S'\xff\xe9\x8b\xd0\xeay\x99>'
p1357
tp1358
Rp1359
sS'coets_1740_v1_1_0319'
p1360
g2
(g6
S'\xabF]\xe0\xf1\xfb\x90>'
p1361
tp1362
Rp1363
sS'coets_1740_v1_1_0129'
p1364
g2
(g6
S'\xbd\x91sd%_\x99>'
p1365
tp1366
Rp1367
sS'coets_1740_v1_1_0128'
p1368
g2
(g6
S')a\xa2\xed\x18\xea\x90>'
p1369
tp1370
Rp1371
sS'coets_1740_v1_1_0084'
p1372
g2
(g6
S')a\xa2\xed\x18\xea\xa0>'
p1373
tp1374
Rp1375
sS'coets_1740_v1_1_0085'
p1376
g2
(g6
S')a\xa2\xed\x18\xea\x90>'
p1377
tp1378
Rp1379
sS'coets_1740_v1_1_0086'
p1380
g2
(g6
S')a\xa2\xed\x18\xea\xa0>'
p1381
tp1382
Rp1383
sS'coets_1740_v1_1_0087'
p1384
g2
(g6
S')a\xa2\xed\x18\xea\xa0>'
p1385
tp1386
Rp1387
sS'coets_1740_v1_1_0080'
p1388
g2
(g6
S'\xe6\xa5\x9b\xc9i\x83\x90>'
p1389
tp1390
Rp1391
sS'coets_1740_v1_1_0081'
p1392
g2
(g6
S'\x0f\x00\xcf\x0f\x05\x14\xa1>'
p1393
tp1394
Rp1395
sS'coets_1740_v1_1_0082'
p1396
g2
(g6
S'\x0f\x00\xcf\x0f\x05\x14\x91>'
p1397
tp1398
Rp1399
sS'coets_1740_v1_1_0083'
p1400
g2
(g6
S')a\xa2\xed\x18\xea\x90>'
p1401
tp1402
Rp1403
sS'coets_1740_v1_1_0429'
p1404
g2
(g6
S'"Wm@]\xec\x80>'
p1405
tp1406
Rp1407
sS'coets_1740_v1_1_0088'
p1408
g2
(g6
S')a\xa2\xed\x18\xea\x90>'
p1409
tp1410
Rp1411
sS'coets_1740_v1_1_0089'
p1412
g2
(g6
S')a\xa2\xed\x18\xea\x90>'
p1413
tp1414
Rp1415
sS'coets_1740_v1_1_0121'
p1416
g2
(g6
S')a\xa2\xed\x18\xea\xa0>'
p1417
tp1418
Rp1419
sS'coets_1740_v1_1_0289'
p1420
g2
(g6
S'\xabF]\xe0\xf1\xfb\x80>'
p1421
tp1422
Rp1423
sS'coets_1740_v1_1_0149'
p1424
g2
(g6
S')a\xa2\xed\x18\xea\x90>'
p1425
tp1426
Rp1427
sS'coets_1740_v1_1_0148'
p1428
g2
(g6
S')a\xa2\xed\x18\xea\x80>'
p1429
tp1430
Rp1431
sS'coets_1740_v1_1_0222'
p1432
g2
(g6
S'Y\x99\xedx\xbd\xe8\xa0>'
p1433
tp1434
Rp1435
sS'coets_1740_v1_1_0223'
p1436
g2
(g6
S'Y\x99\xedx\xbd\xe8\xa0>'
p1437
tp1438
Rp1439
sS'coets_1740_v1_1_0224'
p1440
g2
(g6
S'Y\x99\xedx\xbd\xe8\x80>'
p1441
tp1442
Rp1443
sS'coets_1740_v1_1_0225'
p1444
g2
(g6
S'Y\x99\xedx\xbd\xe8\xa0>'
p1445
tp1446
Rp1447
sS'coets_1740_v1_1_0226'
p1448
g2
(g6
S'\x07fd5\x1c]\x99>'
p1449
tp1450
Rp1451
sS'coets_1740_v1_1_0227'
p1452
g2
(g6
S'Y\x99\xedx\xbd\xe8\x90>'
p1453
tp1454
Rp1455
sS'coets_1740_v1_1_0141'
p1456
g2
(g6
S')a\xa2\xed\x18\xea\x90>'
p1457
tp1458
Rp1459
sS'coets_1740_v1_1_0140'
p1460
g2
(g6
S')a\xa2\xed\x18\xea\x90>'
p1461
tp1462
Rp1463
sS'coets_1740_v1_1_0143'
p1464
g2
(g6
S'\x84\x19\xdc.\x9e\x06\xbb>'
p1465
tp1466
Rp1467
sS'coets_1740_v1_1_0142'
p1468
g2
(g6
S')a\xa2\xed\x18\xea\xa0>'
p1469
tp1470
Rp1471
sS'coets_1740_v1_1_0145'
p1472
g2
(g6
S')a\xa2\xed\x18\xea\x90>'
p1473
tp1474
Rp1475
sS'coets_1740_v1_1_0144'
p1476
g2
(g6
S't\xd5\xc4\xb0\xebt\x90>'
p1477
tp1478
Rp1479
sS'coets_1740_v1_1_0147'
p1480
g2
(g6
S'\xbd\x91sd%_\x99>'
p1481
tp1482
Rp1483
sS'coets_1740_v1_1_0146'
p1484
g2
(g6
S')a\xa2\xed\x18\xea\x90>'
p1485
tp1486
Rp1487
sS'coets_1740_v1_1_0138'
p1488
g2
(g6
S')a\xa2\xed\x18\xea\xa0>'
p1489
tp1490
Rp1491
sS'coets_1740_v1_1_0139'
p1492
g2
(g6
S')a\xa2\xed\x18\xea\xa0>'
p1493
tp1494
Rp1495
sS'coets_1740_v1_1_0134'
p1496
g2
(g6
S'\xbd\x91sd%_\x99>'
p1497
tp1498
Rp1499
sS'coets_1740_v1_1_0135'
p1500
g2
(g6
S')a\xa2\xed\x18\xea\x90>'
p1501
tp1502
Rp1503
sS'coets_1740_v1_1_0136'
p1504
g2
(g6
S'\xbd\x91sd%_\x99>'
p1505
tp1506
Rp1507
sS'coets_1740_v1_1_0137'
p1508
g2
(g6
S'\xbd\x91sd%_\x99>'
p1509
tp1510
Rp1511
sS'coets_1740_v1_1_0130'
p1512
g2
(g6
S't\xd5\xc4\xb0\xebt\x90>'
p1513
tp1514
Rp1515
sS'coets_1740_v1_1_0131'
p1516
g2
(g6
S')a\xa2\xed\x18\xea\xa0>'
p1517
tp1518
Rp1519
sS'coets_1740_v1_1_0132'
p1520
g2
(g6
S't\xd5\xc4\xb0\xebt\x80>'
p1521
tp1522
Rp1523
sS'coets_1740_v1_1_0133'
p1524
g2
(g6
S')a\xa2\xed\x18\xea\xa0>'
p1525
tp1526
Rp1527
sS'coets_1740_v1_1_0035'
p1528
g2
(g6
S'\x0f\x00\xcf\x0f\x05\x14\x91>'
p1529
tp1530
Rp1531
sS'coets_1740_v1_1_0034'
p1532
g2
(g6
S'\x0f\x00\xcf\x0f\x05\x14\x91>'
p1533
tp1534
Rp1535
sS'coets_1740_v1_1_0037'
p1536
g2
(g6
S'\x0f\x00\xcf\x0f\x05\x14\x81>'
p1537
tp1538
Rp1539
sS'coets_1740_v1_1_0036'
p1540
g2
(g6
S'\x0f\x00\xcf\x0f\x05\x14\x81>'
p1541
tp1542
Rp1543
sS'coets_1740_v1_1_0031'
p1544
g2
(g6
S'\x0f\x00\xcf\x0f\x05\x14\x91>'
p1545
tp1546
Rp1547
sS'coets_1740_v1_1_0030'
p1548
g2
(g6
S'\x0f\x00\xcf\x0f\x05\x14\x81>'
p1549
tp1550
Rp1551
sS'coets_1740_v1_1_0033'
p1552
g2
(g6
S'\x0f\x00\xcf\x0f\x05\x14\x81>'
p1553
tp1554
Rp1555
sS'coets_1740_v1_1_0032'
p1556
g2
(g6
S'\x0f\x00\xcf\x0f\x05\x14\xa1>'
p1557
tp1558
Rp1559
sS'coets_1740_v1_1_0039'
p1560
g2
(g6
S'\x0f\x00\xcf\x0f\x05\x14\xa1>'
p1561
tp1562
Rp1563
sS'coets_1740_v1_1_0038'
p1564
g2
(g6
S'\x0f\x00\xcf\x0f\x05\x14\x91>'
p1565
tp1566
Rp1567
sS'coets_1740_v1_1_0079'
p1568
g2
(g6
S'\x0f\x00\xcf\x0f\x05\x14\xa1>'
p1569
tp1570
Rp1571
sS'coets_1740_v1_1_0078'
p1572
g2
(g6
S'\x0f\x00\xcf\x0f\x05\x14\x91>'
p1573
tp1574
Rp1575
sS'coets_1740_v1_1_0358'
p1576
g2
(g6
S'\xabF]\xe0\xf1\xfb\x80>'
p1577
tp1578
Rp1579
sS'coets_1740_v1_1_0359'
p1580
g2
(g6
S'\xabF]\xe0\xf1\xfb\xa0>'
p1581
tp1582
Rp1583
sS'coets_1740_v1_1_0455'
p1584
g2
(g6
S'"Wm@]\xec\x90>'
p1585
tp1586
Rp1587
sS'coets_1740_v1_1_0454'
p1588
g2
(g6
S'"Wm@]\xec\x80>'
p1589
tp1590
Rp1591
sS'coets_1740_v1_1_0453'
p1592
g2
(g6
S'"Wm@]\xec\x80>'
p1593
tp1594
Rp1595
sS'coets_1740_v1_1_0452'
p1596
g2
(g6
S'"Wm@]\xec\x80>'
p1597
tp1598
Rp1599
sS'coets_1740_v1_1_0451'
p1600
g2
(g6
S'\r=\x8e\x03Y\xa4\x80>'
p1601
tp1602
Rp1603
sS'coets_1740_v1_1_0450'
p1604
g2
(g6
S'"Wm@]\xec\x90>'
p1605
tp1606
Rp1607
sS'coets_1740_v1_1_0350'
p1608
g2
(g6
S'\xabF]\xe0\xf1\xfb\xa0>'
p1609
tp1610
Rp1611
sS'coets_1740_v1_1_0351'
p1612
g2
(g6
S'\xabF]\xe0\xf1\xfb\xa0>'
p1613
tp1614
Rp1615
sS'coets_1740_v1_1_0352'
p1616
g2
(g6
S'\xabF]\xe0\xf1\xfb\x90>'
p1617
tp1618
Rp1619
sS'coets_1740_v1_1_0353'
p1620
g2
(g6
S'\xabF]\xe0\xf1\xfb\xa0>'
p1621
tp1622
Rp1623
sS'coets_1740_v1_1_0354'
p1624
g2
(g6
S'\xabF]\xe0\xf1\xfb\x90>'
p1625
tp1626
Rp1627
sS'coets_1740_v1_1_0355'
p1628
g2
(g6
S'\xabF]\xe0\xf1\xfb\x90>'
p1629
tp1630
Rp1631
sS'coets_1740_v1_1_0356'
p1632
g2
(g6
S'\xabF]\xe0\xf1\xfb\x90>'
p1633
tp1634
Rp1635
sS'coets_1740_v1_1_0357'
p1636
g2
(g6
S'\xabF]\xe0\xf1\xfb\x90>'
p1637
tp1638
Rp1639
sS'coets_1740_v1_1_0071'
p1640
g2
(g6
S'\x0f\x00\xcf\x0f\x05\x14\x81>'
p1641
tp1642
Rp1643
sS'coets_1740_v1_1_0070'
p1644
g2
(g6
S'\x0f\x00\xcf\x0f\x05\x14\xa1>'
p1645
tp1646
Rp1647
sS'coets_1740_v1_1_0220'
p1648
g2
(g6
S'Y\x99\xedx\xbd\xe8\xa0>'
p1649
tp1650
Rp1651
sS'coets_1740_v1_1_0221'
p1652
g2
(g6
S'Y\x99\xedx\xbd\xe8\xa0>'
p1653
tp1654
Rp1655
sS'coets_1740_v1_1_0228'
p1656
g2
(g6
S'Y\x99\xedx\xbd\xe8\xa0>'
p1657
tp1658
Rp1659
sS'coets_1740_v1_1_0229'
p1660
g2
(g6
S'Y\x99\xedx\xbd\xe8\xa0>'
p1661
tp1662
Rp1663
sS'coets_1740_v1_1_0420'
p1664
g2
(g6
S'\r=\x8e\x03Y\xa4\x90>'
p1665
tp1666
Rp1667
sS'coets_1740_v1_1_0279'
p1668
g2
(g6
S'\xabF]\xe0\xf1\xfb\x90>'
p1669
tp1670
Rp1671
sS'coets_1740_v1_1_0278'
p1672
g2
(g6
S'\xabF]\xe0\xf1\xfb\x80>'
p1673
tp1674
Rp1675
sS'coets_1740_v1_1_0277'
p1676
g2
(g6
S'\xabF]\xe0\xf1\xfb\xa0>'
p1677
tp1678
Rp1679
sS'coets_1740_v1_1_0276'
p1680
g2
(g6
S'u|%\xd0\xd3\x94\x80>'
p1681
tp1682
Rp1683
sS'coets_1740_v1_1_0275'
p1684
g2
(g6
S'\xabF]\xe0\xf1\xfb\x90>'
p1685
tp1686
Rp1687
sS'coets_1740_v1_1_0274'
p1688
g2
(g6
S'\x01\xea\x8b\xd0\xeay\x99>'
p1689
tp1690
Rp1691
sS'coets_1740_v1_1_0273'
p1692
g2
(g6
S'\xabF]\xe0\xf1\xfb\x80>'
p1693
tp1694
Rp1695
sS'coets_1740_v1_1_0272'
p1696
g2
(g6
S'Y\x99\xedx\xbd\xe8\x90>'
p1697
tp1698
Rp1699
sS'coets_1740_v1_1_0271'
p1700
g2
(g6
S'Y\x99\xedx\xbd\xe8\x90>'
p1701
tp1702
Rp1703
sS'coets_1740_v1_1_0270'
p1704
g2
(g6
S'Y\x99\xedx\xbd\xe8\xa0>'
p1705
tp1706
Rp1707
sS'coets_1740_v1_1_0170'
p1708
g2
(g6
S')a\xa2\xed\x18\xea\x90>'
p1709
tp1710
Rp1711
sS'coets_1740_v1_1_0171'
p1712
g2
(g6
S')a\xa2\xed\x18\xea\x90>'
p1713
tp1714
Rp1715
sS'coets_1740_v1_1_0172'
p1716
g2
(g6
S')a\xa2\xed\x18\xea\x90>'
p1717
tp1718
Rp1719
sS'coets_1740_v1_1_0173'
p1720
g2
(g6
S')a\xa2\xed\x18\xea\x90>'
p1721
tp1722
Rp1723
sS'coets_1740_v1_1_0174'
p1724
g2
(g6
S')a\xa2\xed\x18\xea\xa0>'
p1725
tp1726
Rp1727
sS'coets_1740_v1_1_0175'
p1728
g2
(g6
S')a\xa2\xed\x18\xea\x90>'
p1729
tp1730
Rp1731
sS'coets_1740_v1_1_0176'
p1732
g2
(g6
S')a\xa2\xed\x18\xea\x90>'
p1733
tp1734
Rp1735
sS'coets_1740_v1_1_0177'
p1736
g2
(g6
S')a\xa2\xed\x18\xea\x90>'
p1737
tp1738
Rp1739
sS'coets_1740_v1_1_0178'
p1740
g2
(g6
S')a\xa2\xed\x18\xea\x90>'
p1741
tp1742
Rp1743
sS'coets_1740_v1_1_0179'
p1744
g2
(g6
S')a\xa2\xed\x18\xea\x90>'
p1745
tp1746
Rp1747
sS'coets_1740_v1_1_0073'
p1748
g2
(g6
S'\x0f\x00\xcf\x0f\x05\x14\xa1>'
p1749
tp1750
Rp1751
sS'coets_1740_v1_1_0072'
p1752
g2
(g6
S'\x0f\x00\xcf\x0f\x05\x14\xa1>'
p1753
tp1754
Rp1755
sS'coets_1740_v1_1_0075'
p1756
g2
(g6
S'\x0f\x00\xcf\x0f\x05\x14\xa1>'
p1757
tp1758
Rp1759
sS'coets_1740_v1_1_0074'
p1760
g2
(g6
S'\x0f\x00\xcf\x0f\x05\x14\x81>'
p1761
tp1762
Rp1763
sS'coets_1740_v1_1_0077'
p1764
g2
(g6
S'\x14\xc0\xc2S\x06Y\xa5>'
p1765
tp1766
Rp1767
sS'coets_1740_v1_1_0076'
p1768
g2
(g6
S'\x0f\x00\xcf\x0f\x05\x14\xa1>'
p1769
tp1770
Rp1771
s.