(dp0
S'coets_1740_v1_1_0398.tif'
p1
(I2248
I3528
tp2
sS'coets_1740_v1_1_0333.tif'
p3
(I2254
I3506
tp4
sS'coets_1740_v1_1_0026.tif'
p5
(I2248
I3496
tp6
sS'coets_1740_v1_1_0117.tif'
p7
(I2262
I3508
tp8
sS'coets_1740_v1_1_0033.tif'
p9
(I2248
I3496
tp10
sS'coets_1740_v1_1_0181.tif'
p11
(I2262
I3508
tp12
sS'coets_1740_v1_1_0431.tif'
p13
(I648
I958
tp14
sS'coets_1740_v1_1_0384.tif'
p15
(I648
I958
tp16
sS'coets_1740_v1_1_0225.tif'
p17
(I2264
I3506
tp18
sS'coets_1740_v1_1_0091.tif'
p19
(I2262
I3508
tp20
sS'coets_1740_v1_1_0064.tif'
p21
(I2296
I3540
tp22
sS'coets_1740_v1_1_0084.tif'
p23
(I2262
I3508
tp24
sS'coets_1740_v1_1_0161.tif'
p25
(I2262
I3508
tp26
sS'coets_1740_v1_1_0144.tif'
p27
(I2300
I3546
tp28
sS'coets_1740_v1_1_0031.tif'
p29
(I2248
I3496
tp30
sS'coets_1740_v1_1_0116.tif'
p31
(I2262
I3508
tp32
sS'coets_1740_v1_1_0049.tif'
p33
(I2248
I3496
tp34
sS'coets_1740_v1_1_0028.tif'
p35
(I2248
I3496
tp36
sS'coets_1740_v1_1_0068.tif'
p37
(I2248
I3496
tp38
sS'coets_1740_v1_1_0331.tif'
p39
(I2254
I3506
tp40
sS'coets_1740_v1_1_0148.tif'
p41
(I2262
I3508
tp42
sS'coets_1740_v1_1_0219.tif'
p43
(I2264
I3506
tp44
sS'coets_1740_v1_1_0397.tif'
p45
(I2248
I3528
tp46
sS'coets_1740_v1_1_0093.tif'
p47
(I2262
I3508
tp48
sS'coets_1740_v1_1_0442.tif'
p49
(I2248
I3528
tp50
sS'coets_1740_v1_1_0458.tif'
p51
(I648
I958
tp52
sS'coets_1740_v1_1_0339.tif'
p53
(I2254
I3506
tp54
sS'coets_1740_v1_1_0154.tif'
p55
(I2262
I3508
tp56
sS'coets_1740_v1_1_0145.tif'
p57
(I2262
I3508
tp58
sS'coets_1740_v1_1_0024.tif'
p59
(I2248
I3496
tp60
sS'coets_1740_v1_1_0173.tif'
p61
(I2262
I3508
tp62
sS'coets_1740_v1_1_0411.tif'
p63
(I2248
I3528
tp64
sS'coets_1740_v1_1_0268.tif'
p65
(I2264
I3506
tp66
sS'coets_1740_v1_1_0348.tif'
p67
(I2254
I3506
tp68
sS'coets_1740_v1_1_0198.tif'
p69
(I2264
I3506
tp70
sS'coets_1740_v1_1_0322.tif'
p71
(I2254
I3506
tp72
sS'coets_1740_v1_1_0191.tif'
p73
(I2264
I3506
tp74
sS'coets_1740_v1_1_0340.tif'
p75
(I2254
I3506
tp76
sS'coets_1740_v1_1_0430.tif'
p77
(I2248
I3528
tp78
sS'coets_1740_v1_1_0452.tif'
p79
(I2248
I3528
tp80
sS'coets_1740_v1_1_0366.tif'
p81
(I2254
I3506
tp82
sS'coets_1740_v1_1_0114.tif'
p83
(I2262
I3508
tp84
sS'coets_1740_v1_1_0445.tif'
p85
(I2268
I3556
tp86
sS'coets_1740_v1_1_0022.tif'
p87
(I2248
I3496
tp88
sS'coets_1740_v1_1_0106.tif'
p89
(I2262
I3508
tp90
sS'coets_1740_v1_1_0402.tif'
p91
(I2268
I3556
tp92
sS'coets_1740_v1_1_0313.tif'
p93
(I2254
I3506
tp94
sS'coets_1740_v1_1_0027.tif'
p95
(I2248
I3496
tp96
sS'coets_1740_v1_1_0361.tif'
p97
(I2254
I3506
tp98
sS'coets_1740_v1_1_0236.tif'
p99
(I2264
I3506
tp100
sS'coets_1740_v1_1_0147.tif'
p101
(I2262
I3508
tp102
sS'coets_1740_v1_1_0218.tif'
p103
(I2264
I3506
tp104
sS'coets_1740_v1_1_0097.tif'
p105
(I2262
I3508
tp106
sS'coets_1740_v1_1_0424.tif'
p107
(I2248
I3528
tp108
sS'coets_1740_v1_1_0044.tif'
p109
(I2248
I3496
tp110
sS'coets_1740_v1_1_0112.tif'
p111
(I2262
I3508
tp112
sS'coets_1740_v1_1_0260.tif'
p113
(I2264
I3506
tp114
sS'coets_1740_v1_1_0443.tif'
p115
(I2268
I3556
tp116
sS'coets_1740_v1_1_0157.tif'
p117
(I2300
I3546
tp118
sS'coets_1740_v1_1_0310.tif'
p119
(I2254
I3506
tp120
sS'coets_1740_v1_1_0061.tif'
p121
(I2248
I3496
tp122
sS'coets_1740_v1_1_0176.tif'
p123
(I2262
I3508
tp124
sS'coets_1740_v1_1_0105.tif'
p125
(I2262
I3508
tp126
sS'coets_1740_v1_1_0058.tif'
p127
(I2248
I3496
tp128
sS'coets_1740_v1_1_0189.tif'
p129
(I2264
I3506
tp130
sS'coets_1740_v1_1_0194.tif'
p131
(I2264
I3506
tp132
sS'coets_1740_v1_1_0143.tif'
p133
(I648
I958
tp134
sS'coets_1740_v1_1_0174.tif'
p135
(I2262
I3508
tp136
sS'coets_1740_v1_1_0170.tif'
p137
(I2262
I3508
tp138
sS'coets_1740_v1_1_0138.tif'
p139
(I2262
I3508
tp140
sS'coets_1740_v1_1_0151.tif'
p141
(I2262
I3508
tp142
sS'coets_1740_v1_1_0226.tif'
p143
(I2264
I3506
tp144
sS'coets_1740_v1_1_0187.tif'
p145
(I2264
I3506
tp146
sS'coets_1740_v1_1_0324.tif'
p147
(I2254
I3506
tp148
sS'coets_1740_v1_1_0062.tif'
p149
(I2248
I3496
tp150
sS'coets_1740_v1_1_0196.tif'
p151
(I2264
I3506
tp152
sS'coets_1740_v1_1_0357.tif'
p153
(I2254
I3506
tp154
sS'coets_1740_v1_1_0291.tif'
p155
(I2254
I3506
tp156
sS'coets_1740_v1_1_0360.tif'
p157
(I2254
I3506
tp158
sS'coets_1740_v1_1_0156.tif'
p159
(I2262
I3508
tp160
sS'coets_1740_v1_1_0213.tif'
p161
(I2264
I3506
tp162
sS'coets_1740_v1_1_0302.tif'
p163
(I2254
I3506
tp164
sS'coets_1740_v1_1_0118.tif'
p165
(I2262
I3508
tp166
sS'coets_1740_v1_1_0047.tif'
p167
(I2248
I3496
tp168
sS'coets_1740_v1_1_0262.tif'
p169
(I2264
I3506
tp170
sS'coets_1740_v1_1_0449.tif'
p171
(I2248
I3528
tp172
sS'coets_1740_v1_1_0382.tif'
p173
(I2268
I3556
tp174
sS'coets_1740_v1_1_0453.tif'
p175
(I2248
I3528
tp176
sS'coets_1740_v1_1_0230.tif'
p177
(I2264
I3506
tp178
sS'coets_1740_v1_1_0125.tif'
p179
(I2262
I3508
tp180
sS'coets_1740_v1_1_0318.tif'
p181
(I2254
I3506
tp182
sS'coets_1740_v1_1_0320.tif'
p183
(I2254
I3506
tp184
sS'coets_1740_v1_1_0158.tif'
p185
(I2262
I3508
tp186
sS'coets_1740_v1_1_0096.tif'
p187
(I2262
I3508
tp188
sS'coets_1740_v1_1_0023.tif'
p189
(I2248
I3496
tp190
sS'coets_1740_v1_1_0407.tif'
p191
(I2248
I3528
tp192
sS'coets_1740_v1_1_0399.tif'
p193
(I2248
I3528
tp194
sS'coets_1740_v1_1_0104.tif'
p195
(I2262
I3508
tp196
sS'coets_1740_v1_1_0206.tif'
p197
(I2264
I3506
tp198
sS'coets_1740_v1_1_0383.tif'
p199
(I2248
I3528
tp200
sS'coets_1740_v1_1_0032.tif'
p201
(I2248
I3496
tp202
sS'coets_1740_v1_1_0374.tif'
p203
(I2248
I3528
tp204
sS'coets_1740_v1_1_0391.tif'
p205
(I648
I958
tp206
sS'coets_1740_v1_1_0409.tif'
p207
(I2268
I3556
tp208
sS'coets_1740_v1_1_0264.tif'
p209
(I2284
I3546
tp210
sS'coets_1740_v1_1_0223.tif'
p211
(I2264
I3506
tp212
sS'coets_1740_v1_1_0136.tif'
p213
(I2262
I3508
tp214
sS'coets_1740_v1_1_0321.tif'
p215
(I2254
I3506
tp216
sS'coets_1740_v1_1_0450.tif'
p217
(I2248
I3528
tp218
sS'coets_1740_v1_1_0316.tif'
p219
(I2254
I3506
tp220
sS'coets_1740_v1_1_0261.tif'
p221
(I2264
I3506
tp222
sS'coets_1740_v1_1_0035.tif'
p223
(I2248
I3496
tp224
sS'coets_1740_v1_1_0390.tif'
p225
(I2248
I3528
tp226
sS'coets_1740_v1_1_0192.tif'
p227
(I2264
I3506
tp228
sS'coets_1740_v1_1_0051.tif'
p229
(I2248
I3496
tp230
sS'coets_1740_v1_1_0167.tif'
p231
(I2262
I3508
tp232
sS'coets_1740_v1_1_0210.tif'
p233
(I2264
I3506
tp234
sS'coets_1740_v1_1_0103.tif'
p235
(I2262
I3508
tp236
sS'coets_1740_v1_1_0146.tif'
p237
(I2262
I3508
tp238
sS'coets_1740_v1_1_0235.tif'
p239
(I2264
I3506
tp240
sS'coets_1740_v1_1_0149.tif'
p241
(I2262
I3508
tp242
sS'coets_1740_v1_1_0155.tif'
p243
(I2300
I3546
tp244
sS'coets_1740_v1_1_0312.tif'
p245
(I2254
I3506
tp246
sS'coets_1740_v1_1_0381.tif'
p247
(I2268
I3556
tp248
sS'coets_1740_v1_1_0323.tif'
p249
(I2254
I3506
tp250
sS'coets_1740_v1_1_0237.tif'
p251
(I2264
I3506
tp252
sS'coets_1740_v1_1_0081.tif'
p253
(I2248
I3496
tp254
sS'coets_1740_v1_1_0420.tif'
p255
(I2268
I3556
tp256
sS'coets_1740_v1_1_0207.tif'
p257
(I2264
I3506
tp258
sS'coets_1740_v1_1_0319.tif'
p259
(I2254
I3506
tp260
sS'coets_1740_v1_1_0216.tif'
p261
(I2264
I3506
tp262
sS'coets_1740_v1_1_0029.tif'
p263
(I2248
I3496
tp264
sS'coets_1740_v1_1_0401.tif'
p265
(I648
I958
tp266
sS'coets_1740_v1_1_0168.tif'
p267
(I2262
I3508
tp268
sS'coets_1740_v1_1_0089.tif'
p269
(I2262
I3508
tp270
sS'coets_1740_v1_1_0414.tif'
p271
(I2268
I3556
tp272
sS'coets_1740_v1_1_0423.tif'
p273
(I2268
I3556
tp274
sS'coets_1740_v1_1_0392.tif'
p275
(I2268
I3556
tp276
sS'coets_1740_v1_1_0021.tif'
p277
(I2248
I3496
tp278
sS'coets_1740_v1_1_0034.tif'
p279
(I2248
I3496
tp280
sS'coets_1740_v1_1_0211.tif'
p281
(I2264
I3506
tp282
sS'coets_1740_v1_1_0164.tif'
p283
(I2262
I3508
tp284
sS'coets_1740_v1_1_0325.tif'
p285
(I2254
I3506
tp286
sS'coets_1740_v1_1_0240.tif'
p287
(I2264
I3506
tp288
sS'coets_1740_v1_1_0354.tif'
p289
(I2254
I3506
tp290
sS'coets_1740_v1_1_0183.tif'
p291
(I2264
I3506
tp292
sS'coets_1740_v1_1_0368.tif'
p293
(I2254
I3506
tp294
sS'coets_1740_v1_1_0305.tif'
p295
(I2254
I3506
tp296
sS'coets_1740_v1_1_0405.tif'
p297
(I2268
I3556
tp298
sS'coets_1740_v1_1_0193.tif'
p299
(I2264
I3506
tp300
sS'coets_1740_v1_1_0119.tif'
p301
(I2262
I3508
tp302
sS'coets_1740_v1_1_0088.tif'
p303
(I2262
I3508
tp304
sS'coets_1740_v1_1_0265.tif'
p305
(I2264
I3506
tp306
sS'coets_1740_v1_1_0095.tif'
p307
(I2262
I3508
tp308
sS'coets_1740_v1_1_0133.tif'
p309
(I2262
I3508
tp310
sS'coets_1740_v1_1_0045.tif'
p311
(I648
I958
tp312
sS'coets_1740_v1_1_0314.tif'
p313
(I2254
I3506
tp314
sS'coets_1740_v1_1_0111.tif'
p315
(I2262
I3508
tp316
sS'coets_1740_v1_1_0221.tif'
p317
(I2264
I3506
tp318
sS'coets_1740_v1_1_0396.tif'
p319
(I2248
I3528
tp320
sS'coets_1740_v1_1_0283.tif'
p321
(I2254
I3506
tp322
sS'coets_1740_v1_1_0177.tif'
p323
(I2262
I3508
tp324
sS'coets_1740_v1_1_0433.tif'
p325
(I2248
I3528
tp326
sS'coets_1740_v1_1_0275.tif'
p327
(I2254
I3506
tp328
sS'coets_1740_v1_1_0404.tif'
p329
(I2248
I3528
tp330
sS'coets_1740_v1_1_0455.tif'
p331
(I2248
I3528
tp332
sS'coets_1740_v1_1_0303.tif'
p333
(I2254
I3506
tp334
sS'coets_1740_v1_1_0448.tif'
p335
(I2248
I3528
tp336
sS'coets_1740_v1_1_0079.tif'
p337
(I2248
I3496
tp338
sS'coets_1740_v1_1_0086.tif'
p339
(I2262
I3508
tp340
sS'coets_1740_v1_1_0140.tif'
p341
(I2262
I3508
tp342
sS'coets_1740_v1_1_0184.tif'
p343
(I2264
I3506
tp344
sS'coets_1740_v1_1_0444.tif'
p345
(I648
I958
tp346
sS'coets_1740_v1_1_0369.tif'
p347
(I2248
I3528
tp348
sS'coets_1740_v1_1_0356.tif'
p349
(I2254
I3506
tp350
sS'coets_1740_v1_1_0257.tif'
p351
(I2264
I3506
tp352
sS'coets_1740_v1_1_0425.tif'
p353
(I2248
I3528
tp354
sS'coets_1740_v1_1_0338.tif'
p355
(I2254
I3506
tp356
sS'coets_1740_v1_1_0212.tif'
p357
(I2264
I3506
tp358
sS'coets_1740_v1_1_0451.tif'
p359
(I2268
I3556
tp360
sS'coets_1740_v1_1_0182.tif'
p361
(I2262
I3508
tp362
sS'coets_1740_v1_1_0439.tif'
p363
(I2268
I3556
tp364
sS'coets_1740_v1_1_0456.tif'
p365
(I2248
I3528
tp366
sS'coets_1740_v1_1_0406.tif'
p367
(I2248
I3528
tp368
sS'coets_1740_v1_1_0199.tif'
p369
(I2264
I3506
tp370
sS'coets_1740_v1_1_0350.tif'
p371
(I2254
I3506
tp372
sS'coets_1740_v1_1_0355.tif'
p373
(I2254
I3506
tp374
sS'coets_1740_v1_1_0135.tif'
p375
(I2262
I3508
tp376
sS'coets_1740_v1_1_0205.tif'
p377
(I2264
I3506
tp378
sS'coets_1740_v1_1_0289.tif'
p379
(I2254
I3506
tp380
sS'coets_1740_v1_1_0279.tif'
p381
(I2254
I3506
tp382
sS'coets_1740_v1_1_0179.tif'
p383
(I2262
I3508
tp384
sS'coets_1740_v1_1_0056.tif'
p385
(I2248
I3496
tp386
sS'coets_1740_v1_1_0267.tif'
p387
(I2264
I3506
tp388
sS'coets_1740_v1_1_0171.tif'
p389
(I2262
I3508
tp390
sS'coets_1740_v1_1_0209.tif'
p391
(I2264
I3506
tp392
sS'coets_1740_v1_1_0252.tif'
p393
(I2264
I3506
tp394
sS'coets_1740_v1_1_0258.tif'
p395
(I2264
I3506
tp396
sS'coets_1740_v1_1_0372.tif'
p397
(I2248
I3528
tp398
sS'coets_1740_v1_1_0315.tif'
p399
(I2254
I3506
tp400
sS'coets_1740_v1_1_0400.tif'
p401
(I2268
I3556
tp402
sS'coets_1740_v1_1_0417.tif'
p403
(I2248
I3528
tp404
sS'coets_1740_v1_1_0349.tif'
p405
(I2254
I3506
tp406
sS'coets_1740_v1_1_0131.tif'
p407
(I2262
I3508
tp408
sS'coets_1740_v1_1_0393.tif'
p409
(I2248
I3528
tp410
sS'coets_1740_v1_1_0389.tif'
p411
(I2268
I3556
tp412
sS'coets_1740_v1_1_0108.tif'
p413
(I2262
I3508
tp414
sS'coets_1740_v1_1_0080.tif'
p415
(I2296
I3540
tp416
sS'coets_1740_v1_1_0270.tif'
p417
(I2264
I3506
tp418
sS'coets_1740_v1_1_0166.tif'
p419
(I2262
I3508
tp420
sS'coets_1740_v1_1_0358.tif'
p421
(I2254
I3506
tp422
sS'coets_1740_v1_1_0152.tif'
p423
(I2262
I3508
tp424
sS'coets_1740_v1_1_0234.tif'
p425
(I2264
I3506
tp426
sS'coets_1740_v1_1_0107.tif'
p427
(I2262
I3508
tp428
sS'coets_1740_v1_1_0422.tif'
p429
(I2248
I3528
tp430
sS'coets_1740_v1_1_0130.tif'
p431
(I2300
I3546
tp432
sS'coets_1740_v1_1_0281.tif'
p433
(I2254
I3506
tp434
sS'coets_1740_v1_1_0438.tif'
p435
(I2248
I3528
tp436
sS'coets_1740_v1_1_0419.tif'
p437
(I2248
I3528
tp438
sS'coets_1740_v1_1_0046.tif'
p439
(I2248
I3496
tp440
sS'coets_1740_v1_1_0317.tif'
p441
(I2254
I3506
tp442
sS'coets_1740_v1_1_0233.tif'
p443
(I2264
I3506
tp444
sS'coets_1740_v1_1_0301.tif'
p445
(I2254
I3506
tp446
sS'coets_1740_v1_1_0408.tif'
p447
(I2248
I3528
tp448
sS'coets_1740_v1_1_0441.tif'
p449
(I2248
I3528
tp450
sS'coets_1740_v1_1_0073.tif'
p451
(I2248
I3496
tp452
sS'coets_1740_v1_1_0371.tif'
p453
(I2248
I3528
tp454
sS'coets_1740_v1_1_0069.tif'
p455
(I2248
I3496
tp456
sS'coets_1740_v1_1_0440.tif'
p457
(I2248
I3528
tp458
sS'coets_1740_v1_1_0050.tif'
p459
(I2248
I3496
tp460
sS'coets_1740_v1_1_0278.tif'
p461
(I2254
I3506
tp462
sS'coets_1740_v1_1_0429.tif'
p463
(I2248
I3528
tp464
sS'coets_1740_v1_1_0282.tif'
p465
(I2254
I3506
tp466
sS'coets_1740_v1_1_0447.tif'
p467
(I2248
I3528
tp468
sS'coets_1740_v1_1_0351.tif'
p469
(I2254
I3506
tp470
sS'coets_1740_v1_1_0308.tif'
p471
(I2254
I3506
tp472
sS'coets_1740_v1_1_0150.tif'
p473
(I2262
I3508
tp474
sS'coets_1740_v1_1_0326.tif'
p475
(I2254
I3506
tp476
sS'coets_1740_v1_1_0066.tif'
p477
(I2248
I3496
tp478
sS'coets_1740_v1_1_0337.tif'
p479
(I2254
I3506
tp480
sS'coets_1740_v1_1_0132.tif'
p481
(I2300
I3546
tp482
sS'coets_1740_v1_1_0306.tif'
p483
(I2254
I3506
tp484
sS'coets_1740_v1_1_0413.tif'
p485
(I2248
I3528
tp486
sS'coets_1740_v1_1_0043.tif'
p487
(I2248
I3496
tp488
sS'coets_1740_v1_1_0341.tif'
p489
(I2254
I3506
tp490
sS'coets_1740_v1_1_0255.tif'
p491
(I2264
I3506
tp492
sS'coets_1740_v1_1_0416.tif'
p493
(I2248
I3528
tp494
sS'coets_1740_v1_1_0276.tif'
p495
(I2284
I3544
tp496
sS'coets_1740_v1_1_0245.tif'
p497
(I2264
I3506
tp498
sS'coets_1740_v1_1_0250.tif'
p499
(I2284
I3546
tp500
sS'coets_1740_v1_1_0120.tif'
p501
(I2262
I3508
tp502
sS'coets_1740_v1_1_0232.tif'
p503
(I2264
I3506
tp504
sS'coets_1740_v1_1_0294.tif'
p505
(I2254
I3506
tp506
sS'coets_1740_v1_1_0363.tif'
p507
(I2254
I3506
tp508
sS'coets_1740_v1_1_0214.tif'
p509
(I2284
I3546
tp510
sS'coets_1740_v1_1_0435.tif'
p511
(I2248
I3528
tp512
sS'coets_1740_v1_1_0359.tif'
p513
(I2254
I3506
tp514
sS'coets_1740_v1_1_0134.tif'
p515
(I2262
I3508
tp516
sS'coets_1740_v1_1_0123.tif'
p517
(I2262
I3508
tp518
sS'coets_1740_v1_1_0300.tif'
p519
(I2254
I3506
tp520
sS'coets_1740_v1_1_0070.tif'
p521
(I2248
I3496
tp522
sS'coets_1740_v1_1_0272.tif'
p523
(I2264
I3506
tp524
sS'coets_1740_v1_1_0055.tif'
p525
(I2248
I3496
tp526
sS'coets_1740_v1_1_0040.tif'
p527
(I2248
I3496
tp528
sS'coets_1740_v1_1_0169.tif'
p529
(I2262
I3508
tp530
sS'coets_1740_v1_1_0215.tif'
p531
(I2264
I3506
tp532
sS'coets_1740_v1_1_0222.tif'
p533
(I2264
I3506
tp534
sS'coets_1740_v1_1_0203.tif'
p535
(I2264
I3506
tp536
sS'coets_1740_v1_1_0057.tif'
p537
(I2248
I3496
tp538
sS'coets_1740_v1_1_0273.tif'
p539
(I2254
I3506
tp540
sS'coets_1740_v1_1_0067.tif'
p541
(I2248
I3496
tp542
sS'coets_1740_v1_1_0220.tif'
p543
(I2264
I3506
tp544
sS'coets_1740_v1_1_0284.tif'
p545
(I2254
I3506
tp546
sS'coets_1740_v1_1_0076.tif'
p547
(I2248
I3496
tp548
sS'coets_1740_v1_1_0165.tif'
p549
(I2262
I3508
tp550
sS'coets_1740_v1_1_0454.tif'
p551
(I2248
I3528
tp552
sS'coets_1740_v1_1_0078.tif'
p553
(I2248
I3496
tp554
sS'coets_1740_v1_1_0087.tif'
p555
(I2262
I3508
tp556
sS'coets_1740_v1_1_0353.tif'
p557
(I2254
I3506
tp558
sS'coets_1740_v1_1_0178.tif'
p559
(I2262
I3508
tp560
sS'coets_1740_v1_1_0239.tif'
p561
(I2264
I3506
tp562
sS'coets_1740_v1_1_0202.tif'
p563
(I2264
I3506
tp564
sS'coets_1740_v1_1_0436.tif'
p565
(I2248
I3528
tp566
sS'coets_1740_v1_1_0288.tif'
p567
(I2254
I3506
tp568
sS'coets_1740_v1_1_0256.tif'
p569
(I2264
I3506
tp570
sS'coets_1740_v1_1_0020.tif'
p571
(I2248
I3496
tp572
sS'coets_1740_v1_1_0083.tif'
p573
(I2262
I3508
tp574
sS'coets_1740_v1_1_0412.tif'
p575
(I2248
I3528
tp576
sS'coets_1740_v1_1_0153.tif'
p577
(I2262
I3508
tp578
sS'coets_1740_v1_1_0428.tif'
p579
(I2248
I3528
tp580
sS'coets_1740_v1_1_0344.tif'
p581
(I2284
I3544
tp582
sS'coets_1740_v1_1_0280.tif'
p583
(I2254
I3506
tp584
sS'coets_1740_v1_1_0373.tif'
p585
(I2248
I3528
tp586
sS'coets_1740_v1_1_0217.tif'
p587
(I2264
I3506
tp588
sS'coets_1740_v1_1_0403.tif'
p589
(I2268
I3556
tp590
sS'coets_1740_v1_1_0041.tif'
p591
(I2248
I3496
tp592
sS'coets_1740_v1_1_0141.tif'
p593
(I2262
I3508
tp594
sS'coets_1740_v1_1_0388.tif'
p595
(I2248
I3528
tp596
sS'coets_1740_v1_1_0271.tif'
p597
(I2264
I3506
tp598
sS'coets_1740_v1_1_0415.tif'
p599
(I2248
I3528
tp600
sS'coets_1740_v1_1_0127.tif'
p601
(I2262
I3508
tp602
sS'coets_1740_v1_1_0160.tif'
p603
(I2262
I3508
tp604
sS'coets_1740_v1_1_0335.tif'
p605
(I2254
I3506
tp606
sS'coets_1740_v1_1_0122.tif'
p607
(I2262
I3508
tp608
sS'coets_1740_v1_1_0185.tif'
p609
(I2264
I3506
tp610
sS'coets_1740_v1_1_0426.tif'
p611
(I2248
I3528
tp612
sS'coets_1740_v1_1_0200.tif'
p613
(I2264
I3506
tp614
sS'coets_1740_v1_1_0037.tif'
p615
(I2248
I3496
tp616
sS'coets_1740_v1_1_0101.tif'
p617
(I2262
I3508
tp618
sS'coets_1740_v1_1_0277.tif'
p619
(I2254
I3506
tp620
sS'coets_1740_v1_1_0246.tif'
p621
(I2264
I3506
tp622
sS'coets_1740_v1_1_0293.tif'
p623
(I2254
I3506
tp624
sS'coets_1740_v1_1_0336.tif'
p625
(I2254
I3506
tp626
sS'coets_1740_v1_1_0253.tif'
p627
(I2264
I3506
tp628
sS'coets_1740_v1_1_0163.tif'
p629
(I2262
I3508
tp630
sS'coets_1740_v1_1_0072.tif'
p631
(I2248
I3496
tp632
sS'coets_1740_v1_1_0286.tif'
p633
(I2254
I3506
tp634
sS'coets_1740_v1_1_0204.tif'
p635
(I2264
I3506
tp636
sS'coets_1740_v1_1_0309.tif'
p637
(I2254
I3506
tp638
sS'coets_1740_v1_1_0251.tif'
p639
(I2264
I3506
tp640
sS'coets_1740_v1_1_0229.tif'
p641
(I2264
I3506
tp642
sS'coets_1740_v1_1_0248.tif'
p643
(I2264
I3506
tp644
sS'coets_1740_v1_1_0295.tif'
p645
(I2254
I3506
tp646
sS'coets_1740_v1_1_0208.tif'
p647
(I2264
I3506
tp648
sS'coets_1740_v1_1_0085.tif'
p649
(I2262
I3508
tp650
sS'coets_1740_v1_1_0418.tif'
p651
(I2268
I3556
tp652
sS'coets_1740_v1_1_0190.tif'
p653
(I2264
I3506
tp654
sS'coets_1740_v1_1_0342.tif'
p655
(I2254
I3506
tp656
sS'coets_1740_v1_1_0071.tif'
p657
(I2248
I3496
tp658
sS'coets_1740_v1_1_0065.tif'
p659
(I2248
I3496
tp660
sS'coets_1740_v1_1_0019.tif'
p661
(I2248
I3496
tp662
sS'coets_1740_v1_1_0364.tif'
p663
(I2254
I3506
tp664
sS'coets_1740_v1_1_0378.tif'
p665
(I2248
I3528
tp666
sS'coets_1740_v1_1_0410.tif'
p667
(I2248
I3528
tp668
sS'coets_1740_v1_1_0427.tif'
p669
(I2248
I3528
tp670
sS'coets_1740_v1_1_0328.tif'
p671
(I2254
I3506
tp672
sS'coets_1740_v1_1_0102.tif'
p673
(I2262
I3508
tp674
sS'coets_1740_v1_1_0244.tif'
p675
(I2264
I3506
tp676
sS'coets_1740_v1_1_0186.tif'
p677
(I2264
I3506
tp678
sS'coets_1740_v1_1_0038.tif'
p679
(I2248
I3496
tp680
sS'coets_1740_v1_1_0121.tif'
p681
(I2262
I3508
tp682
sS'coets_1740_v1_1_0266.tif'
p683
(I2264
I3506
tp684
sS'coets_1740_v1_1_0092.tif'
p685
(I2262
I3508
tp686
sS'coets_1740_v1_1_0346.tif'
p687
(I2254
I3506
tp688
sS'coets_1740_v1_1_0126.tif'
p689
(I2262
I3508
tp690
sS'coets_1740_v1_1_0434.tif'
p691
(I2248
I3528
tp692
sS'coets_1740_v1_1_0457.tif'
p693
(I2248
I3528
tp694
sS'coets_1740_v1_1_0137.tif'
p695
(I2262
I3508
tp696
sS'coets_1740_v1_1_0162.tif'
p697
(I2262
I3508
tp698
sS'coets_1740_v1_1_0039.tif'
p699
(I2248
I3496
tp700
sS'coets_1740_v1_1_0054.tif'
p701
(I2248
I3496
tp702
sS'coets_1740_v1_1_0299.tif'
p703
(I2254
I3506
tp704
sS'coets_1740_v1_1_0242.tif'
p705
(I2264
I3506
tp706
sS'coets_1740_v1_1_0110.tif'
p707
(I2262
I3508
tp708
sS'coets_1740_v1_1_0347.tif'
p709
(I2254
I3506
tp710
sS'coets_1740_v1_1_0330.tif'
p711
(I2254
I3506
tp712
sS'coets_1740_v1_1_0247.tif'
p713
(I2264
I3506
tp714
sS'coets_1740_v1_1_0370.tif'
p715
(I2248
I3528
tp716
sS'coets_1740_v1_1_0053.tif'
p717
(I2248
I3496
tp718
sS'coets_1740_v1_1_0307.tif'
p719
(I2254
I3506
tp720
sS'coets_1740_v1_1_0098.tif'
p721
(I2262
I3508
tp722
sS'coets_1740_v1_1_0259.tif'
p723
(I2264
I3506
tp724
sS'coets_1740_v1_1_0385.tif'
p725
(I2248
I3528
tp726
sS'coets_1740_v1_1_0172.tif'
p727
(I2262
I3508
tp728
sS'coets_1740_v1_1_0224.tif'
p729
(I2264
I3506
tp730
sS'coets_1740_v1_1_0287.tif'
p731
(I2254
I3506
tp732
sS'coets_1740_v1_1_0362.tif'
p733
(I2254
I3506
tp734
sS'coets_1740_v1_1_0018.tif'
p735
(I648
I958
tp736
sS'coets_1740_v1_1_0201.tif'
p737
(I2264
I3506
tp738
sS'coets_1740_v1_1_0238.tif'
p739
(I2264
I3506
tp740
sS'coets_1740_v1_1_0334.tif'
p741
(I2254
I3506
tp742
sS'coets_1740_v1_1_0394.tif'
p743
(I2248
I3528
tp744
sS'coets_1740_v1_1_0345.tif'
p745
(I2254
I3506
tp746
sS'coets_1740_v1_1_0375.tif'
p747
(I2248
I3528
tp748
sS'coets_1740_v1_1_0099.tif'
p749
(I2262
I3508
tp750
sS'coets_1740_v1_1_0285.tif'
p751
(I2254
I3506
tp752
sS'coets_1740_v1_1_0090.tif'
p753
(I2262
I3508
tp754
sS'coets_1740_v1_1_0128.tif'
p755
(I2262
I3508
tp756
sS'coets_1740_v1_1_0142.tif'
p757
(I2262
I3508
tp758
sS'coets_1740_v1_1_0025.tif'
p759
(I2248
I3496
tp760
sS'coets_1740_v1_1_0297.tif'
p761
(I2254
I3506
tp762
sS'coets_1740_v1_1_0030.tif'
p763
(I2248
I3496
tp764
sS'coets_1740_v1_1_0124.tif'
p765
(I2300
I3546
tp766
sS'coets_1740_v1_1_0129.tif'
p767
(I2262
I3508
tp768
sS'coets_1740_v1_1_0052.tif'
p769
(I2248
I3496
tp770
sS'coets_1740_v1_1_0227.tif'
p771
(I2264
I3506
tp772
sS'coets_1740_v1_1_0074.tif'
p773
(I2248
I3496
tp774
sS'coets_1740_v1_1_0343.tif'
p775
(I2254
I3506
tp776
sS'coets_1740_v1_1_0197.tif'
p777
(I2264
I3506
tp778
sS'coets_1740_v1_1_0386.tif'
p779
(I648
I958
tp780
sS'coets_1740_v1_1_0446.tif'
p781
(I2248
I3528
tp782
sS'coets_1740_v1_1_0379.tif'
p783
(I2248
I3528
tp784
sS'coets_1740_v1_1_0367.tif'
p785
(I2254
I3506
tp786
sS'coets_1740_v1_1_0243.tif'
p787
(I2264
I3506
tp788
sS'coets_1740_v1_1_0376.tif'
p789
(I2248
I3528
tp790
sS'coets_1740_v1_1_0115.tif'
p791
(I2262
I3508
tp792
sS'coets_1740_v1_1_0100.tif'
p793
(I2262
I3508
tp794
sS'coets_1740_v1_1_0332.tif'
p795
(I2254
I3506
tp796
sS'coets_1740_v1_1_0274.tif'
p797
(I2254
I3506
tp798
sS'coets_1740_v1_1_0269.tif'
p799
(I2284
I3546
tp800
sS'coets_1740_v1_1_0075.tif'
p801
(I2248
I3496
tp802
sS'coets_1740_v1_1_0159.tif'
p803
(I2262
I3508
tp804
sS'coets_1740_v1_1_0042.tif'
p805
(I2248
I3496
tp806
sS'coets_1740_v1_1_0063.tif'
p807
(I2248
I3496
tp808
sS'coets_1740_v1_1_0365.tif'
p809
(I2254
I3506
tp810
sS'coets_1740_v1_1_0290.tif'
p811
(I2254
I3506
tp812
sS'coets_1740_v1_1_0113.tif'
p813
(I2262
I3508
tp814
sS'coets_1740_v1_1_0395.tif'
p815
(I2248
I3528
tp816
sS'coets_1740_v1_1_0329.tif'
p817
(I2254
I3506
tp818
sS'coets_1740_v1_1_0380.tif'
p819
(I2268
I3556
tp820
sS'coets_1740_v1_1_0437.tif'
p821
(I648
I958
tp822
sS'coets_1740_v1_1_0228.tif'
p823
(I2264
I3506
tp824
sS'coets_1740_v1_1_0082.tif'
p825
(I2248
I3496
tp826
sS'coets_1740_v1_1_0387.tif'
p827
(I2248
I3528
tp828
sS'coets_1740_v1_1_0059.tif'
p829
(I2248
I3496
tp830
sS'coets_1740_v1_1_0109.tif'
p831
(I2262
I3508
tp832
sS'coets_1740_v1_1_0421.tif'
p833
(I648
I958
tp834
sS'coets_1740_v1_1_0231.tif'
p835
(I2264
I3506
tp836
sS'coets_1740_v1_1_0036.tif'
p837
(I2248
I3496
tp838
sS'coets_1740_v1_1_0352.tif'
p839
(I2254
I3506
tp840
sS'coets_1740_v1_1_0296.tif'
p841
(I2254
I3506
tp842
sS'coets_1740_v1_1_0304.tif'
p843
(I2254
I3506
tp844
sS'coets_1740_v1_1_0292.tif'
p845
(I2254
I3506
tp846
sS'coets_1740_v1_1_0094.tif'
p847
(I2262
I3508
tp848
sS'coets_1740_v1_1_0077.tif'
p849
(I2248
I3496
tp850
sS'coets_1740_v1_1_0377.tif'
p851
(I2248
I3528
tp852
sS'coets_1740_v1_1_0048.tif'
p853
(I2248
I3496
tp854
sS'coets_1740_v1_1_0311.tif'
p855
(I2254
I3506
tp856
sS'coets_1740_v1_1_0432.tif'
p857
(I2248
I3528
tp858
sS'coets_1740_v1_1_0327.tif'
p859
(I2284
I3544
tp860
sS'coets_1740_v1_1_0188.tif'
p861
(I2284
I3546
tp862
sS'coets_1740_v1_1_0249.tif'
p863
(I2264
I3506
tp864
sS'coets_1740_v1_1_0195.tif'
p865
(I2264
I3506
tp866
sS'coets_1740_v1_1_0298.tif'
p867
(I2254
I3506
tp868
sS'coets_1740_v1_1_0180.tif'
p869
(I2262
I3508
tp870
sS'coets_1740_v1_1_0263.tif'
p871
(I2264
I3506
tp872
sS'coets_1740_v1_1_0175.tif'
p873
(I2262
I3508
tp874
sS'coets_1740_v1_1_0060.tif'
p875
(I2248
I3496
tp876
sS'coets_1740_v1_1_0241.tif'
p877
(I2264
I3506
tp878
sS'coets_1740_v1_1_0254.tif'
p879
(I2264
I3506
tp880
sS'coets_1740_v1_1_0139.tif'
p881
(I2262
I3508
tp882
s.