(lp0
I3
aI21
aI28
aI17
aI27
aI15
aI15
aI24
aI23
aI15
aI15
aI15
aI48
aI25
aI29
aI38
aI31
aI23
aI21
aI20
aI17
aI12
aI31
aI17
aI13
aI3
aI2
aI2
aI12
aI22
aI13
aI17
aI59
aI23
aI12
aI25
aI14
aI12
aI35
aI29
aI33
aI33
aI1
aI26
aI37
aI1
aI8
aI19
aI2
aI15
aI9
aI9
aI12
aI11
aI10
aI33
aI13
aI8
aI7
aI5
aI2
aI1
aI15
aI8
aI9
aI1
aI6
aI1
a.