(dp0
S'elementorumlibr00euclgoog_0314'
p1
cnumpy.core.multiarray
scalar
p2
(cnumpy
dtype
p3
(S'f8'
p4
I0
I1
tp5
Rp6
(I3
S'<'
p7
NNNI-1
I-1
I0
tp8
bS'\x14]\x92\x7f\x0b\xd3;?'
p9
tp10
Rp11
sS'elementorumlibr00euclgoog_0219'
p12
g2
(g6
S'\xf5\xabo\xe9\xe4r5?'
p13
tp14
Rp15
sS'elementorumlibr00euclgoog_0296'
p16
g2
(g6
S'\xc1L\xb5Q\xac\xa7<?'
p17
tp18
Rp19
sS'elementorumlibr00euclgoog_0317'
p20
g2
(g6
S"\xaa;sxI':?"
p21
tp22
Rp23
sS'elementorumlibr00euclgoog_0048'
p24
g2
(g6
S'\xaf6p<\x9e\xac??'
p25
tp26
Rp27
sS'elementorumlibr00euclgoog_0049'
p28
g2
(g6
S'\xc2=\x1b\x07f]8?'
p29
tp30
Rp31
sS'elementorumlibr00euclgoog_0312'
p32
g2
(g6
S'\xbb\xfdd\xbf\xec\xb7;?'
p33
tp34
Rp35
sS'elementorumlibr00euclgoog_0218'
p36
g2
(g6
S'\x87\xe8\x9a|\xe3x6?'
p37
tp38
Rp39
sS'elementorumlibr00euclgoog_0044'
p40
g2
(g6
S'\xaeNW\x9c\xc4\x068?'
p41
tp42
Rp43
sS'elementorumlibr00euclgoog_0045'
p44
g2
(g6
S'\xa6\xbe\x1c2&Y5?'
p45
tp46
Rp47
sS'elementorumlibr00euclgoog_0046'
p48
g2
(g6
S'{Q\x9e)\xcd{5?'
p49
tp50
Rp51
sS'elementorumlibr00euclgoog_0047'
p52
g2
(g6
S'\xceM\x068\xa1\xa12?'
p53
tp54
Rp55
sS'elementorumlibr00euclgoog_0040'
p56
g2
(g6
S'j\xc5\xe1V$\xd91?'
p57
tp58
Rp59
sS'elementorumlibr00euclgoog_0041'
p60
g2
(g6
S'"\r\x19\xe6)\xff6?'
p61
tp62
Rp63
sS'elementorumlibr00euclgoog_0042'
p64
g2
(g6
S'\xe7\xd8GvW<:?'
p65
tp66
Rp67
sS'elementorumlibr00euclgoog_0043'
p68
g2
(g6
S"a$A'X\xdf8?"
p69
tp70
Rp71
sS'elementorumlibr00euclgoog_0249'
p72
g2
(g6
S'C\xbd\x88}\x83IE?'
p73
tp74
Rp75
sS'elementorumlibr00euclgoog_0128'
p76
g2
(g6
S'=\xf1\xc6F\xb0\xe22?'
p77
tp78
Rp79
sS'elementorumlibr00euclgoog_0252'
p80
g2
(g6
S'\x96\xfa\xe0hG\x82??'
p81
tp82
Rp83
sS'elementorumlibr00euclgoog_0318'
p84
g2
(g6
S'\xfb\x9f\x1f\x86\x1bx??'
p85
tp86
Rp87
sS'elementorumlibr00euclgoog_0311'
p88
g2
(g6
S'\xa4b\xee6\xba\x0c@?'
p89
tp90
Rp91
sS'elementorumlibr00euclgoog_0313'
p92
g2
(g6
S'\x9c\x93/1\xdf\x8f??'
p93
tp94
Rp95
sS'elementorumlibr00euclgoog_0242'
p96
g2
(g6
S'\xaa7S\x00:\xc67?'
p97
tp98
Rp99
sS'elementorumlibr00euclgoog_0197'
p100
g2
(g6
S'\x82\xc9iW/\x895?'
p101
tp102
Rp103
sS'elementorumlibr00euclgoog_0167'
p104
g2
(g6
S'\xbc\x95\xef\xd1\xa9q2?'
p105
tp106
Rp107
sS'elementorumlibr00euclgoog_0123'
p108
g2
(g6
S'x\xf3t\xa2\xea\xd47?'
p109
tp110
Rp111
sS'elementorumlibr00euclgoog_0165'
p112
g2
(g6
S'4&#\x08\xa0\xcc3?'
p113
tp114
Rp115
sS'elementorumlibr00euclgoog_0164'
p116
g2
(g6
S'#\x11\xeay\xf9@4?'
p117
tp118
Rp119
sS'elementorumlibr00euclgoog_0163'
p120
g2
(g6
S'\xcdt\xba\xe4\xb6\xa06?'
p121
tp122
Rp123
sS'elementorumlibr00euclgoog_0162'
p124
g2
(g6
S'\x8fp\xef\xaa\x88m4?'
p125
tp126
Rp127
sS'elementorumlibr00euclgoog_0161'
p128
g2
(g6
S'\xbdzk\xa9\x86\xe95?'
p129
tp130
Rp131
sS'elementorumlibr00euclgoog_0122'
p132
g2
(g6
S'].\x82(\xaa\x078?'
p133
tp134
Rp135
sS'elementorumlibr00euclgoog_0149'
p136
g2
(g6
S'>\xf1\xc6F\xb0\xe22?'
p137
tp138
Rp139
sS'elementorumlibr00euclgoog_0259'
p140
g2
(g6
S'\xb5\xa9U\xff\x90\xddC?'
p141
tp142
Rp143
sS'elementorumlibr00euclgoog_0213'
p144
g2
(g6
S'o\xd7DC\xf5\n7?'
p145
tp146
Rp147
sS'elementorumlibr00euclgoog_0169'
p148
g2
(g6
S'i\x0f\xb0\xf5\xbbG=?'
p149
tp150
Rp151
sS'elementorumlibr00euclgoog_0148'
p152
g2
(g6
S'@\x8a\xfd\xb0\xb5\x942?'
p153
tp154
Rp155
sS'elementorumlibr00euclgoog_0216'
p156
g2
(g6
S'(\nI\xe9a\xe94?'
p157
tp158
Rp159
sS'elementorumlibr00euclgoog_0302'
p160
g2
(g6
S'\xbdT\xde\xfb}{;?'
p161
tp162
Rp163
sS'elementorumlibr00euclgoog_0059'
p164
g2
(g6
S'\x10\x83\x1b\xdf\xfb\xe12?'
p165
tp166
Rp167
sS'elementorumlibr00euclgoog_0058'
p168
g2
(g6
S'\xa8\x9c\xb14\x04\xee7?'
p169
tp170
Rp171
sS'elementorumlibr00euclgoog_0307'
p172
g2
(g6
S'j\xa7{\xb5\t\xdfB?'
p173
tp174
Rp175
sS'elementorumlibr00euclgoog_0107'
p176
g2
(g6
S'\xa88\xa4\xfc\xb3\xfdA?'
p177
tp178
Rp179
sS'elementorumlibr00euclgoog_0305'
p180
g2
(g6
S'\x9b\x12\xb6\xa0q+;?'
p181
tp182
Rp183
sS'elementorumlibr00euclgoog_0304'
p184
g2
(g6
S'm7J\xbe\xf6\xad9?'
p185
tp186
Rp187
sS'elementorumlibr00euclgoog_0053'
p188
g2
(g6
S'\xef\x88.\x12\x9d\xcf:?'
p189
tp190
Rp191
sS'elementorumlibr00euclgoog_0052'
p192
g2
(g6
S'\r\xaf\nz\x19^5?'
p193
tp194
Rp195
sS'elementorumlibr00euclgoog_0051'
p196
g2
(g6
S'\xf8p\xa8?\xb0\xa21?'
p197
tp198
Rp199
sS'elementorumlibr00euclgoog_0050'
p200
g2
(g6
S'\x10\x83\x1b\xdf\xfb\xe12?'
p201
tp202
Rp203
sS'elementorumlibr00euclgoog_0057'
p204
g2
(g6
S'\xda \x9c\x08\x91\x1d4?'
p205
tp206
Rp207
sS'elementorumlibr00euclgoog_0056'
p208
g2
(g6
S'\xcbt3\x04A\x952?'
p209
tp210
Rp211
sS'elementorumlibr00euclgoog_0055'
p212
g2
(g6
S'\xcbt3\x04A\x952?'
p213
tp214
Rp215
sS'elementorumlibr00euclgoog_0054'
p216
g2
(g6
S'\x96\r\xf2^XH1?'
p217
tp218
Rp219
sS'elementorumlibr00euclgoog_0109'
p220
g2
(g6
S'1<.\xa57\x9d7?'
p221
tp222
Rp223
sS'elementorumlibr00euclgoog_0198'
p224
g2
(g6
S'\xa8p\xc7\x14T\xdf5?'
p225
tp226
Rp227
sS'elementorumlibr00euclgoog_0199'
p228
g2
(g6
S'\x0b\xe7\x19A\xd5\xce9?'
p229
tp230
Rp231
sS'elementorumlibr00euclgoog_0217'
p232
g2
(g6
S'\xfe\xe0\xd8\xc6\xffa5?'
p233
tp234
Rp235
sS'elementorumlibr00euclgoog_0108'
p236
g2
(g6
S'\xa0OT\x93BP6?'
p237
tp238
Rp239
sS'elementorumlibr00euclgoog_0192'
p240
g2
(g6
S'\xaf\x9dYRq\xee3?'
p241
tp242
Rp243
sS'elementorumlibr00euclgoog_0193'
p244
g2
(g6
S'\x8a@@\xb6\xb1\x815?'
p245
tp246
Rp247
sS'elementorumlibr00euclgoog_0190'
p248
g2
(g6
S'\xf1\x1c\x994j\x995?'
p249
tp250
Rp251
sS'elementorumlibr00euclgoog_0191'
p252
g2
(g6
S'\x8fH0c\x1c\x9c2?'
p253
tp254
Rp255
sS'elementorumlibr00euclgoog_0196'
p256
g2
(g6
S'\xae\x9dYRq\xee3?'
p257
tp258
Rp259
sS'elementorumlibr00euclgoog_0147'
p260
g2
(g6
S'\xc8\xfc\xf1|\xfdH1?'
p261
tp262
Rp263
sS'elementorumlibr00euclgoog_0194'
p264
g2
(g6
S'\xd3\x11\xb4fz06?'
p265
tp266
Rp267
sS'elementorumlibr00euclgoog_0195'
p268
g2
(g6
S'w7\xda)..3?'
p269
tp270
Rp271
sS'elementorumlibr00euclgoog_0146'
p272
g2
(g6
S'\xeb\xba\xbbMq\x0e5?'
p273
tp274
Rp275
sS'elementorumlibr00euclgoog_0112'
p276
g2
(g6
S'\xab\xa7\x9a~\x92\x8fD?'
p277
tp278
Rp279
sS'elementorumlibr00euclgoog_0113'
p280
g2
(g6
S'\x8b\xd7\xb8@\x83\xbb4?'
p281
tp282
Rp283
sS'elementorumlibr00euclgoog_0110'
p284
g2
(g6
S'\xe1\x17\xc7w\xaeT??'
p285
tp286
Rp287
sS'elementorumlibr00euclgoog_0111'
p288
g2
(g6
S'\x92\xb8g\x1c+\xa2G?'
p289
tp290
Rp291
sS'elementorumlibr00euclgoog_0116'
p292
g2
(g6
S'\x08\xc8&9T\x108?'
p293
tp294
Rp295
sS'elementorumlibr00euclgoog_0117'
p296
g2
(g6
S'\x9d\xceE\xa4\xc8\xaf7?'
p297
tp298
Rp299
sS'elementorumlibr00euclgoog_0114'
p300
g2
(g6
S'\xb4\xe2\xd98x\xb96?'
p301
tp302
Rp303
sS'elementorumlibr00euclgoog_0115'
p304
g2
(g6
S'\xe8\x03\xd9\xb8\n\xc58?'
p305
tp306
Rp307
sS'elementorumlibr00euclgoog_0268'
p308
g2
(g6
S'\x99Y\xcep\xbc\xae>?'
p309
tp310
Rp311
sS'elementorumlibr00euclgoog_0269'
p312
g2
(g6
S'\xa9\x1f\xbc\xa8%\x1b>?'
p313
tp314
Rp315
sS'elementorumlibr00euclgoog_0118'
p316
g2
(g6
S'u\x90\x12\xde\xd1\xcb5?'
p317
tp318
Rp319
sS'elementorumlibr00euclgoog_0119'
p320
g2
(g6
S'\t\xc5daiM:?'
p321
tp322
Rp323
sS'elementorumlibr00euclgoog_0215'
p324
g2
(g6
S'\xcf\xd9\xb5\x88\x84\xcc3?'
p325
tp326
Rp327
sS'elementorumlibr00euclgoog_0301'
p328
g2
(g6
S'\x8a\xaf\x97\x08wN;?'
p329
tp330
Rp331
sS'elementorumlibr00euclgoog_0279'
p332
g2
(g6
S'taY*v\xe7<?'
p333
tp334
Rp335
sS'elementorumlibr00euclgoog_0278'
p336
g2
(g6
S'\xf4\x9b\x8e\xfc\xe8\xe6F?'
p337
tp338
Rp339
sS'elementorumlibr00euclgoog_0277'
p340
g2
(g6
S'\xd8-\x08\xc5\x91\xe2C?'
p341
tp342
Rp343
sS'elementorumlibr00euclgoog_0276'
p344
g2
(g6
S'\xb3o\xf4>n\xfcB?'
p345
tp346
Rp347
sS'elementorumlibr00euclgoog_0275'
p348
g2
(g6
S'\xd6`=\xb7\x06-A?'
p349
tp350
Rp351
sS'elementorumlibr00euclgoog_0274'
p352
g2
(g6
S'\x8foVNVaB?'
p353
tp354
Rp355
sS'elementorumlibr00euclgoog_0273'
p356
g2
(g6
S'\x12\xc5\xef\x84\xd00??'
p357
tp358
Rp359
sS'elementorumlibr00euclgoog_0272'
p360
g2
(g6
S"?@'\x0cX$<?"
p361
tp362
Rp363
sS'elementorumlibr00euclgoog_0253'
p364
g2
(g6
S'\xd2\xaf%kx\x958?'
p365
tp366
Rp367
sS'elementorumlibr00euclgoog_0270'
p368
g2
(g6
S'v\xfe\x89\x8a\x07X=?'
p369
tp370
Rp371
sS'elementorumlibr00euclgoog_0189'
p372
g2
(g6
S'\x1bO\x9f\xd4x\x0c3?'
p373
tp374
Rp375
sS'elementorumlibr00euclgoog_0188'
p376
g2
(g6
S'y\x08O\xd7G\xa73?'
p377
tp378
Rp379
sS'elementorumlibr00euclgoog_0209'
p380
g2
(g6
S'm+r&\x8e\x867?'
p381
tp382
Rp383
sS'elementorumlibr00euclgoog_0245'
p384
g2
(g6
S'\x9b\x9f\x0f\xd1h\x97W?'
p385
tp386
Rp387
sS'elementorumlibr00euclgoog_0181'
p388
g2
(g6
S'\xcfJ({\x94I4?'
p389
tp390
Rp391
sS'elementorumlibr00euclgoog_0180'
p392
g2
(g6
S'\xc3\x85\x95\xa4w\xda3?'
p393
tp394
Rp395
sS'elementorumlibr00euclgoog_0183'
p396
g2
(g6
S'|\xaa82{\x994?'
p397
tp398
Rp399
sS'elementorumlibr00euclgoog_0182'
p400
g2
(g6
S'\x1bO\x9f\xd4x\x0c3?'
p401
tp402
Rp403
sS'elementorumlibr00euclgoog_0185'
p404
g2
(g6
S'\xcfJ({\x94I4?'
p405
tp406
Rp407
sS'elementorumlibr00euclgoog_0184'
p408
g2
(g6
S'krGS\x11\xbf2?'
p409
tp410
Rp411
sS'elementorumlibr00euclgoog_0187'
p412
g2
(g6
S'.)z\x0e\x16\xd95?'
p413
tp414
Rp415
sS'elementorumlibr00euclgoog_0186'
p416
g2
(g6
S'\xc2R\x92\xfb[\xc65?'
p417
tp418
Rp419
sS'elementorumlibr00euclgoog_0260'
p420
g2
(g6
S'\x0bf\xb8\x05\x01\xe4E?'
p421
tp422
Rp423
sS'elementorumlibr00euclgoog_0246'
p424
g2
(g6
S'\x07\x81\x13\xef\x9d\xa6\xed>'
p425
tp426
Rp427
sS'elementorumlibr00euclgoog_0261'
p428
g2
(g6
S'\xf0\xa3\x0c_>\xbb>?'
p429
tp430
Rp431
sS'elementorumlibr00euclgoog_0168'
p432
g2
(g6
S'(\xe5\xa6X\xaf\xf43?'
p433
tp434
Rp435
sS'elementorumlibr00euclgoog_0243'
p436
g2
(g6
S'\xf1\x04OZ\xcd\xe79?'
p437
tp438
Rp439
sS'elementorumlibr00euclgoog_0262'
p440
g2
(g6
S'\x1a\x06\xd3\xa2\x99\xa7A?'
p441
tp442
Rp443
sS'elementorumlibr00euclgoog_0101'
p444
g2
(g6
S'7\xbfYr\xa5~3?'
p445
tp446
Rp447
sS'elementorumlibr00euclgoog_0100'
p448
g2
(g6
S'\xafLe\xa6]\xca4?'
p449
tp450
Rp451
sS'elementorumlibr00euclgoog_0103'
p452
g2
(g6
S'O\x7fm6\x07H8?'
p453
tp454
Rp455
sS'elementorumlibr00euclgoog_0102'
p456
g2
(g6
S'\xd3s\x15\xeb\xbf\x1e6?'
p457
tp458
Rp459
sS'elementorumlibr00euclgoog_0105'
p460
g2
(g6
S'P\x00|%\x81\xe86?'
p461
tp462
Rp463
sS'elementorumlibr00euclgoog_0104'
p464
g2
(g6
S'\xe5\xf14\xedT93?'
p465
tp466
Rp467
sS'elementorumlibr00euclgoog_0028'
p468
g2
(g6
S'\x98?\xe7\xff{\xca9?'
p469
tp470
Rp471
sS'elementorumlibr00euclgoog_0029'
p472
g2
(g6
S'\x02\xc4\x8dI\x03\x88;?'
p473
tp474
Rp475
sS'elementorumlibr00euclgoog_0026'
p476
g2
(g6
S'\xec;O\x0eP\xf06?'
p477
tp478
Rp479
sS'elementorumlibr00euclgoog_0027'
p480
g2
(g6
S'\x80\xe3\x97_\xe6\xae7?'
p481
tp482
Rp483
sS'elementorumlibr00euclgoog_0024'
p484
g2
(g6
S'\xbe\x1f.\xa19\xfd9?'
p485
tp486
Rp487
sS'elementorumlibr00euclgoog_0025'
p488
g2
(g6
S'\xd0Z\x8d\xd8\x9f\xb5:?'
p489
tp490
Rp491
sS'elementorumlibr00euclgoog_0022'
p492
g2
(g6
S'\xa4\x9ep\x00\x7fs7?'
p493
tp494
Rp495
sS'elementorumlibr00euclgoog_0023'
p496
g2
(g6
S'[\x97\t\xc0\xbc49?'
p497
tp498
Rp499
sS'elementorumlibr00euclgoog_0020'
p500
g2
(g6
S'\x88n\x10\xfb\x06\xd47?'
p501
tp502
Rp503
sS'elementorumlibr00euclgoog_0021'
p504
g2
(g6
S'\xd3X\xce\x0c%0;?'
p505
tp506
Rp507
sS'elementorumlibr00euclgoog_0208'
p508
g2
(g6
S'\x9f\x97b\xba\xcfK8?'
p509
tp510
Rp511
sS'elementorumlibr00euclgoog_0201'
p512
g2
(g6
S'6{\xae\xdc\xe5\xdc4?'
p513
tp514
Rp515
sS'elementorumlibr00euclgoog_0138'
p516
g2
(g6
S'E\x05\x88\xf0Y\xaf5?'
p517
tp518
Rp519
sS'elementorumlibr00euclgoog_0139'
p520
g2
(g6
S'\xf02\x84\xb5*f:?'
p521
tp522
Rp523
sS'elementorumlibr00euclgoog_0290'
p524
g2
(g6
S';\xccd\x8b\x12b:?'
p525
tp526
Rp527
sS'elementorumlibr00euclgoog_0134'
p528
g2
(g6
S'\x99\xa4y]\x87\x12A?'
p529
tp530
Rp531
sS'elementorumlibr00euclgoog_0135'
p532
g2
(g6
S'\x85ow\xc6\x8b\xae7?'
p533
tp534
Rp535
sS'elementorumlibr00euclgoog_0136'
p536
g2
(g6
S'\xd3\x10\n{\xaa\xd11?'
p537
tp538
Rp539
sS'elementorumlibr00euclgoog_0137'
p540
g2
(g6
S'\xf8N\xe6\xec\x9d\xf95?'
p541
tp542
Rp543
sS'elementorumlibr00euclgoog_0130'
p544
g2
(g6
S'\x83\tS*\x88\xe27?'
p545
tp546
Rp547
sS'elementorumlibr00euclgoog_0131'
p548
g2
(g6
S'\xc7\xc9\xdf\xae\xfbbA?'
p549
tp550
Rp551
sS'elementorumlibr00euclgoog_0132'
p552
g2
(g6
S'<m\xf6\x7fK\x7f6?'
p553
tp554
Rp555
sS'elementorumlibr00euclgoog_0133'
p556
g2
(g6
S'\xaf\x16\x91\x00q!7?'
p557
tp558
Rp559
sS'elementorumlibr00euclgoog_0315'
p560
g2
(g6
S'\xe2O\xee\x86?H8?'
p561
tp562
Rp563
sS'elementorumlibr00euclgoog_0204'
p564
g2
(g6
S'.\x04\xd8}c\xe44?'
p565
tp566
Rp567
sS'elementorumlibr00euclgoog_0205'
p568
g2
(g6
S'\xf7$\x89\xe1\xd4\xb32?'
p569
tp570
Rp571
sS'elementorumlibr00euclgoog_0106'
p572
g2
(g6
S'/7O\xefX\x99<?'
p573
tp574
Rp575
sS'elementorumlibr00euclgoog_0211'
p576
g2
(g6
S'\xa2^\xee\xa5\xb52:?'
p577
tp578
Rp579
sS'elementorumlibr00euclgoog_0282'
p580
g2
(g6
S'\xae\xdaAA2`J?'
p581
tp582
Rp583
sS'elementorumlibr00euclgoog_0283'
p584
g2
(g6
S'\xf9I\xb2=Q\x8aI?'
p585
tp586
Rp587
sS'elementorumlibr00euclgoog_0280'
p588
g2
(g6
S'\x1e\x08q\x0b\xf1oA?'
p589
tp590
Rp591
sS'elementorumlibr00euclgoog_0281'
p592
g2
(g6
S'\xe5h\xb5YdN@?'
p593
tp594
Rp595
sS'elementorumlibr00euclgoog_0286'
p596
g2
(g6
S'\xb2\x86ra\xbf:D?'
p597
tp598
Rp599
sS'elementorumlibr00euclgoog_0287'
p600
g2
(g6
S'\x88\x17\xf5\r<\xac>?'
p601
tp602
Rp603
sS'elementorumlibr00euclgoog_0284'
p604
g2
(g6
S'"\xbe\xbd\xf6*\xe7B?'
p605
tp606
Rp607
sS'elementorumlibr00euclgoog_0285'
p608
g2
(g6
S'\x9b\xe7T\xa0J\xb4C?'
p609
tp610
Rp611
sS'elementorumlibr00euclgoog_0288'
p612
g2
(g6
S'g\xcb\xb0\xe7\x82\xbfF?'
p613
tp614
Rp615
sS'elementorumlibr00euclgoog_0289'
p616
g2
(g6
S'v$\x08mT\x00H?'
p617
tp618
Rp619
sS'elementorumlibr00euclgoog_0316'
p620
g2
(g6
S'C\xd5.\xc2\x17\xc1=?'
p621
tp622
Rp623
sS'elementorumlibr00euclgoog_0248'
p624
g2
(g6
S'h1\xe3\x91\x8c\x8b7?'
p625
tp626
Rp627
sS'elementorumlibr00euclgoog_0039'
p628
g2
(g6
S'Qx\xd8"\x08W7?'
p629
tp630
Rp631
sS'elementorumlibr00euclgoog_0038'
p632
g2
(g6
S'o\r\xff\x8b\xf3/3?'
p633
tp634
Rp635
sS'elementorumlibr00euclgoog_0035'
p636
g2
(g6
S'\x16Z/G\xe1h3?'
p637
tp638
Rp639
sS'elementorumlibr00euclgoog_0034'
p640
g2
(g6
S'\x80\x03D\x91\x8d\x945?'
p641
tp642
Rp643
sS'elementorumlibr00euclgoog_0037'
p644
g2
(g6
S'\x0b\xf6\xe3w`73?'
p645
tp646
Rp647
sS'elementorumlibr00euclgoog_0036'
p648
g2
(g6
S'K\xc1p\xec\xc9\xb54?'
p649
tp650
Rp651
sS'elementorumlibr00euclgoog_0031'
p652
g2
(g6
S'\x95\x17v\xfcSY6?'
p653
tp654
Rp655
sS'elementorumlibr00euclgoog_0030'
p656
g2
(g6
S'\x1d\xaf\xd3\x1c\xaf\xd3<?'
p657
tp658
Rp659
sS'elementorumlibr00euclgoog_0033'
p660
g2
(g6
S'o\xf2\x14)\xca\xd27?'
p661
tp662
Rp663
sS'elementorumlibr00euclgoog_0032'
p664
g2
(g6
S'\xcc\x08\xec\x05\xd5M4?'
p665
tp666
Rp667
sS'elementorumlibr00euclgoog_0080'
p668
g2
(g6
S'\x16\x7f\x9dG\x06\xd73?'
p669
tp670
Rp671
sS'elementorumlibr00euclgoog_0081'
p672
g2
(g6
S'b\xb37Zn\x0f8?'
p673
tp674
Rp675
sS'elementorumlibr00euclgoog_0082'
p676
g2
(g6
S'\xea\xba\xbbMq\x0e5?'
p677
tp678
Rp679
sS'elementorumlibr00euclgoog_0083'
p680
g2
(g6
S'\x8fp\xef\xaa\x88m4?'
p681
tp682
Rp683
sS'elementorumlibr00euclgoog_0084'
p684
g2
(g6
S"/'\xc8\x01\x97N4?"
p685
tp686
Rp687
sS'elementorumlibr00euclgoog_0085'
p688
g2
(g6
S'E~\xf5Q\n\x89;?'
p689
tp690
Rp691
sS'elementorumlibr00euclgoog_0086'
p692
g2
(g6
S'\r\x91\xad\x99p\xe59?'
p693
tp694
Rp695
sS'elementorumlibr00euclgoog_0087'
p696
g2
(g6
S'\x19+\\\xe8rV6?'
p697
tp698
Rp699
sS'elementorumlibr00euclgoog_0088'
p700
g2
(g6
S'\xa4Qqq6\x913?'
p701
tp702
Rp703
sS'elementorumlibr00euclgoog_0089'
p704
g2
(g6
S'\x0eKR\x06\xc2\xf13?'
p705
tp706
Rp707
sS'elementorumlibr00euclgoog_0121'
p708
g2
(g6
S'P\x00|%\x81\xe86?'
p709
tp710
Rp711
sS'elementorumlibr00euclgoog_0120'
p712
g2
(g6
S')\xbf\x86\x87\x9fA7?'
p713
tp714
Rp715
sS'elementorumlibr00euclgoog_0127'
p716
g2
(g6
S'h,85\xbc\x037?'
p717
tp718
Rp719
sS'elementorumlibr00euclgoog_0126'
p720
g2
(g6
S'P\x00|%\x81\xe86?'
p721
tp722
Rp723
sS'elementorumlibr00euclgoog_0125'
p724
g2
(g6
S'\xdc\xed\xfa0m\xb78?'
p725
tp726
Rp727
sS'elementorumlibr00euclgoog_0124'
p728
g2
(g6
S'P\x00|%\x81\xe86?'
p729
tp730
Rp731
sS'elementorumlibr00euclgoog_0263'
p732
g2
(g6
S'\x80\x88#\xe1r\x1aC?'
p733
tp734
Rp735
sS'elementorumlibr00euclgoog_0291'
p736
g2
(g6
S'n\xd3^\xbfX\x038?'
p737
tp738
Rp739
sS'elementorumlibr00euclgoog_0255'
p740
g2
(g6
S'\x83\xbd\xf6;?-@?'
p741
tp742
Rp743
sS'elementorumlibr00euclgoog_0293'
p744
g2
(g6
S'\xc5S\x8cg\xd6=7?'
p745
tp746
Rp747
sS'elementorumlibr00euclgoog_0292'
p748
g2
(g6
S'\xb9C\xeb\x1a\xa7H9?'
p749
tp750
Rp751
sS'elementorumlibr00euclgoog_0295'
p752
g2
(g6
S'\x83\xa6\xcd\xd1q\xef7?'
p753
tp754
Rp755
sS'elementorumlibr00euclgoog_0294'
p756
g2
(g6
S'\xb0\xe9\x96\xb9\xb1\xca<?'
p757
tp758
Rp759
sS'elementorumlibr00euclgoog_0297'
p760
g2
(g6
S'\xfdKP\xa6\xa8R9?'
p761
tp762
Rp763
sS'elementorumlibr00euclgoog_0166'
p764
g2
(g6
S'\xc75\xe0\x17\x14\xec1?'
p765
tp766
Rp767
sS'elementorumlibr00euclgoog_0299'
p768
g2
(g6
S'\xbdT\xde\xfb}{;?'
p769
tp770
Rp771
sS'elementorumlibr00euclgoog_0298'
p772
g2
(g6
S'\x0frr9\x05I=?'
p773
tp774
Rp775
sS'elementorumlibr00euclgoog_0257'
p776
g2
(g6
S'\xc2e\xd1\xdcT\xae=?'
p777
tp778
Rp779
sS'elementorumlibr00euclgoog_0310'
p780
g2
(g6
S'Q@v\x04\xe4q<?'
p781
tp782
Rp783
sS'elementorumlibr00euclgoog_0256'
p784
g2
(g6
S'W\x86<@\x87\xb7;?'
p785
tp786
Rp787
sS'elementorumlibr00euclgoog_0212'
p788
g2
(g6
S'\xdet\xb8A\x95\x049?'
p789
tp790
Rp791
sS'elementorumlibr00euclgoog_0251'
p792
g2
(g6
S"\x13G\xaf'\x0e\xf2E?"
p793
tp794
Rp795
sS'elementorumlibr00euclgoog_0250'
p796
g2
(g6
S'\x95\xa4M\xf3\x1f2@?'
p797
tp798
Rp799
sS'elementorumlibr00euclgoog_0224'
p800
g2
(g6
S'\xa8p\xc7\x14T\xdf5?'
p801
tp802
Rp803
sS'elementorumlibr00euclgoog_0225'
p804
g2
(g6
S'\\"\x0c\x9a\n35?'
p805
tp806
Rp807
sS'elementorumlibr00euclgoog_0226'
p808
g2
(g6
S'\xa4\xa9;)n\xf83?'
p809
tp810
Rp811
sS'elementorumlibr00euclgoog_0227'
p812
g2
(g6
S'I\xb7\x17\x12\x85D5?'
p813
tp814
Rp815
sS'elementorumlibr00euclgoog_0220'
p816
g2
(g6
S'n\xd7DC\xf5\n7?'
p817
tp818
Rp819
sS'elementorumlibr00euclgoog_0221'
p820
g2
(g6
S'\x86y\xb4\xca\xcb\x9a3?'
p821
tp822
Rp823
sS'elementorumlibr00euclgoog_0222'
p824
g2
(g6
S'\x05A\xb8\x8flO:?'
p825
tp826
Rp827
sS'elementorumlibr00euclgoog_0223'
p828
g2
(g6
S'\x82\xc9iW/\x895?'
p829
tp830
Rp831
sS'elementorumlibr00euclgoog_0160'
p832
g2
(g6
S'\x1f\x0f\xcd\x9b\x05\x007?'
p833
tp834
Rp835
sS'elementorumlibr00euclgoog_0202'
p836
g2
(g6
S'\x80\rM|dX4?'
p837
tp838
Rp839
sS'elementorumlibr00euclgoog_0229'
p840
g2
(g6
S'\xd6w\xba\xb8\xb1X2?'
p841
tp842
Rp843
sS'elementorumlibr00euclgoog_0264'
p844
g2
(g6
S'.\xf41\xde*\x85D?'
p845
tp846
Rp847
sS'elementorumlibr00euclgoog_0271'
p848
g2
(g6
S'\xe7\x81&\x9d\x90U:?'
p849
tp850
Rp851
sS'elementorumlibr00euclgoog_0099'
p852
g2
(g6
S'\xbd\x95U\xfc\xfc\xbd4?'
p853
tp854
Rp855
sS'elementorumlibr00euclgoog_0098'
p856
g2
(g6
S'\x86\xbds\xe7\x03i6?'
p857
tp858
Rp859
sS'elementorumlibr00euclgoog_0097'
p860
g2
(g6
S'bK\x89Y\x14\x1d4?'
p861
tp862
Rp863
sS'elementorumlibr00euclgoog_0096'
p864
g2
(g6
S'h,85\xbc\x037?'
p865
tp866
Rp867
sS'elementorumlibr00euclgoog_0095'
p868
g2
(g6
S'\xc2\r\x1ed\xb6\x15:?'
p869
tp870
Rp871
sS'elementorumlibr00euclgoog_0094'
p872
g2
(g6
S'\x0cy\x85\x1e\xe5\xd38?'
p873
tp874
Rp875
sS'elementorumlibr00euclgoog_0093'
p876
g2
(g6
S'\x8fp\xef\xaa\x88m4?'
p877
tp878
Rp879
sS'elementorumlibr00euclgoog_0092'
p880
g2
(g6
S'\x8b\xd7\xb8@\x83\xbb4?'
p881
tp882
Rp883
sS'elementorumlibr00euclgoog_0091'
p884
g2
(g6
S"'\xc2H_\x8a\x045?"
p885
tp886
Rp887
sS'elementorumlibr00euclgoog_0090'
p888
g2
(g6
S'"\x14\xacQ\xe4\x032?'
p889
tp890
Rp891
sS'elementorumlibr00euclgoog_0320'
p892
g2
(g6
S'\x82\xbd\xf6;?-@?'
p893
tp894
Rp895
sS'elementorumlibr00euclgoog_0151'
p896
g2
(g6
S'\xd1\x91\xc1\x15!\xb62?'
p897
tp898
Rp899
sS'elementorumlibr00euclgoog_0254'
p900
g2
(g6
S'\xf8V\x14\x95\xf5+C?'
p901
tp902
Rp903
sS'elementorumlibr00euclgoog_0203'
p904
g2
(g6
S'\xfe\xe0\xd8\xc6\xffa5?'
p905
tp906
Rp907
sS'elementorumlibr00euclgoog_0309'
p908
g2
(g6
S'\xea\x92\x19~g\x88<?'
p909
tp910
Rp911
sS'elementorumlibr00euclgoog_0258'
p912
g2
(g6
S'\\X\xebBa:@?'
p913
tp914
Rp915
sS'elementorumlibr00euclgoog_0017'
p916
g2
(g6
S'Yz\xac\x86\xea-B?'
p917
tp918
Rp919
sS'elementorumlibr00euclgoog_0016'
p920
g2
(g6
S'd\x94\x1bU!\x83A?'
p921
tp922
Rp923
sS'elementorumlibr00euclgoog_0015'
p924
g2
(g6
S'({4Hx\x1d@?'
p925
tp926
Rp927
sS'elementorumlibr00euclgoog_0214'
p928
g2
(g6
S'\xfb\xeb\x14\xcd\xba\x9a4?'
p929
tp930
Rp931
sS'elementorumlibr00euclgoog_0158'
p932
g2
(g6
S'C#4\x1b\xbbF2?'
p933
tp934
Rp935
sS'elementorumlibr00euclgoog_0159'
p936
g2
(g6
S'cH\xc7\x81)Z6?'
p937
tp938
Rp939
sS'elementorumlibr00euclgoog_0156'
p940
g2
(g6
S'\xeen\xdc\n\xed\x943?'
p941
tp942
Rp943
sS'elementorumlibr00euclgoog_0157'
p944
g2
(g6
S'\x98 \xa9\x96"\xaf4?'
p945
tp946
Rp947
sS'elementorumlibr00euclgoog_0154'
p948
g2
(g6
S'\x1f\x0f\xcd\x9b\x05\x007?'
p949
tp950
Rp951
sS'elementorumlibr00euclgoog_0155'
p952
g2
(g6
S'3\x87h\xee\xc4\x948?'
p953
tp954
Rp955
sS'elementorumlibr00euclgoog_0152'
p956
g2
(g6
S'\xce\xf8\x8a\xab\x1b\x043?'
p957
tp958
Rp959
sS'elementorumlibr00euclgoog_0153'
p960
g2
(g6
S'\x15\xb0\xd1\xa8\xce;3?'
p961
tp962
Rp963
sS'elementorumlibr00euclgoog_0019'
p964
g2
(g6
S'+\x1f\xc3\xe2\xdf\xc8@?'
p965
tp966
Rp967
sS'elementorumlibr00euclgoog_0018'
p968
g2
(g6
S'\x14\xa6\xca\x13\xa6\xcaC?'
p969
tp970
Rp971
sS'elementorumlibr00euclgoog_0233'
p972
g2
(g6
S'\xba\x18\xa8\x07)t2?'
p973
tp974
Rp975
sS'elementorumlibr00euclgoog_0232'
p976
g2
(g6
S'Hm\xd3\xf0\x1f[3?'
p977
tp978
Rp979
sS'elementorumlibr00euclgoog_0231'
p980
g2
(g6
S'\x1bO\x9f\xd4x\x0c3?'
p981
tp982
Rp983
sS'elementorumlibr00euclgoog_0230'
p984
g2
(g6
S'\xa8p\xc7\x14T\xdf5?'
p985
tp986
Rp987
sS'elementorumlibr00euclgoog_0237'
p988
g2
(g6
S'\xfb\xeb\x14\xcd\xba\x9a4?'
p989
tp990
Rp991
sS'elementorumlibr00euclgoog_0236'
p992
g2
(g6
S'\\"\x0c\x9a\n35?'
p993
tp994
Rp995
sS'elementorumlibr00euclgoog_0235'
p996
g2
(g6
S'\xf5\xabo\xe9\xe4r5?'
p997
tp998
Rp999
sS'elementorumlibr00euclgoog_0234'
p1000
g2
(g6
S'\xd2\xaf%kx\x958?'
p1001
tp1002
Rp1003
sS'elementorumlibr00euclgoog_0200'
p1004
g2
(g6
S'\xce\x17%\xd2x56?'
p1005
tp1006
Rp1007
sS'elementorumlibr00euclgoog_0265'
p1008
g2
(g6
S'\ta\x7fX.\x16;?'
p1009
tp1010
Rp1011
sS'elementorumlibr00euclgoog_0239'
p1012
g2
(g6
S'[_\xf8\x04Z\xd91?'
p1013
tp1014
Rp1015
sS'elementorumlibr00euclgoog_0238'
p1016
g2
(g6
S'\xfe\xb2\xa0\xb8\xa0\x816?'
p1017
tp1018
Rp1019
sS'elementorumlibr00euclgoog_0266'
p1020
g2
(g6
S'\x19i\xa2B\x087A?'
p1021
tp1022
Rp1023
sS'elementorumlibr00euclgoog_0303'
p1024
g2
(g6
S'x\xf1\xd2z\xdf\xb5:?'
p1025
tp1026
Rp1027
sS'elementorumlibr00euclgoog_0300'
p1028
g2
(g6
S'\x1du\\v\x0c\x9c8?'
p1029
tp1030
Rp1031
sS'elementorumlibr00euclgoog_0306'
p1032
g2
(g6
S'{\xa7\x1ff\x19-<?'
p1033
tp1034
Rp1035
sS'elementorumlibr00euclgoog_0178'
p1036
g2
(g6
S'\xfb\xeb\x14\xcd\xba\x9a4?'
p1037
tp1038
Rp1039
sS'elementorumlibr00euclgoog_0319'
p1040
g2
(g6
S'\xb5\x8d\x9e/m\xd17?'
p1041
tp1042
Rp1043
sS'elementorumlibr00euclgoog_0179'
p1044
g2
(g6
S'#\xeb\x17\xc4\xad\xf93?'
p1045
tp1046
Rp1047
sS'elementorumlibr00euclgoog_0267'
p1048
g2
(g6
S'\x83\xa6\xcd\xd1q\xef7?'
p1049
tp1050
Rp1051
sS'elementorumlibr00euclgoog_0244'
p1052
g2
(g6
S'\xc7\x0f5%\x0e\x1b9?'
p1053
tp1054
Rp1055
sS'elementorumlibr00euclgoog_0062'
p1056
g2
(g6
S'W\x00N\xbb%y4?'
p1057
tp1058
Rp1059
sS'elementorumlibr00euclgoog_0063'
p1060
g2
(g6
S'o\r\xff\x8b\xf3/3?'
p1061
tp1062
Rp1063
sS'elementorumlibr00euclgoog_0060'
p1064
g2
(g6
S'\xce\x9c\xa4\x07i\x066?'
p1065
tp1066
Rp1067
sS'elementorumlibr00euclgoog_0061'
p1068
g2
(g6
S'\x0b\xf6\xe3w`73?'
p1069
tp1070
Rp1071
sS'elementorumlibr00euclgoog_0066'
p1072
g2
(g6
S'i`\x1b\xf3\xb0\x9f5?'
p1073
tp1074
Rp1075
sS'elementorumlibr00euclgoog_0067'
p1076
g2
(g6
S'7\xcd\xea\xb2\xaa\xd6A?'
p1077
tp1078
Rp1079
sS'elementorumlibr00euclgoog_0064'
p1080
g2
(g6
S'\xe0\xfcq?\xf4,7?'
p1081
tp1082
Rp1083
sS'elementorumlibr00euclgoog_0065'
p1084
g2
(g6
S'\xde>\x89n\xbd}2?'
p1085
tp1086
Rp1087
sS'elementorumlibr00euclgoog_0145'
p1088
g2
(g6
S'\xb3\x18\xae\xdedb4?'
p1089
tp1090
Rp1091
sS'elementorumlibr00euclgoog_0144'
p1092
g2
(g6
S'V\xe4\xec\xd8\x13\x927?'
p1093
tp1094
Rp1095
sS'elementorumlibr00euclgoog_0068'
p1096
g2
(g6
S'\x1a\x001\xb8\xf1\xbd??'
p1097
tp1098
Rp1099
sS'elementorumlibr00euclgoog_0069'
p1100
g2
(g6
S'\xb3\xb1^4\xbd\xba4?'
p1101
tp1102
Rp1103
sS'elementorumlibr00euclgoog_0141'
p1104
g2
(g6
S'"\x14\xacQ\xe4\x032?'
p1105
tp1106
Rp1107
sS'elementorumlibr00euclgoog_0140'
p1108
g2
(g6
S'\xd5B \xfb\xb1y3?'
p1109
tp1110
Rp1111
sS'elementorumlibr00euclgoog_0143'
p1112
g2
(g6
S"\x82'\xffT\xe9y4?"
p1113
tp1114
Rp1115
sS'elementorumlibr00euclgoog_0142'
p1116
g2
(g6
S't\xe1\xd0\xd64I2?'
p1117
tp1118
Rp1119
sS'elementorumlibr00euclgoog_0308'
p1120
g2
(g6
S'\xee\xab\xe0P\x8c\x8eD?'
p1121
tp1122
Rp1123
sS'elementorumlibr00euclgoog_0206'
p1124
g2
(g6
S'(F,\xf2]\xb39?'
p1125
tp1126
Rp1127
sS'elementorumlibr00euclgoog_0240'
p1128
g2
(g6
S'\xe4\xd0\xd5\xd1\x98\x9a6?'
p1129
tp1130
Rp1131
sS'elementorumlibr00euclgoog_0321'
p1132
g2
(g6
S'\xf4r0\xe2\xb3W\xd9>'
p1133
tp1134
Rp1135
sS'elementorumlibr00euclgoog_0228'
p1136
g2
(g6
S'\xc4\x85\x95\xa4w\xda3?'
p1137
tp1138
Rp1139
sS'elementorumlibr00euclgoog_0129'
p1140
g2
(g6
S'bH\xc7\x81)Z6?'
p1141
tp1142
Rp1143
sS'elementorumlibr00euclgoog_0241'
p1144
g2
(g6
S'\xe0\xa7\xbb\xea\xb0\x187?'
p1145
tp1146
Rp1147
sS'elementorumlibr00euclgoog_0170'
p1148
g2
(g6
S'\x0b\xe7\x19A\xd5\xce9?'
p1149
tp1150
Rp1151
sS'elementorumlibr00euclgoog_0247'
p1152
g2
(g6
S'\xf8V\x83(\x9d\xeb8?'
p1153
tp1154
Rp1155
sS'elementorumlibr00euclgoog_0150'
p1156
g2
(g6
S'\x98 \xa9\x96"\xaf4?'
p1157
tp1158
Rp1159
sS'elementorumlibr00euclgoog_0171'
p1160
g2
(g6
S'\xcb\x9a\xdd\x07\xf876?'
p1161
tp1162
Rp1163
sS'elementorumlibr00euclgoog_0207'
p1164
g2
(g6
S'\xa2v8\x80R\xe45?'
p1165
tp1166
Rp1167
sS'elementorumlibr00euclgoog_0210'
p1168
g2
(g6
S'\xb3L\x9bc\xba#:?'
p1169
tp1170
Rp1171
sS'elementorumlibr00euclgoog_0071'
p1172
g2
(g6
S'\xa7M\x13e<\x894?'
p1173
tp1174
Rp1175
sS'elementorumlibr00euclgoog_0070'
p1176
g2
(g6
S'\xb1\xf872\x04\x942?'
p1177
tp1178
Rp1179
sS'elementorumlibr00euclgoog_0073'
p1180
g2
(g6
S'\x10\x83\x1b\xdf\xfb\xe12?'
p1181
tp1182
Rp1183
sS'elementorumlibr00euclgoog_0072'
p1184
g2
(g6
S':\xab\x7f\xb5\x88k4?'
p1185
tp1186
Rp1187
sS'elementorumlibr00euclgoog_0075'
p1188
g2
(g6
S'\xc56\x9almO6?'
p1189
tp1190
Rp1191
sS'elementorumlibr00euclgoog_0074'
p1192
g2
(g6
S'\xd3\t0=]\xcb7?'
p1193
tp1194
Rp1195
sS'elementorumlibr00euclgoog_0077'
p1196
g2
(g6
S'\x9a0\xa1\x93\x0212?'
p1197
tp1198
Rp1199
sS'elementorumlibr00euclgoog_0076'
p1200
g2
(g6
S'\x0e\x92aKu{:?'
p1201
tp1202
Rp1203
sS'elementorumlibr00euclgoog_0079'
p1204
g2
(g6
S'\xdf\nI<\x89\x8f7?'
p1205
tp1206
Rp1207
sS'elementorumlibr00euclgoog_0078'
p1208
g2
(g6
S'\x0b\xf6\xe3w`73?'
p1209
tp1210
Rp1211
sS'elementorumlibr00euclgoog_0172'
p1212
g2
(g6
S'\xea^\xed\xa8dh:?'
p1213
tp1214
Rp1215
sS'elementorumlibr00euclgoog_0173'
p1216
g2
(g6
S'\xca+\xf7U\xe0Y3?'
p1217
tp1218
Rp1219
sS'elementorumlibr00euclgoog_0174'
p1220
g2
(g6
S'\xcfJ({\x94I4?'
p1221
tp1222
Rp1223
sS'elementorumlibr00euclgoog_0175'
p1224
g2
(g6
S'\xe2\xc2t\xb9/{9?'
p1225
tp1226
Rp1227
sS'elementorumlibr00euclgoog_0176'
p1228
g2
(g6
S'^&\x84\xf0?\xc03?'
p1229
tp1230
Rp1231
sS'elementorumlibr00euclgoog_0177'
p1232
g2
(g6
S'\x1bO\x9f\xd4x\x0c3?'
p1233
tp1234
Rp1235
s.