(dp0
S'commandinus_1747_v1_1_0076'
p1
cnumpy.core.multiarray
scalar
p2
(cnumpy
dtype
p3
(S'f8'
p4
I0
I1
tp5
Rp6
(I3
S'<'
p7
NNNI-1
I-1
I0
tp8
bS'\x0e\x92aKu{:?'
p9
tp10
Rp11
sS'commandinus_1747_v1_1_0077'
p12
g2
(g6
S'\x9a0\xa1\x93\x0212?'
p13
tp14
Rp15
sS'commandinus_1747_v1_1_0074'
p16
g2
(g6
S'\x11A\x04\xb02\x917?'
p17
tp18
Rp19
sS'commandinus_1747_v1_1_0075'
p20
g2
(g6
S'\x9a\xa4\xadc\xef\x036?'
p21
tp22
Rp23
sS'commandinus_1747_v1_1_0072'
p24
g2
(g6
S':\xab\x7f\xb5\x88k4?'
p25
tp26
Rp27
sS'commandinus_1747_v1_1_0073'
p28
g2
(g6
S'\x10\x83\x1b\xdf\xfb\xe12?'
p29
tp30
Rp31
sS'commandinus_1747_v1_1_0070'
p32
g2
(g6
S'\xb1\xf872\x04\x942?'
p33
tp34
Rp35
sS'commandinus_1747_v1_1_0071'
p36
g2
(g6
S'\xa7M\x13e<\x894?'
p37
tp38
Rp39
sS'commandinus_1747_v1_1_0287'
p40
g2
(g6
S"(v\xfd\x02@'=?"
p41
tp42
Rp43
sS'commandinus_1747_v1_1_0207'
p44
g2
(g6
S'\xa2v8\x80R\xe45?'
p45
tp46
Rp47
sS'commandinus_1747_v1_1_0131'
p48
g2
(g6
S'u/\xcd\xf7\xac\x03A?'
p49
tp50
Rp51
sS'commandinus_1747_v1_1_0078'
p52
g2
(g6
S'\x0b\xf6\xe3w`73?'
p53
tp54
Rp55
sS'commandinus_1747_v1_1_0079'
p56
g2
(g6
S'\xdf\nI<\x89\x8f7?'
p57
tp58
Rp59
sS'commandinus_1747_v1_1_0243'
p60
g2
(g6
S'\xf1\x04OZ\xcd\xe79?'
p61
tp62
Rp63
sS'commandinus_1747_v1_1_0130'
p64
g2
(g6
S'1<.\xa57\x9d7?'
p65
tp66
Rp67
sS'commandinus_1747_v1_1_0269'
p68
g2
(g6
S'\xa9\x1f\xbc\xa8%\x1b>?'
p69
tp70
Rp71
sS'commandinus_1747_v1_1_0179'
p72
g2
(g6
S'#\xeb\x17\xc4\xad\xf93?'
p73
tp74
Rp75
sS'commandinus_1747_v1_1_0178'
p76
g2
(g6
S'\xfb\xeb\x14\xcd\xba\x9a4?'
p77
tp78
Rp79
sS'commandinus_1747_v1_1_0177'
p80
g2
(g6
S'krGS\x11\xbf2?'
p81
tp82
Rp83
sS'commandinus_1747_v1_1_0176'
p84
g2
(g6
S'^&\x84\xf0?\xc03?'
p85
tp86
Rp87
sS'commandinus_1747_v1_1_0175'
p88
g2
(g6
S'\xaf\xaa\xb1\x08\x8719?'
p89
tp90
Rp91
sS'commandinus_1747_v1_1_0174'
p92
g2
(g6
S'\x8b\x98\xe5\xef\x7f\x8a4?'
p93
tp94
Rp95
sS'commandinus_1747_v1_1_0173'
p96
g2
(g6
S'\xca+\xf7U\xe0Y3?'
p97
tp98
Rp99
sS'commandinus_1747_v1_1_0172'
p100
g2
(g6
S'\xf8\xcfR\x9c\xe8[:?'
p101
tp102
Rp103
sS'commandinus_1747_v1_1_0171'
p104
g2
(g6
S'\xa2v8\x80R\xe45?'
p105
tp106
Rp107
sS'commandinus_1747_v1_1_0170'
p108
g2
(g6
S'\xae\xfe\xde\xeb\x1f\xad9?'
p109
tp110
Rp111
sS'commandinus_1747_v1_1_0089'
p112
g2
(g6
S'\x0eKR\x06\xc2\xf13?'
p113
tp114
Rp115
sS'commandinus_1747_v1_1_0088'
p116
g2
(g6
S'\xa6\xb7\x95\r:]3?'
p117
tp118
Rp119
sS'commandinus_1747_v1_1_0249'
p120
g2
(g6
S'C\xbd\x88}\x83IE?'
p121
tp122
Rp123
sS'commandinus_1747_v1_1_0248'
p124
g2
(g6
S'\x8a\x8a\x84\xd7\x16k7?'
p125
tp126
Rp127
sS'commandinus_1747_v1_1_0083'
p128
g2
(g6
S'"\x11\xeay\xf9@4?'
p129
tp130
Rp131
sS'commandinus_1747_v1_1_0082'
p132
g2
(g6
S'*[\x7f\xc9\x8f\xb64?'
p133
tp134
Rp135
sS'commandinus_1747_v1_1_0081'
p136
g2
(g6
S'b\xb37Zn\x0f8?'
p137
tp138
Rp139
sS'commandinus_1747_v1_1_0080'
p140
g2
(g6
S'+I\xf3\xb1\x82\xbf3?'
p141
tp142
Rp143
sS'commandinus_1747_v1_1_0087'
p144
g2
(g6
S'\x19+\\\xe8rV6?'
p145
tp146
Rp147
sS'commandinus_1747_v1_1_0086'
p148
g2
(g6
S'\r\x91\xad\x99p\xe59?'
p149
tp150
Rp151
sS'commandinus_1747_v1_1_0085'
p152
g2
(g6
S'\xb7\xdcU\x89\xa23;?'
p153
tp154
Rp155
sS'commandinus_1747_v1_1_0084'
p156
g2
(g6
S'y\xaaW7Q\x1e4?'
p157
tp158
Rp159
sS'commandinus_1747_v1_1_0154'
p160
g2
(g6
S'+X\xbd\xf1\xa4\xf36?'
p161
tp162
Rp163
sS'commandinus_1747_v1_1_0319'
p164
g2
(g6
S'\xb5\x8d\x9e/m\xd17?'
p165
tp166
Rp167
sS'commandinus_1747_v1_1_0138'
p168
g2
(g6
S'E\x05\x88\xf0Y\xaf5?'
p169
tp170
Rp171
sS'commandinus_1747_v1_1_0139'
p172
g2
(g6
S'\xcc\xf0\xe9\x1dR=:?'
p173
tp174
Rp175
sS'commandinus_1747_v1_1_0065'
p176
g2
(g6
S'X \xfa\xec\xcc^2?'
p177
tp178
Rp179
sS'commandinus_1747_v1_1_0064'
p180
g2
(g6
S'\x8f\x8a>\x95\xb8\xae6?'
p181
tp182
Rp183
sS'commandinus_1747_v1_1_0067'
p184
g2
(g6
S'7\xcd\xea\xb2\xaa\xd6A?'
p185
tp186
Rp187
sS'commandinus_1747_v1_1_0066'
p188
g2
(g6
S'i`\x1b\xf3\xb0\x9f5?'
p189
tp190
Rp191
sS'commandinus_1747_v1_1_0061'
p192
g2
(g6
S'\x0b\xf6\xe3w`73?'
p193
tp194
Rp195
sS'commandinus_1747_v1_1_0060'
p196
g2
(g6
S'\xce\x9c\xa4\x07i\x066?'
p197
tp198
Rp199
sS'commandinus_1747_v1_1_0063'
p200
g2
(g6
S'o\r\xff\x8b\xf3/3?'
p201
tp202
Rp203
sS'commandinus_1747_v1_1_0062'
p204
g2
(g6
S'W\x00N\xbb%y4?'
p205
tp206
Rp207
sS'commandinus_1747_v1_1_0102'
p208
g2
(g6
S'!\x90\xdb\x8a\x7f\xa05?'
p209
tp210
Rp211
sS'commandinus_1747_v1_1_0103'
p212
g2
(g6
S'O\x7fm6\x07H8?'
p213
tp214
Rp215
sS'commandinus_1747_v1_1_0100'
p216
g2
(g6
S'\xafLe\xa6]\xca4?'
p217
tp218
Rp219
sS'commandinus_1747_v1_1_0101'
p220
g2
(g6
S':X\x90\xdc\xaa03?'
p221
tp222
Rp223
sS'commandinus_1747_v1_1_0069'
p224
g2
(g6
S"T'{\x87\xc5l4?"
p225
tp226
Rp227
sS'commandinus_1747_v1_1_0068'
p228
g2
(g6
S'\xdb~\x80D\xd2\x1b??'
p229
tp230
Rp231
sS'commandinus_1747_v1_1_0104'
p232
g2
(g6
S'\xe5\xf14\xedT93?'
p233
tp234
Rp235
sS'commandinus_1747_v1_1_0105'
p236
g2
(g6
S'P\x00|%\x81\xe86?'
p237
tp238
Rp239
sS'commandinus_1747_v1_1_0182'
p240
g2
(g6
S'A\xa2\xcf\xae\x04\xe72?'
p241
tp242
Rp243
sS'commandinus_1747_v1_1_0183'
p244
g2
(g6
S'|\xaa82{\x994?'
p245
tp246
Rp247
sS'commandinus_1747_v1_1_0180'
p248
g2
(g6
S'\xc3\x85\x95\xa4w\xda3?'
p249
tp250
Rp251
sS'commandinus_1747_v1_1_0181'
p252
g2
(g6
S'\xcfJ({\x94I4?'
p253
tp254
Rp255
sS'commandinus_1747_v1_1_0186'
p256
g2
(g6
S'F\x8e\xfd*\x9d\xc25?'
p257
tp258
Rp259
sS'commandinus_1747_v1_1_0187'
p260
g2
(g6
S'.)z\x0e\x16\xd95?'
p261
tp262
Rp263
sS'commandinus_1747_v1_1_0184'
p264
g2
(g6
S'krGS\x11\xbf2?'
p265
tp266
Rp267
sS'commandinus_1747_v1_1_0185'
p268
g2
(g6
S'\xcfJ({\x94I4?'
p269
tp270
Rp271
sS'commandinus_1747_v1_1_0188'
p272
g2
(g6
S'y\x08O\xd7G\xa73?'
p273
tp274
Rp275
sS'commandinus_1747_v1_1_0189'
p276
g2
(g6
S'\x1d\xcc\xe6\x9e\xf9\t3?'
p277
tp278
Rp279
sS'commandinus_1747_v1_1_0270'
p280
g2
(g6
S'v\xfe\x89\x8a\x07X=?'
p281
tp282
Rp283
sS'commandinus_1747_v1_1_0271'
p284
g2
(g6
S'\xe7\x81&\x9d\x90U:?'
p285
tp286
Rp287
sS'commandinus_1747_v1_1_0272'
p288
g2
(g6
S"?@'\x0cX$<?"
p289
tp290
Rp291
sS'commandinus_1747_v1_1_0273'
p292
g2
(g6
S'\x12\xc5\xef\x84\xd00??'
p293
tp294
Rp295
sS'commandinus_1747_v1_1_0274'
p296
g2
(g6
S'\x8foVNVaB?'
p297
tp298
Rp299
sS'commandinus_1747_v1_1_0275'
p300
g2
(g6
S'\xd6`=\xb7\x06-A?'
p301
tp302
Rp303
sS'commandinus_1747_v1_1_0276'
p304
g2
(g6
S'\xb3o\xf4>n\xfcB?'
p305
tp306
Rp307
sS'commandinus_1747_v1_1_0235'
p308
g2
(g6
S'\xf5\xabo\xe9\xe4r5?'
p309
tp310
Rp311
sS'commandinus_1747_v1_1_0213'
p312
g2
(g6
S'o\xd7DC\xf5\n7?'
p313
tp314
Rp315
sS'commandinus_1747_v1_1_0279'
p316
g2
(g6
S'taY*v\xe7<?'
p317
tp318
Rp319
sS'commandinus_1747_v1_1_0277'
p320
g2
(g6
S'\xd8-\x08\xc5\x91\xe2C?'
p321
tp322
Rp323
sS'commandinus_1747_v1_1_0212'
p324
g2
(g6
S'\xdet\xb8A\x95\x049?'
p325
tp326
Rp327
sS'commandinus_1747_v1_1_0278'
p328
g2
(g6
S'\xf4\x9b\x8e\xfc\xe8\xe6F?'
p329
tp330
Rp331
sS'commandinus_1747_v1_1_0285'
p332
g2
(g6
S'\x9b\xe7T\xa0J\xb4C?'
p333
tp334
Rp335
sS'commandinus_1747_v1_1_0119'
p336
g2
(g6
S'\t\xc5daiM:?'
p337
tp338
Rp339
sS'commandinus_1747_v1_1_0118'
p340
g2
(g6
S'u\x90\x12\xde\xd1\xcb5?'
p341
tp342
Rp343
sS'commandinus_1747_v1_1_0298'
p344
g2
(g6
S'\x0frr9\x05I=?'
p345
tp346
Rp347
sS'commandinus_1747_v1_1_0299'
p348
g2
(g6
S'\xbdT\xde\xfb}{;?'
p349
tp350
Rp351
sS'commandinus_1747_v1_1_0210'
p352
g2
(g6
S'\xb3L\x9bc\xba#:?'
p353
tp354
Rp355
sS'commandinus_1747_v1_1_0111'
p356
g2
(g6
S'\x92\xb8g\x1c+\xa2G?'
p357
tp358
Rp359
sS'commandinus_1747_v1_1_0110'
p360
g2
(g6
S'\xe1\x17\xc7w\xaeT??'
p361
tp362
Rp363
sS'commandinus_1747_v1_1_0113'
p364
g2
(g6
S'\x8b\xd7\xb8@\x83\xbb4?'
p365
tp366
Rp367
sS'commandinus_1747_v1_1_0112'
p368
g2
(g6
S'\xb1\xa6\xf5\x84\x9b\rD?'
p369
tp370
Rp371
sS'commandinus_1747_v1_1_0115'
p372
g2
(g6
S'\xe8\x03\xd9\xb8\n\xc58?'
p373
tp374
Rp375
sS'commandinus_1747_v1_1_0114'
p376
g2
(g6
S'\xb4\xe2\xd98x\xb96?'
p377
tp378
Rp379
sS'commandinus_1747_v1_1_0117'
p380
g2
(g6
S'\x9d\xceE\xa4\xc8\xaf7?'
p381
tp382
Rp383
sS'commandinus_1747_v1_1_0116'
p384
g2
(g6
S'\x08\xc8&9T\x108?'
p385
tp386
Rp387
sS'commandinus_1747_v1_1_0058'
p388
g2
(g6
S'\x7f\xe3\x97_\xe6\xae7?'
p389
tp390
Rp391
sS'commandinus_1747_v1_1_0059'
p392
g2
(g6
S'U\x91\x03\xba\xb6.3?'
p393
tp394
Rp395
sS'commandinus_1747_v1_1_0109'
p396
g2
(g6
S'\x83\xf1*\xaf\xfc\xd06?'
p397
tp398
Rp399
sS'commandinus_1747_v1_1_0192'
p400
g2
(g6
S'\xaf\x9dYRq\xee3?'
p401
tp402
Rp403
sS'commandinus_1747_v1_1_0195'
p404
g2
(g6
S'\xa1\x07R\xce:\x063?'
p405
tp406
Rp407
sS'commandinus_1747_v1_1_0194'
p408
g2
(g6
S'\xdb\x88\x8a\xc5\xfc(6?'
p409
tp410
Rp411
sS'commandinus_1747_v1_1_0197'
p412
g2
(g6
S'\x82\xc9iW/\x895?'
p413
tp414
Rp415
sS'commandinus_1747_v1_1_0196'
p416
g2
(g6
S'\x86y\xb4\xca\xcb\x9a3?'
p417
tp418
Rp419
sS'commandinus_1747_v1_1_0050'
p420
g2
(g6
S'\x10\x83\x1b\xdf\xfb\xe12?'
p421
tp422
Rp423
sS'commandinus_1747_v1_1_0051'
p424
g2
(g6
S'\xf8p\xa8?\xb0\xa21?'
p425
tp426
Rp427
sS'commandinus_1747_v1_1_0052'
p428
g2
(g6
S'\r\xaf\nz\x19^5?'
p429
tp430
Rp431
sS'commandinus_1747_v1_1_0053'
p432
g2
(g6
S'\xef\x88.\x12\x9d\xcf:?'
p433
tp434
Rp435
sS'commandinus_1747_v1_1_0054'
p436
g2
(g6
S'\x96\r\xf2^XH1?'
p437
tp438
Rp439
sS'commandinus_1747_v1_1_0055'
p440
g2
(g6
S'\xcbt3\x04A\x952?'
p441
tp442
Rp443
sS'commandinus_1747_v1_1_0056'
p444
g2
(g6
S'\xcbt3\x04A\x952?'
p445
tp446
Rp447
sS'commandinus_1747_v1_1_0057'
p448
g2
(g6
S'H\x9e\xc1\xb7\x1f\xcd3?'
p449
tp450
Rp451
sS'commandinus_1747_v1_1_0267'
p452
g2
(g6
S'\x83\xa6\xcd\xd1q\xef7?'
p453
tp454
Rp455
sS'commandinus_1747_v1_1_0266'
p456
g2
(g6
S'\x19i\xa2B\x087A?'
p457
tp458
Rp459
sS'commandinus_1747_v1_1_0265'
p460
g2
(g6
S'\ta\x7fX.\x16;?'
p461
tp462
Rp463
sS'commandinus_1747_v1_1_0264'
p464
g2
(g6
S'.\xf41\xde*\x85D?'
p465
tp466
Rp467
sS'commandinus_1747_v1_1_0263'
p468
g2
(g6
S'\x80\x88#\xe1r\x1aC?'
p469
tp470
Rp471
sS'commandinus_1747_v1_1_0262'
p472
g2
(g6
S'\x8d\x98\xc4-\xa2\x0fA?'
p473
tp474
Rp475
sS'commandinus_1747_v1_1_0261'
p476
g2
(g6
S'\xf0\xa3\x0c_>\xbb>?'
p477
tp478
Rp479
sS'commandinus_1747_v1_1_0260'
p480
g2
(g6
S'\x0bf\xb8\x05\x01\xe4E?'
p481
tp482
Rp483
sS'commandinus_1747_v1_1_0238'
p484
g2
(g6
S'\x93Y\x00pgl6?'
p485
tp486
Rp487
sS'commandinus_1747_v1_1_0206'
p488
g2
(g6
S'\x83]\xf2\x99\xf9[9?'
p489
tp490
Rp491
sS'commandinus_1747_v1_1_0268'
p492
g2
(g6
S'\xaa\x1f\xbc\xa8%\x1b>?'
p493
tp494
Rp495
sS'commandinus_1747_v1_1_0281'
p496
g2
(g6
S'\xe5h\xb5YdN@?'
p497
tp498
Rp499
sS'commandinus_1747_v1_1_0318'
p500
g2
(g6
S'\xfb\x9f\x1f\x86\x1bx??'
p501
tp502
Rp503
sS'commandinus_1747_v1_1_0280'
p504
g2
(g6
S'\x1e\x08q\x0b\xf1oA?'
p505
tp506
Rp507
sS'commandinus_1747_v1_1_0283'
p508
g2
(g6
S'\xf9I\xb2=Q\x8aI?'
p509
tp510
Rp511
sS'commandinus_1747_v1_1_0289'
p512
g2
(g6
S'\xae&\x93\xbeO\xb1H?'
p513
tp514
Rp515
sS'commandinus_1747_v1_1_0288'
p516
g2
(g6
S'g\xcb\xb0\xe7\x82\xbfF?'
p517
tp518
Rp519
sS'commandinus_1747_v1_1_0282'
p520
g2
(g6
S'\xae\xdaAA2`J?'
p521
tp522
Rp523
sS'commandinus_1747_v1_1_0128'
p524
g2
(g6
S'=\xf1\xc6F\xb0\xe22?'
p525
tp526
Rp527
sS'commandinus_1747_v1_1_0129'
p528
g2
(g6
S'bH\xc7\x81)Z6?'
p529
tp530
Rp531
sS'commandinus_1747_v1_1_0320'
p532
g2
(g6
S'\x82\xbd\xf6;?-@?'
p533
tp534
Rp535
sS'commandinus_1747_v1_1_0321'
p536
g2
(g6
S'\xf4r0\xe2\xb3W\xd9>'
p537
tp538
Rp539
sS'commandinus_1747_v1_1_0124'
p540
g2
(g6
S'P\x00|%\x81\xe86?'
p541
tp542
Rp543
sS'commandinus_1747_v1_1_0125'
p544
g2
(g6
S'\xdc\xed\xfa0m\xb78?'
p545
tp546
Rp547
sS'commandinus_1747_v1_1_0126'
p548
g2
(g6
S'P\x00|%\x81\xe86?'
p549
tp550
Rp551
sS'commandinus_1747_v1_1_0127'
p552
g2
(g6
S'h,85\xbc\x037?'
p553
tp554
Rp555
sS'commandinus_1747_v1_1_0120'
p556
g2
(g6
S'\x8e\x07\t7\x9a\xde6?'
p557
tp558
Rp559
sS'commandinus_1747_v1_1_0121'
p560
g2
(g6
S'\x1f\x0f\xcd\x9b\x05\x007?'
p561
tp562
Rp563
sS'commandinus_1747_v1_1_0122'
p564
g2
(g6
S'].\x82(\xaa\x078?'
p565
tp566
Rp567
sS'commandinus_1747_v1_1_0123'
p568
g2
(g6
S'x\xf3t\xa2\xea\xd47?'
p569
tp570
Rp571
sS'commandinus_1747_v1_1_0201'
p572
g2
(g6
S'6{\xae\xdc\xe5\xdc4?'
p573
tp574
Rp575
sS'commandinus_1747_v1_1_0200'
p576
g2
(g6
S'\xa2v8\x80R\xe45?'
p577
tp578
Rp579
sS'commandinus_1747_v1_1_0203'
p580
g2
(g6
S'\xfe\xe0\xd8\xc6\xffa5?'
p581
tp582
Rp583
sS'commandinus_1747_v1_1_0202'
p584
g2
(g6
S'\x80\rM|dX4?'
p585
tp586
Rp587
sS'commandinus_1747_v1_1_0205'
p588
g2
(g6
S'\x04\x96\xee\xd4X\xa72?'
p589
tp590
Rp591
sS'commandinus_1747_v1_1_0204'
p592
g2
(g6
S'\x00\xe6\xa3a\xbc\x954?'
p593
tp594
Rp595
sS'commandinus_1747_v1_1_0049'
p596
g2
(g6
S'\xf0\x83lC\x1fG8?'
p597
tp598
Rp599
sS'commandinus_1747_v1_1_0048'
p600
g2
(g6
S'\xd9~\x80D\xd2\x1b??'
p601
tp602
Rp603
sS'commandinus_1747_v1_1_0047'
p604
g2
(g6
S'\xceM\x068\xa1\xa12?'
p605
tp606
Rp607
sS'commandinus_1747_v1_1_0046'
p608
g2
(g6
S'{Q\x9e)\xcd{5?'
p609
tp610
Rp611
sS'commandinus_1747_v1_1_0045'
p612
g2
(g6
S'\xa6\xbe\x1c2&Y5?'
p613
tp614
Rp615
sS'commandinus_1747_v1_1_0044'
p616
g2
(g6
S'\x1b\xcc|KS\xb67?'
p617
tp618
Rp619
sS'commandinus_1747_v1_1_0043'
p620
g2
(g6
S'\xdc\xb9\x16\xd9\xa2^8?'
p621
tp622
Rp623
sS'commandinus_1747_v1_1_0042'
p624
g2
(g6
S'\xe7\xd8GvW<:?'
p625
tp626
Rp627
sS'commandinus_1747_v1_1_0041'
p628
g2
(g6
S'"\r\x19\xe6)\xff6?'
p629
tp630
Rp631
sS'commandinus_1747_v1_1_0040'
p632
g2
(g6
S'j\xc5\xe1V$\xd91?'
p633
tp634
Rp635
sS'commandinus_1747_v1_1_0313'
p636
g2
(g6
S'\x9c\x93/1\xdf\x8f??'
p637
tp638
Rp639
sS'commandinus_1747_v1_1_0241'
p640
g2
(g6
S'\xe0\xa7\xbb\xea\xb0\x187?'
p641
tp642
Rp643
sS'commandinus_1747_v1_1_0198'
p644
g2
(g6
S'\x82\xc9iW/\x895?'
p645
tp646
Rp647
sS'commandinus_1747_v1_1_0245'
p648
g2
(g6
S'\x9b\x9f\x0f\xd1h\x97W?'
p649
tp650
Rp651
sS'commandinus_1747_v1_1_0284'
p652
g2
(g6
S'\xd2\xfb\xcf\xae@\xd5A?'
p653
tp654
Rp655
sS'commandinus_1747_v1_1_0244'
p656
g2
(g6
S'\xc7\x0f5%\x0e\x1b9?'
p657
tp658
Rp659
sS'commandinus_1747_v1_1_0296'
p660
g2
(g6
S'\xc1L\xb5Q\xac\xa7<?'
p661
tp662
Rp663
sS'commandinus_1747_v1_1_0247'
p664
g2
(g6
S'\xf8V\x83(\x9d\xeb8?'
p665
tp666
Rp667
sS'commandinus_1747_v1_1_0214'
p668
g2
(g6
S'\xfb\xeb\x14\xcd\xba\x9a4?'
p669
tp670
Rp671
sS'commandinus_1747_v1_1_0133'
p672
g2
(g6
S'\xaf\x16\x91\x00q!7?'
p673
tp674
Rp675
sS'commandinus_1747_v1_1_0132'
p676
g2
(g6
S'cH\xc7\x81)Z6?'
p677
tp678
Rp679
sS'commandinus_1747_v1_1_0038'
p680
g2
(g6
S'o\r\xff\x8b\xf3/3?'
p681
tp682
Rp683
sS'commandinus_1747_v1_1_0039'
p684
g2
(g6
S'Qx\xd8"\x08W7?'
p685
tp686
Rp687
sS'commandinus_1747_v1_1_0137'
p688
g2
(g6
S'\xf8N\xe6\xec\x9d\xf95?'
p689
tp690
Rp691
sS'commandinus_1747_v1_1_0136'
p692
g2
(g6
S'\xd3\x10\n{\xaa\xd11?'
p693
tp694
Rp695
sS'commandinus_1747_v1_1_0135'
p696
g2
(g6
S'\x85ow\xc6\x8b\xae7?'
p697
tp698
Rp699
sS'commandinus_1747_v1_1_0134'
p700
g2
(g6
S'\x99\xa4y]\x87\x12A?'
p701
tp702
Rp703
sS'commandinus_1747_v1_1_0032'
p704
g2
(g6
S'\xcc\x08\xec\x05\xd5M4?'
p705
tp706
Rp707
sS'commandinus_1747_v1_1_0033'
p708
g2
(g6
S'\x11A\x04\xb02\x917?'
p709
tp710
Rp711
sS'commandinus_1747_v1_1_0030'
p712
g2
(g6
S'\x1d\xaf\xd3\x1c\xaf\xd3<?'
p713
tp714
Rp715
sS'commandinus_1747_v1_1_0031'
p716
g2
(g6
S'\x95\x17v\xfcSY6?'
p717
tp718
Rp719
sS'commandinus_1747_v1_1_0036'
p720
g2
(g6
S'K\xc1p\xec\xc9\xb54?'
p721
tp722
Rp723
sS'commandinus_1747_v1_1_0037'
p724
g2
(g6
S'\x0b\xf6\xe3w`73?'
p725
tp726
Rp727
sS'commandinus_1747_v1_1_0034'
p728
g2
(g6
S'\r\xaf\nz\x19^5?'
p729
tp730
Rp731
sS'commandinus_1747_v1_1_0035'
p732
g2
(g6
S'\x16Z/G\xe1h3?'
p733
tp734
Rp735
sS'commandinus_1747_v1_1_0234'
p736
g2
(g6
S'\xd2\xaf%kx\x958?'
p737
tp738
Rp739
sS'commandinus_1747_v1_1_0209'
p740
g2
(g6
S'\x9c\xf5x_\x9cY7?'
p741
tp742
Rp743
sS'commandinus_1747_v1_1_0236'
p744
g2
(g6
S'\xb79\xd2A\xa6\xdb4?'
p745
tp746
Rp747
sS'commandinus_1747_v1_1_0237'
p748
g2
(g6
S'\xfb\xeb\x14\xcd\xba\x9a4?'
p749
tp750
Rp751
sS'commandinus_1747_v1_1_0230'
p752
g2
(g6
S'\xb8\nG\xef\xbfT5?'
p753
tp754
Rp755
sS'commandinus_1747_v1_1_0231'
p756
g2
(g6
S'\x1bO\x9f\xd4x\x0c3?'
p757
tp758
Rp759
sS'commandinus_1747_v1_1_0232'
p760
g2
(g6
S'Hm\xd3\xf0\x1f[3?'
p761
tp762
Rp763
sS'commandinus_1747_v1_1_0208'
p764
g2
(g6
S'\x9f\x97b\xba\xcfK8?'
p765
tp766
Rp767
sS'commandinus_1747_v1_1_0151'
p768
g2
(g6
S'\xd1\x91\xc1\x15!\xb62?'
p769
tp770
Rp771
sS'commandinus_1747_v1_1_0242'
p772
g2
(g6
S'\xaa7S\x00:\xc67?'
p773
tp774
Rp775
sS'commandinus_1747_v1_1_0215'
p776
g2
(g6
S'\xcf\xd9\xb5\x88\x84\xcc3?'
p777
tp778
Rp779
sS'commandinus_1747_v1_1_0239'
p780
g2
(g6
S'[_\xf8\x04Z\xd91?'
p781
tp782
Rp783
sS'commandinus_1747_v1_1_0150'
p784
g2
(g6
S'\x98 \xa9\x96"\xaf4?'
p785
tp786
Rp787
sS'commandinus_1747_v1_1_0163'
p788
g2
(g6
S'?\x06-\xeaP16?'
p789
tp790
Rp791
sS'commandinus_1747_v1_1_0291'
p792
g2
(g6
S'n\xd3^\xbfX\x038?'
p793
tp794
Rp795
sS'commandinus_1747_v1_1_0199'
p796
g2
(g6
S'\x0b\xe7\x19A\xd5\xce9?'
p797
tp798
Rp799
sS'commandinus_1747_v1_1_0152'
p800
g2
(g6
S'\xce\xf8\x8a\xab\x1b\x043?'
p801
tp802
Rp803
sS'commandinus_1747_v1_1_0286'
p804
g2
(g6
S'\xb2\x86ra\xbf:D?'
p805
tp806
Rp807
sS'commandinus_1747_v1_1_0292'
p808
g2
(g6
S'\xb9C\xeb\x1a\xa7H9?'
p809
tp810
Rp811
sS'commandinus_1747_v1_1_0293'
p812
g2
(g6
S'g\xaak\xb2\x08\xe56?'
p813
tp814
Rp815
sS'commandinus_1747_v1_1_0303'
p816
g2
(g6
S'x\xf1\xd2z\xdf\xb5:?'
p817
tp818
Rp819
sS'commandinus_1747_v1_1_0290'
p820
g2
(g6
S';\xccd\x8b\x12b:?'
p821
tp822
Rp823
sS'commandinus_1747_v1_1_0246'
p824
g2
(g6
S'\x07\x81\x13\xef\x9d\xa6\xed>'
p825
tp826
Rp827
sS'commandinus_1747_v1_1_0029'
p828
g2
(g6
S'\x02\xc4\x8dI\x03\x88;?'
p829
tp830
Rp831
sS'commandinus_1747_v1_1_0028'
p832
g2
(g6
S' ^v\x81l\xe99?'
p833
tp834
Rp835
sS'commandinus_1747_v1_1_0144'
p836
g2
(g6
S'h,85\xbc\x037?'
p837
tp838
Rp839
sS'commandinus_1747_v1_1_0145'
p840
g2
(g6
S'\xb3\x18\xae\xdedb4?'
p841
tp842
Rp843
sS'commandinus_1747_v1_1_0142'
p844
g2
(g6
S't\xe1\xd0\xd64I2?'
p845
tp846
Rp847
sS'commandinus_1747_v1_1_0143'
p848
g2
(g6
S"\x82'\xffT\xe9y4?"
p849
tp850
Rp851
sS'commandinus_1747_v1_1_0140'
p852
g2
(g6
S'\xd5B \xfb\xb1y3?'
p853
tp854
Rp855
sS'commandinus_1747_v1_1_0141'
p856
g2
(g6
S'"\x14\xacQ\xe4\x032?'
p857
tp858
Rp859
sS'commandinus_1747_v1_1_0021'
p860
g2
(g6
S'\xd3X\xce\x0c%0;?'
p861
tp862
Rp863
sS'commandinus_1747_v1_1_0020'
p864
g2
(g6
S'\x88n\x10\xfb\x06\xd47?'
p865
tp866
Rp867
sS'commandinus_1747_v1_1_0023'
p868
g2
(g6
S'l\x88\x8c\xf6\xd8\x109?'
p869
tp870
Rp871
sS'commandinus_1747_v1_1_0022'
p872
g2
(g6
S'\xa4\x9ep\x00\x7fs7?'
p873
tp874
Rp875
sS'commandinus_1747_v1_1_0025'
p876
g2
(g6
S'\xd0Z\x8d\xd8\x9f\xb5:?'
p877
tp878
Rp879
sS'commandinus_1747_v1_1_0024'
p880
g2
(g6
S'Y\xe3\xa4\x8c\x81\x969?'
p881
tp882
Rp883
sS'commandinus_1747_v1_1_0027'
p884
g2
(g6
S'\x80\xe3\x97_\xe6\xae7?'
p885
tp886
Rp887
sS'commandinus_1747_v1_1_0026'
p888
g2
(g6
S'\xec;O\x0eP\xf06?'
p889
tp890
Rp891
sS'commandinus_1747_v1_1_0308'
p892
g2
(g6
S'\xee\xab\xe0P\x8c\x8eD?'
p893
tp894
Rp895
sS'commandinus_1747_v1_1_0309'
p896
g2
(g6
S'\xea\x92\x19~g\x88<?'
p897
tp898
Rp899
sS'commandinus_1747_v1_1_0294'
p900
g2
(g6
S'\xb0\xe9\x96\xb9\xb1\xca<?'
p901
tp902
Rp903
sS'commandinus_1747_v1_1_0300'
p904
g2
(g6
S'\x1du\\v\x0c\x9c8?'
p905
tp906
Rp907
sS'commandinus_1747_v1_1_0301'
p908
g2
(g6
S',\xe51\x1e/\x1b;?'
p909
tp910
Rp911
sS'commandinus_1747_v1_1_0302'
p912
g2
(g6
S"='\x0b\x81\xaf\x1d;?"
p913
tp914
Rp915
sS'commandinus_1747_v1_1_0295'
p916
g2
(g6
S'\x83\xa6\xcd\xd1q\xef7?'
p917
tp918
Rp919
sS'commandinus_1747_v1_1_0304'
p920
g2
(g6
S'm7J\xbe\xf6\xad9?'
p921
tp922
Rp923
sS'commandinus_1747_v1_1_0305'
p924
g2
(g6
S'\x9b\x12\xb6\xa0q+;?'
p925
tp926
Rp927
sS'commandinus_1747_v1_1_0306'
p928
g2
(g6
S'{\xa7\x1ff\x19-<?'
p929
tp930
Rp931
sS'commandinus_1747_v1_1_0307'
p932
g2
(g6
S'j\xa7{\xb5\t\xdfB?'
p933
tp934
Rp935
sS'commandinus_1747_v1_1_0297'
p936
g2
(g6
S'\x9e\xa2/\xf1\xda\xf98?'
p937
tp938
Rp939
sS'commandinus_1747_v1_1_0191'
p940
g2
(g6
S'\x8fH0c\x1c\x9c2?'
p941
tp942
Rp943
sS'commandinus_1747_v1_1_0190'
p944
g2
(g6
S'\xd0o\xca\x0bG>5?'
p945
tp946
Rp947
sS'commandinus_1747_v1_1_0193'
p948
g2
(g6
S'\x8a@@\xb6\xb1\x815?'
p949
tp950
Rp951
sS'commandinus_1747_v1_1_0211'
p952
g2
(g6
S'\xae\xfe\xde\xeb\x1f\xad9?'
p953
tp954
Rp955
sS'commandinus_1747_v1_1_0218'
p956
g2
(g6
S'\x87\xe8\x9a|\xe3x6?'
p957
tp958
Rp959
sS'commandinus_1747_v1_1_0216'
p960
g2
(g6
S'(\nI\xe9a\xe94?'
p961
tp962
Rp963
sS'commandinus_1747_v1_1_0217'
p964
g2
(g6
S'\xfe\xe0\xd8\xc6\xffa5?'
p965
tp966
Rp967
sS'commandinus_1747_v1_1_0155'
p968
g2
(g6
S'3\x87h\xee\xc4\x948?'
p969
tp970
Rp971
sS'commandinus_1747_v1_1_0146'
p972
g2
(g6
S'\x98 \xa9\x96"\xaf4?'
p973
tp974
Rp975
sS'commandinus_1747_v1_1_0157'
p976
g2
(g6
S'\x98 \xa9\x96"\xaf4?'
p977
tp978
Rp979
sS'commandinus_1747_v1_1_0156'
p980
g2
(g6
S'\xeen\xdc\n\xed\x943?'
p981
tp982
Rp983
sS'commandinus_1747_v1_1_0018'
p984
g2
(g6
S'\x13\\\xee\x12\\\xeeB?'
p985
tp986
Rp987
sS'commandinus_1747_v1_1_0019'
p988
g2
(g6
S'+\x1f\xc3\xe2\xdf\xc8@?'
p989
tp990
Rp991
sS'commandinus_1747_v1_1_0153'
p992
g2
(g6
S':X\x90\xdc\xaa03?'
p993
tp994
Rp995
sS'commandinus_1747_v1_1_0147'
p996
g2
(g6
S'\xc8\xfc\xf1|\xfdH1?'
p997
tp998
Rp999
sS'commandinus_1747_v1_1_0015'
p1000
g2
(g6
S'({4Hx\x1d@?'
p1001
tp1002
Rp1003
sS'commandinus_1747_v1_1_0016'
p1004
g2
(g6
S'd\x94\x1bU!\x83A?'
p1005
tp1006
Rp1007
sS'commandinus_1747_v1_1_0017'
p1008
g2
(g6
S'Yz\xac\x86\xea-B?'
p1009
tp1010
Rp1011
sS'commandinus_1747_v1_1_0159'
p1012
g2
(g6
S'cH\xc7\x81)Z6?'
p1013
tp1014
Rp1015
sS'commandinus_1747_v1_1_0108'
p1016
g2
(g6
S'\xa0OT\x93BP6?'
p1017
tp1018
Rp1019
sS'commandinus_1747_v1_1_0094'
p1020
g2
(g6
S'\x0cy\x85\x1e\xe5\xd38?'
p1021
tp1022
Rp1023
sS'commandinus_1747_v1_1_0095'
p1024
g2
(g6
S'\xc2\r\x1ed\xb6\x15:?'
p1025
tp1026
Rp1027
sS'commandinus_1747_v1_1_0096'
p1028
g2
(g6
S'h,85\xbc\x037?'
p1029
tp1030
Rp1031
sS'commandinus_1747_v1_1_0097'
p1032
g2
(g6
S'4&#\x08\xa0\xcc3?'
p1033
tp1034
Rp1035
sS'commandinus_1747_v1_1_0090'
p1036
g2
(g6
S'"\x14\xacQ\xe4\x032?'
p1037
tp1038
Rp1039
sS'commandinus_1747_v1_1_0091'
p1040
g2
(g6
S"'\xc2H_\x8a\x045?"
p1041
tp1042
Rp1043
sS'commandinus_1747_v1_1_0092'
p1044
g2
(g6
S'\xbd\x95U\xfc\xfc\xbd4?'
p1045
tp1046
Rp1047
sS'commandinus_1747_v1_1_0093'
p1048
g2
(g6
S'\x8fp\xef\xaa\x88m4?'
p1049
tp1050
Rp1051
sS'commandinus_1747_v1_1_0158'
p1052
g2
(g6
S'\xe6rC\xdc\xce\xd91?'
p1053
tp1054
Rp1055
sS'commandinus_1747_v1_1_0316'
p1056
g2
(g6
S'C\xd5.\xc2\x17\xc1=?'
p1057
tp1058
Rp1059
sS'commandinus_1747_v1_1_0315'
p1060
g2
(g6
S'\xe2O\xee\x86?H8?'
p1061
tp1062
Rp1063
sS'commandinus_1747_v1_1_0314'
p1064
g2
(g6
S'\x14]\x92\x7f\x0b\xd3;?'
p1065
tp1066
Rp1067
sS'commandinus_1747_v1_1_0098'
p1068
g2
(g6
S'\x1b^n\xb6t<6?'
p1069
tp1070
Rp1071
sS'commandinus_1747_v1_1_0099'
p1072
g2
(g6
S'w\x11!\xcdKl4?'
p1073
tp1074
Rp1075
sS'commandinus_1747_v1_1_0311'
p1076
g2
(g6
S'\x14b \xe5a\xa1??'
p1077
tp1078
Rp1079
sS'commandinus_1747_v1_1_0310'
p1080
g2
(g6
S'Q@v\x04\xe4q<?'
p1081
tp1082
Rp1083
sS'commandinus_1747_v1_1_0229'
p1084
g2
(g6
S'\xd6w\xba\xb8\xb1X2?'
p1085
tp1086
Rp1087
sS'commandinus_1747_v1_1_0219'
p1088
g2
(g6
S'\xf5\xabo\xe9\xe4r5?'
p1089
tp1090
Rp1091
sS'commandinus_1747_v1_1_0223'
p1092
g2
(g6
S'\x82\xc9iW/\x895?'
p1093
tp1094
Rp1095
sS'commandinus_1747_v1_1_0222'
p1096
g2
(g6
S'\xd9\x9f\xcb=F\xfe9?'
p1097
tp1098
Rp1099
sS'commandinus_1747_v1_1_0221'
p1100
g2
(g6
S'\x86y\xb4\xca\xcb\x9a3?'
p1101
tp1102
Rp1103
sS'commandinus_1747_v1_1_0220'
p1104
g2
(g6
S'n\xd7DC\xf5\n7?'
p1105
tp1106
Rp1107
sS'commandinus_1747_v1_1_0227'
p1108
g2
(g6
S'\xfb\xeb\x14\xcd\xba\x9a4?'
p1109
tp1110
Rp1111
sS'commandinus_1747_v1_1_0226'
p1112
g2
(g6
S'v\x8b\x07\r\xc7\xa93?'
p1113
tp1114
Rp1115
sS'commandinus_1747_v1_1_0225'
p1116
g2
(g6
S'&\x8d\x01\x1f\xe1\xeb4?'
p1117
tp1118
Rp1119
sS'commandinus_1747_v1_1_0224'
p1120
g2
(g6
S'\xb7^t\xd2X\xd05?'
p1121
tp1122
Rp1123
sS'commandinus_1747_v1_1_0240'
p1124
g2
(g6
S'\xe4\xd0\xd5\xd1\x98\x9a6?'
p1125
tp1126
Rp1127
sS'commandinus_1747_v1_1_0106'
p1128
g2
(g6
S'/7O\xefX\x99<?'
p1129
tp1130
Rp1131
sS'commandinus_1747_v1_1_0312'
p1132
g2
(g6
S'\xbb\xfdd\xbf\xec\xb7;?'
p1133
tp1134
Rp1135
sS'commandinus_1747_v1_1_0107'
p1136
g2
(g6
S'\xa88\xa4\xfc\xb3\xfdA?'
p1137
tp1138
Rp1139
sS'commandinus_1747_v1_1_0168'
p1140
g2
(g6
S'v\x8b\x07\r\xc7\xa93?'
p1141
tp1142
Rp1143
sS'commandinus_1747_v1_1_0169'
p1144
g2
(g6
S'\xd8\x91j%\xdd\xde<?'
p1145
tp1146
Rp1147
sS'commandinus_1747_v1_1_0228'
p1148
g2
(g6
S'\xc4\x85\x95\xa4w\xda3?'
p1149
tp1150
Rp1151
sS'commandinus_1747_v1_1_0148'
p1152
g2
(g6
S'@\x8a\xfd\xb0\xb5\x942?'
p1153
tp1154
Rp1155
sS'commandinus_1747_v1_1_0160'
p1156
g2
(g6
S'\x1f\x0f\xcd\x9b\x05\x007?'
p1157
tp1158
Rp1159
sS'commandinus_1747_v1_1_0161'
p1160
g2
(g6
S'\xbdzk\xa9\x86\xe95?'
p1161
tp1162
Rp1163
sS'commandinus_1747_v1_1_0162'
p1164
g2
(g6
S'\x8fp\xef\xaa\x88m4?'
p1165
tp1166
Rp1167
sS'commandinus_1747_v1_1_0149'
p1168
g2
(g6
S'\x87AD\xaeh\xcc2?'
p1169
tp1170
Rp1171
sS'commandinus_1747_v1_1_0164'
p1172
g2
(g6
S'#\x11\xeay\xf9@4?'
p1173
tp1174
Rp1175
sS'commandinus_1747_v1_1_0165'
p1176
g2
(g6
S'=\xbe\xb4x\xae\xfc2?'
p1177
tp1178
Rp1179
sS'commandinus_1747_v1_1_0166'
p1180
g2
(g6
S'\xc75\xe0\x17\x14\xec1?'
p1181
tp1182
Rp1183
sS'commandinus_1747_v1_1_0167'
p1184
g2
(g6
S'\xbc\x95\xef\xd1\xa9q2?'
p1185
tp1186
Rp1187
sS'commandinus_1747_v1_1_0233'
p1188
g2
(g6
S'\xba\x18\xa8\x07)t2?'
p1189
tp1190
Rp1191
sS'commandinus_1747_v1_1_0258'
p1192
g2
(g6
S'\\X\xebBa:@?'
p1193
tp1194
Rp1195
sS'commandinus_1747_v1_1_0259'
p1196
g2
(g6
S'\xb5\xa9U\xff\x90\xddC?'
p1197
tp1198
Rp1199
sS'commandinus_1747_v1_1_0256'
p1200
g2
(g6
S'\x1a\xa3X\xbb\xae\x18;?'
p1201
tp1202
Rp1203
sS'commandinus_1747_v1_1_0257'
p1204
g2
(g6
S'\xc2e\xd1\xdcT\xae=?'
p1205
tp1206
Rp1207
sS'commandinus_1747_v1_1_0254'
p1208
g2
(g6
S'\xf8V\x14\x95\xf5+C?'
p1209
tp1210
Rp1211
sS'commandinus_1747_v1_1_0255'
p1212
g2
(g6
S'\x83\xbd\xf6;?-@?'
p1213
tp1214
Rp1215
sS'commandinus_1747_v1_1_0252'
p1216
g2
(g6
S'\x96\xfa\xe0hG\x82??'
p1217
tp1218
Rp1219
sS'commandinus_1747_v1_1_0253'
p1220
g2
(g6
S'\xd2\xaf%kx\x958?'
p1221
tp1222
Rp1223
sS'commandinus_1747_v1_1_0250'
p1224
g2
(g6
S'\x8d9\xc6\xe8_\xa0=?'
p1225
tp1226
Rp1227
sS'commandinus_1747_v1_1_0251'
p1228
g2
(g6
S"\x13G\xaf'\x0e\xf2E?"
p1229
tp1230
Rp1231
sS'commandinus_1747_v1_1_0317'
p1232
g2
(g6
S"\xaa;sxI':?"
p1233
tp1234
Rp1235
s.