(lp0
S'corboli_1769_v1_1_0000.png'
p1
aS'corboli_1769_v1_1_0001.png'
p2
aS'corboli_1769_v1_1_0002.png'
p3
aS'corboli_1769_v1_1_0003.png'
p4
aS'corboli_1769_v1_1_0004.png'
p5
aS'corboli_1769_v1_1_0005.png'
p6
aS'corboli_1769_v1_1_0006.png'
p7
aS'corboli_1769_v1_1_0007.png'
p8
aS'corboli_1769_v1_1_0008.png'
p9
aS'corboli_1769_v1_1_0009.png'
p10
aS'corboli_1769_v1_1_0010.png'
p11
aS'corboli_1769_v1_1_0011.png'
p12
aS'corboli_1769_v1_1_0012.png'
p13
aS'corboli_1769_v1_1_0013.png'
p14
aS'corboli_1769_v1_1_0014.png'
p15
aS'corboli_1769_v1_1_0015.png'
p16
aS'corboli_1769_v1_1_0016.png'
p17
aS'corboli_1769_v1_1_0017.png'
p18
aS'corboli_1769_v1_1_0019.png'
p19
aS'corboli_1769_v1_1_0353.png'
p20
aS'corboli_1769_v1_1_0352.png'
p21
aS'corboli_1769_v1_1_0351.png'
p22
aS'corboli_1769_v1_1_0350.png'
p23
aS'corboli_1769_v1_1_0349.png'
p24
aS'corboli_1769_v1_1_0348.png'
p25
aS'corboli_1769_v1_1_0347.png'
p26
aS'corboli_1769_v1_1_0346.png'
p27
a.