(dp0
S'corboli_1769_v1_1_0119.png'
p1
(I2500
I4941
tp2
sS'corboli_1769_v1_1_0304.png'
p3
(I2500
I4969
tp4
sS'corboli_1769_v1_1_0318.png'
p5
(I2500
I4963
tp6
sS'corboli_1769_v1_1_0311.png'
p7
(I2500
I4959
tp8
sS'corboli_1769_v1_1_0108.png'
p9
(I2500
I4956
tp10
sS'corboli_1769_v1_1_0336.png'
p11
(I2500
I4931
tp12
sS'corboli_1769_v1_1_0104.png'
p13
(I2500
I4988
tp14
sS'corboli_1769_v1_1_0244.png'
p15
(I2500
I4972
tp16
sS'corboli_1769_v1_1_0101.png'
p17
(I2500
I4944
tp18
sS'corboli_1769_v1_1_0100.png'
p19
(I2500
I4941
tp20
sS'corboli_1769_v1_1_0059.png'
p21
(I2500
I4934
tp22
sS'corboli_1769_v1_1_0263.png'
p23
(I2500
I4978
tp24
sS'corboli_1769_v1_1_0184.png'
p25
(I2500
I4972
tp26
sS'corboli_1769_v1_1_0345.png'
p27
(I2500
I4975
tp28
sS'corboli_1769_v1_1_0212.png'
p29
(I2500
I4988
tp30
sS'corboli_1769_v1_1_0202.png'
p31
(I2500
I4956
tp32
sS'corboli_1769_v1_1_0229.png'
p33
(I2500
I4963
tp34
sS'corboli_1769_v1_1_0225.png'
p35
(I2500
I4981
tp36
sS'corboli_1769_v1_1_0217.png'
p37
(I2500
I4941
tp38
sS'corboli_1769_v1_1_0286.png'
p39
(I2500
I4991
tp40
sS'corboli_1769_v1_1_0233.png'
p41
(I2500
I5022
tp42
sS'corboli_1769_v1_1_0144.png'
p43
(I2500
I4953
tp44
sS'corboli_1769_v1_1_0334.png'
p45
(I2500
I4947
tp46
sS'corboli_1769_v1_1_0326.png'
p47
(I2500
I4950
tp48
sS'corboli_1769_v1_1_0236.png'
p49
(I2500
I4975
tp50
sS'corboli_1769_v1_1_0312.png'
p51
(I2500
I4947
tp52
sS'corboli_1769_v1_1_0191.png'
p53
(I2500
I4950
tp54
sS'corboli_1769_v1_1_0340.png'
p55
(I2500
I4956
tp56
sS'corboli_1769_v1_1_0106.png'
p57
(I2500
I5047
tp58
sS'corboli_1769_v1_1_0112.png'
p59
(I2500
I4984
tp60
sS'corboli_1769_v1_1_0273.png'
p61
(I2500
I4797
tp62
sS'corboli_1769_v1_1_0148.png'
p63
(I2500
I4956
tp64
sS'corboli_1769_v1_1_0325.png'
p65
(I2500
I4978
tp66
sS'corboli_1769_v1_1_0196.png'
p67
(I2500
I4978
tp68
sS'corboli_1769_v1_1_0197.png'
p69
(I2500
I4931
tp70
sS'corboli_1769_v1_1_0235.png'
p71
(I2500
I4925
tp72
sS'corboli_1769_v1_1_0234.png'
p73
(I2500
I4931
tp74
sS'corboli_1769_v1_1_0097.png'
p75
(I2500
I4856
tp76
sS'corboli_1769_v1_1_0317.png'
p77
(I2500
I4947
tp78
sS'corboli_1769_v1_1_0230.png'
p79
(I2500
I4972
tp80
sS'corboli_1769_v1_1_0022.png'
p81
(I2500
I4834
tp82
sS'corboli_1769_v1_1_0201.png'
p83
(I2500
I4956
tp84
sS'corboli_1769_v1_1_0293.png'
p85
(I2500
I4978
tp86
sS'corboli_1769_v1_1_0295.png'
p87
(I2500
I4978
tp88
sS'corboli_1769_v1_1_0189.png'
p89
(I2500
I4972
tp90
sS'corboli_1769_v1_1_0333.png'
p91
(I2500
I5059
tp92
sS'corboli_1769_v1_1_0338.png'
p93
(I2500
I4978
tp94
sS'corboli_1769_v1_1_0253.png'
p95
(I2500
I4934
tp96
sS'corboli_1769_v1_1_0307.png'
p97
(I2500
I4969
tp98
sS'corboli_1769_v1_1_0329.png'
p99
(I2500
I4959
tp100
sS'corboli_1769_v1_1_0187.png'
p101
(I2500
I4981
tp102
sS'corboli_1769_v1_1_0133.png'
p103
(I2500
I4947
tp104
sS'corboli_1769_v1_1_0048.png'
p105
(I2500
I4850
tp106
sS'corboli_1769_v1_1_0136.png'
p107
(I2500
I4997
tp108
sS'corboli_1769_v1_1_0152.png'
p109
(I2500
I4963
tp110
sS'corboli_1769_v1_1_0135.png'
p111
(I2500
I4978
tp112
sS'corboli_1769_v1_1_0068.png'
p113
(I2500
I4759
tp114
sS'corboli_1769_v1_1_0025.png'
p115
(I2500
I4838
tp116
sS'corboli_1769_v1_1_0040.png'
p117
(I2500
I4844
tp118
sS'corboli_1769_v1_1_0175.png'
p119
(I2500
I4975
tp120
sS'corboli_1769_v1_1_0222.png'
p121
(I2500
I4975
tp122
sS'corboli_1769_v1_1_0237.png'
p123
(I2500
I4969
tp124
sS'corboli_1769_v1_1_0080.png'
p125
(I2500
I4978
tp126
sS'corboli_1769_v1_1_0232.png'
p127
(I2500
I4981
tp128
sS'corboli_1769_v1_1_0118.png'
p129
(I2500
I4956
tp130
sS'corboli_1769_v1_1_0190.png'
p131
(I2500
I4975
tp132
sS'corboli_1769_v1_1_0031.png'
p133
(I2500
I4834
tp134
sS'corboli_1769_v1_1_0322.png'
p135
(I2500
I4944
tp136
sS'corboli_1769_v1_1_0240.png'
p137
(I2500
I4972
tp138
sS'corboli_1769_v1_1_0105.png'
p139
(I2500
I4981
tp140
sS'corboli_1769_v1_1_0159.png'
p141
(I2500
I4959
tp142
sS'corboli_1769_v1_1_0341.png'
p143
(I2500
I4953
tp144
sS'corboli_1769_v1_1_0206.png'
p145
(I2500
I4972
tp146
sS'corboli_1769_v1_1_0131.png'
p147
(I2500
I5003
tp148
sS'corboli_1769_v1_1_0064.png'
p149
(I2500
I4806
tp150
sS'corboli_1769_v1_1_0274.png'
p151
(I2500
I4944
tp152
sS'corboli_1769_v1_1_0181.png'
p153
(I2500
I4972
tp154
sS'corboli_1769_v1_1_0067.png'
p155
(I2500
I4809
tp156
sS'corboli_1769_v1_1_0086.png'
p157
(I2500
I4953
tp158
sS'corboli_1769_v1_1_0087.png'
p159
(I2500
I4984
tp160
sS'corboli_1769_v1_1_0141.png'
p161
(I2500
I4963
tp162
sS'corboli_1769_v1_1_0314.png'
p163
(I2500
I4984
tp164
sS'corboli_1769_v1_1_0055.png'
p165
(I2500
I4922
tp166
sS'corboli_1769_v1_1_0160.png'
p167
(I2500
I4966
tp168
sS'corboli_1769_v1_1_0079.png'
p169
(I2500
I5003
tp170
sS'corboli_1769_v1_1_0289.png'
p171
(I2500
I4944
tp172
sS'corboli_1769_v1_1_0330.png'
p173
(I2500
I4969
tp174
sS'corboli_1769_v1_1_0344.png'
p175
(I2500
I4991
tp176
sS'corboli_1769_v1_1_0127.png'
p177
(I2500
I4975
tp178
sS'corboli_1769_v1_1_0300.png'
p179
(I2500
I4938
tp180
sS'corboli_1769_v1_1_0282.png'
p181
(I2500
I5078
tp182
sS'corboli_1769_v1_1_0323.png'
p183
(I2500
I4997
tp184
sS'corboli_1769_v1_1_0103.png'
p185
(I2500
I4984
tp186
sS'corboli_1769_v1_1_0321.png'
p187
(I2500
I4978
tp188
sS'corboli_1769_v1_1_0279.png'
p189
(I2500
I5063
tp190
sS'corboli_1769_v1_1_0077.png'
p191
(I2500
I4975
tp192
sS'corboli_1769_v1_1_0120.png'
p193
(I2500
I4972
tp194
sS'corboli_1769_v1_1_0192.png'
p195
(I2500
I4972
tp196
sS'corboli_1769_v1_1_0049.png'
p197
(I2500
I4803
tp198
sS'corboli_1769_v1_1_0169.png'
p199
(I2500
I4972
tp200
sS'corboli_1769_v1_1_0065.png'
p201
(I2500
I4834
tp202
sS'corboli_1769_v1_1_0264.png'
p203
(I2500
I4988
tp204
sS'corboli_1769_v1_1_0199.png'
p205
(I2500
I4822
tp206
sS'corboli_1769_v1_1_0182.png'
p207
(I2500
I4972
tp208
sS'corboli_1769_v1_1_0053.png'
p209
(I2500
I4813
tp210
sS'corboli_1769_v1_1_0166.png'
p211
(I2500
I4959
tp212
sS'corboli_1769_v1_1_0172.png'
p213
(I2500
I4981
tp214
sS'corboli_1769_v1_1_0215.png'
p215
(I2500
I4934
tp216
sS'corboli_1769_v1_1_0081.png'
p217
(I2500
I4981
tp218
sS'corboli_1769_v1_1_0269.png'
p219
(I2500
I4956
tp220
sS'corboli_1769_v1_1_0283.png'
p221
(I2500
I4953
tp222
sS'corboli_1769_v1_1_0257.png'
p223
(I2500
I4938
tp224
sS'corboli_1769_v1_1_0158.png'
p225
(I2500
I4981
tp226
sS'corboli_1769_v1_1_0337.png'
p227
(I2500
I4934
tp228
sS'corboli_1769_v1_1_0245.png'
p229
(I2500
I4972
tp230
sS'corboli_1769_v1_1_0271.png'
p231
(I2500
I4947
tp232
sS'corboli_1769_v1_1_0058.png'
p233
(I2500
I4841
tp234
sS'corboli_1769_v1_1_0156.png'
p235
(I2500
I4941
tp236
sS'corboli_1769_v1_1_0122.png'
p237
(I2500
I4963
tp238
sS'corboli_1769_v1_1_0168.png'
p239
(I2500
I4972
tp240
sS'corboli_1769_v1_1_0071.png'
p241
(I2500
I4819
tp242
sS'corboli_1769_v1_1_0070.png'
p243
(I2500
I4816
tp244
sS'corboli_1769_v1_1_0213.png'
p245
(I2500
I5069
tp246
sS'corboli_1769_v1_1_0183.png'
p247
(I2500
I4950
tp248
sS'corboli_1769_v1_1_0138.png'
p249
(I2500
I4947
tp250
sS'corboli_1769_v1_1_0302.png'
p251
(I2500
I5075
tp252
sS'corboli_1769_v1_1_0020.png'
p253
(I2500
I4819
tp254
sS'corboli_1769_v1_1_0216.png'
p255
(I2500
I4981
tp256
sS'corboli_1769_v1_1_0044.png'
p257
(I2500
I4809
tp258
sS'corboli_1769_v1_1_0238.png'
p259
(I2500
I4944
tp260
sS'corboli_1769_v1_1_0249.png'
p261
(I2500
I4984
tp262
sS'corboli_1769_v1_1_0200.png'
p263
(I2500
I4972
tp264
sS'corboli_1769_v1_1_0298.png'
p265
(I2500
I4950
tp266
sS'corboli_1769_v1_1_0258.png'
p267
(I2500
I4978
tp268
sS'corboli_1769_v1_1_0254.png'
p269
(I2500
I4988
tp270
sS'corboli_1769_v1_1_0116.png'
p271
(I2500
I4997
tp272
sS'corboli_1769_v1_1_0117.png'
p273
(I2500
I4956
tp274
sS'corboli_1769_v1_1_0129.png'
p275
(I2500
I4981
tp276
sS'corboli_1769_v1_1_0062.png'
p277
(I2500
I4859
tp278
sS'corboli_1769_v1_1_0193.png'
p279
(I2500
I4966
tp280
sS'corboli_1769_v1_1_0134.png'
p281
(I2500
I4947
tp282
sS'corboli_1769_v1_1_0128.png'
p283
(I2500
I4963
tp284
sS'corboli_1769_v1_1_0043.png'
p285
(I2500
I4819
tp286
sS'corboli_1769_v1_1_0096.png'
p287
(I2500
I4956
tp288
sS'corboli_1769_v1_1_0161.png'
p289
(I2500
I4956
tp290
sS'corboli_1769_v1_1_0268.png'
p291
(I2500
I4978
tp292
sS'corboli_1769_v1_1_0220.png'
p293
(I2500
I4944
tp294
sS'corboli_1769_v1_1_0214.png'
p295
(I2500
I4950
tp296
sS'corboli_1769_v1_1_0291.png'
p297
(I2500
I4984
tp298
sS'corboli_1769_v1_1_0316.png'
p299
(I2500
I4944
tp300
sS'corboli_1769_v1_1_0107.png'
p301
(I2500
I4956
tp302
sS'corboli_1769_v1_1_0111.png'
p303
(I2500
I4931
tp304
sS'corboli_1769_v1_1_0115.png'
p305
(I2500
I4988
tp306
sS'corboli_1769_v1_1_0209.png'
p307
(I2500
I4972
tp308
sS'corboli_1769_v1_1_0204.png'
p309
(I2500
I4972
tp310
sS'corboli_1769_v1_1_0061.png'
p311
(I2500
I4725
tp312
sS'corboli_1769_v1_1_0149.png'
p313
(I2500
I4959
tp314
sS'corboli_1769_v1_1_0218.png'
p315
(I2500
I4897
tp316
sS'corboli_1769_v1_1_0098.png'
p317
(I2500
I4959
tp318
sS'corboli_1769_v1_1_0226.png'
p319
(I2500
I4997
tp320
sS'corboli_1769_v1_1_0150.png'
p321
(I2500
I4969
tp322
sS'corboli_1769_v1_1_0084.png'
p323
(I2500
I4966
tp324
sS'corboli_1769_v1_1_0188.png'
p325
(I2500
I4941
tp326
sS'corboli_1769_v1_1_0146.png'
p327
(I2500
I4931
tp328
sS'corboli_1769_v1_1_0239.png'
p329
(I2500
I4978
tp330
sS'corboli_1769_v1_1_0299.png'
p331
(I2500
I4944
tp332
sS'corboli_1769_v1_1_0151.png'
p333
(I2500
I4972
tp334
sS'corboli_1769_v1_1_0319.png'
p335
(I2500
I4975
tp336
sS'corboli_1769_v1_1_0278.png'
p337
(I2500
I4975
tp338
sS'corboli_1769_v1_1_0328.png'
p339
(I2500
I4963
tp340
sS'corboli_1769_v1_1_0284.png'
p341
(I2500
I4981
tp342
sS'corboli_1769_v1_1_0075.png'
p343
(I2500
I5003
tp344
sS'corboli_1769_v1_1_0063.png'
p345
(I2500
I4841
tp346
sS'corboli_1769_v1_1_0266.png'
p347
(I2500
I4969
tp348
sS'corboli_1769_v1_1_0088.png'
p349
(I2500
I4988
tp350
sS'corboli_1769_v1_1_0265.png'
p351
(I2500
I4991
tp352
sS'corboli_1769_v1_1_0051.png'
p353
(I2500
I4919
tp354
sS'corboli_1769_v1_1_0050.png'
p355
(I2500
I4819
tp356
sS'corboli_1769_v1_1_0140.png'
p357
(I2500
I5000
tp358
sS'corboli_1769_v1_1_0091.png'
p359
(I2500
I4984
tp360
sS'corboli_1769_v1_1_0054.png'
p361
(I2500
I4813
tp362
sS'corboli_1769_v1_1_0170.png'
p363
(I2500
I4978
tp364
sS'corboli_1769_v1_1_0221.png'
p365
(I2500
I4950
tp366
sS'corboli_1769_v1_1_0248.png'
p367
(I2500
I4975
tp368
sS'corboli_1769_v1_1_0315.png'
p369
(I2500
I4950
tp370
sS'corboli_1769_v1_1_0309.png'
p371
(I2500
I4978
tp372
sS'corboli_1769_v1_1_0036.png'
p373
(I2500
I4809
tp374
sS'corboli_1769_v1_1_0208.png'
p375
(I2500
I4972
tp376
sS'corboli_1769_v1_1_0255.png'
p377
(I2500
I4988
tp378
sS'corboli_1769_v1_1_0102.png'
p379
(I2500
I4997
tp380
sS'corboli_1769_v1_1_0281.png'
p381
(I2500
I4950
tp382
sS'corboli_1769_v1_1_0154.png'
p383
(I2500
I4988
tp384
sS'corboli_1769_v1_1_0076.png'
p385
(I2500
I4991
tp386
sS'corboli_1769_v1_1_0130.png'
p387
(I2500
I4956
tp388
sS'corboli_1769_v1_1_0261.png'
p389
(I2500
I4978
tp390
sS'corboli_1769_v1_1_0194.png'
p391
(I2500
I4966
tp392
sS'corboli_1769_v1_1_0267.png'
p393
(I2500
I4934
tp394
sS'corboli_1769_v1_1_0331.png'
p395
(I2500
I4978
tp396
sS'corboli_1769_v1_1_0176.png'
p397
(I2500
I4959
tp398
sS'corboli_1769_v1_1_0177.png'
p399
(I2500
I4972
tp400
sS'corboli_1769_v1_1_0211.png'
p401
(I2500
I5072
tp402
sS'corboli_1769_v1_1_0052.png'
p403
(I2500
I4756
tp404
sS'corboli_1769_v1_1_0046.png'
p405
(I2500
I4819
tp406
sS'corboli_1769_v1_1_0173.png'
p407
(I2500
I4988
tp408
sS'corboli_1769_v1_1_0056.png'
p409
(I2500
I4822
tp410
sS'corboli_1769_v1_1_0243.png'
p411
(I2500
I4959
tp412
sS'corboli_1769_v1_1_0037.png'
p413
(I2500
I4809
tp414
sS'corboli_1769_v1_1_0259.png'
p415
(I2500
I4972
tp416
sS'corboli_1769_v1_1_0034.png'
p417
(I2500
I4816
tp418
sS'corboli_1769_v1_1_0301.png'
p419
(I2500
I5003
tp420
sS'corboli_1769_v1_1_0277.png'
p421
(I2500
I4953
tp422
sS'corboli_1769_v1_1_0303.png'
p423
(I2500
I4966
tp424
sS'corboli_1769_v1_1_0038.png'
p425
(I2500
I4806
tp426
sS'corboli_1769_v1_1_0114.png'
p427
(I2500
I4859
tp428
sS'corboli_1769_v1_1_0290.png'
p429
(I2500
I4866
tp430
sS'corboli_1769_v1_1_0060.png'
p431
(I2500
I4831
tp432
sS'corboli_1769_v1_1_0270.png'
p433
(I2500
I4972
tp434
sS'corboli_1769_v1_1_0074.png'
p435
(I2500
I4981
tp436
sS'corboli_1769_v1_1_0275.png'
p437
(I2500
I4978
tp438
sS'corboli_1769_v1_1_0195.png'
p439
(I2500
I5019
tp440
sS'corboli_1769_v1_1_0342.png'
p441
(I2500
I4953
tp442
sS'corboli_1769_v1_1_0179.png'
p443
(I2500
I4972
tp444
sS'corboli_1769_v1_1_0024.png'
p445
(I2500
I4803
tp446
sS'corboli_1769_v1_1_0069.png'
p447
(I2500
I4850
tp448
sS'corboli_1769_v1_1_0310.png'
p449
(I2500
I4953
tp450
sS'corboli_1769_v1_1_0139.png'
p451
(I2500
I4978
tp452
sS'corboli_1769_v1_1_0147.png'
p453
(I2500
I4944
tp454
sS'corboli_1769_v1_1_0021.png'
p455
(I2500
I4831
tp456
sS'corboli_1769_v1_1_0163.png'
p457
(I2500
I4953
tp458
sS'corboli_1769_v1_1_0171.png'
p459
(I2500
I4956
tp460
sS'corboli_1769_v1_1_0252.png'
p461
(I2500
I4981
tp462
sS'corboli_1769_v1_1_0030.png'
p463
(I2500
I4803
tp464
sS'corboli_1769_v1_1_0280.png'
p465
(I2500
I4969
tp466
sS'corboli_1769_v1_1_0285.png'
p467
(I2500
I4997
tp468
sS'corboli_1769_v1_1_0339.png'
p469
(I2500
I4944
tp470
sS'corboli_1769_v1_1_0262.png'
p471
(I2500
I4975
tp472
sS'corboli_1769_v1_1_0123.png'
p473
(I2500
I5044
tp474
sS'corboli_1769_v1_1_0272.png'
p475
(I2500
I4934
tp476
sS'corboli_1769_v1_1_0028.png'
p477
(I2500
I4803
tp478
sS'corboli_1769_v1_1_0137.png'
p479
(I2500
I4969
tp480
sS'corboli_1769_v1_1_0066.png'
p481
(I2500
I4816
tp482
sS'corboli_1769_v1_1_0180.png'
p483
(I2500
I4972
tp484
sS'corboli_1769_v1_1_0165.png'
p485
(I2500
I4947
tp486
sS'corboli_1769_v1_1_0164.png'
p487
(I2500
I4981
tp488
sS'corboli_1769_v1_1_0224.png'
p489
(I2500
I4972
tp490
sS'corboli_1769_v1_1_0027.png'
p491
(I2500
I4803
tp492
sS'corboli_1769_v1_1_0083.png'
p493
(I2500
I4978
tp494
sS'corboli_1769_v1_1_0023.png'
p495
(I2500
I4800
tp496
sS'corboli_1769_v1_1_0032.png'
p497
(I2500
I4803
tp498
sS'corboli_1769_v1_1_0305.png'
p499
(I2500
I4978
tp500
sS'corboli_1769_v1_1_0109.png'
p501
(I2500
I4969
tp502
sS'corboli_1769_v1_1_0126.png'
p503
(I2500
I4969
tp504
sS'corboli_1769_v1_1_0246.png'
p505
(I2500
I4972
tp506
sS'corboli_1769_v1_1_0247.png'
p507
(I2500
I4944
tp508
sS'corboli_1769_v1_1_0205.png'
p509
(I2500
I4972
tp510
sS'corboli_1769_v1_1_0125.png'
p511
(I2500
I5069
tp512
sS'corboli_1769_v1_1_0029.png'
p513
(I2500
I4841
tp514
sS'corboli_1769_v1_1_0228.png'
p515
(I2500
I5006
tp516
sS'corboli_1769_v1_1_0089.png'
p517
(I2500
I4978
tp518
sS'corboli_1769_v1_1_0227.png'
p519
(I2500
I4950
tp520
sS'corboli_1769_v1_1_0085.png'
p521
(I2500
I4978
tp522
sS'corboli_1769_v1_1_0231.png'
p523
(I2500
I4975
tp524
sS'corboli_1769_v1_1_0093.png'
p525
(I2500
I4950
tp526
sS'corboli_1769_v1_1_0162.png'
p527
(I2500
I4981
tp528
sS'corboli_1769_v1_1_0332.png'
p529
(I2500
I4959
tp530
sS'corboli_1769_v1_1_0320.png'
p531
(I2500
I4991
tp532
sS'corboli_1769_v1_1_0296.png'
p533
(I2500
I4975
tp534
sS'corboli_1769_v1_1_0306.png'
p535
(I2500
I4969
tp536
sS'corboli_1769_v1_1_0110.png'
p537
(I2500
I4997
tp538
sS'corboli_1769_v1_1_0241.png'
p539
(I2500
I4981
tp540
sS'corboli_1769_v1_1_0039.png'
p541
(I2500
I4841
tp542
sS'corboli_1769_v1_1_0203.png'
p543
(I2500
I4816
tp544
sS'corboli_1769_v1_1_0260.png'
p545
(I2500
I4953
tp546
sS'corboli_1769_v1_1_0198.png'
p547
(I2500
I4956
tp548
sS'corboli_1769_v1_1_0132.png'
p549
(I2500
I4978
tp550
sS'corboli_1769_v1_1_0219.png'
p551
(I2500
I4866
tp552
sS'corboli_1769_v1_1_0207.png'
p553
(I2500
I4975
tp554
sS'corboli_1769_v1_1_0073.png'
p555
(I2500
I4944
tp556
sS'corboli_1769_v1_1_0124.png'
p557
(I2500
I4972
tp558
sS'corboli_1769_v1_1_0095.png'
p559
(I2500
I4944
tp560
sS'corboli_1769_v1_1_0094.png'
p561
(I2500
I4978
tp562
sS'corboli_1769_v1_1_0174.png'
p563
(I2500
I4981
tp564
sS'corboli_1769_v1_1_0324.png'
p565
(I2500
I4969
tp566
sS'corboli_1769_v1_1_0292.png'
p567
(I2500
I4897
tp568
sS'corboli_1769_v1_1_0090.png'
p569
(I2500
I4897
tp570
sS'corboli_1769_v1_1_0078.png'
p571
(I2500
I5006
tp572
sS'corboli_1769_v1_1_0297.png'
p573
(I2500
I4984
tp574
sS'corboli_1769_v1_1_0035.png'
p575
(I2500
I4825
tp576
sS'corboli_1769_v1_1_0294.png'
p577
(I2500
I4975
tp578
sS'corboli_1769_v1_1_0313.png'
p579
(I2500
I4969
tp580
sS'corboli_1769_v1_1_0113.png'
p581
(I2500
I4981
tp582
sS'corboli_1769_v1_1_0251.png'
p583
(I2500
I4972
tp584
sS'corboli_1769_v1_1_0250.png'
p585
(I2500
I5050
tp586
sS'corboli_1769_v1_1_0155.png'
p587
(I2500
I4953
tp588
sS'corboli_1769_v1_1_0185.png'
p589
(I2500
I4972
tp590
sS'corboli_1769_v1_1_0099.png'
p591
(I2500
I5041
tp592
sS'corboli_1769_v1_1_0072.png'
p593
(I2500
I4816
tp594
sS'corboli_1769_v1_1_0178.png'
p595
(I2500
I4963
tp596
sS'corboli_1769_v1_1_0153.png'
p597
(I2500
I4916
tp598
sS'corboli_1769_v1_1_0042.png'
p599
(I2500
I4825
tp600
sS'corboli_1769_v1_1_0026.png'
p601
(I2500
I4813
tp602
sS'corboli_1769_v1_1_0210.png'
p603
(I2500
I4969
tp604
sS'corboli_1769_v1_1_0082.png'
p605
(I2500
I5000
tp606
sS'corboli_1769_v1_1_0047.png'
p607
(I2500
I4838
tp608
sS'corboli_1769_v1_1_0145.png'
p609
(I2500
I4969
tp610
sS'corboli_1769_v1_1_0092.png'
p611
(I2500
I4963
tp612
sS'corboli_1769_v1_1_0033.png'
p613
(I2500
I4834
tp614
sS'corboli_1769_v1_1_0287.png'
p615
(I2500
I4984
tp616
sS'corboli_1769_v1_1_0308.png'
p617
(I2500
I4947
tp618
sS'corboli_1769_v1_1_0335.png'
p619
(I2500
I4938
tp620
sS'corboli_1769_v1_1_0256.png'
p621
(I2500
I4972
tp622
sS'corboli_1769_v1_1_0242.png'
p623
(I2500
I4972
tp624
sS'corboli_1769_v1_1_0018.png'
p625
(I2500
I4803
tp626
sS'corboli_1769_v1_1_0276.png'
p627
(I2500
I4978
tp628
sS'corboli_1769_v1_1_0121.png'
p629
(I2500
I5044
tp630
sS'corboli_1769_v1_1_0186.png'
p631
(I2500
I4963
tp632
sS'corboli_1769_v1_1_0343.png'
p633
(I2500
I4884
tp634
sS'corboli_1769_v1_1_0157.png'
p635
(I2500
I4931
tp636
sS'corboli_1769_v1_1_0288.png'
p637
(I2500
I4975
tp638
sS'corboli_1769_v1_1_0143.png'
p639
(I2500
I4981
tp640
sS'corboli_1769_v1_1_0142.png'
p641
(I2500
I4953
tp642
sS'corboli_1769_v1_1_0167.png'
p643
(I2500
I4950
tp644
sS'corboli_1769_v1_1_0041.png'
p645
(I2500
I4834
tp646
sS'corboli_1769_v1_1_0327.png'
p647
(I2500
I4950
tp648
sS'corboli_1769_v1_1_0223.png'
p649
(I2500
I4931
tp650
sS'corboli_1769_v1_1_0057.png'
p651
(I2500
I4925
tp652
sS'corboli_1769_v1_1_0045.png'
p653
(I2500
I4838
tp654
s.