(dp0
S'corboli_1769_v1_1_0323'
p1
cnumpy.core.multiarray
scalar
p2
(cnumpy
dtype
p3
(S'f8'
p4
I0
I1
tp5
Rp6
(I3
S'<'
p7
NNNI-1
I-1
I0
tp8
bS'\xb9\xd7\xc0\xd0\xdb|u>'
p9
tp10
Rp11
sS'corboli_1769_v1_1_0293'
p12
g2
(g6
S'I\x8eB\xb3\xda\x91u>'
p13
tp14
Rp15
sS'corboli_1769_v1_1_0159'
p16
g2
(g6
S'\x18\x1b\x9a\xc5\x02\xa7u>'
p17
tp18
Rp19
sS'corboli_1769_v1_1_0329'
p20
g2
(g6
S'\x18\x1b\x9a\xc5\x02\xa7u>'
p21
tp22
Rp23
sS'corboli_1769_v1_1_0158'
p24
g2
(g6
S's9\xe1N\x87\x8eu>'
p25
tp26
Rp27
sS'corboli_1769_v1_1_0283'
p28
g2
(g6
S'\xe9W>\xbe\xb9\xadu>'
p29
tp30
Rp31
sS'corboli_1769_v1_1_0295'
p32
g2
(g6
S'I\x8eB\xb3\xda\x91u>'
p33
tp34
Rp35
sS'corboli_1769_v1_1_0140'
p36
g2
(g6
S':\x8c0\xe2\x8eyu>'
p37
tp38
Rp39
sS'corboli_1769_v1_1_0141'
p40
g2
(g6
S'?\xc2\x9f\x19\x8b\xa2u>'
p41
tp42
Rp43
sS'corboli_1769_v1_1_0142'
p44
g2
(g6
S'\xe9W>\xbe\xb9\xadu>'
p45
tp46
Rp47
sS'corboli_1769_v1_1_0143'
p48
g2
(g6
S's9\xe1N\x87\x8eu>'
p49
tp50
Rp51
sS'corboli_1769_v1_1_0144'
p52
g2
(g6
S'\xe9W>\xbe\xb9\xadu>'
p53
tp54
Rp55
sS'corboli_1769_v1_1_0145'
p56
g2
(g6
S'J\x0fz\x0b\xdb\x9bu>'
p57
tp58
Rp59
sS'corboli_1769_v1_1_0146'
p60
g2
(g6
S'T\x15\x88m|\xc6u>'
p61
tp62
Rp63
sS'corboli_1769_v1_1_0147'
p64
g2
(g6
S'\x93\x0c\xe4\x05\xd4\xb7u>'
p65
tp66
Rp67
sS'corboli_1769_v1_1_0148'
p68
g2
(g6
S'\x84\xd3\xbb\xbc]\xaau>'
p69
tp70
Rp71
sS'corboli_1769_v1_1_0149'
p72
g2
(g6
S'\x18\x1b\x9a\xc5\x02\xa7u>'
p73
tp74
Rp75
sS'corboli_1769_v1_1_0263'
p76
g2
(g6
S'I\x8eB\xb3\xda\x91u>'
p77
tp78
Rp79
sS'corboli_1769_v1_1_0262'
p80
g2
(g6
S'\xef\x8c\x80\x1e/\x95u>'
p81
tp82
Rp83
sS'corboli_1769_v1_1_0265'
p84
g2
(g6
S'\x99W\xf9\xb9x\x83u>'
p85
tp86
Rp87
sS'corboli_1769_v1_1_0264'
p88
g2
(g6
S'\x9c\xc4\x91\xb5\xc8\x86u>'
p89
tp90
Rp91
sS'corboli_1769_v1_1_0267'
p92
g2
(g6
S'\xaa\x16\xb5\xbb\x18\xc3u>'
p93
tp94
Rp95
sS'corboli_1769_v1_1_0266'
p96
g2
(g6
S'J\x0fz\x0b\xdb\x9bu>'
p97
tp98
Rp99
sS'corboli_1769_v1_1_0298'
p100
g2
(g6
S'\xeb\xa4\x9d\xca\x16\xb1u>'
p101
tp102
Rp103
sS'corboli_1769_v1_1_0333'
p104
g2
(g6
S'2\xd2\x93\x89q9u>'
p105
tp106
Rp107
sS'corboli_1769_v1_1_0319'
p108
g2
(g6
S'\xef\x8c\x80\x1e/\x95u>'
p109
tp110
Rp111
sS'corboli_1769_v1_1_0282'
p112
g2
(g6
S'\xe0\xf7\xbd\x12\x1d%u>'
p113
tp114
Rp115
sS'corboli_1769_v1_1_0199'
p116
g2
(g6
S'\xfc\x97\x06\xec~Dv>'
p117
tp118
Rp119
sS'corboli_1769_v1_1_0318'
p120
g2
(g6
S'?\xc2\x9f\x19\x8b\xa2u>'
p121
tp122
Rp123
sS'corboli_1769_v1_1_0305'
p124
g2
(g6
S'I\x8eB\xb3\xda\x91u>'
p125
tp126
Rp127
sS'corboli_1769_v1_1_0198'
p128
g2
(g6
S'\x84\xd3\xbb\xbc]\xaau>'
p129
tp130
Rp131
sS'corboli_1769_v1_1_0078'
p132
g2
(g6
S'Xy\xd1\x0e\xf8ru>'
p133
tp134
Rp135
sS'corboli_1769_v1_1_0079'
p136
g2
(g6
S'1\x8e\x08\xf7Bvu>'
p137
tp138
Rp139
sS'corboli_1769_v1_1_0074'
p140
g2
(g6
S's9\xe1N\x87\x8eu>'
p141
tp142
Rp143
sS'corboli_1769_v1_1_0075'
p144
g2
(g6
S'1\x8e\x08\xf7Bvu>'
p145
tp146
Rp147
sS'corboli_1769_v1_1_0076'
p148
g2
(g6
S'\x99W\xf9\xb9x\x83u>'
p149
tp150
Rp151
sS'corboli_1769_v1_1_0077'
p152
g2
(g6
S'\xef\x8c\x80\x1e/\x95u>'
p153
tp154
Rp155
sS'corboli_1769_v1_1_0070'
p156
g2
(g6
S'\x0fg2\x05\x99Kv>'
p157
tp158
Rp159
sS'corboli_1769_v1_1_0071'
p160
g2
(g6
S'\x88\xa6\xbcg\x0bHv>'
p161
tp162
Rp163
sS'corboli_1769_v1_1_0072'
p164
g2
(g6
S'\x0fg2\x05\x99Kv>'
p165
tp166
Rp167
sS'corboli_1769_v1_1_0073'
p168
g2
(g6
S'\x93\x0c\xe4\x05\xd4\xb7u>'
p169
tp170
Rp171
sS'corboli_1769_v1_1_0302'
p172
g2
(g6
S'\x98\x9fm=P(u>'
p173
tp174
Rp175
sS'corboli_1769_v1_1_0096'
p176
g2
(g6
S'\x84\xd3\xbb\xbc]\xaau>'
p177
tp178
Rp179
sS'corboli_1769_v1_1_0097'
p180
g2
(g6
S']B\xb7:\x95\x1cv>'
p181
tp182
Rp183
sS'corboli_1769_v1_1_0094'
p184
g2
(g6
S'I\x8eB\xb3\xda\x91u>'
p185
tp186
Rp187
sS'corboli_1769_v1_1_0095'
p188
g2
(g6
S'\x93\x0c\xe4\x05\xd4\xb7u>'
p189
tp190
Rp191
sS'corboli_1769_v1_1_0092'
p192
g2
(g6
S'?\xc2\x9f\x19\x8b\xa2u>'
p193
tp194
Rp195
sS'corboli_1769_v1_1_0093'
p196
g2
(g6
S'\xeb\xa4\x9d\xca\x16\xb1u>'
p197
tp198
Rp199
sS'corboli_1769_v1_1_0090'
p200
g2
(g6
S';\xdc\xfe\x990\xedu>'
p201
tp202
Rp203
sS'corboli_1769_v1_1_0091'
p204
g2
(g6
S'k\n\xe3\xf04\x8bu>'
p205
tp206
Rp207
sS'corboli_1769_v1_1_0157'
p208
g2
(g6
S'T\x15\x88m|\xc6u>'
p209
tp210
Rp211
sS'corboli_1769_v1_1_0156'
p212
g2
(g6
S'l\xa2\xc454\xbbu>'
p213
tp214
Rp215
sS'corboli_1769_v1_1_0155'
p216
g2
(g6
S'\xe9W>\xbe\xb9\xadu>'
p217
tp218
Rp219
sS'corboli_1769_v1_1_0154'
p220
g2
(g6
S'\x9c\xc4\x91\xb5\xc8\x86u>'
p221
tp222
Rp223
sS'corboli_1769_v1_1_0153'
p224
g2
(g6
S'\x04*O\xc9~\xd7u>'
p225
tp226
Rp227
sS'corboli_1769_v1_1_0152'
p228
g2
(g6
S'?\xc2\x9f\x19\x8b\xa2u>'
p229
tp230
Rp231
sS'corboli_1769_v1_1_0098'
p232
g2
(g6
S'\x18\x1b\x9a\xc5\x02\xa7u>'
p233
tp234
Rp235
sS'corboli_1769_v1_1_0099'
p236
g2
(g6
S'D\xc7\x8fE\xd8Lu>'
p237
tp238
Rp239
sS'corboli_1769_v1_1_0269'
p240
g2
(g6
S'\x84\xd3\xbb\xbc]\xaau>'
p241
tp242
Rp243
sS'corboli_1769_v1_1_0190'
p244
g2
(g6
S'\xef\x8c\x80\x1e/\x95u>'
p245
tp246
Rp247
sS'corboli_1769_v1_1_0336'
p248
g2
(g6
S'T\x15\x88m|\xc6u>'
p249
tp250
Rp251
sS'corboli_1769_v1_1_0268'
p252
g2
(g6
S'I\x8eB\xb3\xda\x91u>'
p253
tp254
Rp255
sS'corboli_1769_v1_1_0342'
p256
g2
(g6
S'\xe9W>\xbe\xb9\xadu>'
p257
tp258
Rp259
sS'corboli_1769_v1_1_0303'
p260
g2
(g6
S'S\x13*\x8e2\x9fu>'
p261
tp262
Rp263
sS'corboli_1769_v1_1_0304'
p264
g2
(g6
S'J\x0fz\x0b\xdb\x9bu>'
p265
tp266
Rp267
sS'corboli_1769_v1_1_0069'
p268
g2
(g6
S'\xf2K\x1a\xf1\x95#v>'
p269
tp270
Rp271
sS'corboli_1769_v1_1_0068'
p272
g2
(g6
S'\xdb\n\xff\x99\xf5\x8fv>'
p273
tp274
Rp275
sS'corboli_1769_v1_1_0063'
p276
g2
(g6
S'D\xe1\xb7W\x1f.v>'
p277
tp278
Rp279
sS'corboli_1769_v1_1_0062'
p280
g2
(g6
S'u\x93\x8c\x88\x16\x19v>'
p281
tp282
Rp283
sS'corboli_1769_v1_1_0061'
p284
g2
(g6
S'X\xd1O\x97\x85\xb9v>'
p285
tp286
Rp287
sS'corboli_1769_v1_1_0060'
p288
g2
(g6
S'\x9e\xb9\xfc=\xe09v>'
p289
tp290
Rp291
sS'corboli_1769_v1_1_0067'
p292
g2
(g6
S'zPs\xde\xe7Sv>'
p293
tp294
Rp295
sS'corboli_1769_v1_1_0066'
p296
g2
(g6
S'\x0fg2\x05\x99Kv>'
p297
tp298
Rp299
sS'corboli_1769_v1_1_0065'
p300
g2
(g6
S'tK\xe1CX6v>'
p301
tp302
Rp303
sS'corboli_1769_v1_1_0064'
p304
g2
(g6
S'I\x14\xa9EyWv>'
p305
tp306
Rp307
sS'corboli_1769_v1_1_0300'
p308
g2
(g6
S'\xc0\xf7tr\x95\xbeu>'
p309
tp310
Rp311
sS'corboli_1769_v1_1_0277'
p312
g2
(g6
S'\xe9W>\xbe\xb9\xadu>'
p313
tp314
Rp315
sS'corboli_1769_v1_1_0301'
p316
g2
(g6
S'1\x8e\x08\xf7Bvu>'
p317
tp318
Rp319
sS'corboli_1769_v1_1_0252'
p320
g2
(g6
S's9\xe1N\x87\x8eu>'
p321
tp322
Rp323
sS'corboli_1769_v1_1_0085'
p324
g2
(g6
S'I\x8eB\xb3\xda\x91u>'
p325
tp326
Rp327
sS'corboli_1769_v1_1_0084'
p328
g2
(g6
S'S\x13*\x8e2\x9fu>'
p329
tp330
Rp331
sS'corboli_1769_v1_1_0087'
p332
g2
(g6
S'k\n\xe3\xf04\x8bu>'
p333
tp334
Rp335
sS'corboli_1769_v1_1_0086'
p336
g2
(g6
S'\xe9W>\xbe\xb9\xadu>'
p337
tp338
Rp339
sS'corboli_1769_v1_1_0081'
p340
g2
(g6
S's9\xe1N\x87\x8eu>'
p341
tp342
Rp343
sS'corboli_1769_v1_1_0080'
p344
g2
(g6
S'I\x8eB\xb3\xda\x91u>'
p345
tp346
Rp347
sS'corboli_1769_v1_1_0083'
p348
g2
(g6
S'I\x8eB\xb3\xda\x91u>'
p349
tp350
Rp351
sS'corboli_1769_v1_1_0082'
p352
g2
(g6
S':\x8c0\xe2\x8eyu>'
p353
tp354
Rp355
sS'corboli_1769_v1_1_0122'
p356
g2
(g6
S'?\xc2\x9f\x19\x8b\xa2u>'
p357
tp358
Rp359
sS'corboli_1769_v1_1_0123'
p360
g2
(g6
S'U5^\x05\x9aIu>'
p361
tp362
Rp363
sS'corboli_1769_v1_1_0120'
p364
g2
(g6
S'x\x04\x15\x91\x84\x98u>'
p365
tp366
Rp367
sS'corboli_1769_v1_1_0121'
p368
g2
(g6
S'U5^\x05\x9aIu>'
p369
tp370
Rp371
sS'corboli_1769_v1_1_0089'
p372
g2
(g6
S'I\x8eB\xb3\xda\x91u>'
p373
tp374
Rp375
sS'corboli_1769_v1_1_0088'
p376
g2
(g6
S'\x9c\xc4\x91\xb5\xc8\x86u>'
p377
tp378
Rp379
sS'corboli_1769_v1_1_0124'
p380
g2
(g6
S'x\x04\x15\x91\x84\x98u>'
p381
tp382
Rp383
sS'corboli_1769_v1_1_0125'
p384
g2
(g6
S'\x91\xdaw{\xb9.u>'
p385
tp386
Rp387
sS'corboli_1769_v1_1_0254'
p388
g2
(g6
S'\x9c\xc4\x91\xb5\xc8\x86u>'
p389
tp390
Rp391
sS'corboli_1769_v1_1_0255'
p392
g2
(g6
S'\x9c\xc4\x91\xb5\xc8\x86u>'
p393
tp394
Rp395
sS'corboli_1769_v1_1_0256'
p396
g2
(g6
S'x\x04\x15\x91\x84\x98u>'
p397
tp398
Rp399
sS'corboli_1769_v1_1_0257'
p400
g2
(g6
S'\xc0\xf7tr\x95\xbeu>'
p401
tp402
Rp403
sS'corboli_1769_v1_1_0250'
p404
g2
(g6
S'Ib\x90z Cu>'
p405
tp406
Rp407
sS'corboli_1769_v1_1_0251'
p408
g2
(g6
S'x\x04\x15\x91\x84\x98u>'
p409
tp410
Rp411
sS'corboli_1769_v1_1_0018'
p412
g2
(g6
S'#\x18\xfa\xd0\x0b[v>'
p413
tp414
Rp415
sS'corboli_1769_v1_1_0253'
p416
g2
(g6
S'\xaa\x16\xb5\xbb\x18\xc3u>'
p417
tp418
Rp419
sS'corboli_1769_v1_1_0258'
p420
g2
(g6
S'I\x8eB\xb3\xda\x91u>'
p421
tp422
Rp423
sS'corboli_1769_v1_1_0259'
p424
g2
(g6
S'x\x04\x15\x91\x84\x98u>'
p425
tp426
Rp427
sS'corboli_1769_v1_1_0307'
p428
g2
(g6
S'J\x0fz\x0b\xdb\x9bu>'
p429
tp430
Rp431
sS'corboli_1769_v1_1_0308'
p432
g2
(g6
S'.\x04V\xe2t\xb4u>'
p433
tp434
Rp435
sS'corboli_1769_v1_1_0310'
p436
g2
(g6
S'\xe9W>\xbe\xb9\xadu>'
p437
tp438
Rp439
sS'corboli_1769_v1_1_0188'
p440
g2
(g6
S'l\xa2\xc454\xbbu>'
p441
tp442
Rp443
sS'corboli_1769_v1_1_0150'
p444
g2
(g6
S'J\x0fz\x0b\xdb\x9bu>'
p445
tp446
Rp447
sS'corboli_1769_v1_1_0309'
p448
g2
(g6
S'I\x8eB\xb3\xda\x91u>'
p449
tp450
Rp451
sS'corboli_1769_v1_1_0276'
p452
g2
(g6
S'I\x8eB\xb3\xda\x91u>'
p453
tp454
Rp455
sS'corboli_1769_v1_1_0260'
p456
g2
(g6
S'\xe9W>\xbe\xb9\xadu>'
p457
tp458
Rp459
sS'corboli_1769_v1_1_0189'
p460
g2
(g6
S'x\x04\x15\x91\x84\x98u>'
p461
tp462
Rp463
sS'corboli_1769_v1_1_0128'
p464
g2
(g6
S'?\xc2\x9f\x19\x8b\xa2u>'
p465
tp466
Rp467
sS'corboli_1769_v1_1_0191'
p468
g2
(g6
S'\xeb\xa4\x9d\xca\x16\xb1u>'
p469
tp470
Rp471
sS'corboli_1769_v1_1_0139'
p472
g2
(g6
S'I\x8eB\xb3\xda\x91u>'
p473
tp474
Rp475
sS'corboli_1769_v1_1_0138'
p476
g2
(g6
S'.\x04V\xe2t\xb4u>'
p477
tp478
Rp479
sS'corboli_1769_v1_1_0234'
p480
g2
(g6
S'T\x15\x88m|\xc6u>'
p481
tp482
Rp483
sS'corboli_1769_v1_1_0235'
p484
g2
(g6
S'ag\x06\xfdF\xcdu>'
p485
tp486
Rp487
sS'corboli_1769_v1_1_0232'
p488
g2
(g6
S's9\xe1N\x87\x8eu>'
p489
tp490
Rp491
sS'corboli_1769_v1_1_0233'
p492
g2
(g6
S'zU\xbd\x8fyau>'
p493
tp494
Rp495
sS'corboli_1769_v1_1_0230'
p496
g2
(g6
S'x\x04\x15\x91\x84\x98u>'
p497
tp498
Rp499
sS'corboli_1769_v1_1_0231'
p500
g2
(g6
S'\xef\x8c\x80\x1e/\x95u>'
p501
tp502
Rp503
sS'corboli_1769_v1_1_0131'
p504
g2
(g6
S'1\x8e\x08\xf7Bvu>'
p505
tp506
Rp507
sS'corboli_1769_v1_1_0130'
p508
g2
(g6
S'\x84\xd3\xbb\xbc]\xaau>'
p509
tp510
Rp511
sS'corboli_1769_v1_1_0133'
p512
g2
(g6
S'.\x04V\xe2t\xb4u>'
p513
tp514
Rp515
sS'corboli_1769_v1_1_0132'
p516
g2
(g6
S'I\x8eB\xb3\xda\x91u>'
p517
tp518
Rp519
sS'corboli_1769_v1_1_0135'
p520
g2
(g6
S'I\x8eB\xb3\xda\x91u>'
p521
tp522
Rp523
sS'corboli_1769_v1_1_0134'
p524
g2
(g6
S'.\x04V\xe2t\xb4u>'
p525
tp526
Rp527
sS'corboli_1769_v1_1_0137'
p528
g2
(g6
S'J\x0fz\x0b\xdb\x9bu>'
p529
tp530
Rp531
sS'corboli_1769_v1_1_0136'
p532
g2
(g6
S'\xb9\xd7\xc0\xd0\xdb|u>'
p533
tp534
Rp535
sS'corboli_1769_v1_1_0243'
p536
g2
(g6
S'\x18\x1b\x9a\xc5\x02\xa7u>'
p537
tp538
Rp539
sS'corboli_1769_v1_1_0236'
p540
g2
(g6
S'\xef\x8c\x80\x1e/\x95u>'
p541
tp542
Rp543
sS'corboli_1769_v1_1_0241'
p544
g2
(g6
S's9\xe1N\x87\x8eu>'
p545
tp546
Rp547
sS'corboli_1769_v1_1_0240'
p548
g2
(g6
S'x\x04\x15\x91\x84\x98u>'
p549
tp550
Rp551
sS'corboli_1769_v1_1_0129'
p552
g2
(g6
S's9\xe1N\x87\x8eu>'
p553
tp554
Rp555
sS'corboli_1769_v1_1_0246'
p556
g2
(g6
S'x\x04\x15\x91\x84\x98u>'
p557
tp558
Rp559
sS'corboli_1769_v1_1_0245'
p560
g2
(g6
S'x\x04\x15\x91\x84\x98u>'
p561
tp562
Rp563
sS'corboli_1769_v1_1_0237'
p564
g2
(g6
S'J\x0fz\x0b\xdb\x9bu>'
p565
tp566
Rp567
sS'corboli_1769_v1_1_0249'
p568
g2
(g6
S'k\n\xe3\xf04\x8bu>'
p569
tp570
Rp571
sS'corboli_1769_v1_1_0248'
p572
g2
(g6
S'\xef\x8c\x80\x1e/\x95u>'
p573
tp574
Rp575
sS'corboli_1769_v1_1_0278'
p576
g2
(g6
S'\xef\x8c\x80\x1e/\x95u>'
p577
tp578
Rp579
sS'corboli_1769_v1_1_0325'
p580
g2
(g6
S'I\x8eB\xb3\xda\x91u>'
p581
tp582
Rp583
sS'corboli_1769_v1_1_0279'
p584
g2
(g6
S'`\x07W\x9d&5u>'
p585
tp586
Rp587
sS'corboli_1769_v1_1_0182'
p588
g2
(g6
S'x\x04\x15\x91\x84\x98u>'
p589
tp590
Rp591
sS'corboli_1769_v1_1_0326'
p592
g2
(g6
S'\xeb\xa4\x9d\xca\x16\xb1u>'
p593
tp594
Rp595
sS'corboli_1769_v1_1_0320'
p596
g2
(g6
S'\x99W\xf9\xb9x\x83u>'
p597
tp598
Rp599
sS'corboli_1769_v1_1_0183'
p600
g2
(g6
S'\xeb\xa4\x9d\xca\x16\xb1u>'
p601
tp602
Rp603
sS'corboli_1769_v1_1_0201'
p604
g2
(g6
S'\x84\xd3\xbb\xbc]\xaau>'
p605
tp606
Rp607
sS'corboli_1769_v1_1_0339'
p608
g2
(g6
S'\x93\x0c\xe4\x05\xd4\xb7u>'
p609
tp610
Rp611
sS'corboli_1769_v1_1_0338'
p612
g2
(g6
S'I\x8eB\xb3\xda\x91u>'
p613
tp614
Rp615
sS'corboli_1769_v1_1_0151'
p616
g2
(g6
S'x\x04\x15\x91\x84\x98u>'
p617
tp618
Rp619
sS'corboli_1769_v1_1_0225'
p620
g2
(g6
S's9\xe1N\x87\x8eu>'
p621
tp622
Rp623
sS'corboli_1769_v1_1_0224'
p624
g2
(g6
S'x\x04\x15\x91\x84\x98u>'
p625
tp626
Rp627
sS'corboli_1769_v1_1_0227'
p628
g2
(g6
S'\xeb\xa4\x9d\xca\x16\xb1u>'
p629
tp630
Rp631
sS'corboli_1769_v1_1_0226'
p632
g2
(g6
S'\xb9\xd7\xc0\xd0\xdb|u>'
p633
tp634
Rp635
sS'corboli_1769_v1_1_0221'
p636
g2
(g6
S'\xeb\xa4\x9d\xca\x16\xb1u>'
p637
tp638
Rp639
sS'corboli_1769_v1_1_0220'
p640
g2
(g6
S'\x93\x0c\xe4\x05\xd4\xb7u>'
p641
tp642
Rp643
sS'corboli_1769_v1_1_0223'
p644
g2
(g6
S'T\x15\x88m|\xc6u>'
p645
tp646
Rp647
sS'corboli_1769_v1_1_0222'
p648
g2
(g6
S'\xef\x8c\x80\x1e/\x95u>'
p649
tp650
Rp651
sS'corboli_1769_v1_1_0321'
p652
g2
(g6
S'I\x8eB\xb3\xda\x91u>'
p653
tp654
Rp655
sS'corboli_1769_v1_1_0343'
p656
g2
(g6
S'\x9b\xaaSz!\xfcu>'
p657
tp658
Rp659
sS'corboli_1769_v1_1_0340'
p660
g2
(g6
S'\x84\xd3\xbb\xbc]\xaau>'
p661
tp662
Rp663
sS'corboli_1769_v1_1_0341'
p664
g2
(g6
S'\xe9W>\xbe\xb9\xadu>'
p665
tp666
Rp667
sS'corboli_1769_v1_1_0229'
p668
g2
(g6
S'?\xc2\x9f\x19\x8b\xa2u>'
p669
tp670
Rp671
sS'corboli_1769_v1_1_0228'
p672
g2
(g6
S'Xy\xd1\x0e\xf8ru>'
p673
tp674
Rp675
sS'corboli_1769_v1_1_0344'
p676
g2
(g6
S'\x99W\xf9\xb9x\x83u>'
p677
tp678
Rp679
sS'corboli_1769_v1_1_0345'
p680
g2
(g6
S'\xef\x8c\x80\x1e/\x95u>'
p681
tp682
Rp683
sS'corboli_1769_v1_1_0038'
p684
g2
(g6
S'I\x14\xa9EyWv>'
p685
tp686
Rp687
sS'corboli_1769_v1_1_0039'
p688
g2
(g6
S'D\xe1\xb7W\x1f.v>'
p689
tp690
Rp691
sS'corboli_1769_v1_1_0334'
p692
g2
(g6
S'.\x04V\xe2t\xb4u>'
p693
tp694
Rp695
sS'corboli_1769_v1_1_0287'
p696
g2
(g6
S'k\n\xe3\xf04\x8bu>'
p697
tp698
Rp699
sS'corboli_1769_v1_1_0030'
p700
g2
(g6
S'#\x18\xfa\xd0\x0b[v>'
p701
tp702
Rp703
sS'corboli_1769_v1_1_0031'
p704
g2
(g6
S'tK\xe1CX6v>'
p705
tp706
Rp707
sS'corboli_1769_v1_1_0032'
p708
g2
(g6
S'#\x18\xfa\xd0\x0b[v>'
p709
tp710
Rp711
sS'corboli_1769_v1_1_0033'
p712
g2
(g6
S'tK\xe1CX6v>'
p713
tp714
Rp715
sS'corboli_1769_v1_1_0034'
p716
g2
(g6
S'\x0fg2\x05\x99Kv>'
p717
tp718
Rp719
sS'corboli_1769_v1_1_0035'
p720
g2
(g6
S'\x93\xdf\x85\x91\xf3@v>'
p721
tp722
Rp723
sS'corboli_1769_v1_1_0036'
p724
g2
(g6
S'zPs\xde\xe7Sv>'
p725
tp726
Rp727
sS'corboli_1769_v1_1_0037'
p728
g2
(g6
S'zPs\xde\xe7Sv>'
p729
tp730
Rp731
sS'corboli_1769_v1_1_0291'
p732
g2
(g6
S'k\n\xe3\xf04\x8bu>'
p733
tp734
Rp735
sS'corboli_1769_v1_1_0238'
p736
g2
(g6
S'\x93\x0c\xe4\x05\xd4\xb7u>'
p737
tp738
Rp739
sS'corboli_1769_v1_1_0322'
p740
g2
(g6
S'\x93\x0c\xe4\x05\xd4\xb7u>'
p741
tp742
Rp743
sS'corboli_1769_v1_1_0239'
p744
g2
(g6
S'I\x8eB\xb3\xda\x91u>'
p745
tp746
Rp747
sS'corboli_1769_v1_1_0335'
p748
g2
(g6
S'\xc0\xf7tr\x95\xbeu>'
p749
tp750
Rp751
sS'corboli_1769_v1_1_0297'
p752
g2
(g6
S'k\n\xe3\xf04\x8bu>'
p753
tp754
Rp755
sS'corboli_1769_v1_1_0242'
p756
g2
(g6
S'x\x04\x15\x91\x84\x98u>'
p757
tp758
Rp759
sS'corboli_1769_v1_1_0313'
p760
g2
(g6
S'J\x0fz\x0b\xdb\x9bu>'
p761
tp762
Rp763
sS'corboli_1769_v1_1_0210'
p764
g2
(g6
S'J\x0fz\x0b\xdb\x9bu>'
p765
tp766
Rp767
sS'corboli_1769_v1_1_0211'
p768
g2
(g6
S'\x8a\xaa0`\x84+u>'
p769
tp770
Rp771
sS'corboli_1769_v1_1_0212'
p772
g2
(g6
S'\x9c\xc4\x91\xb5\xc8\x86u>'
p773
tp774
Rp775
sS'corboli_1769_v1_1_0213'
p776
g2
(g6
S'\x91\xdaw{\xb9.u>'
p777
tp778
Rp779
sS'corboli_1769_v1_1_0214'
p780
g2
(g6
S'\xeb\xa4\x9d\xca\x16\xb1u>'
p781
tp782
Rp783
sS'corboli_1769_v1_1_0215'
p784
g2
(g6
S'\xaa\x16\xb5\xbb\x18\xc3u>'
p785
tp786
Rp787
sS'corboli_1769_v1_1_0216'
p788
g2
(g6
S's9\xe1N\x87\x8eu>'
p789
tp790
Rp791
sS'corboli_1769_v1_1_0217'
p792
g2
(g6
S'l\xa2\xc454\xbbu>'
p793
tp794
Rp795
sS'corboli_1769_v1_1_0218'
p796
g2
(g6
S';\xdc\xfe\x990\xedu>'
p797
tp798
Rp799
sS'corboli_1769_v1_1_0219'
p800
g2
(g6
S'_\xe4\x1f3\xf3\x10v>'
p801
tp802
Rp803
sS'corboli_1769_v1_1_0332'
p804
g2
(g6
S'\x18\x1b\x9a\xc5\x02\xa7u>'
p805
tp806
Rp807
sS'corboli_1769_v1_1_0104'
p808
g2
(g6
S'\x9c\xc4\x91\xb5\xc8\x86u>'
p809
tp810
Rp811
sS'corboli_1769_v1_1_0105'
p812
g2
(g6
S's9\xe1N\x87\x8eu>'
p813
tp814
Rp815
sS'corboli_1769_v1_1_0106'
p816
g2
(g6
S'\xa9+\xda\xc1\\Fu>'
p817
tp818
Rp819
sS'corboli_1769_v1_1_0107'
p820
g2
(g6
S'\x84\xd3\xbb\xbc]\xaau>'
p821
tp822
Rp823
sS'corboli_1769_v1_1_0100'
p824
g2
(g6
S'l\xa2\xc454\xbbu>'
p825
tp826
Rp827
sS'corboli_1769_v1_1_0101'
p828
g2
(g6
S'\x93\x0c\xe4\x05\xd4\xb7u>'
p829
tp830
Rp831
sS'corboli_1769_v1_1_0102'
p832
g2
(g6
S'\xb9\xd7\xc0\xd0\xdb|u>'
p833
tp834
Rp835
sS'corboli_1769_v1_1_0103'
p836
g2
(g6
S'k\n\xe3\xf04\x8bu>'
p837
tp838
Rp839
sS'corboli_1769_v1_1_0244'
p840
g2
(g6
S'x\x04\x15\x91\x84\x98u>'
p841
tp842
Rp843
sS'corboli_1769_v1_1_0108'
p844
g2
(g6
S'\x84\xd3\xbb\xbc]\xaau>'
p845
tp846
Rp847
sS'corboli_1769_v1_1_0109'
p848
g2
(g6
S'J\x0fz\x0b\xdb\x9bu>'
p849
tp850
Rp851
sS'corboli_1769_v1_1_0027'
p852
g2
(g6
S'#\x18\xfa\xd0\x0b[v>'
p853
tp854
Rp855
sS'corboli_1769_v1_1_0026'
p856
g2
(g6
S"\xbd\x8d\xf2\xc4'Ov>"
p857
tp858
Rp859
sS'corboli_1769_v1_1_0025'
p860
g2
(g6
S'\nb\xd9\xb4\xa41v>'
p861
tp862
Rp863
sS'corboli_1769_v1_1_0024'
p864
g2
(g6
S'#\x18\xfa\xd0\x0b[v>'
p865
tp866
Rp867
sS'corboli_1769_v1_1_0023'
p868
g2
(g6
S'\x12\x92\xf2\x80\x9f^v>'
p869
tp870
Rp871
sS'corboli_1769_v1_1_0022'
p872
g2
(g6
S'tK\xe1CX6v>'
p873
tp874
Rp875
sS'corboli_1769_v1_1_0021'
p876
g2
(g6
S'\x9e\xb9\xfc=\xe09v>'
p877
tp878
Rp879
sS'corboli_1769_v1_1_0020'
p880
g2
(g6
S'\x88\xa6\xbcg\x0bHv>'
p881
tp882
Rp883
sS'corboli_1769_v1_1_0184'
p884
g2
(g6
S'x\x04\x15\x91\x84\x98u>'
p885
tp886
Rp887
sS'corboli_1769_v1_1_0185'
p888
g2
(g6
S'x\x04\x15\x91\x84\x98u>'
p889
tp890
Rp891
sS'corboli_1769_v1_1_0186'
p892
g2
(g6
S'?\xc2\x9f\x19\x8b\xa2u>'
p893
tp894
Rp895
sS'corboli_1769_v1_1_0187'
p896
g2
(g6
S's9\xe1N\x87\x8eu>'
p897
tp898
Rp899
sS'corboli_1769_v1_1_0180'
p900
g2
(g6
S'x\x04\x15\x91\x84\x98u>'
p901
tp902
Rp903
sS'corboli_1769_v1_1_0181'
p904
g2
(g6
S'x\x04\x15\x91\x84\x98u>'
p905
tp906
Rp907
sS'corboli_1769_v1_1_0029'
p908
g2
(g6
S'D\xe1\xb7W\x1f.v>'
p909
tp910
Rp911
sS'corboli_1769_v1_1_0028'
p912
g2
(g6
S'#\x18\xfa\xd0\x0b[v>'
p913
tp914
Rp915
sS'corboli_1769_v1_1_0200'
p916
g2
(g6
S'x\x04\x15\x91\x84\x98u>'
p917
tp918
Rp919
sS'corboli_1769_v1_1_0209'
p920
g2
(g6
S'x\x04\x15\x91\x84\x98u>'
p921
tp922
Rp923
sS'corboli_1769_v1_1_0314'
p924
g2
(g6
S'k\n\xe3\xf04\x8bu>'
p925
tp926
Rp927
sS'corboli_1769_v1_1_0208'
p928
g2
(g6
S'x\x04\x15\x91\x84\x98u>'
p929
tp930
Rp931
sS'corboli_1769_v1_1_0327'
p932
g2
(g6
S'\xeb\xa4\x9d\xca\x16\xb1u>'
p933
tp934
Rp935
sS'corboli_1769_v1_1_0331'
p936
g2
(g6
S'I\x8eB\xb3\xda\x91u>'
p937
tp938
Rp939
sS'corboli_1769_v1_1_0166'
p940
g2
(g6
S'\x18\x1b\x9a\xc5\x02\xa7u>'
p941
tp942
Rp943
sS'corboli_1769_v1_1_0167'
p944
g2
(g6
S'\xeb\xa4\x9d\xca\x16\xb1u>'
p945
tp946
Rp947
sS'corboli_1769_v1_1_0164'
p948
g2
(g6
S's9\xe1N\x87\x8eu>'
p949
tp950
Rp951
sS'corboli_1769_v1_1_0165'
p952
g2
(g6
S'.\x04V\xe2t\xb4u>'
p953
tp954
Rp955
sS'corboli_1769_v1_1_0162'
p956
g2
(g6
S's9\xe1N\x87\x8eu>'
p957
tp958
Rp959
sS'corboli_1769_v1_1_0163'
p960
g2
(g6
S'\xe9W>\xbe\xb9\xadu>'
p961
tp962
Rp963
sS'corboli_1769_v1_1_0160'
p964
g2
(g6
S'S\x13*\x8e2\x9fu>'
p965
tp966
Rp967
sS'corboli_1769_v1_1_0161'
p968
g2
(g6
S'\x84\xd3\xbb\xbc]\xaau>'
p969
tp970
Rp971
sS'corboli_1769_v1_1_0207'
p972
g2
(g6
S'\xef\x8c\x80\x1e/\x95u>'
p973
tp974
Rp975
sS'corboli_1769_v1_1_0206'
p976
g2
(g6
S'x\x04\x15\x91\x84\x98u>'
p977
tp978
Rp979
sS'corboli_1769_v1_1_0205'
p980
g2
(g6
S'x\x04\x15\x91\x84\x98u>'
p981
tp982
Rp983
sS'corboli_1769_v1_1_0204'
p984
g2
(g6
S'x\x04\x15\x91\x84\x98u>'
p985
tp986
Rp987
sS'corboli_1769_v1_1_0203'
p988
g2
(g6
S'\x0fg2\x05\x99Kv>'
p989
tp990
Rp991
sS'corboli_1769_v1_1_0202'
p992
g2
(g6
S'\x84\xd3\xbb\xbc]\xaau>'
p993
tp994
Rp995
sS'corboli_1769_v1_1_0168'
p996
g2
(g6
S'x\x04\x15\x91\x84\x98u>'
p997
tp998
Rp999
sS'corboli_1769_v1_1_0169'
p1000
g2
(g6
S'x\x04\x15\x91\x84\x98u>'
p1001
tp1002
Rp1003
sS'corboli_1769_v1_1_0113'
p1004
g2
(g6
S's9\xe1N\x87\x8eu>'
p1005
tp1006
Rp1007
sS'corboli_1769_v1_1_0112'
p1008
g2
(g6
S'k\n\xe3\xf04\x8bu>'
p1009
tp1010
Rp1011
sS'corboli_1769_v1_1_0111'
p1012
g2
(g6
S'T\x15\x88m|\xc6u>'
p1013
tp1014
Rp1015
sS'corboli_1769_v1_1_0110'
p1016
g2
(g6
S'\xb9\xd7\xc0\xd0\xdb|u>'
p1017
tp1018
Rp1019
sS'corboli_1769_v1_1_0117'
p1020
g2
(g6
S'\x84\xd3\xbb\xbc]\xaau>'
p1021
tp1022
Rp1023
sS'corboli_1769_v1_1_0116'
p1024
g2
(g6
S'\xb9\xd7\xc0\xd0\xdb|u>'
p1025
tp1026
Rp1027
sS'corboli_1769_v1_1_0115'
p1028
g2
(g6
S'\x9c\xc4\x91\xb5\xc8\x86u>'
p1029
tp1030
Rp1031
sS'corboli_1769_v1_1_0114'
p1032
g2
(g6
S'u\x93\x8c\x88\x16\x19v>'
p1033
tp1034
Rp1035
sS'corboli_1769_v1_1_0290'
p1036
g2
(g6
S'_\xe4\x1f3\xf3\x10v>'
p1037
tp1038
Rp1039
sS'corboli_1769_v1_1_0126'
p1040
g2
(g6
S'J\x0fz\x0b\xdb\x9bu>'
p1041
tp1042
Rp1043
sS'corboli_1769_v1_1_0119'
p1044
g2
(g6
S'l\xa2\xc454\xbbu>'
p1045
tp1046
Rp1047
sS'corboli_1769_v1_1_0118'
p1048
g2
(g6
S'\x84\xd3\xbb\xbc]\xaau>'
p1049
tp1050
Rp1051
sS'corboli_1769_v1_1_0294'
p1052
g2
(g6
S'\xef\x8c\x80\x1e/\x95u>'
p1053
tp1054
Rp1055
sS'corboli_1769_v1_1_0285'
p1056
g2
(g6
S'\xb9\xd7\xc0\xd0\xdb|u>'
p1057
tp1058
Rp1059
sS'corboli_1769_v1_1_0296'
p1060
g2
(g6
S'\xef\x8c\x80\x1e/\x95u>'
p1061
tp1062
Rp1063
sS'corboli_1769_v1_1_0127'
p1064
g2
(g6
S'\xef\x8c\x80\x1e/\x95u>'
p1065
tp1066
Rp1067
sS'corboli_1769_v1_1_0052'
p1068
g2
(g6
S'\xd5D\tN\x9a\x93v>'
p1069
tp1070
Rp1071
sS'corboli_1769_v1_1_0053'
p1072
g2
(g6
S"\xbd\x8d\xf2\xc4'Ov>"
p1073
tp1074
Rp1075
sS'corboli_1769_v1_1_0050'
p1076
g2
(g6
S'\x88\xa6\xbcg\x0bHv>'
p1077
tp1078
Rp1079
sS'corboli_1769_v1_1_0051'
p1080
g2
(g6
S'~\x84G\xca\x15\xd4u>'
p1081
tp1082
Rp1083
sS'corboli_1769_v1_1_0056'
p1084
g2
(g6
S'\xfc\x97\x06\xec~Dv>'
p1085
tp1086
Rp1087
sS'corboli_1769_v1_1_0057'
p1088
g2
(g6
S'ag\x06\xfdF\xcdu>'
p1089
tp1090
Rp1091
sS'corboli_1769_v1_1_0054'
p1092
g2
(g6
S"\xbd\x8d\xf2\xc4'Ov>"
p1093
tp1094
Rp1095
sS'corboli_1769_v1_1_0055'
p1096
g2
(g6
S'\xa3\x14\xaf\xdb\xad\xd0u>'
p1097
tp1098
Rp1099
sS'corboli_1769_v1_1_0193'
p1100
g2
(g6
S'S\x13*\x8e2\x9fu>'
p1101
tp1102
Rp1103
sS'corboli_1769_v1_1_0192'
p1104
g2
(g6
S'x\x04\x15\x91\x84\x98u>'
p1105
tp1106
Rp1107
sS'corboli_1769_v1_1_0058'
p1108
g2
(g6
S'D\xe1\xb7W\x1f.v>'
p1109
tp1110
Rp1111
sS'corboli_1769_v1_1_0059'
p1112
g2
(g6
S'\xaa\x16\xb5\xbb\x18\xc3u>'
p1113
tp1114
Rp1115
sS'corboli_1769_v1_1_0197'
p1116
g2
(g6
S'T\x15\x88m|\xc6u>'
p1117
tp1118
Rp1119
sS'corboli_1769_v1_1_0196'
p1120
g2
(g6
S'I\x8eB\xb3\xda\x91u>'
p1121
tp1122
Rp1123
sS'corboli_1769_v1_1_0195'
p1124
g2
(g6
S'\r.\xc4\x1a\xbfdu>'
p1125
tp1126
Rp1127
sS'corboli_1769_v1_1_0194'
p1128
g2
(g6
S'S\x13*\x8e2\x9fu>'
p1129
tp1130
Rp1131
sS'corboli_1769_v1_1_0286'
p1132
g2
(g6
S'\x99W\xf9\xb9x\x83u>'
p1133
tp1134
Rp1135
sS'corboli_1769_v1_1_0316'
p1136
g2
(g6
S'\x93\x0c\xe4\x05\xd4\xb7u>'
p1137
tp1138
Rp1139
sS'corboli_1769_v1_1_0281'
p1140
g2
(g6
S'\xeb\xa4\x9d\xca\x16\xb1u>'
p1141
tp1142
Rp1143
sS'corboli_1769_v1_1_0299'
p1144
g2
(g6
S'\x93\x0c\xe4\x05\xd4\xb7u>'
p1145
tp1146
Rp1147
sS'corboli_1769_v1_1_0280'
p1148
g2
(g6
S'J\x0fz\x0b\xdb\x9bu>'
p1149
tp1150
Rp1151
sS'corboli_1769_v1_1_0324'
p1152
g2
(g6
S'J\x0fz\x0b\xdb\x9bu>'
p1153
tp1154
Rp1155
sS'corboli_1769_v1_1_0337'
p1156
g2
(g6
S'\xaa\x16\xb5\xbb\x18\xc3u>'
p1157
tp1158
Rp1159
sS'corboli_1769_v1_1_0175'
p1160
g2
(g6
S'\xef\x8c\x80\x1e/\x95u>'
p1161
tp1162
Rp1163
sS'corboli_1769_v1_1_0174'
p1164
g2
(g6
S's9\xe1N\x87\x8eu>'
p1165
tp1166
Rp1167
sS'corboli_1769_v1_1_0177'
p1168
g2
(g6
S'x\x04\x15\x91\x84\x98u>'
p1169
tp1170
Rp1171
sS'corboli_1769_v1_1_0176'
p1172
g2
(g6
S'\x18\x1b\x9a\xc5\x02\xa7u>'
p1173
tp1174
Rp1175
sS'corboli_1769_v1_1_0171'
p1176
g2
(g6
S'\x84\xd3\xbb\xbc]\xaau>'
p1177
tp1178
Rp1179
sS'corboli_1769_v1_1_0170'
p1180
g2
(g6
S'I\x8eB\xb3\xda\x91u>'
p1181
tp1182
Rp1183
sS'corboli_1769_v1_1_0173'
p1184
g2
(g6
S'\x9c\xc4\x91\xb5\xc8\x86u>'
p1185
tp1186
Rp1187
sS'corboli_1769_v1_1_0172'
p1188
g2
(g6
S's9\xe1N\x87\x8eu>'
p1189
tp1190
Rp1191
sS'corboli_1769_v1_1_0272'
p1192
g2
(g6
S'\xaa\x16\xb5\xbb\x18\xc3u>'
p1193
tp1194
Rp1195
sS'corboli_1769_v1_1_0273'
p1196
g2
(g6
S'\xec\x11\x1fV4bv>'
p1197
tp1198
Rp1199
sS'corboli_1769_v1_1_0270'
p1200
g2
(g6
S'x\x04\x15\x91\x84\x98u>'
p1201
tp1202
Rp1203
sS'corboli_1769_v1_1_0271'
p1204
g2
(g6
S'.\x04V\xe2t\xb4u>'
p1205
tp1206
Rp1207
sS'corboli_1769_v1_1_0179'
p1208
g2
(g6
S'x\x04\x15\x91\x84\x98u>'
p1209
tp1210
Rp1211
sS'corboli_1769_v1_1_0178'
p1212
g2
(g6
S'?\xc2\x9f\x19\x8b\xa2u>'
p1213
tp1214
Rp1215
sS'corboli_1769_v1_1_0274'
p1216
g2
(g6
S'\x93\x0c\xe4\x05\xd4\xb7u>'
p1217
tp1218
Rp1219
sS'corboli_1769_v1_1_0275'
p1220
g2
(g6
S'I\x8eB\xb3\xda\x91u>'
p1221
tp1222
Rp1223
sS'corboli_1769_v1_1_0311'
p1224
g2
(g6
S'\x18\x1b\x9a\xc5\x02\xa7u>'
p1225
tp1226
Rp1227
sS'corboli_1769_v1_1_0315'
p1228
g2
(g6
S'\xeb\xa4\x9d\xca\x16\xb1u>'
p1229
tp1230
Rp1231
sS'corboli_1769_v1_1_0312'
p1232
g2
(g6
S'.\x04V\xe2t\xb4u>'
p1233
tp1234
Rp1235
sS'corboli_1769_v1_1_0247'
p1236
g2
(g6
S'\x93\x0c\xe4\x05\xd4\xb7u>'
p1237
tp1238
Rp1239
sS'corboli_1769_v1_1_0261'
p1240
g2
(g6
S'I\x8eB\xb3\xda\x91u>'
p1241
tp1242
Rp1243
sS'corboli_1769_v1_1_0330'
p1244
g2
(g6
S'J\x0fz\x0b\xdb\x9bu>'
p1245
tp1246
Rp1247
sS'corboli_1769_v1_1_0328'
p1248
g2
(g6
S'?\xc2\x9f\x19\x8b\xa2u>'
p1249
tp1250
Rp1251
sS'corboli_1769_v1_1_0306'
p1252
g2
(g6
S'J\x0fz\x0b\xdb\x9bu>'
p1253
tp1254
Rp1255
sS'corboli_1769_v1_1_0317'
p1256
g2
(g6
S'.\x04V\xe2t\xb4u>'
p1257
tp1258
Rp1259
sS'corboli_1769_v1_1_0284'
p1260
g2
(g6
S's9\xe1N\x87\x8eu>'
p1261
tp1262
Rp1263
sS'corboli_1769_v1_1_0041'
p1264
g2
(g6
S'tK\xe1CX6v>'
p1265
tp1266
Rp1267
sS'corboli_1769_v1_1_0040'
p1268
g2
(g6
S'\x06bg\x18\x9b*v>'
p1269
tp1270
Rp1271
sS'corboli_1769_v1_1_0043'
p1272
g2
(g6
S'\x88\xa6\xbcg\x0bHv>'
p1273
tp1274
Rp1275
sS'corboli_1769_v1_1_0042'
p1276
g2
(g6
S'\x93\xdf\x85\x91\xf3@v>'
p1277
tp1278
Rp1279
sS'corboli_1769_v1_1_0045'
p1280
g2
(g6
S'\nb\xd9\xb4\xa41v>'
p1281
tp1282
Rp1283
sS'corboli_1769_v1_1_0044'
p1284
g2
(g6
S'zPs\xde\xe7Sv>'
p1285
tp1286
Rp1287
sS'corboli_1769_v1_1_0047'
p1288
g2
(g6
S'\nb\xd9\xb4\xa41v>'
p1289
tp1290
Rp1291
sS'corboli_1769_v1_1_0046'
p1292
g2
(g6
S'\x88\xa6\xbcg\x0bHv>'
p1293
tp1294
Rp1295
sS'corboli_1769_v1_1_0049'
p1296
g2
(g6
S'#\x18\xfa\xd0\x0b[v>'
p1297
tp1298
Rp1299
sS'corboli_1769_v1_1_0048'
p1300
g2
(g6
S'\xf2K\x1a\xf1\x95#v>'
p1301
tp1302
Rp1303
sS'corboli_1769_v1_1_0292'
p1304
g2
(g6
S';\xdc\xfe\x990\xedu>'
p1305
tp1306
Rp1307
sS'corboli_1769_v1_1_0289'
p1308
g2
(g6
S'\x93\x0c\xe4\x05\xd4\xb7u>'
p1309
tp1310
Rp1311
sS'corboli_1769_v1_1_0288'
p1312
g2
(g6
S'\xef\x8c\x80\x1e/\x95u>'
p1313
tp1314
Rp1315
s.