(dp0
S'corboli_1769_v1_1_0323'
p1
cnumpy.core.multiarray
scalar
p2
(cnumpy
dtype
p3
(S'f8'
p4
I0
I1
tp5
Rp6
(I3
S'<'
p7
NNNI-1
I-1
I0
tp8
bS',\xf5Q\x9c\xdc\x0bB?'
p9
tp10
Rp11
sS'corboli_1769_v1_1_0293'
p12
g2
(g6
S'\xbc\xa2\xdc\x88i>\x06?'
p13
tp14
Rp15
sS'corboli_1769_v1_1_0159'
p16
g2
(g6
S'\xd6\x89VsF\x0cG?'
p17
tp18
Rp19
sS'corboli_1769_v1_1_0329'
p20
g2
(g6
S'\x83\xaeL\xbc\x12.M?'
p21
tp22
Rp23
sS'corboli_1769_v1_1_0158'
p24
g2
(g6
S'\x00\x18\xf20\x11\xe0C?'
p25
tp26
Rp27
sS'corboli_1769_v1_1_0283'
p28
g2
(g6
S'\xacd;HfoE?'
p29
tp30
Rp31
sS'corboli_1769_v1_1_0295'
p32
g2
(g6
S'*VY\x8c\x13\x9c\x11?'
p33
tp34
Rp35
sS'corboli_1769_v1_1_0140'
p36
g2
(g6
S'\xde\x003\xdf\xc1O<?'
p37
tp38
Rp39
sS'corboli_1769_v1_1_0141'
p40
g2
(g6
S'\xfb\xfc\xcd}\xb59B?'
p41
tp42
Rp43
sS'corboli_1769_v1_1_0142'
p44
g2
(g6
S'Fld\xb1z:D?'
p45
tp46
Rp47
sS'corboli_1769_v1_1_0143'
p48
g2
(g6
S'\x11\x8eo\xac\x06yA?'
p49
tp50
Rp51
sS'corboli_1769_v1_1_0144'
p52
g2
(g6
S'4\xce\x9a0\x12s@?'
p53
tp54
Rp55
sS'corboli_1769_v1_1_0145'
p56
g2
(g6
S'\xcf\xe0\xac[G\nA?'
p57
tp58
Rp59
sS'corboli_1769_v1_1_0146'
p60
g2
(g6
S'\x85\x03OA\x8b5E?'
p61
tp62
Rp63
sS'corboli_1769_v1_1_0147'
p64
g2
(g6
S'#\x8e\xa0\x86\xcen\xf8>'
p65
tp66
Rp67
sS'corboli_1769_v1_1_0148'
p68
g2
(g6
S'5\xe4\xc8E\xb4S\x05?'
p69
tp70
Rp71
sS'corboli_1769_v1_1_0149'
p72
g2
(g6
S'3\xb4{\x9b\xa9!>?'
p73
tp74
Rp75
sS'corboli_1769_v1_1_0263'
p76
g2
(g6
S'\xc6\xd8K9\x06\xa4@?'
p77
tp78
Rp79
sS'corboli_1769_v1_1_0262'
p80
g2
(g6
S'(\xa5\xbe7\xd3JI?'
p81
tp82
Rp83
sS'corboli_1769_v1_1_0265'
p84
g2
(g6
S'\xda\x9cH\x96\x1f\x1aK?'
p85
tp86
Rp87
sS'corboli_1769_v1_1_0264'
p88
g2
(g6
S'\xaa\x9d<\x8d\x82\x90??'
p89
tp90
Rp91
sS'corboli_1769_v1_1_0267'
p92
g2
(g6
S'\xe0\n\x86o\xe9\x9fI?'
p93
tp94
Rp95
sS'corboli_1769_v1_1_0266'
p96
g2
(g6
S'xU\xe3\x06o\x16A?'
p97
tp98
Rp99
sS'corboli_1769_v1_1_0298'
p100
g2
(g6
S'\x07\rL\xd0\x9b\xd9P?'
p101
tp102
Rp103
sS'corboli_1769_v1_1_0333'
p104
g2
(g6
S'\x13"\xbe\xacN\x1eH?'
p105
tp106
Rp107
sS'corboli_1769_v1_1_0319'
p108
g2
(g6
S'\xe2\x11\x93\xc6mWF?'
p109
tp110
Rp111
sS'corboli_1769_v1_1_0282'
p112
g2
(g6
S'\xd0\x97\xed\xdbO};?'
p113
tp114
Rp115
sS'corboli_1769_v1_1_0199'
p116
g2
(g6
S'z>\xcep\xc0vH?'
p117
tp118
Rp119
sS'corboli_1769_v1_1_0318'
p120
g2
(g6
S'\xfb\xc9\xe1m\x8b\x86A?'
p121
tp122
Rp123
sS'corboli_1769_v1_1_0305'
p124
g2
(g6
S'\x08\xdfm\xce\x00|#?'
p125
tp126
Rp127
sS'corboli_1769_v1_1_0198'
p128
g2
(g6
S'`\xcc\xa3B#\x1bA?'
p129
tp130
Rp131
sS'corboli_1769_v1_1_0078'
p132
g2
(g6
S'\xf5\x19\xa6\xf3K\x19(?'
p133
tp134
Rp135
sS'corboli_1769_v1_1_0079'
p136
g2
(g6
S'W\x9d\xcd\xd2\xf5c\x1e?'
p137
tp138
Rp139
sS'corboli_1769_v1_1_0074'
p140
g2
(g6
S'\x92\x9fk\xf3O\xfa\x05?'
p141
tp142
Rp143
sS'corboli_1769_v1_1_0075'
p144
g2
(g6
S'\x84\xdc\x9d\x03#?\x0b?'
p145
tp146
Rp147
sS'corboli_1769_v1_1_0076'
p148
g2
(g6
S'a\nD\xf6k\xf3\x1c?'
p149
tp150
Rp151
sS'corboli_1769_v1_1_0077'
p152
g2
(g6
S'\xf2DF\xf3;\\D?'
p153
tp154
Rp155
sS'corboli_1769_v1_1_0070'
p156
g2
(g6
S'\x91y\x07\x87\xb4\xdd\xf9>'
p157
tp158
Rp159
sS'corboli_1769_v1_1_0071'
p160
g2
(g6
S'\xe4\xa6o@d\xef\x07?'
p161
tp162
Rp163
sS'corboli_1769_v1_1_0072'
p164
g2
(g6
S'K\xa0\xeb\xab\x96!I?'
p165
tp166
Rp167
sS'corboli_1769_v1_1_0073'
p168
g2
(g6
S'\xe0A`xa\xe1\x0e?'
p169
tp170
Rp171
sS'corboli_1769_v1_1_0302'
p172
g2
(g6
S'p\x0f\xca\xdf\x1c7C?'
p173
tp174
Rp175
sS'corboli_1769_v1_1_0096'
p176
g2
(g6
S'K\x08G"\xf6K@?'
p177
tp178
Rp179
sS'corboli_1769_v1_1_0097'
p180
g2
(g6
S'S\x12\xb6Z\\\xafA?'
p181
tp182
Rp183
sS'corboli_1769_v1_1_0094'
p184
g2
(g6
S'\xc6\xe9\x0f=B\xfbB?'
p185
tp186
Rp187
sS'corboli_1769_v1_1_0095'
p188
g2
(g6
S'\xac<\x91\xda\xa28B?'
p189
tp190
Rp191
sS'corboli_1769_v1_1_0092'
p192
g2
(g6
S'\xc9\x9b\xa1ZH\xe4@?'
p193
tp194
Rp195
sS'corboli_1769_v1_1_0093'
p196
g2
(g6
S'.\xff\x83\x84w\x1b@?'
p197
tp198
Rp199
sS'corboli_1769_v1_1_0090'
p200
g2
(g6
S'\xbf\xe4\xb8e\x1dz@?'
p201
tp202
Rp203
sS'corboli_1769_v1_1_0091'
p204
g2
(g6
S'\x97\xacl\xadbHB?'
p205
tp206
Rp207
sS'corboli_1769_v1_1_0157'
p208
g2
(g6
S'\x9c3\xf2:\x07\xcaD?'
p209
tp210
Rp211
sS'corboli_1769_v1_1_0156'
p212
g2
(g6
S'\xc9\xdd\x8e\x01y\xa5E?'
p213
tp214
Rp215
sS'corboli_1769_v1_1_0155'
p216
g2
(g6
S'\x05\x84\x18\x15H\xefC?'
p217
tp218
Rp219
sS'corboli_1769_v1_1_0154'
p220
g2
(g6
S'u\x84\xed\x82\xf9u>?'
p221
tp222
Rp223
sS'corboli_1769_v1_1_0153'
p224
g2
(g6
S'\x8d\xc5z}<TJ?'
p225
tp226
Rp227
sS'corboli_1769_v1_1_0152'
p228
g2
(g6
S'\x18\x92\xca8g\xe4I?'
p229
tp230
Rp231
sS'corboli_1769_v1_1_0098'
p232
g2
(g6
S'\xcd\xa8L\x8e\x1a\x86A?'
p233
tp234
Rp235
sS'corboli_1769_v1_1_0099'
p236
g2
(g6
S'9V{\xde@pC?'
p237
tp238
Rp239
sS'corboli_1769_v1_1_0269'
p240
g2
(g6
S'\xc5\xa1.)\xfc\x1aC?'
p241
tp242
Rp243
sS'corboli_1769_v1_1_0190'
p244
g2
(g6
S'\xc3\xcb\x92\xc7\xd2\x80 ?'
p245
tp246
Rp247
sS'corboli_1769_v1_1_0336'
p248
g2
(g6
S'\xf9\xd8\x84\xdb\xc3\x89;?'
p249
tp250
Rp251
sS'corboli_1769_v1_1_0268'
p252
g2
(g6
S'\x8f\xd8N\xf0\x82\xdaD?'
p253
tp254
Rp255
sS'corboli_1769_v1_1_0342'
p256
g2
(g6
S',k-\x99\xdfqB?'
p257
tp258
Rp259
sS'corboli_1769_v1_1_0303'
p260
g2
(g6
S'\xb4\x0eH\x91B\x91H?'
p261
tp262
Rp263
sS'corboli_1769_v1_1_0304'
p264
g2
(g6
S'\xd4t\xbd_\x90\xedE?'
p265
tp266
Rp267
sS'corboli_1769_v1_1_0069'
p268
g2
(g6
S';\xa0\x9d\xb6\xf8\xe3\x03?'
p269
tp270
Rp271
sS'corboli_1769_v1_1_0068'
p272
g2
(g6
S'\x824T^\x7f\xba\x02?'
p273
tp274
Rp275
sS'corboli_1769_v1_1_0063'
p276
g2
(g6
S'c?>\x19\xef\xc2A?'
p277
tp278
Rp279
sS'corboli_1769_v1_1_0062'
p280
g2
(g6
S'\xd2\xd1\xde#\xc7\xde@?'
p281
tp282
Rp283
sS'corboli_1769_v1_1_0061'
p284
g2
(g6
S'(\xbb\xa4\x95n0B?'
p285
tp286
Rp287
sS'corboli_1769_v1_1_0060'
p288
g2
(g6
S'\x9c\xb3\xf7\\\xf4\xfd"?'
p289
tp290
Rp291
sS'corboli_1769_v1_1_0067'
p292
g2
(g6
S'\xdeVa>s\x0cB?'
p293
tp294
Rp295
sS'corboli_1769_v1_1_0066'
p296
g2
(g6
S'\xd0\xdb\xd4BH\xba\xf4>'
p297
tp298
Rp299
sS'corboli_1769_v1_1_0065'
p300
g2
(g6
S'\x07\xbd\x95\xfc\xb7\xad;?'
p301
tp302
Rp303
sS'corboli_1769_v1_1_0064'
p304
g2
(g6
S'\x84\x84\x95\xd3$\xba*?'
p305
tp306
Rp307
sS'corboli_1769_v1_1_0300'
p308
g2
(g6
S'\xf0\x8d~#F\x80J?'
p309
tp310
Rp311
sS'corboli_1769_v1_1_0277'
p312
g2
(g6
S'\xbeg\xb6\x00\x98{E?'
p313
tp314
Rp315
sS'corboli_1769_v1_1_0301'
p316
g2
(g6
S'\x05\x1be\x1f\xa9\x8cC?'
p317
tp318
Rp319
sS'corboli_1769_v1_1_0252'
p320
g2
(g6
S'A\xce\xf1\xf3\xe1\x0fE?'
p321
tp322
Rp323
sS'corboli_1769_v1_1_0085'
p324
g2
(g6
S'?\xaf \xb3^\xee\x0b?'
p325
tp326
Rp327
sS'corboli_1769_v1_1_0084'
p328
g2
(g6
S'\xd4\\E\x81\xa2OG?'
p329
tp330
Rp331
sS'corboli_1769_v1_1_0087'
p332
g2
(g6
S'-C\x1f\xbe\x97\x90E?'
p333
tp334
Rp335
sS'corboli_1769_v1_1_0086'
p336
g2
(g6
S'\xc2p):"+G?'
p337
tp338
Rp339
sS'corboli_1769_v1_1_0081'
p340
g2
(g6
S'\x1e\x15\x00\xb1\xc2\x0f\x0e?'
p341
tp342
Rp343
sS'corboli_1769_v1_1_0080'
p344
g2
(g6
S'e\x0e\xc1W\x9cvC?'
p345
tp346
Rp347
sS'corboli_1769_v1_1_0083'
p348
g2
(g6
S'\x82\xfb8\xc1\x1c\xbbF?'
p349
tp350
Rp351
sS'corboli_1769_v1_1_0082'
p352
g2
(g6
S'vk\x99\x0c\xc7\xf39?'
p353
tp354
Rp355
sS'corboli_1769_v1_1_0122'
p356
g2
(g6
S'\xfc\xe2\x83\x0b\x1eFC?'
p357
tp358
Rp359
sS'corboli_1769_v1_1_0123'
p360
g2
(g6
S'\x81\x8c&\xa7`\xe7F?'
p361
tp362
Rp363
sS'corboli_1769_v1_1_0120'
p364
g2
(g6
S'u<\xe4Y;SA?'
p365
tp366
Rp367
sS'corboli_1769_v1_1_0121'
p368
g2
(g6
S'2\xc5fb\xf4oC?'
p369
tp370
Rp371
sS'corboli_1769_v1_1_0089'
p372
g2
(g6
S'\n\x01c\xa2W\xb4A?'
p373
tp374
Rp375
sS'corboli_1769_v1_1_0088'
p376
g2
(g6
S'\xf9\x02IW\xa6N\x04?'
p377
tp378
Rp379
sS'corboli_1769_v1_1_0124'
p380
g2
(g6
S',\xa8e\xd30\xa2G?'
p381
tp382
Rp383
sS'corboli_1769_v1_1_0125'
p384
g2
(g6
S'\xee\xfc\xfc\xf6H\x95A?'
p385
tp386
Rp387
sS'corboli_1769_v1_1_0254'
p388
g2
(g6
S'\xf9\xff\xb6\x1b\x18tA?'
p389
tp390
Rp391
sS'corboli_1769_v1_1_0255'
p392
g2
(g6
S'\x12\xd5\x05\x9ciaF?'
p393
tp394
Rp395
sS'corboli_1769_v1_1_0256'
p396
g2
(g6
S'%p\xfe\x8bw\x9dD?'
p397
tp398
Rp399
sS'corboli_1769_v1_1_0257'
p400
g2
(g6
S'{2o\xd2M>B?'
p401
tp402
Rp403
sS'corboli_1769_v1_1_0250'
p404
g2
(g6
S'(J\xador\xb8C?'
p405
tp406
Rp407
sS'corboli_1769_v1_1_0251'
p408
g2
(g6
S'C\x9a\x0bbC\xb1C?'
p409
tp410
Rp411
sS'corboli_1769_v1_1_0018'
p412
g2
(g6
S'\xdd\xe7t\xb1>-E?'
p413
tp414
Rp415
sS'corboli_1769_v1_1_0253'
p416
g2
(g6
S'*\x8e"\xb1\xa7\x90\x1a?'
p417
tp418
Rp419
sS'corboli_1769_v1_1_0258'
p420
g2
(g6
S'\x12\x89\xca%\xd4\x0bA?'
p421
tp422
Rp423
sS'corboli_1769_v1_1_0259'
p424
g2
(g6
S'!#\x9e>(\xcd\xe8>'
p425
tp426
Rp427
sS'corboli_1769_v1_1_0307'
p428
g2
(g6
S'\x13\x85\xf1\xafI\xaa;?'
p429
tp430
Rp431
sS'corboli_1769_v1_1_0308'
p432
g2
(g6
S'b\xc1\x8d~\x8e\xffH?'
p433
tp434
Rp435
sS'corboli_1769_v1_1_0310'
p436
g2
(g6
S'\nz\xc6\x03L(>?'
p437
tp438
Rp439
sS'corboli_1769_v1_1_0188'
p440
g2
(g6
S'+\xa6\t\x8f\xb2\xa0\x04?'
p441
tp442
Rp443
sS'corboli_1769_v1_1_0150'
p444
g2
(g6
S'do\xcd\x0b\xd4\x83A?'
p445
tp446
Rp447
sS'corboli_1769_v1_1_0309'
p448
g2
(g6
S'\xe6\x89\n\x18f\nJ?'
p449
tp450
Rp451
sS'corboli_1769_v1_1_0276'
p452
g2
(g6
S'\x15\xe5\x92\x1ax\x8aJ?'
p453
tp454
Rp455
sS'corboli_1769_v1_1_0260'
p456
g2
(g6
S'\xe6\x9b\xe1@\xe5J\x16?'
p457
tp458
Rp459
sS'corboli_1769_v1_1_0189'
p460
g2
(g6
S'Pp\xd4%\xadn\x12?'
p461
tp462
Rp463
sS'corboli_1769_v1_1_0128'
p464
g2
(g6
S'\xaa\x1dd\xda\xaf\xe3F?'
p465
tp466
Rp467
sS'corboli_1769_v1_1_0191'
p468
g2
(g6
S'\x8c`E\x82\xf8"\x16?'
p469
tp470
Rp471
sS'corboli_1769_v1_1_0139'
p472
g2
(g6
S'~q29iiE?'
p473
tp474
Rp475
sS'corboli_1769_v1_1_0138'
p476
g2
(g6
S'\xbe\xc5\xe5\x14\xfd\x84<?'
p477
tp478
Rp479
sS'corboli_1769_v1_1_0234'
p480
g2
(g6
S'\r$"\x1bs\xb0B?'
p481
tp482
Rp483
sS'corboli_1769_v1_1_0235'
p484
g2
(g6
S'\x9bv\x90\xe8\x10nF?'
p485
tp486
Rp487
sS'corboli_1769_v1_1_0232'
p488
g2
(g6
S'\xa7/j\x14\x13\xe2\x14?'
p489
tp490
Rp491
sS'corboli_1769_v1_1_0233'
p492
g2
(g6
S'V\x800\x93\xf6,I?'
p493
tp494
Rp495
sS'corboli_1769_v1_1_0230'
p496
g2
(g6
S'G\x1d\xd9\xde\xf6\xaaD?'
p497
tp498
Rp499
sS'corboli_1769_v1_1_0231'
p500
g2
(g6
S'\xb3i\xe0V\xe3/\x00?'
p501
tp502
Rp503
sS'corboli_1769_v1_1_0131'
p504
g2
(g6
S'&^\x8fu\xd0WG?'
p505
tp506
Rp507
sS'corboli_1769_v1_1_0130'
p508
g2
(g6
S'\n\xad\x96\x04\xf8\x06H?'
p509
tp510
Rp511
sS'corboli_1769_v1_1_0133'
p512
g2
(g6
S'\xcd>#\x10-\x0bD?'
p513
tp514
Rp515
sS'corboli_1769_v1_1_0132'
p516
g2
(g6
S'\xfc/)f\xcb\xa5C?'
p517
tp518
Rp519
sS'corboli_1769_v1_1_0135'
p520
g2
(g6
S'\xbd\xe1qS\xd6\xdeF?'
p521
tp522
Rp523
sS'corboli_1769_v1_1_0134'
p524
g2
(g6
S'\xcfT\xdd\xb3OwC?'
p525
tp526
Rp527
sS'corboli_1769_v1_1_0137'
p528
g2
(g6
S'1\x00\xbb\xed\x91aH?'
p529
tp530
Rp531
sS'corboli_1769_v1_1_0136'
p532
g2
(g6
S'`#\x92\xd1\xfd\xa38?'
p533
tp534
Rp535
sS'corboli_1769_v1_1_0243'
p536
g2
(g6
S'mfN\xb1\x9b A?'
p537
tp538
Rp539
sS'corboli_1769_v1_1_0236'
p540
g2
(g6
S's\xba\xfa\xe1\xa9#B?'
p541
tp542
Rp543
sS'corboli_1769_v1_1_0241'
p544
g2
(g6
S'H\xe9M\xe1r\xc8F?'
p545
tp546
Rp547
sS'corboli_1769_v1_1_0240'
p548
g2
(g6
S'\xdeH\xc6\x80t\xdc@?'
p549
tp550
Rp551
sS'corboli_1769_v1_1_0129'
p552
g2
(g6
S'D.\x1eK\xfe\xfcF?'
p553
tp554
Rp555
sS'corboli_1769_v1_1_0246'
p556
g2
(g6
S'l\x92\xe4h\xbf\xfd8?'
p557
tp558
Rp559
sS'corboli_1769_v1_1_0245'
p560
g2
(g6
S'\x9b\x83\xc4w\xc3\xacH?'
p561
tp562
Rp563
sS'corboli_1769_v1_1_0237'
p564
g2
(g6
S'\xf2h\x87\xc7\xbdxE?'
p565
tp566
Rp567
sS'corboli_1769_v1_1_0249'
p568
g2
(g6
S'\xb7+\xc0\xc3\x08\x13G?'
p569
tp570
Rp571
sS'corboli_1769_v1_1_0248'
p572
g2
(g6
S'\xe87\x8a\xd0=\xd0D?'
p573
tp574
Rp575
sS'corboli_1769_v1_1_0278'
p576
g2
(g6
S'<\xbf6}\xcfbH?'
p577
tp578
Rp579
sS'corboli_1769_v1_1_0325'
p580
g2
(g6
S'\xb8\x98\x0cg\xa5\xb1!?'
p581
tp582
Rp583
sS'corboli_1769_v1_1_0279'
p584
g2
(g6
S'\x1e\x95\xe1\x9dx\x0cJ?'
p585
tp586
Rp587
sS'corboli_1769_v1_1_0182'
p588
g2
(g6
S'\xad\xae/L\xa0j\xfb>'
p589
tp590
Rp591
sS'corboli_1769_v1_1_0326'
p592
g2
(g6
S'\xfd\x91\xf6\xc8|_A?'
p593
tp594
Rp595
sS'corboli_1769_v1_1_0320'
p596
g2
(g6
S'S,\xb2JO\x0fF?'
p597
tp598
Rp599
sS'corboli_1769_v1_1_0183'
p600
g2
(g6
S'o5\xc3\x054\x15H?'
p601
tp602
Rp603
sS'corboli_1769_v1_1_0201'
p604
g2
(g6
S'?\x85u\xa0\x85p\x10?'
p605
tp606
Rp607
sS'corboli_1769_v1_1_0339'
p608
g2
(g6
S'\xd0\x0b\xddlJ\x16@?'
p609
tp610
Rp611
sS'corboli_1769_v1_1_0338'
p612
g2
(g6
S'\x98l\x92f\xd9BD?'
p613
tp614
Rp615
sS'corboli_1769_v1_1_0151'
p616
g2
(g6
S'\x10\xa6\x80\xee@\xde\x1a?'
p617
tp618
Rp619
sS'corboli_1769_v1_1_0225'
p620
g2
(g6
S'\xf0m\x90\xb9\x8c\xabA?'
p621
tp622
Rp623
sS'corboli_1769_v1_1_0224'
p624
g2
(g6
S'0X\xado{L:?'
p625
tp626
Rp627
sS'corboli_1769_v1_1_0227'
p628
g2
(g6
S'i\xc6\xa4\xda&\xebD?'
p629
tp630
Rp631
sS'corboli_1769_v1_1_0226'
p632
g2
(g6
S'$\xday\xa0\x80\xee4?'
p633
tp634
Rp635
sS'corboli_1769_v1_1_0221'
p636
g2
(g6
S'h\xc7\xa3s3\xb07?'
p637
tp638
Rp639
sS'corboli_1769_v1_1_0220'
p640
g2
(g6
S'$t\xc0\x86\xc8\x84A?'
p641
tp642
Rp643
sS'corboli_1769_v1_1_0223'
p644
g2
(g6
S'\xf0\xe8B\xec\x82\x91>?'
p645
tp646
Rp647
sS'corboli_1769_v1_1_0222'
p648
g2
(g6
S'\x12-Hj\x94\x9a5?'
p649
tp650
Rp651
sS'corboli_1769_v1_1_0321'
p652
g2
(g6
S'L{\xdf\xaag@A?'
p653
tp654
Rp655
sS'corboli_1769_v1_1_0343'
p656
g2
(g6
S'\x9b\xb4u\xb18xE?'
p657
tp658
Rp659
sS'corboli_1769_v1_1_0340'
p660
g2
(g6
S'\th\x88\x08\xcb\xecD?'
p661
tp662
Rp663
sS'corboli_1769_v1_1_0341'
p664
g2
(g6
S'\xe7s\xd0\x92\xe8\x0f.?'
p665
tp666
Rp667
sS'corboli_1769_v1_1_0229'
p668
g2
(g6
S'\xdd\x99\xe4j\xae)\x10?'
p669
tp670
Rp671
sS'corboli_1769_v1_1_0228'
p672
g2
(g6
S'\x8e\xa2G\x06\x8f\x90G?'
p673
tp674
Rp675
sS'corboli_1769_v1_1_0344'
p676
g2
(g6
S'\xad\x1e\x1e\xe4\x9bvI?'
p677
tp678
Rp679
sS'corboli_1769_v1_1_0345'
p680
g2
(g6
S'dSwr\xe1hH?'
p681
tp682
Rp683
sS'corboli_1769_v1_1_0038'
p684
g2
(g6
S'_\xc6\xadQ\x95\x92H?'
p685
tp686
Rp687
sS'corboli_1769_v1_1_0039'
p688
g2
(g6
S'\x1a\x16\xb3\xbe\xbfDJ?'
p689
tp690
Rp691
sS'corboli_1769_v1_1_0334'
p692
g2
(g6
S'\x93\x13\xcdS\x83<>?'
p693
tp694
Rp695
sS'corboli_1769_v1_1_0287'
p696
g2
(g6
S'%6\xaf\x00\x11\x05J?'
p697
tp698
Rp699
sS'corboli_1769_v1_1_0030'
p700
g2
(g6
S'[_o\xd2\xbd\x97D?'
p701
tp702
Rp703
sS'corboli_1769_v1_1_0031'
p704
g2
(g6
S'\xbc\x17|\xa0\xa7\xe6F?'
p705
tp706
Rp707
sS'corboli_1769_v1_1_0032'
p708
g2
(g6
S'\x85\xd75\xe2\xeb\x99F?'
p709
tp710
Rp711
sS'corboli_1769_v1_1_0033'
p712
g2
(g6
S'\xde\x1e\xcbB\xe4\x04??'
p713
tp714
Rp715
sS'corboli_1769_v1_1_0034'
p716
g2
(g6
S'\xad.\xd4g\x84\xdcF?'
p717
tp718
Rp719
sS'corboli_1769_v1_1_0035'
p720
g2
(g6
S'w\xbe\xce\xf8\xcc\xabI?'
p721
tp722
Rp723
sS'corboli_1769_v1_1_0036'
p724
g2
(g6
S'k94i\x85\xd3E?'
p725
tp726
Rp727
sS'corboli_1769_v1_1_0037'
p728
g2
(g6
S'\x00\xd6?\x18WMB?'
p729
tp730
Rp731
sS'corboli_1769_v1_1_0291'
p732
g2
(g6
S'\x8b>\x9am1\xac\x01?'
p733
tp734
Rp735
sS'corboli_1769_v1_1_0238'
p736
g2
(g6
S'\xbfmq\xe6\x0f\xc1G?'
p737
tp738
Rp739
sS'corboli_1769_v1_1_0322'
p740
g2
(g6
S'\x11\x9e\xb7\xc84dA?'
p741
tp742
Rp743
sS'corboli_1769_v1_1_0239'
p744
g2
(g6
S'\x9e\x8c{i\x1a\xf7F?'
p745
tp746
Rp747
sS'corboli_1769_v1_1_0335'
p748
g2
(g6
S'\n\x8e\x98\xc5i\x15I?'
p749
tp750
Rp751
sS'corboli_1769_v1_1_0297'
p752
g2
(g6
S'\xef\xf0|S\ti\x10?'
p753
tp754
Rp755
sS'corboli_1769_v1_1_0242'
p756
g2
(g6
S'C\x9a\x0bbC\xb1C?'
p757
tp758
Rp759
sS'corboli_1769_v1_1_0313'
p760
g2
(g6
S',\xa2b+\xbe\x9cB?'
p761
tp762
Rp763
sS'corboli_1769_v1_1_0210'
p764
g2
(g6
S'\x9cq\xe7\x8b\x0f\x888?'
p765
tp766
Rp767
sS'corboli_1769_v1_1_0211'
p768
g2
(g6
S'Urg\xd4{\x99K?'
p769
tp770
Rp771
sS'corboli_1769_v1_1_0212'
p772
g2
(g6
S'\x7fht\r\xe2\xaa\x02?'
p773
tp774
Rp775
sS'corboli_1769_v1_1_0213'
p776
g2
(g6
S'\x8e\x85d\xf7\xf7\x8b<?'
p777
tp778
Rp779
sS'corboli_1769_v1_1_0214'
p780
g2
(g6
S'Q\x9a\xaer\x94\xfa<?'
p781
tp782
Rp783
sS'corboli_1769_v1_1_0215'
p784
g2
(g6
S'u5\\\xcd2gC?'
p785
tp786
Rp787
sS'corboli_1769_v1_1_0216'
p788
g2
(g6
S'\xe4\x12o+(\xcbE?'
p789
tp790
Rp791
sS'corboli_1769_v1_1_0217'
p792
g2
(g6
S'\xbe\xf0_\xf0\x92\xf9@?'
p793
tp794
Rp795
sS'corboli_1769_v1_1_0218'
p796
g2
(g6
S'C\x05W\xc4\xd5\xd7B?'
p797
tp798
Rp799
sS'corboli_1769_v1_1_0219'
p800
g2
(g6
S'\x91\xa4\x17\x1bq~??'
p801
tp802
Rp803
sS'corboli_1769_v1_1_0332'
p804
g2
(g6
S'\xaep\xc3\x958\x1fG?'
p805
tp806
Rp807
sS'corboli_1769_v1_1_0104'
p808
g2
(g6
S'WD\x924\x12\xf1E?'
p809
tp810
Rp811
sS'corboli_1769_v1_1_0105'
p812
g2
(g6
S'\x95q\x8bWH\xd75?'
p813
tp814
Rp815
sS'corboli_1769_v1_1_0106'
p816
g2
(g6
S'1@\x8e>U\xca>?'
p817
tp818
Rp819
sS'corboli_1769_v1_1_0107'
p820
g2
(g6
S'\xc5\xb6X\x17eWA?'
p821
tp822
Rp823
sS'corboli_1769_v1_1_0100'
p824
g2
(g6
S'\xfc#.\xbb\x0bCG?'
p825
tp826
Rp827
sS'corboli_1769_v1_1_0101'
p828
g2
(g6
S'p\xe6\xc3~\x1d\xf1H?'
p829
tp830
Rp831
sS'corboli_1769_v1_1_0102'
p832
g2
(g6
S'lp\xd2\x80\xb5\xea??'
p833
tp834
Rp835
sS'corboli_1769_v1_1_0103'
p836
g2
(g6
S'\x89\xbd\x13I.\x00C?'
p837
tp838
Rp839
sS'corboli_1769_v1_1_0244'
p840
g2
(g6
S'\x97n3\xf3*\x97H?'
p841
tp842
Rp843
sS'corboli_1769_v1_1_0108'
p844
g2
(g6
S'\x8d\x80\xe1\x1a\xa0\xfeA?'
p845
tp846
Rp847
sS'corboli_1769_v1_1_0109'
p848
g2
(g6
S'\x0f\x1a\tG{NA?'
p849
tp850
Rp851
sS'corboli_1769_v1_1_0027'
p852
g2
(g6
S'\\xy\xb0\xedgE?'
p853
tp854
Rp855
sS'corboli_1769_v1_1_0026'
p856
g2
(g6
S'\xbf\xbf\x99\xb6z\x07:?'
p857
tp858
Rp859
sS'corboli_1769_v1_1_0025'
p860
g2
(g6
S'\xb4%\xa7\xac\xeb!C?'
p861
tp862
Rp863
sS'corboli_1769_v1_1_0024'
p864
g2
(g6
S">\x02\xcd\x9c\n'G?"
p865
tp866
Rp867
sS'corboli_1769_v1_1_0023'
p868
g2
(g6
S"\xe6'\xd5>\x1d\x8f\x19?"
p869
tp870
Rp871
sS'corboli_1769_v1_1_0022'
p872
g2
(g6
S'\xf8\xee\x0b\xae\xacMD?'
p873
tp874
Rp875
sS'corboli_1769_v1_1_0021'
p876
g2
(g6
S'EV\xde\xd3ewE?'
p877
tp878
Rp879
sS'corboli_1769_v1_1_0020'
p880
g2
(g6
S"\x91\x9a'\xf8\x8e>\xfd>"
p881
tp882
Rp883
sS'corboli_1769_v1_1_0184'
p884
g2
(g6
S'\xd8x\x98\xb6q\x12D?'
p885
tp886
Rp887
sS'corboli_1769_v1_1_0185'
p888
g2
(g6
S'\x94\x9d\x0f\xac\x14\xd9@?'
p889
tp890
Rp891
sS'corboli_1769_v1_1_0186'
p892
g2
(g6
S'5\xdb\xae\xfd\xad\xb4=?'
p893
tp894
Rp895
sS'corboli_1769_v1_1_0187'
p896
g2
(g6
S'\xfcod\x98\x1f\x81 ?'
p897
tp898
Rp899
sS'corboli_1769_v1_1_0180'
p900
g2
(g6
S'\x8f\x96\xc3e\x04\x9d#?'
p901
tp902
Rp903
sS'corboli_1769_v1_1_0181'
p904
g2
(g6
S'\xf6\xb4\x8b\xac\xd7\x17J?'
p905
tp906
Rp907
sS'corboli_1769_v1_1_0029'
p908
g2
(g6
S'\x82\xa1\xcd\x10\x05\xf2=?'
p909
tp910
Rp911
sS'corboli_1769_v1_1_0028'
p912
g2
(g6
S'IM\xa1f\xd8\x91E?'
p913
tp914
Rp915
sS'corboli_1769_v1_1_0200'
p916
g2
(g6
S'\xa6(r:\x84\xa1\x01?'
p917
tp918
Rp919
sS'corboli_1769_v1_1_0209'
p920
g2
(g6
S'\xab\xaf\xe0\x98I\xb3F?'
p921
tp922
Rp923
sS'corboli_1769_v1_1_0314'
p924
g2
(g6
S'\x80\x1ba\xf4\xf4_>?'
p925
tp926
Rp927
sS'corboli_1769_v1_1_0208'
p928
g2
(g6
S'XHD\xb3\xd3hG?'
p929
tp930
Rp931
sS'corboli_1769_v1_1_0327'
p932
g2
(g6
S'HQ5\xb2D\xcbA?'
p933
tp934
Rp935
sS'corboli_1769_v1_1_0331'
p936
g2
(g6
S'yn\xe9,>\x1dE?'
p937
tp938
Rp939
sS'corboli_1769_v1_1_0166'
p940
g2
(g6
S'\xe7\xb1\x07J\xc5\xe7@?'
p941
tp942
Rp943
sS'corboli_1769_v1_1_0167'
p944
g2
(g6
S'>\x0bDjY\xcdG?'
p945
tp946
Rp947
sS'corboli_1769_v1_1_0164'
p948
g2
(g6
S'\xb1\x00\xcd\x7fTWB?'
p949
tp950
Rp951
sS'corboli_1769_v1_1_0165'
p952
g2
(g6
S'\xce\xde\x07\x9b\x19\xb3E?'
p953
tp954
Rp955
sS'corboli_1769_v1_1_0162'
p956
g2
(g6
S'`\x8d\xc9G|\x86B?'
p957
tp958
Rp959
sS'corboli_1769_v1_1_0163'
p960
g2
(g6
S'<\x86\x86E~\x80G?'
p961
tp962
Rp963
sS'corboli_1769_v1_1_0160'
p964
g2
(g6
S'\xb5\x810 A\x9dF?'
p965
tp966
Rp967
sS'corboli_1769_v1_1_0161'
p968
g2
(g6
S'\xea\xec\xbcA;^I?'
p969
tp970
Rp971
sS'corboli_1769_v1_1_0207'
p972
g2
(g6
S"'\xd4\xbd{\xf4\x96;?"
p973
tp974
Rp975
sS'corboli_1769_v1_1_0206'
p976
g2
(g6
S'f\x87\xf7@\x9d\xa97?'
p977
tp978
Rp979
sS'corboli_1769_v1_1_0205'
p980
g2
(g6
S' \xd1\xeb\xc2\x1d\x9c\x1d?'
p981
tp982
Rp983
sS'corboli_1769_v1_1_0204'
p984
g2
(g6
S'\xd8\x0f\xae\xec\x11\x8f\x02?'
p985
tp986
Rp987
sS'corboli_1769_v1_1_0203'
p988
g2
(g6
S'\x18\x07\x7f\x0c\x15\xa4F?'
p989
tp990
Rp991
sS'corboli_1769_v1_1_0202'
p992
g2
(g6
S'\xb0\x9b\x8b%\x1bdC?'
p993
tp994
Rp995
sS'corboli_1769_v1_1_0168'
p996
g2
(g6
S'\xed\x18\x8c\xc9y\xf0D?'
p997
tp998
Rp999
sS'corboli_1769_v1_1_0169'
p1000
g2
(g6
S'\xfd\x91Mh\xb9r>?'
p1001
tp1002
Rp1003
sS'corboli_1769_v1_1_0113'
p1004
g2
(g6
S'i+J\x1a\xbc.??'
p1005
tp1006
Rp1007
sS'corboli_1769_v1_1_0112'
p1008
g2
(g6
S'IKG\x96\xdd\x89=?'
p1009
tp1010
Rp1011
sS'corboli_1769_v1_1_0111'
p1012
g2
(g6
S'a\xb6\x0bM\x05hI?'
p1013
tp1014
Rp1015
sS'corboli_1769_v1_1_0110'
p1016
g2
(g6
S'\xbfl*\x06\xfc41?'
p1017
tp1018
Rp1019
sS'corboli_1769_v1_1_0117'
p1020
g2
(g6
S"rYel'\xf4>?"
p1021
tp1022
Rp1023
sS'corboli_1769_v1_1_0116'
p1024
g2
(g6
S'\xc06:\x90\x04hA?'
p1025
tp1026
Rp1027
sS'corboli_1769_v1_1_0115'
p1028
g2
(g6
S'\x81H\x9a\xb9\xcf\x85D?'
p1029
tp1030
Rp1031
sS'corboli_1769_v1_1_0114'
p1032
g2
(g6
S'\x03g)\xdcai@?'
p1033
tp1034
Rp1035
sS'corboli_1769_v1_1_0290'
p1036
g2
(g6
S'b\xb5\xb6\xc2T?I?'
p1037
tp1038
Rp1039
sS'corboli_1769_v1_1_0126'
p1040
g2
(g6
S'\xbbJo\xef\x16\xc4I?'
p1041
tp1042
Rp1043
sS'corboli_1769_v1_1_0119'
p1044
g2
(g6
S'\x9b\xf5\xbd\xb2\x81,A?'
p1045
tp1046
Rp1047
sS'corboli_1769_v1_1_0118'
p1048
g2
(g6
S'\xd0\x92\xca%C#A?'
p1049
tp1050
Rp1051
sS'corboli_1769_v1_1_0294'
p1052
g2
(g6
S't\xa8uRR\xcc\xf9>'
p1053
tp1054
Rp1055
sS'corboli_1769_v1_1_0285'
p1056
g2
(g6
S'\xd2\xe2\xf3\xfe\xe4\x99D?'
p1057
tp1058
Rp1059
sS'corboli_1769_v1_1_0296'
p1060
g2
(g6
S'\x8c\x9eP\x02\xd5G\x08?'
p1061
tp1062
Rp1063
sS'corboli_1769_v1_1_0127'
p1064
g2
(g6
S'%<^\x01\xe9\x02C?'
p1065
tp1066
Rp1067
sS'corboli_1769_v1_1_0052'
p1068
g2
(g6
S'n\xab\x9a|;\x98C?'
p1069
tp1070
Rp1071
sS'corboli_1769_v1_1_0053'
p1072
g2
(g6
S'o\xce\xf1\xd5\x8b\xd6E?'
p1073
tp1074
Rp1075
sS'corboli_1769_v1_1_0050'
p1076
g2
(g6
S'\x0b\x8b\x92\x943j??'
p1077
tp1078
Rp1079
sS'corboli_1769_v1_1_0051'
p1080
g2
(g6
S'\xccq\x96\xda\xf8\xe3D?'
p1081
tp1082
Rp1083
sS'corboli_1769_v1_1_0056'
p1084
g2
(g6
S'I\x97\x9a\xce\xfeiE?'
p1085
tp1086
Rp1087
sS'corboli_1769_v1_1_0057'
p1088
g2
(g6
S'\xcb\x9e\xe7\xe3\x12\xa5A?'
p1089
tp1090
Rp1091
sS'corboli_1769_v1_1_0054'
p1092
g2
(g6
S'\xdd\xc5%\xeeZi\x1d?'
p1093
tp1094
Rp1095
sS'corboli_1769_v1_1_0055'
p1096
g2
(g6
S'%y$\xe2D\x90D?'
p1097
tp1098
Rp1099
sS'corboli_1769_v1_1_0193'
p1100
g2
(g6
S'\x87r\x05V\xae\x97D?'
p1101
tp1102
Rp1103
sS'corboli_1769_v1_1_0192'
p1104
g2
(g6
S'\xaa\x1d\x1d\x91d\x97G?'
p1105
tp1106
Rp1107
sS'corboli_1769_v1_1_0058'
p1108
g2
(g6
S'G\xdf]\xa3\xdaUH?'
p1109
tp1110
Rp1111
sS'corboli_1769_v1_1_0059'
p1112
g2
(g6
S'>\xa7\xe6\xd1\x1b\x1e\xfb>'
p1113
tp1114
Rp1115
sS'corboli_1769_v1_1_0197'
p1116
g2
(g6
S'\xb1\xb2a\xf5\x11\xafG?'
p1117
tp1118
Rp1119
sS'corboli_1769_v1_1_0196'
p1120
g2
(g6
S'"B\xdf\xaf\xcdnE?'
p1121
tp1122
Rp1123
sS'corboli_1769_v1_1_0195'
p1124
g2
(g6
S'4\xc2\x98\xebM\x8eG?'
p1125
tp1126
Rp1127
sS'corboli_1769_v1_1_0194'
p1128
g2
(g6
S'\x1c\x8b\xf7\xbf\xc2 D?'
p1129
tp1130
Rp1131
sS'corboli_1769_v1_1_0286'
p1132
g2
(g6
S'6[\xa3\n\xfa\xa3B?'
p1133
tp1134
Rp1135
sS'corboli_1769_v1_1_0316'
p1136
g2
(g6
S'\x89\x057\xacZIN?'
p1137
tp1138
Rp1139
sS'corboli_1769_v1_1_0281'
p1140
g2
(g6
S'\xd9\x0bm\xc65[C?'
p1141
tp1142
Rp1143
sS'corboli_1769_v1_1_0299'
p1144
g2
(g6
S'Q\xef-g\nx\n?'
p1145
tp1146
Rp1147
sS'corboli_1769_v1_1_0280'
p1148
g2
(g6
S'\x02\x92K\x0e\xb4\x80G?'
p1149
tp1150
Rp1151
sS'corboli_1769_v1_1_0324'
p1152
g2
(g6
S'3_\xe8\x18\x8c\xa7"?'
p1153
tp1154
Rp1155
sS'corboli_1769_v1_1_0337'
p1156
g2
(g6
S'\xf8\xc4R\xa4\x8b\xe0B?'
p1157
tp1158
Rp1159
sS'corboli_1769_v1_1_0175'
p1160
g2
(g6
S'\xdb>8\x968\xc7J?'
p1161
tp1162
Rp1163
sS'corboli_1769_v1_1_0174'
p1164
g2
(g6
S'\xedY\x13tF\xd5D?'
p1165
tp1166
Rp1167
sS'corboli_1769_v1_1_0177'
p1168
g2
(g6
S'\x98\x92\xba\x02\xf5\xceF?'
p1169
tp1170
Rp1171
sS'corboli_1769_v1_1_0176'
p1172
g2
(g6
S'm\x91\xea\x9c\x0fQ\x08?'
p1173
tp1174
Rp1175
sS'corboli_1769_v1_1_0171'
p1176
g2
(g6
S'\xbbVZB\x1f\xbcC?'
p1177
tp1178
Rp1179
sS'corboli_1769_v1_1_0170'
p1180
g2
(g6
S'\xf0\xae\xb5\xc4\xc6\x18B?'
p1181
tp1182
Rp1183
sS'corboli_1769_v1_1_0173'
p1184
g2
(g6
S'\xe5\xf2\xe3\xe7\xc7\xd8G?'
p1185
tp1186
Rp1187
sS'corboli_1769_v1_1_0172'
p1188
g2
(g6
S'\x8c\xec\xd7\xfd\xdcx\r?'
p1189
tp1190
Rp1191
sS'corboli_1769_v1_1_0272'
p1192
g2
(g6
S'D\xf0\xfa\xd6\x9b\x93@?'
p1193
tp1194
Rp1195
sS'corboli_1769_v1_1_0273'
p1196
g2
(g6
S'\xbe\xd1\x17Z\xfa\x0eG?'
p1197
tp1198
Rp1199
sS'corboli_1769_v1_1_0270'
p1200
g2
(g6
S'S\x8f\t\x07\xbcEA?'
p1201
tp1202
Rp1203
sS'corboli_1769_v1_1_0271'
p1204
g2
(g6
S'\x1a+\x1a\xa4[\xe3G?'
p1205
tp1206
Rp1207
sS'corboli_1769_v1_1_0179'
p1208
g2
(g6
S'\xe5\\\xa6\xb8c\xa9E?'
p1209
tp1210
Rp1211
sS'corboli_1769_v1_1_0178'
p1212
g2
(g6
S'\x14`\x86\xfdAeF?'
p1213
tp1214
Rp1215
sS'corboli_1769_v1_1_0274'
p1216
g2
(g6
S'r\xb6\x06\xd8\xdb\x9bA?'
p1217
tp1218
Rp1219
sS'corboli_1769_v1_1_0275'
p1220
g2
(g6
S'\x10\xdb\xc2\xf8\xb3\xfdE?'
p1221
tp1222
Rp1223
sS'corboli_1769_v1_1_0311'
p1224
g2
(g6
S'\xfd,\xbd\x82\x00\xb7I?'
p1225
tp1226
Rp1227
sS'corboli_1769_v1_1_0315'
p1228
g2
(g6
S'"\x94a\xbd\x9c\x05H?'
p1229
tp1230
Rp1231
sS'corboli_1769_v1_1_0312'
p1232
g2
(g6
S'Z\xb6n\xa3\xee\xfcC?'
p1233
tp1234
Rp1235
sS'corboli_1769_v1_1_0247'
p1236
g2
(g6
S'\x96\xed\x19\xb8_VH?'
p1237
tp1238
Rp1239
sS'corboli_1769_v1_1_0261'
p1240
g2
(g6
S'\x04I\x1e\x87\x94\x8fH?'
p1241
tp1242
Rp1243
sS'corboli_1769_v1_1_0330'
p1244
g2
(g6
S'4\xe64=\xb1s@?'
p1245
tp1246
Rp1247
sS'corboli_1769_v1_1_0328'
p1248
g2
(g6
S'\xdb\xcb\xc6\x7f\xde\xdfG?'
p1249
tp1250
Rp1251
sS'corboli_1769_v1_1_0306'
p1252
g2
(g6
S'iT%\xa4\xc2tD?'
p1253
tp1254
Rp1255
sS'corboli_1769_v1_1_0317'
p1256
g2
(g6
S'N\xb3\x06\xc1\xf4:J?'
p1257
tp1258
Rp1259
sS'corboli_1769_v1_1_0284'
p1260
g2
(g6
S'\xbd\xbfh5\xd6\xc9\x13?'
p1261
tp1262
Rp1263
sS'corboli_1769_v1_1_0041'
p1264
g2
(g6
S'\x1c\xd2t\x1fl<\xdf>'
p1265
tp1266
Rp1267
sS'corboli_1769_v1_1_0040'
p1268
g2
(g6
S'l.\xe6I\xde\x9e1?'
p1269
tp1270
Rp1271
sS'corboli_1769_v1_1_0043'
p1272
g2
(g6
S'\xa9\x81\xa2\x13\xf6\x0eI?'
p1273
tp1274
Rp1275
sS'corboli_1769_v1_1_0042'
p1276
g2
(g6
S'o\xb5\xff\xae?5\xfd>'
p1277
tp1278
Rp1279
sS'corboli_1769_v1_1_0045'
p1280
g2
(g6
S'\xb7p\x9c\x97\x0f\xc4E?'
p1281
tp1282
Rp1283
sS'corboli_1769_v1_1_0044'
p1284
g2
(g6
S'3\x9d\xa0{\x157C?'
p1285
tp1286
Rp1287
sS'corboli_1769_v1_1_0047'
p1288
g2
(g6
S'\xa8\x88$\x10s\x1bF?'
p1289
tp1290
Rp1291
sS'corboli_1769_v1_1_0046'
p1292
g2
(g6
S'a\xd0\xa4\x8f\xc9*C?'
p1293
tp1294
Rp1295
sS'corboli_1769_v1_1_0049'
p1296
g2
(g6
S'\xef\x12M\xfbS\x03E?'
p1297
tp1298
Rp1299
sS'corboli_1769_v1_1_0048'
p1300
g2
(g6
S"\xddX?'\xbfVH?"
p1301
tp1302
Rp1303
sS'corboli_1769_v1_1_0292'
p1304
g2
(g6
S'Q\x0f{\x0e\x8b\x1c>?'
p1305
tp1306
Rp1307
sS'corboli_1769_v1_1_0289'
p1308
g2
(g6
S'\x1f\x9c\x9d\x9c\xf2cH?'
p1309
tp1310
Rp1311
sS'corboli_1769_v1_1_0288'
p1312
g2
(g6
S'\xfa\x07nv\xf0\xd2$?'
p1313
tp1314
Rp1315
s.