(dp0
S'heath-diag-0198'
p1
(lp2
S'heath_1908_v1_1_0398.jpg'
p3
aI4475
aI5992
aI2549
aI2795
aI870
aI708
asS'heath-diag-0199'
p4
(lp5
S'heath_1908_v1_1_0399.jpg'
p6
aI4475
aI5992
aI2765
aI3311
aI864
aI888
asS'heath-diag-0196'
p7
(lp8
S'heath_1908_v1_1_0395.jpg'
p9
aI4475
aI5992
aI2501
aI2759
aI1218
aI864
asS'heath-diag-0197'
p10
(lp11
S'heath_1908_v1_1_0396.jpg'
p12
aI4475
aI5992
aI2759
aI3521
aI732
aI804
asS'heath-diag-0194'
p13
(lp14
S'heath_1908_v1_1_0391.jpg'
p15
aI4475
aI5992
aI3089
aI1325
aI618
aI594
asS'heath-diag-0195'
p16
(lp17
S'heath_1908_v1_1_0391.jpg'
p18
aI4475
aI5992
aI2867
aI3844
aI834
aI570
asS'heath-diag-0192'
p19
(lp20
S'heath_1908_v1_1_0388.jpg'
p21
aI4475
aI5992
aI2795
aI4224
aI624
aI864
asS'heath-diag-0193'
p22
(lp23
S'heath_1908_v1_1_0389.jpg'
p24
aI4475
aI5992
aI2813
aI3521
aI876
aI498
asS'heath-diag-0190'
p25
(lp26
S'heath_1908_v1_1_0387.jpg'
p27
aI4475
aI5992
aI2807
aI3275
aI846
aI570
asS'heath-diag-0191'
p28
(lp29
S'heath_1908_v1_1_0388.jpg'
p30
aI4475
aI5992
aI2219
aI976
aI1232
aI1520
asS'heath-diag-0228'
p31
(lp32
S'heath_1908_v1_1_0428.jpg'
p33
aI4475
aI5992
aI2733
aI3858
aI666
aI786
asS'heath-diag-0229'
p34
(lp35
S'heath_1908_v1_1_0429.jpg'
p36
aI4475
aI5992
aI1506
aI1650
aI1656
aI720
asS'heath-diag-0171'
p37
(lp38
S'heath_1908_v1_1_0368.jpg'
p39
aI4475
aI5992
aI2521
aI3940
aI990
aI1008
asS'heath-diag-0220'
p40
(lp41
S'heath_1908_v1_1_0422.jpg'
p42
aI4475
aI5992
aI2791
aI2243
aI624
aI972
asS'heath-diag-0221'
p43
(lp44
S'heath_1908_v1_1_0424.jpg'
p45
aI4475
aI5992
aI2520
aI1661
aI900
aI726
asS'heath-diag-0222'
p46
(lp47
S'heath_1908_v1_1_0425.jpg'
p48
aI4475
aI5992
aI2639
aI833
aI1014
aI1254
asS'heath-diag-0223'
p49
(lp50
S'heath_1908_v1_1_0425.jpg'
p51
aI4475
aI5992
aI2441
aI3622
aI1218
aI678
asS'heath-diag-0224'
p52
(lp53
S'heath_1908_v1_1_0426.jpg'
p54
aI4475
aI5992
aI2593
aI2537
aI810
aI690
asS'heath-diag-0225'
p55
(lp56
S'heath_1908_v1_1_0427.jpg'
p57
aI4475
aI5992
aI3079
aI2615
aI588
aI522
asS'heath-diag-0226'
p58
(lp59
S'heath_1908_v1_1_0427.jpg'
p60
aI4475
aI5992
aI1655
aI3178
aI1386
aI1362
asS'heath-diag-0227'
p61
(lp62
S'heath_1908_v1_1_0428.jpg'
p63
aI4475
aI5992
aI2393
aI1855
aI1014
aI1338
asS'heath-diag-0116'
p64
(lp65
S'heath_1908_v1_1_0315.jpg'
p66
aI4475
aI5992
aI1358
aI3132
aI1836
aI636
asS'heath-diag-0117'
p67
(lp68
S'heath_1908_v1_1_0316.jpg'
p69
aI4475
aI5992
aI2712
aI964
aI848
aI1080
asS'heath-diag-0114'
p70
(lp71
S'heath_1908_v1_1_0312.jpg'
p72
aI4475
aI5992
aI1052
aI3088
aI2240
aI992
asS'heath-diag-0115'
p73
(lp74
S'heath_1908_v1_1_0314.jpg'
p75
aI4475
aI5992
aI1084
aI4080
aI2112
aI696
asS'heath-diag-0112'
p76
(lp77
S'heath_1908_v1_1_0310.jpg'
p78
aI4475
aI5992
aI1139
aI3736
aI2040
aI1264
asS'heath-diag-0113'
p79
(lp80
S'heath_1908_v1_1_0311.jpg'
p81
aI4475
aI5992
aI2257
aI3964
aI1374
aI774
asS'heath-diag-0110'
p82
(lp83
S'heath_1908_v1_1_0309.jpg'
p84
aI4475
aI5992
aI2660
aI2116
aI984
aI680
asS'heath-diag-0111'
p85
(lp86
S'heath_1908_v1_1_0310.jpg'
p87
aI4475
aI5992
aI2370
aI957
aI1110
aI726
asS'heath-diag-0118'
p88
(lp89
S'heath_1908_v1_1_0316.jpg'
p90
aI4475
aI5992
aI2224
aI4283
aI1320
aI680
asS'heath-diag-0119'
p91
(lp92
S'heath_1908_v1_1_0317.jpg'
p93
aI4475
aI5992
aI2279
aI3664
aI1368
aI606
asS'heath-diag-0071'
p94
(lp95
S'heath_1908_v1_1_0283.jpg'
p96
aI4475
aI5992
aI2395
aI3235
aI1092
aI726
asS'heath-diag-0070'
p97
(lp98
S'heath_1908_v1_1_0283.jpg'
p99
aI4475
aI5992
aI2663
aI1122
aI894
aI564
asS'heath-diag-0215'
p100
(lp101
S'heath_1908_v1_1_0418.jpg'
p102
aI4475
aI5992
aI2481
aI3011
aI1092
aI174
asS'heath-diag-0214'
p103
(lp104
S'heath_1908_v1_1_0418.jpg'
p105
aI4475
aI5992
aI2783
aI999
aI816
aI894
asS'heath-diag-0217'
p106
(lp107
S'heath_1908_v1_1_0421.jpg'
p108
aI4475
aI5992
aI3041
aI1001
aI636
aI666
asS'heath-diag-0216'
p109
(lp110
S'heath_1908_v1_1_0420.jpg'
p111
aI4475
aI5992
aI1176
aI2087
aI1824
aI1056
asS'heath-diag-0211'
p112
(lp113
S'heath_1908_v1_1_0414.jpg'
p114
aI4475
aI5992
aI2495
aI4144
aI1074
aI834
asS'heath-diag-0210'
p115
(lp116
S'heath_1908_v1_1_0414.jpg'
p117
aI4475
aI5992
aI2441
aI2573
aI1122
aI396
asS'heath-diag-0213'
p118
(lp119
S'heath_1908_v1_1_0417.jpg'
p120
aI4475
aI5992
aI2767
aI3940
aI888
aI930
asS'heath-diag-0212'
p121
(lp122
S'heath_1908_v1_1_0415.jpg'
p123
aI4475
aI5992
aI2491
aI3941
aI1200
aI870
asS'heath-diag-0219'
p124
(lp125
S'heath_1908_v1_1_0421.jpg'
p126
aI4475
aI5992
aI2448
aI2669
aI816
aI600
asS'heath-diag-0218'
p127
(lp128
S'heath_1908_v1_1_0421.jpg'
p129
aI4475
aI5992
aI1410
aI2663
aI762
aI594
asS'heath-diag-0163'
p130
(lp131
S'heath_1908_v1_1_0359.jpg'
p132
aI4475
aI5992
aI2623
aI984
aI834
aI486
asS'heath-diag-0162'
p133
(lp134
S'heath_1908_v1_1_0358.jpg'
p135
aI4475
aI5992
aI2621
aI2891
aI876
aI546
asS'heath-diag-0161'
p136
(lp137
S'heath_1908_v1_1_0357.jpg'
p138
aI4475
aI5992
aI2777
aI3755
aI894
aI552
asS'heath-diag-0160'
p139
(lp140
S'heath_1908_v1_1_0356.jpg'
p141
aI4475
aI5992
aI2660
aI3120
aI832
aI552
asS'heath-diag-0167'
p142
(lp143
S'heath_1908_v1_1_0361.jpg'
p144
aI4475
aI5992
aI2723
aI2699
aI894
aI576
asS'heath-diag-0166'
p145
(lp146
S'heath_1908_v1_1_0361.jpg'
p147
aI4475
aI5992
aI2693
aI1835
aI930
aI570
asS'heath-diag-0165'
p148
(lp149
S'heath_1908_v1_1_0360.jpg'
p150
aI4475
aI5992
aI2401
aI3047
aI1086
aI672
asS'heath-diag-0164'
p151
(lp152
S'heath_1908_v1_1_0359.jpg'
p153
aI4475
aI5992
aI2107
aI3291
aI1350
aI648
asS'heath-diag-0169'
p154
(lp155
S'heath_1908_v1_1_0365.jpg'
p156
aI4475
aI5992
aI1080
aI3484
aI2352
aI656
asS'heath-diag-0168'
p157
(lp158
S'heath_1908_v1_1_0362.jpg'
p159
aI4475
aI5992
aI1254
aI1207
aI1842
aI648
asS'heath-diag-0079'
p160
(lp161
S'heath_1908_v1_1_0286.jpg'
p162
aI4475
aI5992
aI2606
aI4378
aI888
aI930
asS'heath-diag-0202'
p163
(lp164
S'heath_1908_v1_1_0404.jpg'
p165
aI4475
aI5992
aI2401
aI1943
aI1032
aI672
asS'heath-diag-0203'
p166
(lp167
S'heath_1908_v1_1_0406.jpg'
p168
aI4475
aI5992
aI2251
aI1019
aI1206
aI858
asS'heath-diag-0200'
p169
(lp170
S'heath_1908_v1_1_0402.jpg'
p171
aI4475
aI5992
aI1374
aI2363
aI1452
aI852
asS'heath-diag-0201'
p172
(lp173
S'heath_1908_v1_1_0403.jpg'
p174
aI4475
aI5992
aI2405
aI3245
aI1230
aI348
asS'heath-diag-0206'
p175
(lp176
S'heath_1908_v1_1_0408.jpg'
p177
aI4475
aI5992
aI2542
aI3796
aI858
aI930
asS'heath-diag-0207'
p178
(lp179
S'heath_1908_v1_1_0410.jpg'
p180
aI4475
aI5992
aI2255
aI999
aI1134
aI1110
asS'heath-diag-0204'
p181
(lp182
S'heath_1908_v1_1_0407.jpg'
p183
aI4475
aI5992
aI2491
aI1115
aI1206
aI708
asS'heath-diag-0205'
p184
(lp185
S'heath_1908_v1_1_0407.jpg'
p186
aI4475
aI5992
aI2599
aI3588
aI1068
aI1056
asS'heath-diag-0208'
p187
(lp188
S'heath_1908_v1_1_0411.jpg'
p189
aI4475
aI5992
aI2821
aI3856
aI870
aI948
asS'heath-diag-0209'
p190
(lp191
S'heath_1908_v1_1_0412.jpg'
p192
aI4475
aI5992
aI2088
aI2621
aI1302
aI900
asS'heath-diag-0170'
p193
(lp194
S'heath_1908_v1_1_0367.jpg'
p195
aI4475
aI5992
aI2771
aI3904
aI728
aI968
asS'heath-diag-0078'
p196
(lp197
S'heath_1908_v1_1_0286.jpg'
p198
aI4475
aI5992
aI1500
aI1379
aI1398
aI630
asS'heath-diag-0172'
p199
(lp200
S'heath_1908_v1_1_0369.jpg'
p201
aI4475
aI5992
aI2309
aI2531
aI1360
aI1624
asS'heath-diag-0173'
p202
(lp203
S'heath_1908_v1_1_0372.jpg'
p204
aI4475
aI5992
aI1300
aI3360
aI1624
aI760
asS'heath-diag-0174'
p205
(lp206
S'heath_1908_v1_1_0373.jpg'
p207
aI4475
aI5992
aI2743
aI3761
aI888
aI522
asS'heath-diag-0175'
p208
(lp209
S'heath_1908_v1_1_0374.jpg'
p210
aI4475
aI5992
aI1088
aI3128
aI960
aI928
asS'heath-diag-0176'
p211
(lp212
S'heath_1908_v1_1_0374.jpg'
p213
aI4475
aI5992
aI2224
aI3136
aI944
aI952
asS'heath-diag-0177'
p214
(lp215
S'heath_1908_v1_1_0375.jpg'
p216
aI4475
aI5992
aI2975
aI750
aI654
aI666
asS'heath-diag-0178'
p217
(lp218
S'heath_1908_v1_1_0375.jpg'
p219
aI4475
aI5992
aI2755
aI3121
aI888
aI888
asS'heath-diag-0179'
p220
(lp221
S'heath_1908_v1_1_0376.jpg'
p222
aI4475
aI5992
aI2623
aI1259
aI840
aI774
asS'heath-diag-0073'
p223
(lp224
S'heath_1908_v1_1_0284.jpg'
p225
aI4475
aI5992
aI2291
aI840
aI1192
aI656
asS'heath-diag-0072'
p226
(lp227
S'heath_1908_v1_1_0283.jpg'
p228
aI4475
aI5992
aI2281
aI4081
aI1326
aI744
asS'heath-diag-0075'
p229
(lp230
S'heath_1908_v1_1_0285.jpg'
p231
aI4475
aI5992
aI2755
aI984
aI872
aI808
asS'heath-diag-0074'
p232
(lp233
S'heath_1908_v1_1_0284.jpg'
p234
aI4475
aI5992
aI2987
aI2320
aI472
aI640
asS'heath-diag-0077'
p235
(lp236
S'heath_1908_v1_1_0285.jpg'
p237
aI4475
aI5992
aI2238
aI2333
aI804
aI744
asS'heath-diag-0076'
p238
(lp239
S'heath_1908_v1_1_0285.jpg'
p240
aI4475
aI5992
aI1418
aI2325
aI834
aI762
asS'heath-diag-0149'
p241
(lp242
S'heath_1908_v1_1_0343.jpg'
p243
aI4475
aI5992
aI2659
aI1008
aI960
aI642
asS'heath-diag-0148'
p244
(lp245
S'heath_1908_v1_1_0342.jpg'
p246
aI4475
aI5992
aI2759
aI3455
aI756
aI732
asS'heath-diag-0145'
p247
(lp248
S'heath_1908_v1_1_0340.jpg'
p249
aI4475
aI5992
aI2568
aI3065
aI912
aI534
asS'heath-diag-0144'
p250
(lp251
S'heath_1908_v1_1_0339.jpg'
p252
aI4475
aI5992
aI2621
aI930
aI954
aI420
asS'heath-diag-0147'
p253
(lp254
S'heath_1908_v1_1_0342.jpg'
p255
aI4475
aI5992
aI2603
aI2261
aI912
aI750
asS'heath-diag-0146'
p256
(lp257
S'heath_1908_v1_1_0341.jpg'
p258
aI4475
aI5992
aI2417
aI2303
aI1188
aI696
asS'heath-diag-0141'
p259
(lp260
S'heath_1908_v1_1_0336.jpg'
p261
aI4475
aI5992
aI2401
aI1026
aI1044
aI504
asS'heath-diag-0140'
p262
(lp263
S'heath_1908_v1_1_0335.jpg'
p264
aI4475
aI5992
aI2753
aI2831
aI948
aI678
asS'heath-diag-0143'
p265
(lp266
S'heath_1908_v1_1_0338.jpg'
p267
aI4475
aI5992
aI2773
aI3857
aI702
aI654
asS'heath-diag-0142'
p268
(lp269
S'heath_1908_v1_1_0337.jpg'
p270
aI4475
aI5992
aI2579
aI968
aI992
aI648
asS'heath-diag-0066'
p271
(lp272
S'heath_1908_v1_1_0278.jpg'
p273
aI4475
aI5992
aI2963
aI2411
aI600
aI636
asS'heath-diag-0067'
p274
(lp275
S'heath_1908_v1_1_0278.jpg'
p276
aI4475
aI5992
aI2825
aI4276
aI744
aI666
asS'heath-diag-0064'
p277
(lp278
S'heath_1908_v1_1_0275.jpg'
p279
aI4475
aI5992
aI3091
aI3851
aI600
aI678
asS'heath-diag-0065'
p280
(lp281
S'heath_1908_v1_1_0277.jpg'
p282
aI4475
aI5992
aI2999
aI4030
aI672
aI852
asS'heath-diag-0063'
p283
(lp284
S'heath_1908_v1_1_0274.jpg'
p285
aI4475
aI5992
aI2931
aI1852
aI570
aI726
asS'heath-diag-0068'
p286
(lp287
S'heath_1908_v1_1_0280.jpg'
p288
aI4475
aI5992
aI2759
aI3712
aI690
aI768
asS'heath-diag-0069'
p289
(lp290
S'heath_1908_v1_1_0281.jpg'
p291
aI4475
aI5992
aI2406
aI3976
aI1200
aI678
asS'heath-diag-0099'
p292
(lp293
S'heath_1908_v1_1_0302.jpg'
p294
aI4475
aI5992
aI2675
aI3787
aI784
aI528
asS'heath-diag-0098'
p295
(lp296
S'heath_1908_v1_1_0302.jpg'
p297
aI4475
aI5992
aI1435
aI1176
aI1440
aI552
asS'heath-diag-0093'
p298
(lp299
S'heath_1908_v1_1_0297.jpg'
p300
aI4475
aI5992
aI2707
aI2416
aI928
aI856
asS'heath-diag-0092'
p301
(lp302
S'heath_1908_v1_1_0296.jpg'
p303
aI4475
aI5992
aI2640
aI3308
aI888
aI472
asS'heath-diag-0091'
p304
(lp305
S'heath_1908_v1_1_0295.jpg'
p306
aI4475
aI5992
aI2735
aI2315
aI900
aI516
asS'heath-diag-0090'
p307
(lp308
S'heath_1908_v1_1_0294.jpg'
p309
aI4475
aI5992
aI2827
aI3460
aI648
aI546
asS'heath-diag-0097'
p310
(lp311
S'heath_1908_v1_1_0301.jpg'
p312
aI4475
aI5992
aI2879
aI2058
aI804
aI612
asS'heath-diag-0096'
p313
(lp314
S'heath_1908_v1_1_0301.jpg'
p315
aI4475
aI5992
aI2789
aI1014
aI828
aI558
asS'heath-diag-0095'
p316
(lp317
S'heath_1908_v1_1_0299.jpg'
p318
aI4475
aI5992
aI2523
aI3020
aI1112
aI1008
asS'heath-diag-0094'
p319
(lp320
S'heath_1908_v1_1_0297.jpg'
p321
aI4475
aI5992
aI2747
aI4176
aI856
aI576
asS'heath-diag-0158'
p322
(lp323
S'heath_1908_v1_1_0355.jpg'
p324
aI4475
aI5992
aI1320
aI3617
aI1920
aI552
asS'heath-diag-0159'
p325
(lp326
S'heath_1908_v1_1_0356.jpg'
p327
aI4475
aI5992
aI1380
aI1064
aI1512
aI648
asS'heath-diag-0152'
p328
(lp329
S'heath_1908_v1_1_0347.jpg'
p330
aI4475
aI5992
aI2521
aI1787
aI1104
aI570
asS'heath-diag-0153'
p331
(lp332
S'heath_1908_v1_1_0351.jpg'
p333
aI4475
aI5992
aI1560
aI2273
aI1440
aI624
asS'heath-diag-0150'
p334
(lp335
S'heath_1908_v1_1_0344.jpg'
p336
aI4475
aI5992
aI2563
aI1203
aI948
aI546
asS'heath-diag-0151'
p337
(lp338
S'heath_1908_v1_1_0346.jpg'
p339
aI4475
aI5992
aI2424
aI1745
aI1080
aI1056
asS'heath-diag-0156'
p340
(lp341
S'heath_1908_v1_1_0354.jpg'
p342
aI4475
aI5992
aI1116
aI3761
aI2016
aI648
asS'heath-diag-0157'
p343
(lp344
S'heath_1908_v1_1_0355.jpg'
p345
aI4475
aI5992
aI1470
aI2135
aI1680
aI654
asS'heath-diag-0154'
p346
(lp347
S'heath_1908_v1_1_0352.jpg'
p348
aI4475
aI5992
aI2454
aI1781
aI1086
aI588
asS'heath-diag-0155'
p349
(lp350
S'heath_1908_v1_1_0353.jpg'
p351
aI4475
aI5992
aI2371
aI4024
aI1230
aI552
asS'heath-diag-0088'
p352
(lp353
S'heath_1908_v1_1_0293.jpg'
p354
aI4475
aI5992
aI2479
aI2527
aI1170
aI678
asS'heath-diag-0089'
p355
(lp356
S'heath_1908_v1_1_0294.jpg'
p357
aI4475
aI5992
aI2304
aI963
aI1152
aI786
asS'heath-diag-0080'
p358
(lp359
S'heath_1908_v1_1_0287.jpg'
p360
aI4475
aI5992
aI2765
aI3597
aI804
aI774
asS'heath-diag-0081'
p361
(lp362
S'heath_1908_v1_1_0288.jpg'
p363
aI4475
aI5992
aI2459
aI1043
aI996
aI756
asS'heath-diag-0082'
p364
(lp365
S'heath_1908_v1_1_0289.jpg'
p366
aI4475
aI5992
aI2435
aI1649
aI1164
aI852
asS'heath-diag-0083'
p367
(lp368
S'heath_1908_v1_1_0290.jpg'
p369
aI4475
aI5992
aI1428
aI1415
aI1422
aI444
asS'heath-diag-0084'
p370
(lp371
S'heath_1908_v1_1_0290.jpg'
p372
aI4475
aI5992
aI2528
aI3336
aI900
aI726
asS'heath-diag-0085'
p373
(lp374
S'heath_1908_v1_1_0291.jpg'
p375
aI4475
aI5992
aI2417
aI963
aI1398
aI954
asS'heath-diag-0086'
p376
(lp377
S'heath_1908_v1_1_0292.jpg'
p378
aI4475
aI5992
aI2286
aI3886
aI1194
aI732
asS'heath-diag-0087'
p379
(lp380
S'heath_1908_v1_1_0293.jpg'
p381
aI4475
aI5992
aI2449
aI1363
aI1200
aI714
asS'heath-diag-0129'
p382
(lp383
S'heath_1908_v1_1_0325.jpg'
p384
aI4475
aI5992
aI3003
aI1816
aI640
aI1096
asS'heath-diag-0128'
p385
(lp386
S'heath_1908_v1_1_0324.jpg'
p387
aI4475
aI5992
aI2580
aI1956
aI920
aI752
asS'heath-diag-0127'
p388
(lp389
S'heath_1908_v1_1_0322.jpg'
p390
aI4475
aI5992
aI1368
aI1916
aI1600
aI608
asS'heath-diag-0126'
p391
(lp392
S'heath_1908_v1_1_0321.jpg'
p393
aI4475
aI5992
aI1504
aI1148
aI1648
aI1200
asS'heath-diag-0125'
p394
(lp395
S'heath_1908_v1_1_0320.jpg'
p396
aI4475
aI5992
aI1264
aI2604
aI1696
aI864
asS'heath-diag-0124'
p397
(lp398
S'heath_1908_v1_1_0319.jpg'
p399
aI4475
aI5992
aI1532
aI2700
aI1544
aI688
asS'heath-diag-0123'
p400
(lp401
S'heath_1908_v1_1_0318.jpg'
p402
aI4475
aI5992
aI2123
aI2596
aI1408
aI696
asS'heath-diag-0122'
p403
(lp404
S'heath_1908_v1_1_0318.jpg'
p405
aI4475
aI5992
aI712
aI2588
aI1368
aI744
asS'heath-diag-0121'
p406
(lp407
S'heath_1908_v1_1_0318.jpg'
p408
aI4475
aI5992
aI2963
aI1432
aI512
aI768
asS'heath-diag-0120'
p409
(lp410
S'heath_1908_v1_1_0317.jpg'
p411
aI4475
aI5992
aI2285
aI4300
aI1362
aI606
asS'heath-diag-0138'
p412
(lp413
S'heath_1908_v1_1_0334.jpg'
p414
aI4475
aI5992
aI2659
aI2920
aI840
aI600
asS'heath-diag-0139'
p415
(lp416
S'heath_1908_v1_1_0335.jpg'
p417
aI4475
aI5992
aI2921
aI1757
aI744
aI702
asS'heath-diag-0134'
p418
(lp419
S'heath_1908_v1_1_0331.jpg'
p420
aI4475
aI5992
aI2743
aI4306
aI990
aI804
asS'heath-diag-0135'
p421
(lp422
S'heath_1908_v1_1_0332.jpg'
p423
aI4475
aI5992
aI2502
aI3987
aI906
aI552
asS'heath-diag-0136'
p424
(lp425
S'heath_1908_v1_1_0332.jpg'
p426
aI4475
aI5992
aI2483
aI3987
aI936
aI534
asS'heath-diag-0137'
p427
(lp428
S'heath_1908_v1_1_0333.jpg'
p429
aI4475
aI5992
aI2737
aI1110
aI888
aI468
asS'heath-diag-0130'
p430
(lp431
S'heath_1908_v1_1_0326.jpg'
p432
aI4475
aI5992
aI1004
aI3576
aI2216
aI520
asS'heath-diag-0131'
p433
(lp434
S'heath_1908_v1_1_0327.jpg'
p435
aI4475
aI5992
aI2561
aI3645
aI1062
aI630
asS'heath-diag-0132'
p436
(lp437
S'heath_1908_v1_1_0330.jpg'
p438
aI4475
aI5992
aI2403
aI1372
aI1040
aI736
asS'heath-diag-0133'
p439
(lp440
S'heath_1908_v1_1_0330.jpg'
p441
aI4475
aI5992
aI2731
aI3930
aI736
aI680
asS'heath-diag-0181'
p442
(lp443
S'heath_1908_v1_1_0379.jpg'
p444
aI4475
aI5992
aI1788
aI1757
aI528
aI516
asS'heath-diag-0180'
p445
(lp446
S'heath_1908_v1_1_0379.jpg'
p447
aI4475
aI5992
aI1176
aI1775
aI432
aI462
asS'heath-diag-0183'
p448
(lp449
S'heath_1908_v1_1_0379.jpg'
p450
aI4475
aI5992
aI3167
aI4456
aI366
aI360
asS'heath-diag-0182'
p451
(lp452
S'heath_1908_v1_1_0379.jpg'
p453
aI4475
aI5992
aI2394
aI1676
aI1104
aI1086
asS'heath-diag-0185'
p454
(lp455
S'heath_1908_v1_1_0382.jpg'
p456
aI4475
aI5992
aI2645
aI1973
aI762
aI840
asS'heath-diag-0184'
p457
(lp458
S'heath_1908_v1_1_0380.jpg'
p459
aI4475
aI5992
aI2585
aI1523
aI768
aI744
asS'heath-diag-0187'
p460
(lp461
S'heath_1908_v1_1_0385.jpg'
p462
aI4475
aI5992
aI2275
aI3368
aI1328
aI1192
asS'heath-diag-0186'
p463
(lp464
S'heath_1908_v1_1_0385.jpg'
p465
aI4475
aI5992
aI2507
aI996
aI1072
aI1160
asS'heath-diag-0189'
p466
(lp467
S'heath_1908_v1_1_0387.jpg'
p468
aI4475
aI5992
aI2855
aI1691
aI810
aI768
asS'heath-diag-0188'
p469
(lp470
S'heath_1908_v1_1_0386.jpg'
p471
aI4475
aI5992
aI2322
aI1709
aI1248
aI1092
asS'heath-diag-0109'
p472
(lp473
S'heath_1908_v1_1_0308.jpg'
p474
aI4475
aI5992
aI2516
aI3984
aI952
aI472
asS'heath-diag-0108'
p475
(lp476
S'heath_1908_v1_1_0308.jpg'
p477
aI4475
aI5992
aI2564
aI2496
aI912
aI520
asS'heath-diag-0101'
p478
(lp479
S'heath_1908_v1_1_0303.jpg'
p480
aI4475
aI5992
aI2880
aI4146
aI776
aI904
asS'heath-diag-0100'
p481
(lp482
S'heath_1908_v1_1_0303.jpg'
p483
aI4475
aI5992
aI2448
aI1736
aI1176
aI608
asS'heath-diag-0103'
p484
(lp485
S'heath_1908_v1_1_0305.jpg'
p486
aI4475
aI5992
aI2587
aI3850
aI1056
aI846
asS'heath-diag-0102'
p487
(lp488
S'heath_1908_v1_1_0304.jpg'
p489
aI4475
aI5992
aI2981
aI2170
aI516
aI654
asS'heath-diag-0105'
p490
(lp491
S'heath_1908_v1_1_0306.jpg'
p492
aI4475
aI5992
aI2811
aI3845
aI648
aI672
asS'heath-diag-0104'
p493
(lp494
S'heath_1908_v1_1_0306.jpg'
p495
aI4475
aI5992
aI2691
aI1188
aI816
aI944
asS'heath-diag-0107'
p496
(lp497
S'heath_1908_v1_1_0307.jpg'
p498
aI4475
aI5992
aI2729
aI4421
aI900
aI498
asS'heath-diag-0106'
p499
(lp500
S'heath_1908_v1_1_0307.jpg'
p501
aI4475
aI5992
aI2753
aI3017
aI858
aI588
as.