(dp0
S'coets_1705_v1_1_0329'
p1
cnumpy.core.multiarray
scalar
p2
(cnumpy
dtype
p3
(S'f8'
p4
I0
I1
tp5
Rp6
(I3
S'<'
p7
NNNI-1
I-1
I0
tp8
bS',\t\xf4G\xfbt~>'
p9
tp10
Rp11
sS'coets_1705_v1_1_0199'
p12
g2
(g6
S'\xb4\xdf\x82\xbf\x04\x1b\x8e>'
p13
tp14
Rp15
sS'coets_1705_v1_1_0051'
p16
g2
(g6
S'\x8d\xd5\x1d\xb1\x7fL\x8e>'
p17
tp18
Rp19
sS'coets_1705_v1_1_0306'
p20
g2
(g6
S',\t\xf4G\xfbt~>'
p21
tp22
Rp23
sS'coets_1705_v1_1_0307'
p24
g2
(g6
S',\t\xf4G\xfbt~>'
p25
tp26
Rp27
sS'coets_1705_v1_1_0304'
p28
g2
(g6
S',\t\xf4G\xfbt\x8e>'
p29
tp30
Rp31
sS'coets_1705_v1_1_0305'
p32
g2
(g6
S',\t\xf4G\xfbt~>'
p33
tp34
Rp35
sS'coets_1705_v1_1_0302'
p36
g2
(g6
S',\t\xf4G\xfbt~>'
p37
tp38
Rp39
sS'coets_1705_v1_1_0303'
p40
g2
(g6
S'\x81\t9*>\x8c\x8e>'
p41
tp42
Rp43
sS'coets_1705_v1_1_0300'
p44
g2
(g6
S',\t\xf4G\xfbt\x9e>'
p45
tp46
Rp47
sS'coets_1705_v1_1_0301'
p48
g2
(g6
S',\t\xf4G\xfbt\x9e>'
p49
tp50
Rp51
sS'coets_1705_v1_1_0308'
p52
g2
(g6
S'\xe2\x06\xf7u\xbc\xd7\x96>'
p53
tp54
Rp55
sS'coets_1705_v1_1_0309'
p56
g2
(g6
S'\xe1\x06\xf7u\xbc\xd7\x96>'
p57
tp58
Rp59
sS'coets_1705_v1_1_0451'
p60
g2
(g6
S'\x8f\xde\x02\xc0\xfe\x0e\x8e>'
p61
tp62
Rp63
sS'coets_1705_v1_1_0058'
p64
g2
(g6
S'\x8d\xd5\x1d\xb1\x7fL~>'
p65
tp66
Rp67
sS'coets_1705_v1_1_0059'
p68
g2
(g6
S'\x8d\xd5\x1d\xb1\x7fL~>'
p69
tp70
Rp71
sS'coets_1705_v1_1_0159'
p72
g2
(g6
S'I\x11\xee\xcd\xc3\r\x9e>'
p73
tp74
Rp75
sS'coets_1705_v1_1_0158'
p76
g2
(g6
S'I\x11\xee\xcd\xc3\r~>'
p77
tp78
Rp79
sS'coets_1705_v1_1_0153'
p80
g2
(g6
S'\xf8\x8cr\xdaR\x8a\x96>'
p81
tp82
Rp83
sS'coets_1705_v1_1_0152'
p84
g2
(g6
S'I\x11\xee\xcd\xc3\r\x8e>'
p85
tp86
Rp87
sS'coets_1705_v1_1_0151'
p88
g2
(g6
S'I\x11\xee\xcd\xc3\r~>'
p89
tp90
Rp91
sS'coets_1705_v1_1_0150'
p92
g2
(g6
S'\xf8\x8cr\xdaR\x8a\x96>'
p93
tp94
Rp95
sS'coets_1705_v1_1_0157'
p96
g2
(g6
S'I\x11\xee\xcd\xc3\r~>'
p97
tp98
Rp99
sS'coets_1705_v1_1_0156'
p100
g2
(g6
S'I\x11\xee\xcd\xc3\r\x8e>'
p101
tp102
Rp103
sS'coets_1705_v1_1_0155'
p104
g2
(g6
S'I\x11\xee\xcd\xc3\r\x8e>'
p105
tp106
Rp107
sS'coets_1705_v1_1_0154'
p108
g2
(g6
S'I\x11\xee\xcd\xc3\r\x8e>'
p109
tp110
Rp111
sS'coets_1705_v1_1_0399'
p112
g2
(g6
S'\x8f\xde\x02\xc0\xfe\x0e~>'
p113
tp114
Rp115
sS'coets_1705_v1_1_0398'
p116
g2
(g6
S'\xeb&\x02\x10?\x8b\x96>'
p117
tp118
Rp119
sS'coets_1705_v1_1_0379'
p120
g2
(g6
S'\x8f\xde\x02\xc0\xfe\x0e\x9e>'
p121
tp122
Rp123
sS'coets_1705_v1_1_0478'
p124
g2
(g6
S'\x14Q6\x1a\x1d\x84\x8e>'
p125
tp126
Rp127
sS'coets_1705_v1_1_0479'
p128
g2
(g6
S'\x14Q6\x1a\x1d\x84\x9e>'
p129
tp130
Rp131
sS'coets_1705_v1_1_0474'
p132
g2
(g6
S'\x14Q6\x1a\x1d\x84\x9e>'
p133
tp134
Rp135
sS'coets_1705_v1_1_0475'
p136
g2
(g6
S'_\xaa\\p\xe0\x95\x9e>'
p137
tp138
Rp139
sS'coets_1705_v1_1_0476'
p140
g2
(g6
S'\x14Q6\x1a\x1d\x84\x8e>'
p141
tp142
Rp143
sS'coets_1705_v1_1_0477'
p144
g2
(g6
S'\x14Q6\x1a\x1d\x84\x8e>'
p145
tp146
Rp147
sS'coets_1705_v1_1_0470'
p148
g2
(g6
S'\x14Q6\x1a\x1d\x84\x8e>'
p149
tp150
Rp151
sS'coets_1705_v1_1_0471'
p152
g2
(g6
S'\x14Q6\x1a\x1d\x84~>'
p153
tp154
Rp155
sS'coets_1705_v1_1_0472'
p156
g2
(g6
S'\x14Q6\x1a\x1d\x84\x8e>'
p157
tp158
Rp159
sS'coets_1705_v1_1_0473'
p160
g2
(g6
S'\x14Q6\x1a\x1d\x84~>'
p161
tp162
Rp163
sS'coets_1705_v1_1_0409'
p164
g2
(g6
S'\x8f\xde\x02\xc0\xfe\x0e\x9e>'
p165
tp166
Rp167
sS'coets_1705_v1_1_0408'
p168
g2
(g6
S'\x8f\xde\x02\xc0\xfe\x0e\x9e>'
p169
tp170
Rp171
sS'coets_1705_v1_1_0401'
p172
g2
(g6
S'\x8f\xde\x02\xc0\xfe\x0e\x8e>'
p173
tp174
Rp175
sS'coets_1705_v1_1_0400'
p176
g2
(g6
S'\x8f\xde\x02\xc0\xfe\x0e\x8e>'
p177
tp178
Rp179
sS'coets_1705_v1_1_0403'
p180
g2
(g6
S'\xeb&\x02\x10?\x8b\xa6>'
p181
tp182
Rp183
sS'coets_1705_v1_1_0402'
p184
g2
(g6
S'\x8f\xde\x02\xc0\xfe\x0e\x8e>'
p185
tp186
Rp187
sS'coets_1705_v1_1_0405'
p188
g2
(g6
S'\x8f\xde\x02\xc0\xfe\x0e~>'
p189
tp190
Rp191
sS'coets_1705_v1_1_0404'
p192
g2
(g6
S'\xeb&\x02\x10?\x8b\x96>'
p193
tp194
Rp195
sS'coets_1705_v1_1_0407'
p196
g2
(g6
S'\x8f\xde\x02\xc0\xfe\x0e~>'
p197
tp198
Rp199
sS'coets_1705_v1_1_0406'
p200
g2
(g6
S'\x8f\xde\x02\xc0\xfe\x0e\x8e>'
p201
tp202
Rp203
sS'coets_1705_v1_1_0278'
p204
g2
(g6
S',\t\xf4G\xfbt\x8e>'
p205
tp206
Rp207
sS'coets_1705_v1_1_0279'
p208
g2
(g6
S',\t\xf4G\xfbt\x9e>'
p209
tp210
Rp211
sS'coets_1705_v1_1_0276'
p212
g2
(g6
S',\t\xf4G\xfbt\x8e>'
p213
tp214
Rp215
sS'coets_1705_v1_1_0277'
p216
g2
(g6
S',\t\xf4G\xfbt\x8e>'
p217
tp218
Rp219
sS'coets_1705_v1_1_0274'
p220
g2
(g6
S',\t\xf4G\xfbt\x8e>'
p221
tp222
Rp223
sS'coets_1705_v1_1_0275'
p224
g2
(g6
S',\t\xf4G\xfbt\x8e>'
p225
tp226
Rp227
sS'coets_1705_v1_1_0272'
p228
g2
(g6
S',\t\xf4G\xfbt~>'
p229
tp230
Rp231
sS'coets_1705_v1_1_0273'
p232
g2
(g6
S',\t\xf4G\xfbt\x8e>'
p233
tp234
Rp235
sS'coets_1705_v1_1_0270'
p236
g2
(g6
S'\xb4\xdf\x82\xbf\x04\x1b\x8e>'
p237
tp238
Rp239
sS'coets_1705_v1_1_0271'
p240
g2
(g6
S'\xb4\xdf\x82\xbf\x04\x1b\x9e>'
p241
tp242
Rp243
sS'coets_1705_v1_1_0294'
p244
g2
(g6
S',\t\xf4G\xfbt\x8e>'
p245
tp246
Rp247
sS'coets_1705_v1_1_0295'
p248
g2
(g6
S',\t\xf4G\xfbt\x8e>'
p249
tp250
Rp251
sS'coets_1705_v1_1_0296'
p252
g2
(g6
S',\t\xf4G\xfbt\x8e>'
p253
tp254
Rp255
sS'coets_1705_v1_1_0297'
p256
g2
(g6
S'\xe1\x06\xf7u\xbc\xd7\x96>'
p257
tp258
Rp259
sS'coets_1705_v1_1_0290'
p260
g2
(g6
S',\t\xf4G\xfbt\x9e>'
p261
tp262
Rp263
sS'coets_1705_v1_1_0358'
p264
g2
(g6
S',\t\xf4G\xfbt\x9e>'
p265
tp266
Rp267
sS'coets_1705_v1_1_0292'
p268
g2
(g6
S',\t\xf4G\xfbt~>'
p269
tp270
Rp271
sS'coets_1705_v1_1_0293'
p272
g2
(g6
S'\x81\t9*>\x8c~>'
p273
tp274
Rp275
sS'coets_1705_v1_1_0355'
p276
g2
(g6
S'\x81\t9*>\x8c~>'
p277
tp278
Rp279
sS'coets_1705_v1_1_0354'
p280
g2
(g6
S'\xe2\x06\xf7u\xbc\xd7\x96>'
p281
tp282
Rp283
sS'coets_1705_v1_1_0357'
p284
g2
(g6
S',\t\xf4G\xfbt~>'
p285
tp286
Rp287
sS'coets_1705_v1_1_0356'
p288
g2
(g6
S',\t\xf4G\xfbt~>'
p289
tp290
Rp291
sS'coets_1705_v1_1_0298'
p292
g2
(g6
S',\t\xf4G\xfbt\x8e>'
p293
tp294
Rp295
sS'coets_1705_v1_1_0299'
p296
g2
(g6
S',\t\xf4G\xfbt\x9e>'
p297
tp298
Rp299
sS'coets_1705_v1_1_0353'
p300
g2
(g6
S',\t\xf4G\xfbt\x9e>'
p301
tp302
Rp303
sS'coets_1705_v1_1_0352'
p304
g2
(g6
S'\xe2\x06\xf7u\xbc\xd7\x96>'
p305
tp306
Rp307
sS'coets_1705_v1_1_0056'
p308
g2
(g6
S'\x8d\xd5\x1d\xb1\x7fL~>'
p309
tp310
Rp311
sS'coets_1705_v1_1_0057'
p312
g2
(g6
S'\x8d\xd5\x1d\xb1\x7fL\x9e>'
p313
tp314
Rp315
sS'coets_1705_v1_1_0054'
p316
g2
(g6
S'\x8d\xd5\x1d\xb1\x7fL~>'
p317
tp318
Rp319
sS'coets_1705_v1_1_0055'
p320
g2
(g6
S'\x8d\xd5\x1d\xb1\x7fL\x9e>'
p321
tp322
Rp323
sS'coets_1705_v1_1_0052'
p324
g2
(g6
S'\x8d\xd5\x1d\xb1\x7fL~>'
p325
tp326
Rp327
sS'coets_1705_v1_1_0053'
p328
g2
(g6
S'\x8d\xd5\x1d\xb1\x7fL\x9e>'
p329
tp330
Rp331
sS'coets_1705_v1_1_0050'
p332
g2
(g6
S'\x8d\xd5\x1d\xb1\x7fL\x9e>'
p333
tp334
Rp335
sS'coets_1705_v1_1_0198'
p336
g2
(g6
S'\xb4\xdf\x82\xbf\x04\x1b\x8e>'
p337
tp338
Rp339
sS'coets_1705_v1_1_0197'
p340
g2
(g6
S'\xb4\xdf\x82\xbf\x04\x1b\x8e>'
p341
tp342
Rp343
sS'coets_1705_v1_1_0196'
p344
g2
(g6
S'\xb4\xdf\x82\xbf\x04\x1b\x8e>'
p345
tp346
Rp347
sS'coets_1705_v1_1_0195'
p348
g2
(g6
S'\xb4\xdf\x82\xbf\x04\x1b~>'
p349
tp350
Rp351
sS'coets_1705_v1_1_0194'
p352
g2
(g6
S'\xb4\xdf\x82\xbf\x04\x1b\x8e>'
p353
tp354
Rp355
sS'coets_1705_v1_1_0193'
p356
g2
(g6
S'\xb4\xdf\x82\xbf\x04\x1b\x8e>'
p357
tp358
Rp359
sS'coets_1705_v1_1_0192'
p360
g2
(g6
S'\xb4\xdf\x82\xbf\x04\x1b\x9e>'
p361
tp362
Rp363
sS'coets_1705_v1_1_0191'
p364
g2
(g6
S'^\xab\xda\xc0-O\x9e>'
p365
tp366
Rp367
sS'coets_1705_v1_1_0190'
p368
g2
(g6
S'\xb4\xdf\x82\xbf\x04\x1b\x8e>'
p369
tp370
Rp371
sS'coets_1705_v1_1_0122'
p372
g2
(g6
S'I\x11\xee\xcd\xc3\r\x8e>'
p373
tp374
Rp375
sS'coets_1705_v1_1_0123'
p376
g2
(g6
S'I\x11\xee\xcd\xc3\r\x9e>'
p377
tp378
Rp379
sS'coets_1705_v1_1_0120'
p380
g2
(g6
S'\xf8\x8cr\xdaR\x8a\xa6>'
p381
tp382
Rp383
sS'coets_1705_v1_1_0121'
p384
g2
(g6
S'\xf7\x8cr\xdaR\x8a\xa6>'
p385
tp386
Rp387
sS'coets_1705_v1_1_0126'
p388
g2
(g6
S'I\x11\xee\xcd\xc3\r\x8e>'
p389
tp390
Rp391
sS'coets_1705_v1_1_0127'
p392
g2
(g6
S'I\x11\xee\xcd\xc3\r~>'
p393
tp394
Rp395
sS'coets_1705_v1_1_0124'
p396
g2
(g6
S'I\x11\xee\xcd\xc3\r\x9e>'
p397
tp398
Rp399
sS'coets_1705_v1_1_0125'
p400
g2
(g6
S'I\x11\xee\xcd\xc3\r\x8e>'
p401
tp402
Rp403
sS'coets_1705_v1_1_0128'
p404
g2
(g6
S'I\x11\xee\xcd\xc3\r~>'
p405
tp406
Rp407
sS'coets_1705_v1_1_0129'
p408
g2
(g6
S'I\x11\xee\xcd\xc3\r~>'
p409
tp410
Rp411
sS'coets_1705_v1_1_0493'
p412
g2
(g6
S'\xcf\xbc\xa8\xd3\x15\xe3\x96>'
p413
tp414
Rp415
sS'coets_1705_v1_1_0069'
p416
g2
(g6
S'\x8d\xd5\x1d\xb1\x7fL~>'
p417
tp418
Rp419
sS'coets_1705_v1_1_0341'
p420
g2
(g6
S',\t\xf4G\xfbt\x8e>'
p421
tp422
Rp423
sS'coets_1705_v1_1_0540'
p424
g2
(g6
S'\x14Q6\x1a\x1d\x84~>'
p425
tp426
Rp427
sS'coets_1705_v1_1_0541'
p428
g2
(g6
S'\x14Q6\x1a\x1d\x84~>'
p429
tp430
Rp431
sS'coets_1705_v1_1_0542'
p432
g2
(g6
S'\x14Q6\x1a\x1d\x84\x8e>'
p433
tp434
Rp435
sS'coets_1705_v1_1_0430'
p436
g2
(g6
S'\x8f\xde\x02\xc0\xfe\x0e\x9e>'
p437
tp438
Rp439
sS'coets_1705_v1_1_0431'
p440
g2
(g6
S'\x8f\xde\x02\xc0\xfe\x0e\x8e>'
p441
tp442
Rp443
sS'coets_1705_v1_1_0432'
p444
g2
(g6
S'\x8f\xde\x02\xc0\xfe\x0e\x9e>'
p445
tp446
Rp447
sS'coets_1705_v1_1_0433'
p448
g2
(g6
S'\x8f\xde\x02\xc0\xfe\x0e~>'
p449
tp450
Rp451
sS'coets_1705_v1_1_0434'
p452
g2
(g6
S'\x8f\xde\x02\xc0\xfe\x0e\x8e>'
p453
tp454
Rp455
sS'coets_1705_v1_1_0435'
p456
g2
(g6
S'\x8f\xde\x02\xc0\xfe\x0e~>'
p457
tp458
Rp459
sS'coets_1705_v1_1_0436'
p460
g2
(g6
S'\x8f\xde\x02\xc0\xfe\x0e\x9e>'
p461
tp462
Rp463
sS'coets_1705_v1_1_0437'
p464
g2
(g6
S'\x8f\xde\x02\xc0\xfe\x0e~>'
p465
tp466
Rp467
sS'coets_1705_v1_1_0438'
p468
g2
(g6
S'\x8f\xde\x02\xc0\xfe\x0e\x8e>'
p469
tp470
Rp471
sS'coets_1705_v1_1_0439'
p472
g2
(g6
S'\x8f\xde\x02\xc0\xfe\x0e\x8e>'
p473
tp474
Rp475
sS'coets_1705_v1_1_0533'
p476
g2
(g6
S'\x14Q6\x1a\x1d\x84\x9e>'
p477
tp478
Rp479
sS'coets_1705_v1_1_0532'
p480
g2
(g6
S'\x14Q6\x1a\x1d\x84\x8e>'
p481
tp482
Rp483
sS'coets_1705_v1_1_0535'
p484
g2
(g6
S'\x14Q6\x1a\x1d\x84\x8e>'
p485
tp486
Rp487
sS'coets_1705_v1_1_0534'
p488
g2
(g6
S'\x14Q6\x1a\x1d\x84\x8e>'
p489
tp490
Rp491
sS'coets_1705_v1_1_0537'
p492
g2
(g6
S'\x14Q6\x1a\x1d\x84\x9e>'
p493
tp494
Rp495
sS'coets_1705_v1_1_0536'
p496
g2
(g6
S'\x14Q6\x1a\x1d\x84\x9e>'
p497
tp498
Rp499
sS'coets_1705_v1_1_0061'
p500
g2
(g6
S'*`\xd6\xc4_\xb9\x96>'
p501
tp502
Rp503
sS'coets_1705_v1_1_0349'
p504
g2
(g6
S'\xe1\x06\xf7u\xbc\xd7\x96>'
p505
tp506
Rp507
sS'coets_1705_v1_1_0311'
p508
g2
(g6
S'\xe2\x06\xf7u\xbc\xd7\x96>'
p509
tp510
Rp511
sS'coets_1705_v1_1_0310'
p512
g2
(g6
S',\t\xf4G\xfbt\x9e>'
p513
tp514
Rp515
sS'coets_1705_v1_1_0098'
p516
g2
(g6
S'I\x11\xee\xcd\xc3\r\x9e>'
p517
tp518
Rp519
sS'coets_1705_v1_1_0099'
p520
g2
(g6
S'I\x11\xee\xcd\xc3\r~>'
p521
tp522
Rp523
sS'coets_1705_v1_1_0315'
p524
g2
(g6
S',\t\xf4G\xfbt~>'
p525
tp526
Rp527
sS'coets_1705_v1_1_0314'
p528
g2
(g6
S',\t\xf4G\xfbt\x8e>'
p529
tp530
Rp531
sS'coets_1705_v1_1_0317'
p532
g2
(g6
S',\t\xf4G\xfbt~>'
p533
tp534
Rp535
sS'coets_1705_v1_1_0316'
p536
g2
(g6
S'\xe2\x06\xf7u\xbc\xd7\x96>'
p537
tp538
Rp539
sS'coets_1705_v1_1_0092'
p540
g2
(g6
S'I\x11\xee\xcd\xc3\r\x9e>'
p541
tp542
Rp543
sS'coets_1705_v1_1_0093'
p544
g2
(g6
S'I\x11\xee\xcd\xc3\r\x8e>'
p545
tp546
Rp547
sS'coets_1705_v1_1_0090'
p548
g2
(g6
S'I\x11\xee\xcd\xc3\r~>'
p549
tp550
Rp551
sS'coets_1705_v1_1_0091'
p552
g2
(g6
S'I\x11\xee\xcd\xc3\r\x9e>'
p553
tp554
Rp555
sS'coets_1705_v1_1_0096'
p556
g2
(g6
S'I\x11\xee\xcd\xc3\r~>'
p557
tp558
Rp559
sS'coets_1705_v1_1_0097'
p560
g2
(g6
S'I\x11\xee\xcd\xc3\r\x9e>'
p561
tp562
Rp563
sS'coets_1705_v1_1_0094'
p564
g2
(g6
S'I\x11\xee\xcd\xc3\r\x9e>'
p565
tp566
Rp567
sS'coets_1705_v1_1_0095'
p568
g2
(g6
S'C\xa1\xb6\xb7lD\x8e>'
p569
tp570
Rp571
sS'coets_1705_v1_1_0225'
p572
g2
(g6
S'\xb4\xdf\x82\xbf\x04\x1b\x8e>'
p573
tp574
Rp575
sS'coets_1705_v1_1_0224'
p576
g2
(g6
S'\xb4\xdf\x82\xbf\x04\x1b\x8e>'
p577
tp578
Rp579
sS'coets_1705_v1_1_0227'
p580
g2
(g6
S'\xb4\xdf\x82\xbf\x04\x1b\x8e>'
p581
tp582
Rp583
sS'coets_1705_v1_1_0226'
p584
g2
(g6
S'\xb4\xdf\x82\xbf\x04\x1b\x8e>'
p585
tp586
Rp587
sS'coets_1705_v1_1_0221'
p588
g2
(g6
S'\xb4\xdf\x82\xbf\x04\x1b\x9e>'
p589
tp590
Rp591
sS'coets_1705_v1_1_0220'
p592
g2
(g6
S'\xb4\xdf\x82\xbf\x04\x1b~>'
p593
tp594
Rp595
sS'coets_1705_v1_1_0223'
p596
g2
(g6
S'\xb4\xdf\x82\xbf\x04\x1b~>'
p597
tp598
Rp599
sS'coets_1705_v1_1_0222'
p600
g2
(g6
S"\xc8'\xa2\x8fC\x94\x96>"
p601
tp602
Rp603
sS'coets_1705_v1_1_0386'
p604
g2
(g6
S'\x8f\xde\x02\xc0\xfe\x0e~>'
p605
tp606
Rp607
sS'coets_1705_v1_1_0387'
p608
g2
(g6
S'\x8f\xde\x02\xc0\xfe\x0e\x9e>'
p609
tp610
Rp611
sS'coets_1705_v1_1_0384'
p612
g2
(g6
S'\x8f\xde\x02\xc0\xfe\x0e~>'
p613
tp614
Rp615
sS'coets_1705_v1_1_0385'
p616
g2
(g6
S'\x8f\xde\x02\xc0\xfe\x0e\x9e>'
p617
tp618
Rp619
sS'coets_1705_v1_1_0229'
p620
g2
(g6
S'\xb4\xdf\x82\xbf\x04\x1b~>'
p621
tp622
Rp623
sS'coets_1705_v1_1_0228'
p624
g2
(g6
S'\xb4\xdf\x82\xbf\x04\x1b\x9e>'
p625
tp626
Rp627
sS'coets_1705_v1_1_0380'
p628
g2
(g6
S'\x8f\xde\x02\xc0\xfe\x0e~>'
p629
tp630
Rp631
sS'coets_1705_v1_1_0381'
p632
g2
(g6
S'\x8f\xde\x02\xc0\xfe\x0e\x9e>'
p633
tp634
Rp635
sS'coets_1705_v1_1_0364'
p636
g2
(g6
S'\x8f\xde\x02\xc0\xfe\x0e~>'
p637
tp638
Rp639
sS'coets_1705_v1_1_0365'
p640
g2
(g6
S'\x8f\xde\x02\xc0\xfe\x0e\x9e>'
p641
tp642
Rp643
sS'coets_1705_v1_1_0366'
p644
g2
(g6
S'\x8f\xde\x02\xc0\xfe\x0e\x8e>'
p645
tp646
Rp647
sS'coets_1705_v1_1_0367'
p648
g2
(g6
S'\xec&\x02\x10?\x8b\x96>'
p649
tp650
Rp651
sS'coets_1705_v1_1_0360'
p652
g2
(g6
S',\t\xf4G\xfbt\x8e>'
p653
tp654
Rp655
sS'coets_1705_v1_1_0361'
p656
g2
(g6
S',\t\xf4G\xfbt\x8e>'
p657
tp658
Rp659
sS'coets_1705_v1_1_0362'
p660
g2
(g6
S',\t\xf4G\xfbt\x9e>'
p661
tp662
Rp663
sS'coets_1705_v1_1_0363'
p664
g2
(g6
S',\t\xf4G\xfbt\x9e>'
p665
tp666
Rp667
sS'coets_1705_v1_1_0368'
p668
g2
(g6
S'\x8f\xde\x02\xc0\xfe\x0e\x8e>'
p669
tp670
Rp671
sS'coets_1705_v1_1_0369'
p672
g2
(g6
S'\x8f\xde\x02\xc0\xfe\x0e\x9e>'
p673
tp674
Rp675
sS'coets_1705_v1_1_0166'
p676
g2
(g6
S'I\x11\xee\xcd\xc3\r~>'
p677
tp678
Rp679
sS'coets_1705_v1_1_0167'
p680
g2
(g6
S'C\xa1\xb6\xb7lD\x8e>'
p681
tp682
Rp683
sS'coets_1705_v1_1_0164'
p684
g2
(g6
S'I\x11\xee\xcd\xc3\r~>'
p685
tp686
Rp687
sS'coets_1705_v1_1_0165'
p688
g2
(g6
S'I\x11\xee\xcd\xc3\r~>'
p689
tp690
Rp691
sS'coets_1705_v1_1_0162'
p692
g2
(g6
S'I\x11\xee\xcd\xc3\r\x9e>'
p693
tp694
Rp695
sS'coets_1705_v1_1_0163'
p696
g2
(g6
S'\xf1\xf8\xc8\x89Q\xb3\xa6>'
p697
tp698
Rp699
sS'coets_1705_v1_1_0160'
p700
g2
(g6
S'I\x11\xee\xcd\xc3\r\x8e>'
p701
tp702
Rp703
sS'coets_1705_v1_1_0161'
p704
g2
(g6
S'I\x11\xee\xcd\xc3\r\x8e>'
p705
tp706
Rp707
sS'coets_1705_v1_1_0168'
p708
g2
(g6
S'I\x11\xee\xcd\xc3\r\x9e>'
p709
tp710
Rp711
sS'coets_1705_v1_1_0169'
p712
g2
(g6
S'C\xa1\xb6\xb7lD\x8e>'
p713
tp714
Rp715
sS'coets_1705_v1_1_0539'
p716
g2
(g6
S'\x14Q6\x1a\x1d\x84\x9e>'
p717
tp718
Rp719
sS'coets_1705_v1_1_0538'
p720
g2
(g6
S'\x14Q6\x1a\x1d\x84\x8e>'
p721
tp722
Rp723
sS'coets_1705_v1_1_0469'
p724
g2
(g6
S'\xcf\xbc\xa8\xd3\x15\xe3\x96>'
p725
tp726
Rp727
sS'coets_1705_v1_1_0468'
p728
g2
(g6
S'\x14Q6\x1a\x1d\x84~>'
p729
tp730
Rp731
sS'coets_1705_v1_1_0467'
p732
g2
(g6
S'\xcf\xbc\xa8\xd3\x15\xe3\xa6>'
p733
tp734
Rp735
sS'coets_1705_v1_1_0466'
p736
g2
(g6
S'\x14Q6\x1a\x1d\x84~>'
p737
tp738
Rp739
sS'coets_1705_v1_1_0465'
p740
g2
(g6
S'\x14Q6\x1a\x1d\x84~>'
p741
tp742
Rp743
sS'coets_1705_v1_1_0464'
p744
g2
(g6
S'\x14Q6\x1a\x1d\x84\x9e>'
p745
tp746
Rp747
sS'coets_1705_v1_1_0463'
p748
g2
(g6
S'\xcf\xbc\xa8\xd3\x15\xe3\x96>'
p749
tp750
Rp751
sS'coets_1705_v1_1_0462'
p752
g2
(g6
S'\x14Q6\x1a\x1d\x84\x9e>'
p753
tp754
Rp755
sS'coets_1705_v1_1_0461'
p756
g2
(g6
S'\x14Q6\x1a\x1d\x84~>'
p757
tp758
Rp759
sS'coets_1705_v1_1_0460'
p760
g2
(g6
S'\x14Q6\x1a\x1d\x84\x8e>'
p761
tp762
Rp763
sS'coets_1705_v1_1_0218'
p764
g2
(g6
S'\xb4\xdf\x82\xbf\x04\x1b\x9e>'
p765
tp766
Rp767
sS'coets_1705_v1_1_0219'
p768
g2
(g6
S'\xb4\xdf\x82\xbf\x04\x1b\x8e>'
p769
tp770
Rp771
sS'coets_1705_v1_1_0214'
p772
g2
(g6
S'\xb4\xdf\x82\xbf\x04\x1b\x9e>'
p773
tp774
Rp775
sS'coets_1705_v1_1_0215'
p776
g2
(g6
S'\xb4\xdf\x82\xbf\x04\x1b\x9e>'
p777
tp778
Rp779
sS'coets_1705_v1_1_0216'
p780
g2
(g6
S'\xb4\xdf\x82\xbf\x04\x1b\x8e>'
p781
tp782
Rp783
sS'coets_1705_v1_1_0217'
p784
g2
(g6
S"\xc8'\xa2\x8fC\x94\x96>"
p785
tp786
Rp787
sS'coets_1705_v1_1_0210'
p788
g2
(g6
S'\xb4\xdf\x82\xbf\x04\x1b\x8e>'
p789
tp790
Rp791
sS'coets_1705_v1_1_0211'
p792
g2
(g6
S'\xb4\xdf\x82\xbf\x04\x1b\x8e>'
p793
tp794
Rp795
sS'coets_1705_v1_1_0212'
p796
g2
(g6
S'\xb4\xdf\x82\xbf\x04\x1b\x8e>'
p797
tp798
Rp799
sS'coets_1705_v1_1_0213'
p800
g2
(g6
S'\xb4\xdf\x82\xbf\x04\x1b\x9e>'
p801
tp802
Rp803
sS'coets_1705_v1_1_0269'
p804
g2
(g6
S'\xb4\xdf\x82\xbf\x04\x1b\x9e>'
p805
tp806
Rp807
sS'coets_1705_v1_1_0268'
p808
g2
(g6
S"\xc7'\xa2\x8fC\x94\x96>"
p809
tp810
Rp811
sS'coets_1705_v1_1_0502'
p812
g2
(g6
S'\x14Q6\x1a\x1d\x84\x9e>'
p813
tp814
Rp815
sS'coets_1705_v1_1_0503'
p816
g2
(g6
S'\x14Q6\x1a\x1d\x84\x9e>'
p817
tp818
Rp819
sS'coets_1705_v1_1_0504'
p820
g2
(g6
S'\xcf\xbc\xa8\xd3\x15\xe3\x96>'
p821
tp822
Rp823
sS'coets_1705_v1_1_0505'
p824
g2
(g6
S'\xcf\xbc\xa8\xd3\x15\xe3\x96>'
p825
tp826
Rp827
sS'coets_1705_v1_1_0506'
p828
g2
(g6
S'\x14Q6\x1a\x1d\x84\x9e>'
p829
tp830
Rp831
sS'coets_1705_v1_1_0507'
p832
g2
(g6
S'\x14Q6\x1a\x1d\x84\x8e>'
p833
tp834
Rp835
sS'coets_1705_v1_1_0261'
p836
g2
(g6
S'\xb4\xdf\x82\xbf\x04\x1b~>'
p837
tp838
Rp839
sS'coets_1705_v1_1_0260'
p840
g2
(g6
S'\xb4\xdf\x82\xbf\x04\x1b\x9e>'
p841
tp842
Rp843
sS'coets_1705_v1_1_0263'
p844
g2
(g6
S'^\xab\xda\xc0-O~>'
p845
tp846
Rp847
sS'coets_1705_v1_1_0262'
p848
g2
(g6
S'\xb4\xdf\x82\xbf\x04\x1b\x9e>'
p849
tp850
Rp851
sS'coets_1705_v1_1_0265'
p852
g2
(g6
S'^\xab\xda\xc0-O~>'
p853
tp854
Rp855
sS'coets_1705_v1_1_0264'
p856
g2
(g6
S'\xb4\xdf\x82\xbf\x04\x1b~>'
p857
tp858
Rp859
sS'coets_1705_v1_1_0267'
p860
g2
(g6
S'\xb4\xdf\x82\xbf\x04\x1b\x9e>'
p861
tp862
Rp863
sS'coets_1705_v1_1_0266'
p864
g2
(g6
S'\xb4\xdf\x82\xbf\x04\x1b\x8e>'
p865
tp866
Rp867
sS'coets_1705_v1_1_0287'
p868
g2
(g6
S'\x81\t9*>\x8c~>'
p869
tp870
Rp871
sS'coets_1705_v1_1_0286'
p872
g2
(g6
S',\t\xf4G\xfbt\x9e>'
p873
tp874
Rp875
sS'coets_1705_v1_1_0285'
p876
g2
(g6
S'\xe1\x06\xf7u\xbc\xd7\x96>'
p877
tp878
Rp879
sS'coets_1705_v1_1_0284'
p880
g2
(g6
S',\t\xf4G\xfbt\x8e>'
p881
tp882
Rp883
sS'coets_1705_v1_1_0283'
p884
g2
(g6
S',\t\xf4G\xfbt~>'
p885
tp886
Rp887
sS'coets_1705_v1_1_0282'
p888
g2
(g6
S',\t\xf4G\xfbt\x9e>'
p889
tp890
Rp891
sS'coets_1705_v1_1_0281'
p892
g2
(g6
S',\t\xf4G\xfbt\x9e>'
p893
tp894
Rp895
sS'coets_1705_v1_1_0280'
p896
g2
(g6
S',\t\xf4G\xfbt~>'
p897
tp898
Rp899
sS'coets_1705_v1_1_0320'
p900
g2
(g6
S',\t\xf4G\xfbt\x9e>'
p901
tp902
Rp903
sS'coets_1705_v1_1_0321'
p904
g2
(g6
S'\x81\t9*>\x8c\x9e>'
p905
tp906
Rp907
sS'coets_1705_v1_1_0322'
p908
g2
(g6
S',\t\xf4G\xfbt~>'
p909
tp910
Rp911
sS'coets_1705_v1_1_0323'
p912
g2
(g6
S',\t\xf4G\xfbt~>'
p913
tp914
Rp915
sS'coets_1705_v1_1_0324'
p916
g2
(g6
S',\t\xf4G\xfbt\x8e>'
p917
tp918
Rp919
sS'coets_1705_v1_1_0325'
p920
g2
(g6
S',\t\xf4G\xfbt~>'
p921
tp922
Rp923
sS'coets_1705_v1_1_0326'
p924
g2
(g6
S',\t\xf4G\xfbt~>'
p925
tp926
Rp927
sS'coets_1705_v1_1_0288'
p928
g2
(g6
S'\xc2\xe58e\xbe\xdd\xb8>'
p929
tp930
Rp931
sS'coets_1705_v1_1_0041'
p932
g2
(g6
S'\x8d\xd5\x1d\xb1\x7fL\x9e>'
p933
tp934
Rp935
sS'coets_1705_v1_1_0040'
p936
g2
(g6
S'\x8d\xd5\x1d\xb1\x7fL\x8e>'
p937
tp938
Rp939
sS'coets_1705_v1_1_0043'
p940
g2
(g6
S'\x8d\xd5\x1d\xb1\x7fL\x8e>'
p941
tp942
Rp943
sS'coets_1705_v1_1_0042'
p944
g2
(g6
S'*`\xd6\xc4_\xb9\x96>'
p945
tp946
Rp947
sS'coets_1705_v1_1_0045'
p948
g2
(g6
S'\x8d\xd5\x1d\xb1\x7fL~>'
p949
tp950
Rp951
sS'coets_1705_v1_1_0044'
p952
g2
(g6
S'\x8d\xd5\x1d\xb1\x7fL\x9e>'
p953
tp954
Rp955
sS'coets_1705_v1_1_0047'
p956
g2
(g6
S'\x8d\xd5\x1d\xb1\x7fL\x9e>'
p957
tp958
Rp959
sS'coets_1705_v1_1_0046'
p960
g2
(g6
S'\x8d\xd5\x1d\xb1\x7fL\x8e>'
p961
tp962
Rp963
sS'coets_1705_v1_1_0049'
p964
g2
(g6
S'\x8d\xd5\x1d\xb1\x7fL\x8e>'
p965
tp966
Rp967
sS'coets_1705_v1_1_0048'
p968
g2
(g6
S'\x8d\xd5\x1d\xb1\x7fL~>'
p969
tp970
Rp971
sS'coets_1705_v1_1_0034'
p972
g2
(g6
S'\x8d\xd5\x1d\xb1\x7fL\x9e>'
p973
tp974
Rp975
sS'coets_1705_v1_1_0035'
p976
g2
(g6
S'\x8d\xd5\x1d\xb1\x7fL\x9e>'
p977
tp978
Rp979
sS'coets_1705_v1_1_0036'
p980
g2
(g6
S'\x8d\xd5\x1d\xb1\x7fL\x9e>'
p981
tp982
Rp983
sS'coets_1705_v1_1_0037'
p984
g2
(g6
S'\x8d\xd5\x1d\xb1\x7fL\x8e>'
p985
tp986
Rp987
sS'coets_1705_v1_1_0139'
p988
g2
(g6
S'C\xa1\xb6\xb7lD\x8e>'
p989
tp990
Rp991
sS'coets_1705_v1_1_0138'
p992
g2
(g6
S'I\x11\xee\xcd\xc3\r\x8e>'
p993
tp994
Rp995
sS'coets_1705_v1_1_0032'
p996
g2
(g6
S'\xc2\xe58e\xbe\xdd\xb8>'
p997
tp998
Rp999
sS'coets_1705_v1_1_0033'
p1000
g2
(g6
S'\x8d\xd5\x1d\xb1\x7fL~>'
p1001
tp1002
Rp1003
sS'coets_1705_v1_1_0135'
p1004
g2
(g6
S'I\x11\xee\xcd\xc3\r\x8e>'
p1005
tp1006
Rp1007
sS'coets_1705_v1_1_0134'
p1008
g2
(g6
S'I\x11\xee\xcd\xc3\r~>'
p1009
tp1010
Rp1011
sS'coets_1705_v1_1_0137'
p1012
g2
(g6
S'I\x11\xee\xcd\xc3\r\x9e>'
p1013
tp1014
Rp1015
sS'coets_1705_v1_1_0136'
p1016
g2
(g6
S'I\x11\xee\xcd\xc3\r\x8e>'
p1017
tp1018
Rp1019
sS'coets_1705_v1_1_0131'
p1020
g2
(g6
S'I\x11\xee\xcd\xc3\r~>'
p1021
tp1022
Rp1023
sS'coets_1705_v1_1_0130'
p1024
g2
(g6
S'I\x11\xee\xcd\xc3\r~>'
p1025
tp1026
Rp1027
sS'coets_1705_v1_1_0133'
p1028
g2
(g6
S'I\x11\xee\xcd\xc3\r\x8e>'
p1029
tp1030
Rp1031
sS'coets_1705_v1_1_0132'
p1032
g2
(g6
S'I\x11\xee\xcd\xc3\r\x9e>'
p1033
tp1034
Rp1035
sS'coets_1705_v1_1_0391'
p1036
g2
(g6
S'\xeb&\x02\x10?\x8b\xa6>'
p1037
tp1038
Rp1039
sS'coets_1705_v1_1_0390'
p1040
g2
(g6
S'\x8f\xde\x02\xc0\xfe\x0e~>'
p1041
tp1042
Rp1043
sS'coets_1705_v1_1_0148'
p1044
g2
(g6
S'I\x11\xee\xcd\xc3\r\x8e>'
p1045
tp1046
Rp1047
sS'coets_1705_v1_1_0149'
p1048
g2
(g6
S'I\x11\xee\xcd\xc3\r~>'
p1049
tp1050
Rp1051
sS'coets_1705_v1_1_0500'
p1052
g2
(g6
S'\x14Q6\x1a\x1d\x84~>'
p1053
tp1054
Rp1055
sS'coets_1705_v1_1_0501'
p1056
g2
(g6
S'\x14Q6\x1a\x1d\x84\x9e>'
p1057
tp1058
Rp1059
sS'coets_1705_v1_1_0496'
p1060
g2
(g6
S'\x14Q6\x1a\x1d\x84\x8e>'
p1061
tp1062
Rp1063
sS'coets_1705_v1_1_0497'
p1064
g2
(g6
S'\x14Q6\x1a\x1d\x84\x8e>'
p1065
tp1066
Rp1067
sS'coets_1705_v1_1_0494'
p1068
g2
(g6
S'\x14Q6\x1a\x1d\x84~>'
p1069
tp1070
Rp1071
sS'coets_1705_v1_1_0495'
p1072
g2
(g6
S'\x14Q6\x1a\x1d\x84\x8e>'
p1073
tp1074
Rp1075
sS'coets_1705_v1_1_0492'
p1076
g2
(g6
S'\xcf\xbc\xa8\xd3\x15\xe3\xa6>'
p1077
tp1078
Rp1079
sS'coets_1705_v1_1_0146'
p1080
g2
(g6
S'I\x11\xee\xcd\xc3\r~>'
p1081
tp1082
Rp1083
sS'coets_1705_v1_1_0490'
p1084
g2
(g6
S'\x14Q6\x1a\x1d\x84~>'
p1085
tp1086
Rp1087
sS'coets_1705_v1_1_0491'
p1088
g2
(g6
S'\x14Q6\x1a\x1d\x84\x8e>'
p1089
tp1090
Rp1091
sS'coets_1705_v1_1_0147'
p1092
g2
(g6
S'I\x11\xee\xcd\xc3\r\x8e>'
p1093
tp1094
Rp1095
sS'coets_1705_v1_1_0498'
p1096
g2
(g6
S'\x14Q6\x1a\x1d\x84\x8e>'
p1097
tp1098
Rp1099
sS'coets_1705_v1_1_0499'
p1100
g2
(g6
S'\x14Q6\x1a\x1d\x84\x9e>'
p1101
tp1102
Rp1103
sS'coets_1705_v1_1_0423'
p1104
g2
(g6
S'\x8f\xde\x02\xc0\xfe\x0e\x9e>'
p1105
tp1106
Rp1107
sS'coets_1705_v1_1_0422'
p1108
g2
(g6
S'\x8f\xde\x02\xc0\xfe\x0e\x8e>'
p1109
tp1110
Rp1111
sS'coets_1705_v1_1_0421'
p1112
g2
(g6
S'\x8f\xde\x02\xc0\xfe\x0e\x9e>'
p1113
tp1114
Rp1115
sS'coets_1705_v1_1_0420'
p1116
g2
(g6
S'\x8f\xde\x02\xc0\xfe\x0e\x9e>'
p1117
tp1118
Rp1119
sS'coets_1705_v1_1_0427'
p1120
g2
(g6
S'\x8f\xde\x02\xc0\xfe\x0e\x8e>'
p1121
tp1122
Rp1123
sS'coets_1705_v1_1_0426'
p1124
g2
(g6
S'\xeb&\x02\x10?\x8b\xa6>'
p1125
tp1126
Rp1127
sS'coets_1705_v1_1_0425'
p1128
g2
(g6
S'\x8f\xde\x02\xc0\xfe\x0e\x9e>'
p1129
tp1130
Rp1131
sS'coets_1705_v1_1_0424'
p1132
g2
(g6
S'\x8f\xde\x02\xc0\xfe\x0e\x9e>'
p1133
tp1134
Rp1135
sS'coets_1705_v1_1_0429'
p1136
g2
(g6
S'\x8f\xde\x02\xc0\xfe\x0e\x8e>'
p1137
tp1138
Rp1139
sS'coets_1705_v1_1_0428'
p1140
g2
(g6
S'\x8f\xde\x02\xc0\xfe\x0e\x9e>'
p1141
tp1142
Rp1143
sS'coets_1705_v1_1_0508'
p1144
g2
(g6
S'\x14Q6\x1a\x1d\x84~>'
p1145
tp1146
Rp1147
sS'coets_1705_v1_1_0509'
p1148
g2
(g6
S'\x14Q6\x1a\x1d\x84\x9e>'
p1149
tp1150
Rp1151
sS'coets_1705_v1_1_0377'
p1152
g2
(g6
S'\x8f\xde\x02\xc0\xfe\x0e\x8e>'
p1153
tp1154
Rp1155
sS'coets_1705_v1_1_0376'
p1156
g2
(g6
S'\x8f\xde\x02\xc0\xfe\x0e\x8e>'
p1157
tp1158
Rp1159
sS'coets_1705_v1_1_0250'
p1160
g2
(g6
S'\xb4\xdf\x82\xbf\x04\x1b\x8e>'
p1161
tp1162
Rp1163
sS'coets_1705_v1_1_0251'
p1164
g2
(g6
S'\xb4\xdf\x82\xbf\x04\x1b~>'
p1165
tp1166
Rp1167
sS'coets_1705_v1_1_0252'
p1168
g2
(g6
S'\xb4\xdf\x82\xbf\x04\x1b~>'
p1169
tp1170
Rp1171
sS'coets_1705_v1_1_0253'
p1172
g2
(g6
S'\xb4\xdf\x82\xbf\x04\x1b\x8e>'
p1173
tp1174
Rp1175
sS'coets_1705_v1_1_0254'
p1176
g2
(g6
S'\xb4\xdf\x82\xbf\x04\x1b\x8e>'
p1177
tp1178
Rp1179
sS'coets_1705_v1_1_0255'
p1180
g2
(g6
S'\xb4\xdf\x82\xbf\x04\x1b\x8e>'
p1181
tp1182
Rp1183
sS'coets_1705_v1_1_0256'
p1184
g2
(g6
S'\xb4\xdf\x82\xbf\x04\x1b~>'
p1185
tp1186
Rp1187
sS'coets_1705_v1_1_0257'
p1188
g2
(g6
S'\xb4\xdf\x82\xbf\x04\x1b\x8e>'
p1189
tp1190
Rp1191
sS'coets_1705_v1_1_0258'
p1192
g2
(g6
S'\xb4\xdf\x82\xbf\x04\x1b~>'
p1193
tp1194
Rp1195
sS'coets_1705_v1_1_0259'
p1196
g2
(g6
S'\xb4\xdf\x82\xbf\x04\x1b\x8e>'
p1197
tp1198
Rp1199
sS'coets_1705_v1_1_0393'
p1200
g2
(g6
S'\x8f\xde\x02\xc0\xfe\x0e\x9e>'
p1201
tp1202
Rp1203
sS'coets_1705_v1_1_0392'
p1204
g2
(g6
S'\x8f\xde\x02\xc0\xfe\x0e\x8e>'
p1205
tp1206
Rp1207
sS'coets_1705_v1_1_0395'
p1208
g2
(g6
S'\x8f\xde\x02\xc0\xfe\x0e\x9e>'
p1209
tp1210
Rp1211
sS'coets_1705_v1_1_0394'
p1212
g2
(g6
S'\x8f\xde\x02\xc0\xfe\x0e\x8e>'
p1213
tp1214
Rp1215
sS'coets_1705_v1_1_0397'
p1216
g2
(g6
S'\x8f\xde\x02\xc0\xfe\x0e\x8e>'
p1217
tp1218
Rp1219
sS'coets_1705_v1_1_0396'
p1220
g2
(g6
S'\x8f\xde\x02\xc0\xfe\x0e\x8e>'
p1221
tp1222
Rp1223
sS'coets_1705_v1_1_0078'
p1224
g2
(g6
S'\x8d\xd5\x1d\xb1\x7fL\x9e>'
p1225
tp1226
Rp1227
sS'coets_1705_v1_1_0079'
p1228
g2
(g6
S'\x8d\xd5\x1d\xb1\x7fL\x9e>'
p1229
tp1230
Rp1231
sS'coets_1705_v1_1_0375'
p1232
g2
(g6
S'\xec&\x02\x10?\x8b\x96>'
p1233
tp1234
Rp1235
sS'coets_1705_v1_1_0374'
p1236
g2
(g6
S'\x8f\xde\x02\xc0\xfe\x0e\x8e>'
p1237
tp1238
Rp1239
sS'coets_1705_v1_1_0373'
p1240
g2
(g6
S'\x8f\xde\x02\xc0\xfe\x0e\x8e>'
p1241
tp1242
Rp1243
sS'coets_1705_v1_1_0372'
p1244
g2
(g6
S'\x8f\xde\x02\xc0\xfe\x0e~>'
p1245
tp1246
Rp1247
sS'coets_1705_v1_1_0371'
p1248
g2
(g6
S'\x8f\xde\x02\xc0\xfe\x0e~>'
p1249
tp1250
Rp1251
sS'coets_1705_v1_1_0370'
p1252
g2
(g6
S'\x8f\xde\x02\xc0\xfe\x0e\x8e>'
p1253
tp1254
Rp1255
sS'coets_1705_v1_1_0070'
p1256
g2
(g6
S'*`\xd6\xc4_\xb9\x96>'
p1257
tp1258
Rp1259
sS'coets_1705_v1_1_0071'
p1260
g2
(g6
S'\x8d\xd5\x1d\xb1\x7fL\x9e>'
p1261
tp1262
Rp1263
sS'coets_1705_v1_1_0072'
p1264
g2
(g6
S'\x8d\xd5\x1d\xb1\x7fL\x8e>'
p1265
tp1266
Rp1267
sS'coets_1705_v1_1_0073'
p1268
g2
(g6
S'\x87\xe1<1"f\x8e>'
p1269
tp1270
Rp1271
sS'coets_1705_v1_1_0074'
p1272
g2
(g6
S'\x8d\xd5\x1d\xb1\x7fL~>'
p1273
tp1274
Rp1275
sS'coets_1705_v1_1_0075'
p1276
g2
(g6
S'\x87\xe1<1"f\x8e>'
p1277
tp1278
Rp1279
sS'coets_1705_v1_1_0076'
p1280
g2
(g6
S'\x8d\xd5\x1d\xb1\x7fL~>'
p1281
tp1282
Rp1283
sS'coets_1705_v1_1_0077'
p1284
g2
(g6
S'\x8d\xd5\x1d\xb1\x7fL\x8e>'
p1285
tp1286
Rp1287
sS'coets_1705_v1_1_0171'
p1288
g2
(g6
S'I\x11\xee\xcd\xc3\r\x8e>'
p1289
tp1290
Rp1291
sS'coets_1705_v1_1_0170'
p1292
g2
(g6
S'I\x11\xee\xcd\xc3\r~>'
p1293
tp1294
Rp1295
sS'coets_1705_v1_1_0173'
p1296
g2
(g6
S'C\xa1\xb6\xb7lD\x8e>'
p1297
tp1298
Rp1299
sS'coets_1705_v1_1_0172'
p1300
g2
(g6
S'I\x11\xee\xcd\xc3\r~>'
p1301
tp1302
Rp1303
sS'coets_1705_v1_1_0175'
p1304
g2
(g6
S'C\xa1\xb6\xb7lD~>'
p1305
tp1306
Rp1307
sS'coets_1705_v1_1_0174'
p1308
g2
(g6
S'I\x11\xee\xcd\xc3\r\x8e>'
p1309
tp1310
Rp1311
sS'coets_1705_v1_1_0177'
p1312
g2
(g6
S'\xf8\x8cr\xdaR\x8a\x96>'
p1313
tp1314
Rp1315
sS'coets_1705_v1_1_0176'
p1316
g2
(g6
S'I\x11\xee\xcd\xc3\r\x8e>'
p1317
tp1318
Rp1319
sS'coets_1705_v1_1_0179'
p1320
g2
(g6
S'I\x11\xee\xcd\xc3\r\x9e>'
p1321
tp1322
Rp1323
sS'coets_1705_v1_1_0178'
p1324
g2
(g6
S'\xf8\x8cr\xdaR\x8a\x96>'
p1325
tp1326
Rp1327
sS'coets_1705_v1_1_0378'
p1328
g2
(g6
S'\xeb&\x02\x10?\x8b\x96>'
p1329
tp1330
Rp1331
sS'coets_1705_v1_1_0085'
p1332
g2
(g6
S'\x8d\xd5\x1d\xb1\x7fL~>'
p1333
tp1334
Rp1335
sS'coets_1705_v1_1_0084'
p1336
g2
(g6
S'\x8d\xd5\x1d\xb1\x7fL~>'
p1337
tp1338
Rp1339
sS'coets_1705_v1_1_0087'
p1340
g2
(g6
S'\x8d\xd5\x1d\xb1\x7fL\x8e>'
p1341
tp1342
Rp1343
sS'coets_1705_v1_1_0086'
p1344
g2
(g6
S'\x87\xe1<1"f~>'
p1345
tp1346
Rp1347
sS'coets_1705_v1_1_0081'
p1348
g2
(g6
S'\x8d\xd5\x1d\xb1\x7fL\x8e>'
p1349
tp1350
Rp1351
sS'coets_1705_v1_1_0080'
p1352
g2
(g6
S'\x8d\xd5\x1d\xb1\x7fL~>'
p1353
tp1354
Rp1355
sS'coets_1705_v1_1_0083'
p1356
g2
(g6
S'\x87\xe1<1"f~>'
p1357
tp1358
Rp1359
sS'coets_1705_v1_1_0082'
p1360
g2
(g6
S'\x8d\xd5\x1d\xb1\x7fL~>'
p1361
tp1362
Rp1363
sS'coets_1705_v1_1_0089'
p1364
g2
(g6
S'I\x11\xee\xcd\xc3\r\x9e>'
p1365
tp1366
Rp1367
sS'coets_1705_v1_1_0088'
p1368
g2
(g6
S'\x87\xe1<1"f\x8e>'
p1369
tp1370
Rp1371
sS'coets_1705_v1_1_0531'
p1372
g2
(g6
S'\xc2\xe58e\xbe\xdd\xb8>'
p1373
tp1374
Rp1375
sS'coets_1705_v1_1_0530'
p1376
g2
(g6
S'\x14Q6\x1a\x1d\x84\x8e>'
p1377
tp1378
Rp1379
sS'coets_1705_v1_1_0104'
p1380
g2
(g6
S'I\x11\xee\xcd\xc3\r~>'
p1381
tp1382
Rp1383
sS'coets_1705_v1_1_0105'
p1384
g2
(g6
S'C\xa1\xb6\xb7lD\x9e>'
p1385
tp1386
Rp1387
sS'coets_1705_v1_1_0106'
p1388
g2
(g6
S'C\xa1\xb6\xb7lD\x8e>'
p1389
tp1390
Rp1391
sS'coets_1705_v1_1_0107'
p1392
g2
(g6
S'I\x11\xee\xcd\xc3\r\x8e>'
p1393
tp1394
Rp1395
sS'coets_1705_v1_1_0100'
p1396
g2
(g6
S'\xf8\x8cr\xdaR\x8a\x96>'
p1397
tp1398
Rp1399
sS'coets_1705_v1_1_0101'
p1400
g2
(g6
S'I\x11\xee\xcd\xc3\r\x9e>'
p1401
tp1402
Rp1403
sS'coets_1705_v1_1_0102'
p1404
g2
(g6
S'I\x11\xee\xcd\xc3\r\x9e>'
p1405
tp1406
Rp1407
sS'coets_1705_v1_1_0103'
p1408
g2
(g6
S'I\x11\xee\xcd\xc3\r~>'
p1409
tp1410
Rp1411
sS'coets_1705_v1_1_0108'
p1412
g2
(g6
S'I\x11\xee\xcd\xc3\r\x8e>'
p1413
tp1414
Rp1415
sS'coets_1705_v1_1_0109'
p1416
g2
(g6
S'\xf7\x8cr\xdaR\x8a\x96>'
p1417
tp1418
Rp1419
sS'coets_1705_v1_1_0458'
p1420
g2
(g6
S'\x14Q6\x1a\x1d\x84\x9e>'
p1421
tp1422
Rp1423
sS'coets_1705_v1_1_0459'
p1424
g2
(g6
S'\x14Q6\x1a\x1d\x84\x8e>'
p1425
tp1426
Rp1427
sS'coets_1705_v1_1_0289'
p1428
g2
(g6
S',\t\xf4G\xfbt\x9e>'
p1429
tp1430
Rp1431
sS'coets_1705_v1_1_0452'
p1432
g2
(g6
S'\x8f\xde\x02\xc0\xfe\x0e\x9e>'
p1433
tp1434
Rp1435
sS'coets_1705_v1_1_0453'
p1436
g2
(g6
S'\x8f\xde\x02\xc0\xfe\x0e~>'
p1437
tp1438
Rp1439
sS'coets_1705_v1_1_0450'
p1440
g2
(g6
S'\x8f\xde\x02\xc0\xfe\x0e\x8e>'
p1441
tp1442
Rp1443
sS'coets_1705_v1_1_0327'
p1444
g2
(g6
S',\t\xf4G\xfbt\x9e>'
p1445
tp1446
Rp1447
sS'coets_1705_v1_1_0456'
p1448
g2
(g6
S'\x14Q6\x1a\x1d\x84\x9e>'
p1449
tp1450
Rp1451
sS'coets_1705_v1_1_0457'
p1452
g2
(g6
S'\x14Q6\x1a\x1d\x84\x8e>'
p1453
tp1454
Rp1455
sS'coets_1705_v1_1_0454'
p1456
g2
(g6
S'\xeb&\x02\x10?\x8b\x96>'
p1457
tp1458
Rp1459
sS'coets_1705_v1_1_0455'
p1460
g2
(g6
S'\x8f\xde\x02\xc0\xfe\x0e\x8e>'
p1461
tp1462
Rp1463
sS'coets_1705_v1_1_0209'
p1464
g2
(g6
S'\xb4\xdf\x82\xbf\x04\x1b~>'
p1465
tp1466
Rp1467
sS'coets_1705_v1_1_0208'
p1468
g2
(g6
S'\xc2\xe58e\xbe\xdd\xb8>'
p1469
tp1470
Rp1471
sS'coets_1705_v1_1_0207'
p1472
g2
(g6
S'\xb4\xdf\x82\xbf\x04\x1b\x9e>'
p1473
tp1474
Rp1475
sS'coets_1705_v1_1_0206'
p1476
g2
(g6
S'\xc2\xe58e\xbe\xdd\xb8>'
p1477
tp1478
Rp1479
sS'coets_1705_v1_1_0205'
p1480
g2
(g6
S'\xb4\xdf\x82\xbf\x04\x1b\x8e>'
p1481
tp1482
Rp1483
sS'coets_1705_v1_1_0204'
p1484
g2
(g6
S'\xb4\xdf\x82\xbf\x04\x1b~>'
p1485
tp1486
Rp1487
sS'coets_1705_v1_1_0203'
p1488
g2
(g6
S'\xb4\xdf\x82\xbf\x04\x1b\x9e>'
p1489
tp1490
Rp1491
sS'coets_1705_v1_1_0202'
p1492
g2
(g6
S'\xb4\xdf\x82\xbf\x04\x1b~>'
p1493
tp1494
Rp1495
sS'coets_1705_v1_1_0201'
p1496
g2
(g6
S'\xb4\xdf\x82\xbf\x04\x1b\x8e>'
p1497
tp1498
Rp1499
sS'coets_1705_v1_1_0200'
p1500
g2
(g6
S"\xc8'\xa2\x8fC\x94\x96>"
p1501
tp1502
Rp1503
sS'coets_1705_v1_1_0513'
p1504
g2
(g6
S'\xcf\xbc\xa8\xd3\x15\xe3\x96>'
p1505
tp1506
Rp1507
sS'coets_1705_v1_1_0512'
p1508
g2
(g6
S'_\xaa\\p\xe0\x95\x9e>'
p1509
tp1510
Rp1511
sS'coets_1705_v1_1_0511'
p1512
g2
(g6
S'\x14Q6\x1a\x1d\x84~>'
p1513
tp1514
Rp1515
sS'coets_1705_v1_1_0510'
p1516
g2
(g6
S'\x14Q6\x1a\x1d\x84\x9e>'
p1517
tp1518
Rp1519
sS'coets_1705_v1_1_0517'
p1520
g2
(g6
S'\x14Q6\x1a\x1d\x84\x9e>'
p1521
tp1522
Rp1523
sS'coets_1705_v1_1_0516'
p1524
g2
(g6
S'\x14Q6\x1a\x1d\x84\x9e>'
p1525
tp1526
Rp1527
sS'coets_1705_v1_1_0515'
p1528
g2
(g6
S'\x14Q6\x1a\x1d\x84~>'
p1529
tp1530
Rp1531
sS'coets_1705_v1_1_0514'
p1532
g2
(g6
S'\x14Q6\x1a\x1d\x84\x8e>'
p1533
tp1534
Rp1535
sS'coets_1705_v1_1_0519'
p1536
g2
(g6
S'\x14Q6\x1a\x1d\x84\x8e>'
p1537
tp1538
Rp1539
sS'coets_1705_v1_1_0518'
p1540
g2
(g6
S'\x14Q6\x1a\x1d\x84~>'
p1541
tp1542
Rp1543
sS'coets_1705_v1_1_0339'
p1544
g2
(g6
S',\t\xf4G\xfbt\x9e>'
p1545
tp1546
Rp1547
sS'coets_1705_v1_1_0338'
p1548
g2
(g6
S',\t\xf4G\xfbt~>'
p1549
tp1550
Rp1551
sS'coets_1705_v1_1_0333'
p1552
g2
(g6
S',\t\xf4G\xfbt~>'
p1553
tp1554
Rp1555
sS'coets_1705_v1_1_0332'
p1556
g2
(g6
S',\t\xf4G\xfbt\x9e>'
p1557
tp1558
Rp1559
sS'coets_1705_v1_1_0331'
p1560
g2
(g6
S',\t\xf4G\xfbt\x9e>'
p1561
tp1562
Rp1563
sS'coets_1705_v1_1_0330'
p1564
g2
(g6
S',\t\xf4G\xfbt\x9e>'
p1565
tp1566
Rp1567
sS'coets_1705_v1_1_0337'
p1568
g2
(g6
S',\t\xf4G\xfbt\x9e>'
p1569
tp1570
Rp1571
sS'coets_1705_v1_1_0336'
p1572
g2
(g6
S',\t\xf4G\xfbt~>'
p1573
tp1574
Rp1575
sS'coets_1705_v1_1_0335'
p1576
g2
(g6
S',\t\xf4G\xfbt\x9e>'
p1577
tp1578
Rp1579
sS'coets_1705_v1_1_0334'
p1580
g2
(g6
S',\t\xf4G\xfbt\x9e>'
p1581
tp1582
Rp1583
sS'coets_1705_v1_1_0313'
p1584
g2
(g6
S',\t\xf4G\xfbt\x9e>'
p1585
tp1586
Rp1587
sS'coets_1705_v1_1_0312'
p1588
g2
(g6
S',\t\xf4G\xfbt\x8e>'
p1589
tp1590
Rp1591
sS'coets_1705_v1_1_0027'
p1592
g2
(g6
S'\x8d\xd5\x1d\xb1\x7fL~>'
p1593
tp1594
Rp1595
sS'coets_1705_v1_1_0026'
p1596
g2
(g6
S'\x8d\xd5\x1d\xb1\x7fL\x8e>'
p1597
tp1598
Rp1599
sS'coets_1705_v1_1_0025'
p1600
g2
(g6
S'\x8d\xd5\x1d\xb1\x7fL~>'
p1601
tp1602
Rp1603
sS'coets_1705_v1_1_0024'
p1604
g2
(g6
S'*`\xd6\xc4_\xb9\x96>'
p1605
tp1606
Rp1607
sS'coets_1705_v1_1_0023'
p1608
g2
(g6
S'\x8d\xd5\x1d\xb1\x7fL\x8e>'
p1609
tp1610
Rp1611
sS'coets_1705_v1_1_0022'
p1612
g2
(g6
S'\x8d\xd5\x1d\xb1\x7fL\x8e>'
p1613
tp1614
Rp1615
sS'coets_1705_v1_1_0021'
p1616
g2
(g6
S'\x8d\xd5\x1d\xb1\x7fL\x8e>'
p1617
tp1618
Rp1619
sS'coets_1705_v1_1_0020'
p1620
g2
(g6
S'\x8d\xd5\x1d\xb1\x7fL\x9e>'
p1621
tp1622
Rp1623
sS'coets_1705_v1_1_0140'
p1624
g2
(g6
S'I\x11\xee\xcd\xc3\r~>'
p1625
tp1626
Rp1627
sS'coets_1705_v1_1_0141'
p1628
g2
(g6
S'C\xa1\xb6\xb7lD\x8e>'
p1629
tp1630
Rp1631
sS'coets_1705_v1_1_0142'
p1632
g2
(g6
S'I\x11\xee\xcd\xc3\r~>'
p1633
tp1634
Rp1635
sS'coets_1705_v1_1_0143'
p1636
g2
(g6
S'I\x11\xee\xcd\xc3\r\x9e>'
p1637
tp1638
Rp1639
sS'coets_1705_v1_1_0144'
p1640
g2
(g6
S'I\x11\xee\xcd\xc3\r\x8e>'
p1641
tp1642
Rp1643
sS'coets_1705_v1_1_0145'
p1644
g2
(g6
S'I\x11\xee\xcd\xc3\r\x8e>'
p1645
tp1646
Rp1647
sS'coets_1705_v1_1_0029'
p1648
g2
(g6
S'\x8d\xd5\x1d\xb1\x7fL\x9e>'
p1649
tp1650
Rp1651
sS'coets_1705_v1_1_0028'
p1652
g2
(g6
S'*`\xd6\xc4_\xb9\x96>'
p1653
tp1654
Rp1655
sS'coets_1705_v1_1_0319'
p1656
g2
(g6
S'\x81\t9*>\x8c\x8e>'
p1657
tp1658
Rp1659
sS'coets_1705_v1_1_0318'
p1660
g2
(g6
S',\t\xf4G\xfbt\x9e>'
p1661
tp1662
Rp1663
sS'coets_1705_v1_1_0388'
p1664
g2
(g6
S'\x8f\xde\x02\xc0\xfe\x0e\x9e>'
p1665
tp1666
Rp1667
sS'coets_1705_v1_1_0389'
p1668
g2
(g6
S'\xec&\x02\x10?\x8b\x96>'
p1669
tp1670
Rp1671
sS'coets_1705_v1_1_0382'
p1672
g2
(g6
S'\x8f\xde\x02\xc0\xfe\x0e~>'
p1673
tp1674
Rp1675
sS'coets_1705_v1_1_0383'
p1676
g2
(g6
S'\x8f\xde\x02\xc0\xfe\x0e\x9e>'
p1677
tp1678
Rp1679
sS'coets_1705_v1_1_0481'
p1680
g2
(g6
S'\x14Q6\x1a\x1d\x84\x9e>'
p1681
tp1682
Rp1683
sS'coets_1705_v1_1_0480'
p1684
g2
(g6
S'\x14Q6\x1a\x1d\x84\x9e>'
p1685
tp1686
Rp1687
sS'coets_1705_v1_1_0483'
p1688
g2
(g6
S'\xcf\xbc\xa8\xd3\x15\xe3\x96>'
p1689
tp1690
Rp1691
sS'coets_1705_v1_1_0482'
p1692
g2
(g6
S'\xcf\xbc\xa8\xd3\x15\xe3\x96>'
p1693
tp1694
Rp1695
sS'coets_1705_v1_1_0485'
p1696
g2
(g6
S'\x14Q6\x1a\x1d\x84\x8e>'
p1697
tp1698
Rp1699
sS'coets_1705_v1_1_0484'
p1700
g2
(g6
S'\x14Q6\x1a\x1d\x84~>'
p1701
tp1702
Rp1703
sS'coets_1705_v1_1_0487'
p1704
g2
(g6
S'\x14Q6\x1a\x1d\x84\x8e>'
p1705
tp1706
Rp1707
sS'coets_1705_v1_1_0486'
p1708
g2
(g6
S'\x14Q6\x1a\x1d\x84\x9e>'
p1709
tp1710
Rp1711
sS'coets_1705_v1_1_0489'
p1712
g2
(g6
S'\x14Q6\x1a\x1d\x84\x9e>'
p1713
tp1714
Rp1715
sS'coets_1705_v1_1_0030'
p1716
g2
(g6
S'%\xa9\xed\xa4\x99\xcc\x96>'
p1717
tp1718
Rp1719
sS'coets_1705_v1_1_0031'
p1720
g2
(g6
S'\x87\xe1<1"f~>'
p1721
tp1722
Rp1723
sS'coets_1705_v1_1_0418'
p1724
g2
(g6
S'\x8f\xde\x02\xc0\xfe\x0e\x8e>'
p1725
tp1726
Rp1727
sS'coets_1705_v1_1_0419'
p1728
g2
(g6
S'\x8f\xde\x02\xc0\xfe\x0e\x9e>'
p1729
tp1730
Rp1731
sS'coets_1705_v1_1_0416'
p1732
g2
(g6
S'\x8f\xde\x02\xc0\xfe\x0e\x8e>'
p1733
tp1734
Rp1735
sS'coets_1705_v1_1_0417'
p1736
g2
(g6
S'\x8f\xde\x02\xc0\xfe\x0e\x9e>'
p1737
tp1738
Rp1739
sS'coets_1705_v1_1_0414'
p1740
g2
(g6
S'\xeb&\x02\x10?\x8b\x96>'
p1741
tp1742
Rp1743
sS'coets_1705_v1_1_0415'
p1744
g2
(g6
S'\xeb&\x02\x10?\x8b\xa6>'
p1745
tp1746
Rp1747
sS'coets_1705_v1_1_0412'
p1748
g2
(g6
S'\x8f\xde\x02\xc0\xfe\x0e\x9e>'
p1749
tp1750
Rp1751
sS'coets_1705_v1_1_0413'
p1752
g2
(g6
S'\xeb&\x02\x10?\x8b\xa6>'
p1753
tp1754
Rp1755
sS'coets_1705_v1_1_0410'
p1756
g2
(g6
S'\x8f\xde\x02\xc0\xfe\x0e\x8e>'
p1757
tp1758
Rp1759
sS'coets_1705_v1_1_0411'
p1760
g2
(g6
S'\x8f\xde\x02\xc0\xfe\x0e\x9e>'
p1761
tp1762
Rp1763
sS'coets_1705_v1_1_0038'
p1764
g2
(g6
S'\x8d\xd5\x1d\xb1\x7fL~>'
p1765
tp1766
Rp1767
sS'coets_1705_v1_1_0039'
p1768
g2
(g6
S'\x8d\xd5\x1d\xb1\x7fL\x8e>'
p1769
tp1770
Rp1771
sS'coets_1705_v1_1_0243'
p1772
g2
(g6
S'^\xab\xda\xc0-O~>'
p1773
tp1774
Rp1775
sS'coets_1705_v1_1_0242'
p1776
g2
(g6
S'\xb4\xdf\x82\xbf\x04\x1b\x8e>'
p1777
tp1778
Rp1779
sS'coets_1705_v1_1_0241'
p1780
g2
(g6
S'\xb4\xdf\x82\xbf\x04\x1b~>'
p1781
tp1782
Rp1783
sS'coets_1705_v1_1_0240'
p1784
g2
(g6
S'\xb4\xdf\x82\xbf\x04\x1b\x8e>'
p1785
tp1786
Rp1787
sS'coets_1705_v1_1_0247'
p1788
g2
(g6
S'^\xab\xda\xc0-O\x8e>'
p1789
tp1790
Rp1791
sS'coets_1705_v1_1_0246'
p1792
g2
(g6
S'\xb4\xdf\x82\xbf\x04\x1b\x9e>'
p1793
tp1794
Rp1795
sS'coets_1705_v1_1_0245'
p1796
g2
(g6
S'\xb4\xdf\x82\xbf\x04\x1b~>'
p1797
tp1798
Rp1799
sS'coets_1705_v1_1_0244'
p1800
g2
(g6
S'\xb4\xdf\x82\xbf\x04\x1b\x8e>'
p1801
tp1802
Rp1803
sS'coets_1705_v1_1_0249'
p1804
g2
(g6
S'^\xab\xda\xc0-O\x9e>'
p1805
tp1806
Rp1807
sS'coets_1705_v1_1_0248'
p1808
g2
(g6
S'\xb4\xdf\x82\xbf\x04\x1b\x8e>'
p1809
tp1810
Rp1811
sS'coets_1705_v1_1_0342'
p1812
g2
(g6
S',\t\xf4G\xfbt\x8e>'
p1813
tp1814
Rp1815
sS'coets_1705_v1_1_0343'
p1816
g2
(g6
S',\t\xf4G\xfbt~>'
p1817
tp1818
Rp1819
sS'coets_1705_v1_1_0340'
p1820
g2
(g6
S',\t\xf4G\xfbt~>'
p1821
tp1822
Rp1823
sS'coets_1705_v1_1_0068'
p1824
g2
(g6
S'\x8d\xd5\x1d\xb1\x7fL\x9e>'
p1825
tp1826
Rp1827
sS'coets_1705_v1_1_0346'
p1828
g2
(g6
S',\t\xf4G\xfbt\x8e>'
p1829
tp1830
Rp1831
sS'coets_1705_v1_1_0347'
p1832
g2
(g6
S'\x81\t9*>\x8c~>'
p1833
tp1834
Rp1835
sS'coets_1705_v1_1_0344'
p1836
g2
(g6
S',\t\xf4G\xfbt\x9e>'
p1837
tp1838
Rp1839
sS'coets_1705_v1_1_0345'
p1840
g2
(g6
S',\t\xf4G\xfbt~>'
p1841
tp1842
Rp1843
sS'coets_1705_v1_1_0063'
p1844
g2
(g6
S'\x8d\xd5\x1d\xb1\x7fL~>'
p1845
tp1846
Rp1847
sS'coets_1705_v1_1_0062'
p1848
g2
(g6
S'*`\xd6\xc4_\xb9\x96>'
p1849
tp1850
Rp1851
sS'coets_1705_v1_1_0348'
p1852
g2
(g6
S',\t\xf4G\xfbt\x9e>'
p1853
tp1854
Rp1855
sS'coets_1705_v1_1_0060'
p1856
g2
(g6
S'\x8d\xd5\x1d\xb1\x7fL\x8e>'
p1857
tp1858
Rp1859
sS'coets_1705_v1_1_0067'
p1860
g2
(g6
S'*`\xd6\xc4_\xb9\xa6>'
p1861
tp1862
Rp1863
sS'coets_1705_v1_1_0066'
p1864
g2
(g6
S'\x8d\xd5\x1d\xb1\x7fL~>'
p1865
tp1866
Rp1867
sS'coets_1705_v1_1_0065'
p1868
g2
(g6
S'\x8d\xd5\x1d\xb1\x7fL\x9e>'
p1869
tp1870
Rp1871
sS'coets_1705_v1_1_0064'
p1872
g2
(g6
S'\xc2\xe58e\xbe\xdd\xb8>'
p1873
tp1874
Rp1875
sS'coets_1705_v1_1_0188'
p1876
g2
(g6
S'\xb4\xdf\x82\xbf\x04\x1b\x8e>'
p1877
tp1878
Rp1879
sS'coets_1705_v1_1_0189'
p1880
g2
(g6
S'^\xab\xda\xc0-O\x8e>'
p1881
tp1882
Rp1883
sS'coets_1705_v1_1_0184'
p1884
g2
(g6
S'\xc2\xe58e\xbe\xdd\xb8>'
p1885
tp1886
Rp1887
sS'coets_1705_v1_1_0185'
p1888
g2
(g6
S'\xb4\xdf\x82\xbf\x04\x1b~>'
p1889
tp1890
Rp1891
sS'coets_1705_v1_1_0186'
p1892
g2
(g6
S'\xb4\xdf\x82\xbf\x04\x1b~>'
p1893
tp1894
Rp1895
sS'coets_1705_v1_1_0187'
p1896
g2
(g6
S'^\xab\xda\xc0-O\x8e>'
p1897
tp1898
Rp1899
sS'coets_1705_v1_1_0180'
p1900
g2
(g6
S'\xb4\xdf\x82\xbf\x04\x1b\x8e>'
p1901
tp1902
Rp1903
sS'coets_1705_v1_1_0181'
p1904
g2
(g6
S"\xc7'\xa2\x8fC\x94\x96>"
p1905
tp1906
Rp1907
sS'coets_1705_v1_1_0182'
p1908
g2
(g6
S'\xb4\xdf\x82\xbf\x04\x1b\x8e>'
p1909
tp1910
Rp1911
sS'coets_1705_v1_1_0183'
p1912
g2
(g6
S'\xb4\xdf\x82\xbf\x04\x1b~>'
p1913
tp1914
Rp1915
sS'coets_1705_v1_1_0117'
p1916
g2
(g6
S'I\x11\xee\xcd\xc3\r~>'
p1917
tp1918
Rp1919
sS'coets_1705_v1_1_0116'
p1920
g2
(g6
S'I\x11\xee\xcd\xc3\r\x9e>'
p1921
tp1922
Rp1923
sS'coets_1705_v1_1_0115'
p1924
g2
(g6
S'I\x11\xee\xcd\xc3\r\x9e>'
p1925
tp1926
Rp1927
sS'coets_1705_v1_1_0114'
p1928
g2
(g6
S'I\x11\xee\xcd\xc3\r\x8e>'
p1929
tp1930
Rp1931
sS'coets_1705_v1_1_0113'
p1932
g2
(g6
S'I\x11\xee\xcd\xc3\r\x9e>'
p1933
tp1934
Rp1935
sS'coets_1705_v1_1_0112'
p1936
g2
(g6
S'I\x11\xee\xcd\xc3\r~>'
p1937
tp1938
Rp1939
sS'coets_1705_v1_1_0111'
p1940
g2
(g6
S'\xf7\x8cr\xdaR\x8a\xa6>'
p1941
tp1942
Rp1943
sS'coets_1705_v1_1_0110'
p1944
g2
(g6
S'I\x11\xee\xcd\xc3\r\x8e>'
p1945
tp1946
Rp1947
sS'coets_1705_v1_1_0447'
p1948
g2
(g6
S'\x8f\xde\x02\xc0\xfe\x0e~>'
p1949
tp1950
Rp1951
sS'coets_1705_v1_1_0119'
p1952
g2
(g6
S'\xf7\x8cr\xdaR\x8a\xa6>'
p1953
tp1954
Rp1955
sS'coets_1705_v1_1_0118'
p1956
g2
(g6
S'\xce\xca\xb4`\x9a\xc8\xa2>'
p1957
tp1958
Rp1959
sS'coets_1705_v1_1_0528'
p1960
g2
(g6
S'\x14Q6\x1a\x1d\x84\x8e>'
p1961
tp1962
Rp1963
sS'coets_1705_v1_1_0529'
p1964
g2
(g6
S'\x14Q6\x1a\x1d\x84\x8e>'
p1965
tp1966
Rp1967
sS'coets_1705_v1_1_0522'
p1968
g2
(g6
S'\x14Q6\x1a\x1d\x84\x9e>'
p1969
tp1970
Rp1971
sS'coets_1705_v1_1_0523'
p1972
g2
(g6
S'\x14Q6\x1a\x1d\x84~>'
p1973
tp1974
Rp1975
sS'coets_1705_v1_1_0488'
p1976
g2
(g6
S'\xcf\xbc\xa8\xd3\x15\xe3\xa6>'
p1977
tp1978
Rp1979
sS'coets_1705_v1_1_0359'
p1980
g2
(g6
S',\t\xf4G\xfbt\x9e>'
p1981
tp1982
Rp1983
sS'coets_1705_v1_1_0291'
p1984
g2
(g6
S'!\xc7\xaa\x9f.\xe9\x96>'
p1985
tp1986
Rp1987
sS'coets_1705_v1_1_0351'
p1988
g2
(g6
S',\t\xf4G\xfbt\x9e>'
p1989
tp1990
Rp1991
sS'coets_1705_v1_1_0350'
p1992
g2
(g6
S',\t\xf4G\xfbt~>'
p1993
tp1994
Rp1995
sS'coets_1705_v1_1_0238'
p1996
g2
(g6
S'\xb4\xdf\x82\xbf\x04\x1b~>'
p1997
tp1998
Rp1999
sS'coets_1705_v1_1_0239'
p2000
g2
(g6
S'\xb4\xdf\x82\xbf\x04\x1b~>'
p2001
tp2002
Rp2003
sS'coets_1705_v1_1_0232'
p2004
g2
(g6
S'\xb4\xdf\x82\xbf\x04\x1b\x8e>'
p2005
tp2006
Rp2007
sS'coets_1705_v1_1_0233'
p2008
g2
(g6
S'\xb4\xdf\x82\xbf\x04\x1b~>'
p2009
tp2010
Rp2011
sS'coets_1705_v1_1_0230'
p2012
g2
(g6
S'\xb4\xdf\x82\xbf\x04\x1b\x9e>'
p2013
tp2014
Rp2015
sS'coets_1705_v1_1_0231'
p2016
g2
(g6
S'\xb4\xdf\x82\xbf\x04\x1b\x9e>'
p2017
tp2018
Rp2019
sS'coets_1705_v1_1_0236'
p2020
g2
(g6
S'\xb4\xdf\x82\xbf\x04\x1b~>'
p2021
tp2022
Rp2023
sS'coets_1705_v1_1_0237'
p2024
g2
(g6
S'\xb4\xdf\x82\xbf\x04\x1b~>'
p2025
tp2026
Rp2027
sS'coets_1705_v1_1_0234'
p2028
g2
(g6
S'\xb4\xdf\x82\xbf\x04\x1b~>'
p2029
tp2030
Rp2031
sS'coets_1705_v1_1_0235'
p2032
g2
(g6
S'\xb4\xdf\x82\xbf\x04\x1b~>'
p2033
tp2034
Rp2035
sS'coets_1705_v1_1_0445'
p2036
g2
(g6
S'\x8f\xde\x02\xc0\xfe\x0e\x9e>'
p2037
tp2038
Rp2039
sS'coets_1705_v1_1_0444'
p2040
g2
(g6
S'\xeb&\x02\x10?\x8b\xa6>'
p2041
tp2042
Rp2043
sS'coets_1705_v1_1_0328'
p2044
g2
(g6
S',\t\xf4G\xfbt\x8e>'
p2045
tp2046
Rp2047
sS'coets_1705_v1_1_0446'
p2048
g2
(g6
S'\x8f\xde\x02\xc0\xfe\x0e\x9e>'
p2049
tp2050
Rp2051
sS'coets_1705_v1_1_0441'
p2052
g2
(g6
S'\x8f\xde\x02\xc0\xfe\x0e\x9e>'
p2053
tp2054
Rp2055
sS'coets_1705_v1_1_0440'
p2056
g2
(g6
S'\x8f\xde\x02\xc0\xfe\x0e\x9e>'
p2057
tp2058
Rp2059
sS'coets_1705_v1_1_0443'
p2060
g2
(g6
S'\x8f\xde\x02\xc0\xfe\x0e~>'
p2061
tp2062
Rp2063
sS'coets_1705_v1_1_0442'
p2064
g2
(g6
S'\x8f\xde\x02\xc0\xfe\x0e~>'
p2065
tp2066
Rp2067
sS'coets_1705_v1_1_0526'
p2068
g2
(g6
S'\x14Q6\x1a\x1d\x84\x9e>'
p2069
tp2070
Rp2071
sS'coets_1705_v1_1_0527'
p2072
g2
(g6
S'\x14Q6\x1a\x1d\x84\x8e>'
p2073
tp2074
Rp2075
sS'coets_1705_v1_1_0524'
p2076
g2
(g6
S'\x14Q6\x1a\x1d\x84~>'
p2077
tp2078
Rp2079
sS'coets_1705_v1_1_0525'
p2080
g2
(g6
S'\x14Q6\x1a\x1d\x84\x9e>'
p2081
tp2082
Rp2083
sS'coets_1705_v1_1_0449'
p2084
g2
(g6
S'\x8f\xde\x02\xc0\xfe\x0e\x9e>'
p2085
tp2086
Rp2087
sS'coets_1705_v1_1_0448'
p2088
g2
(g6
S'\x8f\xde\x02\xc0\xfe\x0e\x9e>'
p2089
tp2090
Rp2091
sS'coets_1705_v1_1_0520'
p2092
g2
(g6
S'\x14Q6\x1a\x1d\x84\x8e>'
p2093
tp2094
Rp2095
sS'coets_1705_v1_1_0521'
p2096
g2
(g6
S'\x14Q6\x1a\x1d\x84\x8e>'
p2097
tp2098
Rp2099
s.