(dp0
S'coets_1705_v1_1_0329'
p1
cnumpy.core.multiarray
scalar
p2
(cnumpy
dtype
p3
(S'f8'
p4
I0
I1
tp5
Rp6
(I3
S'<'
p7
NNNI-1
I-1
I0
tp8
bS'\x8c\xadE\x8b\xb0\x8cK?'
p9
tp10
Rp11
sS'coets_1705_v1_1_0199'
p12
g2
(g6
S'\xac\x9b\xce\xdf\x81[I?'
p13
tp14
Rp15
sS'coets_1705_v1_1_0051'
p16
g2
(g6
S'\xabE7\xab6\xf8Q?'
p17
tp18
Rp19
sS'coets_1705_v1_1_0306'
p20
g2
(g6
S'9\xecz&H\xa7I?'
p21
tp22
Rp23
sS'coets_1705_v1_1_0307'
p24
g2
(g6
S'\xf3\xbb9\xfd\xc8PM?'
p25
tp26
Rp27
sS'coets_1705_v1_1_0304'
p28
g2
(g6
S'F4\xed\xbd\x8e{K?'
p29
tp30
Rp31
sS'coets_1705_v1_1_0305'
p32
g2
(g6
S'&\xd4\xcb\x81\xe3\x9eO?'
p33
tp34
Rp35
sS'coets_1705_v1_1_0302'
p36
g2
(g6
S'Q\xd9\x135\xcf\xee>?'
p37
tp38
Rp39
sS'coets_1705_v1_1_0303'
p40
g2
(g6
S'\xcb\xd1\x8a\x1b\xa0\x80\x0f?'
p41
tp42
Rp43
sS'coets_1705_v1_1_0300'
p44
g2
(g6
S'\xff\xfbt\xbb\x0f"J?'
p45
tp46
Rp47
sS'coets_1705_v1_1_0301'
p48
g2
(g6
S'\x82\xe6@\x1f\x87A\x1c?'
p49
tp50
Rp51
sS'coets_1705_v1_1_0308'
p52
g2
(g6
S'>5@(\xb7aF?'
p53
tp54
Rp55
sS'coets_1705_v1_1_0309'
p56
g2
(g6
S'\x10|=\xda\xd0\xc4\x1a?'
p57
tp58
Rp59
sS'coets_1705_v1_1_0451'
p60
g2
(g6
S'H\x89\xadD\xe7\x17P?'
p61
tp62
Rp63
sS'coets_1705_v1_1_0058'
p64
g2
(g6
S'p\xb6\xd1\xa2\x90ZA?'
p65
tp66
Rp67
sS'coets_1705_v1_1_0059'
p68
g2
(g6
S'FU(\x98\x89\x85H?'
p69
tp70
Rp71
sS'coets_1705_v1_1_0159'
p72
g2
(g6
S'=6P.<\x9fI?'
p73
tp74
Rp75
sS'coets_1705_v1_1_0158'
p76
g2
(g6
S':\xd3\xce\x8a\xc9\xd2$?'
p77
tp78
Rp79
sS'coets_1705_v1_1_0153'
p80
g2
(g6
S'3N\xc3\x07\x83\xf3\x16?'
p81
tp82
Rp83
sS'coets_1705_v1_1_0152'
p84
g2
(g6
S'PD=\x9d\x01\xaa#?'
p85
tp86
Rp87
sS'coets_1705_v1_1_0151'
p88
g2
(g6
S'\xf8\xac\x91\x85\nw ?'
p89
tp90
Rp91
sS'coets_1705_v1_1_0150'
p92
g2
(g6
S'\xf6\xa8\x0e\xe5\xbbLG?'
p93
tp94
Rp95
sS'coets_1705_v1_1_0157'
p96
g2
(g6
S';\x161\x83\x84\xb2/?'
p97
tp98
Rp99
sS'coets_1705_v1_1_0156'
p100
g2
(g6
S'\xf5)\xf16\xe0\xbd1?'
p101
tp102
Rp103
sS'coets_1705_v1_1_0155'
p104
g2
(g6
S'\x83\xa7\xf5lS/K?'
p105
tp106
Rp107
sS'coets_1705_v1_1_0154'
p108
g2
(g6
S'\x9d\xf3[\x8e?1\x14?'
p109
tp110
Rp111
sS'coets_1705_v1_1_0399'
p112
g2
(g6
S'\xd2\xf9"4\x8d,??'
p113
tp114
Rp115
sS'coets_1705_v1_1_0398'
p116
g2
(g6
S'\xe84\xea)\xc8\x1dG?'
p117
tp118
Rp119
sS'coets_1705_v1_1_0379'
p120
g2
(g6
S'\x19\x9d\x86\xacHaK?'
p121
tp122
Rp123
sS'coets_1705_v1_1_0478'
p124
g2
(g6
S'\x7f\xbfe\xe9\xea~O?'
p125
tp126
Rp127
sS'coets_1705_v1_1_0479'
p128
g2
(g6
S'\xaa\xa1\xd7p+eO?'
p129
tp130
Rp131
sS'coets_1705_v1_1_0474'
p132
g2
(g6
S'sf>j\x08\xd8.?'
p133
tp134
Rp135
sS'coets_1705_v1_1_0475'
p136
g2
(g6
S'<\xa2\xbfd/<O?'
p137
tp138
Rp139
sS'coets_1705_v1_1_0476'
p140
g2
(g6
S'\xfeg\xc4h\x1d\x1fV?'
p141
tp142
Rp143
sS'coets_1705_v1_1_0477'
p144
g2
(g6
S'\xae7\x1b4G4P?'
p145
tp146
Rp147
sS'coets_1705_v1_1_0470'
p148
g2
(g6
S'\x1c\xb0\x12\xd6U\xcdP?'
p149
tp150
Rp151
sS'coets_1705_v1_1_0471'
p152
g2
(g6
S'Qc\xfei\xd7\x95V?'
p153
tp154
Rp155
sS'coets_1705_v1_1_0472'
p156
g2
(g6
S'S\xa0p\xdbk),?'
p157
tp158
Rp159
sS'coets_1705_v1_1_0473'
p160
g2
(g6
S'\xfc\xe3\xc2Ia\x0fV?'
p161
tp162
Rp163
sS'coets_1705_v1_1_0409'
p164
g2
(g6
S'\x93\xc9\xab@g\xb9B?'
p165
tp166
Rp167
sS'coets_1705_v1_1_0408'
p168
g2
(g6
S'X\xf4\t\xc6vyD?'
p169
tp170
Rp171
sS'coets_1705_v1_1_0401'
p172
g2
(g6
S'r\xe6\x92\xfc\xa7a>?'
p173
tp174
Rp175
sS'coets_1705_v1_1_0400'
p176
g2
(g6
S'\xabL\x90W\xb4\x16H?'
p177
tp178
Rp179
sS'coets_1705_v1_1_0403'
p180
g2
(g6
S'\n\xfd\xba\x12^N??'
p181
tp182
Rp183
sS'coets_1705_v1_1_0402'
p184
g2
(g6
S'H\xb7\xa3\xa8\xc7\xf9A?'
p185
tp186
Rp187
sS'coets_1705_v1_1_0405'
p188
g2
(g6
S'\x9e\xedry\xcd\xac>?'
p189
tp190
Rp191
sS'coets_1705_v1_1_0404'
p192
g2
(g6
S'\xe8\xaa\x07\xfe&xA?'
p193
tp194
Rp195
sS'coets_1705_v1_1_0407'
p196
g2
(g6
S'g\xa1+R\x95\x14A?'
p197
tp198
Rp199
sS'coets_1705_v1_1_0406'
p200
g2
(g6
S'\xba\x06\x83\xae\xd0\xb3??'
p201
tp202
Rp203
sS'coets_1705_v1_1_0278'
p204
g2
(g6
S'\xd4\x01\x92\xa2\x86\xcdO?'
p205
tp206
Rp207
sS'coets_1705_v1_1_0279'
p208
g2
(g6
S'E\xe8\xf9\xfa\xbc\xc8N?'
p209
tp210
Rp211
sS'coets_1705_v1_1_0276'
p212
g2
(g6
S'\x9aX$@O\xf0P?'
p213
tp214
Rp215
sS'coets_1705_v1_1_0277'
p216
g2
(g6
S"r\xf6'\xadi\x01P?"
p217
tp218
Rp219
sS'coets_1705_v1_1_0274'
p220
g2
(g6
S'&\xad\x92\xd2)\xbcG?'
p221
tp222
Rp223
sS'coets_1705_v1_1_0275'
p224
g2
(g6
S'\xe2\xb7\xd5\xf1\x87,J?'
p225
tp226
Rp227
sS'coets_1705_v1_1_0272'
p228
g2
(g6
S'\xaa{\x8a!J\xf46?'
p229
tp230
Rp231
sS'coets_1705_v1_1_0273'
p232
g2
(g6
S'\xa4W\xd1\xd5&\nF?'
p233
tp234
Rp235
sS'coets_1705_v1_1_0270'
p236
g2
(g6
S'\xf2\x86\xbc!o\xc8\x1b?'
p237
tp238
Rp239
sS'coets_1705_v1_1_0271'
p240
g2
(g6
S'\xffU*@\xb5\xfaG?'
p241
tp242
Rp243
sS'coets_1705_v1_1_0294'
p244
g2
(g6
S'\xe9I`\xf5e\xa1\x13?'
p245
tp246
Rp247
sS'coets_1705_v1_1_0295'
p248
g2
(g6
S'\x983j,7 L?'
p249
tp250
Rp251
sS'coets_1705_v1_1_0296'
p252
g2
(g6
S'*o\x8e&\xb6\xfc1?'
p253
tp254
Rp255
sS'coets_1705_v1_1_0297'
p256
g2
(g6
S'\x01\xddr\xe5UBG?'
p257
tp258
Rp259
sS'coets_1705_v1_1_0290'
p260
g2
(g6
S'<\xb1\xa4;7\xe0S?'
p261
tp262
Rp263
sS'coets_1705_v1_1_0358'
p264
g2
(g6
S'\xb9\x88&\xce\x7f\x01C?'
p265
tp266
Rp267
sS'coets_1705_v1_1_0292'
p268
g2
(g6
S'\xc5*\x1f\x84]|\x16?'
p269
tp270
Rp271
sS'coets_1705_v1_1_0293'
p272
g2
(g6
S'\xfd.k\xc6\xae\xa64?'
p273
tp274
Rp275
sS'coets_1705_v1_1_0355'
p276
g2
(g6
S'\xec\n\xba\xb0\xac=4?'
p277
tp278
Rp279
sS'coets_1705_v1_1_0354'
p280
g2
(g6
S'w\xf5&\xe5t\x1b\x1c?'
p281
tp282
Rp283
sS'coets_1705_v1_1_0357'
p284
g2
(g6
S'\xa5\xa3\xc4\x98\xf8\xbcR?'
p285
tp286
Rp287
sS'coets_1705_v1_1_0356'
p288
g2
(g6
S'\x82\xd0v\xea\xc1JR?'
p289
tp290
Rp291
sS'coets_1705_v1_1_0298'
p292
g2
(g6
S'\xe3\xe7\xf4\x9f\x02\xf8S?'
p293
tp294
Rp295
sS'coets_1705_v1_1_0299'
p296
g2
(g6
S'\xdc[t|\xb6sC?'
p297
tp298
Rp299
sS'coets_1705_v1_1_0353'
p300
g2
(g6
S'u\xb5G\xe2\xc6IQ?'
p301
tp302
Rp303
sS'coets_1705_v1_1_0352'
p304
g2
(g6
S'`\x13\xf3pP\xcfK?'
p305
tp306
Rp307
sS'coets_1705_v1_1_0056'
p308
g2
(g6
S'.\xb2\x7fO\x91\xebN?'
p309
tp310
Rp311
sS'coets_1705_v1_1_0057'
p312
g2
(g6
S'>\xce\xdc\xe0MVQ?'
p313
tp314
Rp315
sS'coets_1705_v1_1_0054'
p316
g2
(g6
S'T\x9f\x12\xc8\xd1)M?'
p317
tp318
Rp319
sS'coets_1705_v1_1_0055'
p320
g2
(g6
S'\x1b\xb1w\xc4\xff\x02M?'
p321
tp322
Rp323
sS'coets_1705_v1_1_0052'
p324
g2
(g6
S'r_&h\xa9s\x15?'
p325
tp326
Rp327
sS'coets_1705_v1_1_0053'
p328
g2
(g6
S'\xd9q\xa5\xf5\xd6iF?'
p329
tp330
Rp331
sS'coets_1705_v1_1_0050'
p332
g2
(g6
S'E1p\xa5\x9b\x07H?'
p333
tp334
Rp335
sS'coets_1705_v1_1_0198'
p336
g2
(g6
S'\t\xa6\xd7>\x0b%H?'
p337
tp338
Rp339
sS'coets_1705_v1_1_0197'
p340
g2
(g6
S'(\x9fc\x81\xf29F?'
p341
tp342
Rp343
sS'coets_1705_v1_1_0196'
p344
g2
(g6
S'\xdf\xab\x0c\xce\t3 ?'
p345
tp346
Rp347
sS'coets_1705_v1_1_0195'
p348
g2
(g6
S'R\x7f\xbd\xf3-fO?'
p349
tp350
Rp351
sS'coets_1705_v1_1_0194'
p352
g2
(g6
S':\x19Ta\x05^L?'
p353
tp354
Rp355
sS'coets_1705_v1_1_0193'
p356
g2
(g6
S'\xaa\x1c\x0e\xc0\x91S-?'
p357
tp358
Rp359
sS'coets_1705_v1_1_0192'
p360
g2
(g6
S'k\x87\xdc\xea\xf1\xd1J?'
p361
tp362
Rp363
sS'coets_1705_v1_1_0191'
p364
g2
(g6
S'\xdc\xf2\xc7]}\xb9F?'
p365
tp366
Rp367
sS'coets_1705_v1_1_0190'
p368
g2
(g6
S'\xe9\x92\xda\xfd]JK?'
p369
tp370
Rp371
sS'coets_1705_v1_1_0122'
p372
g2
(g6
S't?\xec\x99\xbb\xd0P?'
p373
tp374
Rp375
sS'coets_1705_v1_1_0123'
p376
g2
(g6
S'\xa8\x11\t^\x98]N?'
p377
tp378
Rp379
sS'coets_1705_v1_1_0120'
p380
g2
(g6
S'y\xe8F\xa0\x1e\xa5L?'
p381
tp382
Rp383
sS'coets_1705_v1_1_0121'
p384
g2
(g6
S'_s\x02%\xae\x81O?'
p385
tp386
Rp387
sS'coets_1705_v1_1_0126'
p388
g2
(g6
S'\x81\xc5\xa9\xe3\xee\xf55?'
p389
tp390
Rp391
sS'coets_1705_v1_1_0127'
p392
g2
(g6
S'.J\xed\x9eJ\xa7H?'
p393
tp394
Rp395
sS'coets_1705_v1_1_0124'
p396
g2
(g6
S'\xbd\xb1\xf0\xd6\xd5\x84T?'
p397
tp398
Rp399
sS'coets_1705_v1_1_0125'
p400
g2
(g6
S':4\xe5\xf9\x1fy*?'
p401
tp402
Rp403
sS'coets_1705_v1_1_0128'
p404
g2
(g6
S'A\x9b<\x06\xcb\x91-?'
p405
tp406
Rp407
sS'coets_1705_v1_1_0129'
p408
g2
(g6
S'\x91\xa2\xb2\xb7\x92\x8aI?'
p409
tp410
Rp411
sS'coets_1705_v1_1_0493'
p412
g2
(g6
S'\xc5g\x0b~\xc49E?'
p413
tp414
Rp415
sS'coets_1705_v1_1_0069'
p416
g2
(g6
S'\xa4\xf7 \x84\xcb\xd9@?'
p417
tp418
Rp419
sS'coets_1705_v1_1_0341'
p420
g2
(g6
S'\xf3&/\x96T\xe3L?'
p421
tp422
Rp423
sS'coets_1705_v1_1_0540'
p424
g2
(g6
S'\xbc\x8cR\x0b\x9c\xb7N?'
p425
tp426
Rp427
sS'coets_1705_v1_1_0541'
p428
g2
(g6
S'e\x8b\xebu\xdc{K?'
p429
tp430
Rp431
sS'coets_1705_v1_1_0542'
p432
g2
(g6
S'\xed\xbf\x1b\x13E\xb8H?'
p433
tp434
Rp435
sS'coets_1705_v1_1_0430'
p436
g2
(g6
S'\xc9\x9c.05\xe4P?'
p437
tp438
Rp439
sS'coets_1705_v1_1_0431'
p440
g2
(g6
S'c,\xa0\xa5\x8b\xc4F?'
p441
tp442
Rp443
sS'coets_1705_v1_1_0432'
p444
g2
(g6
S'\x1e\x95\x00\xf8\xae\rK?'
p445
tp446
Rp447
sS'coets_1705_v1_1_0433'
p448
g2
(g6
S'\x89\x87p!\x96\x05P?'
p449
tp450
Rp451
sS'coets_1705_v1_1_0434'
p452
g2
(g6
S',\x07Q\x06\x83\xb8O?'
p453
tp454
Rp455
sS'coets_1705_v1_1_0435'
p456
g2
(g6
S'..\xd8\x04U\xd7F?'
p457
tp458
Rp459
sS'coets_1705_v1_1_0436'
p460
g2
(g6
S'e\x87\xfaE\xf7}J?'
p461
tp462
Rp463
sS'coets_1705_v1_1_0437'
p464
g2
(g6
S'Ps\xbaN\x8e\xabI?'
p465
tp466
Rp467
sS'coets_1705_v1_1_0438'
p468
g2
(g6
S'\x01\xec&\n\xe5\x9bN?'
p469
tp470
Rp471
sS'coets_1705_v1_1_0439'
p472
g2
(g6
S'wu\xca\x8d\x19\xc2I?'
p473
tp474
Rp475
sS'coets_1705_v1_1_0533'
p476
g2
(g6
S'\xed\xbf\x1b\x13E\xb8H?'
p477
tp478
Rp479
sS'coets_1705_v1_1_0532'
p480
g2
(g6
S'\x98\xfb\x04\xc5\xc5XO?'
p481
tp482
Rp483
sS'coets_1705_v1_1_0535'
p484
g2
(g6
S'\x01f\xbb\x7f\xac1O?'
p485
tp486
Rp487
sS'coets_1705_v1_1_0534'
p488
g2
(g6
S'\xac\xad\xa8,\xdd\xf0E?'
p489
tp490
Rp491
sS'coets_1705_v1_1_0537'
p492
g2
(g6
S"'<\xb1\xb4\x8d\xd6M?"
p493
tp494
Rp495
sS'coets_1705_v1_1_0536'
p496
g2
(g6
S'\xfb\xa2\xa4\x84\xe7\xc6E?'
p497
tp498
Rp499
sS'coets_1705_v1_1_0061'
p500
g2
(g6
S'\xe1X\xfc`\xd1\\T?'
p501
tp502
Rp503
sS'coets_1705_v1_1_0349'
p504
g2
(g6
S'j\xcf\x92B\x17\x1fF?'
p505
tp506
Rp507
sS'coets_1705_v1_1_0311'
p508
g2
(g6
S'\xb37*\xf3\x10D!?'
p509
tp510
Rp511
sS'coets_1705_v1_1_0310'
p512
g2
(g6
S'\x00u\xab\r-\xa8G?'
p513
tp514
Rp515
sS'coets_1705_v1_1_0098'
p516
g2
(g6
S'\t4\xae\xcd@\xc0G?'
p517
tp518
Rp519
sS'coets_1705_v1_1_0099'
p520
g2
(g6
S']\xadR\xa6\xb2\nK?'
p521
tp522
Rp523
sS'coets_1705_v1_1_0315'
p524
g2
(g6
S'2O\x8b\x88\x077+?'
p525
tp526
Rp527
sS'coets_1705_v1_1_0314'
p528
g2
(g6
S'\xa3\xf7@\xd7\xfdrK?'
p529
tp530
Rp531
sS'coets_1705_v1_1_0317'
p532
g2
(g6
S'\xc7\x8c\xdc{\xf4%=?'
p533
tp534
Rp535
sS'coets_1705_v1_1_0316'
p536
g2
(g6
S'H1\xbf\xfc+\x83K?'
p537
tp538
Rp539
sS'coets_1705_v1_1_0092'
p540
g2
(g6
S'P\xa5S\x0cXP9?'
p541
tp542
Rp543
sS'coets_1705_v1_1_0093'
p544
g2
(g6
S"\xc6\xb5\x19\x08\xf8\xf2'?"
p545
tp546
Rp547
sS'coets_1705_v1_1_0090'
p548
g2
(g6
S'NM\xfcK\xce\xde=?'
p549
tp550
Rp551
sS'coets_1705_v1_1_0091'
p552
g2
(g6
S'u\xf3\xca\xf23\xbc\x1b?'
p553
tp554
Rp555
sS'coets_1705_v1_1_0096'
p556
g2
(g6
S"'d\xcb\xac\xad!U?"
p557
tp558
Rp559
sS'coets_1705_v1_1_0097'
p560
g2
(g6
S'\x11-\xad\x1bz\xd3Q?'
p561
tp562
Rp563
sS'coets_1705_v1_1_0094'
p564
g2
(g6
S'\xeb\xf463\x86\xfbL?'
p565
tp566
Rp567
sS'coets_1705_v1_1_0095'
p568
g2
(g6
S'\xa3\xb4*\xda\xa0\xfeR?'
p569
tp570
Rp571
sS'coets_1705_v1_1_0225'
p572
g2
(g6
S'\xc7\r1\x91}\xceG?'
p573
tp574
Rp575
sS'coets_1705_v1_1_0224'
p576
g2
(g6
S'\x85`V\x94\x83oR?'
p577
tp578
Rp579
sS'coets_1705_v1_1_0227'
p580
g2
(g6
S'\xab\xda\xb3\xe3\x12mL?'
p581
tp582
Rp583
sS'coets_1705_v1_1_0226'
p584
g2
(g6
S'\x97A^l,\xbeA?'
p585
tp586
Rp587
sS'coets_1705_v1_1_0221'
p588
g2
(g6
S"':\x14`\xc8\xf7H?"
p589
tp590
Rp591
sS'coets_1705_v1_1_0220'
p592
g2
(g6
S'\x8d\xad\x8e\xba\xeb\xc4T?'
p593
tp594
Rp595
sS'coets_1705_v1_1_0223'
p596
g2
(g6
S'\xaa\xda\xb3\xe3\x12mL?'
p597
tp598
Rp599
sS'coets_1705_v1_1_0222'
p600
g2
(g6
S'_B{\t\xed%T?'
p601
tp602
Rp603
sS'coets_1705_v1_1_0386'
p604
g2
(g6
S'\xd7m\x1c\xb9ArI?'
p605
tp606
Rp607
sS'coets_1705_v1_1_0387'
p608
g2
(g6
S'\xca\xe1\x9a\x9e\xcf0N?'
p609
tp610
Rp611
sS'coets_1705_v1_1_0384'
p612
g2
(g6
S'\xbf\xd0\x8b\xbd\x8c\x04C?'
p613
tp614
Rp615
sS'coets_1705_v1_1_0385'
p616
g2
(g6
S'\x85d,\xfd\x90\x10I?'
p617
tp618
Rp619
sS'coets_1705_v1_1_0229'
p620
g2
(g6
S'T\x822\xcc\x1b;M?'
p621
tp622
Rp623
sS'coets_1705_v1_1_0228'
p624
g2
(g6
S'\x14\xaf6\xc8\xd4\xa3\x11?'
p625
tp626
Rp627
sS'coets_1705_v1_1_0380'
p628
g2
(g6
S'\x03\xc4\x173*\x7fB?'
p629
tp630
Rp631
sS'coets_1705_v1_1_0381'
p632
g2
(g6
S'\x1dM^\xaff\x1bH?'
p633
tp634
Rp635
sS'coets_1705_v1_1_0364'
p636
g2
(g6
S'MtLv\xe3\xb5I?'
p637
tp638
Rp639
sS'coets_1705_v1_1_0365'
p640
g2
(g6
S'72\x16\x1b\x9a\x01G?'
p641
tp642
Rp643
sS'coets_1705_v1_1_0366'
p644
g2
(g6
S'\x03\xc4\x92\x0b\xf4\xf8L?'
p645
tp646
Rp647
sS'coets_1705_v1_1_0367'
p648
g2
(g6
S'x\xbd\xf1\xfd\x97:B?'
p649
tp650
Rp651
sS'coets_1705_v1_1_0360'
p652
g2
(g6
S'\x16\xb7o\x80z\x8bR?'
p653
tp654
Rp655
sS'coets_1705_v1_1_0361'
p656
g2
(g6
S'\xd61\xb1P\x01\x99I?'
p657
tp658
Rp659
sS'coets_1705_v1_1_0362'
p660
g2
(g6
S'\x7f\x92\x16\x83\xb5\x8bJ?'
p661
tp662
Rp663
sS'coets_1705_v1_1_0363'
p664
g2
(g6
S'Er\x9f\xc7\xce:J?'
p665
tp666
Rp667
sS'coets_1705_v1_1_0368'
p668
g2
(g6
S'emNa\x8fmI?'
p669
tp670
Rp671
sS'coets_1705_v1_1_0369'
p672
g2
(g6
S'|\x04\x02\x1f\x8b"E?'
p673
tp674
Rp675
sS'coets_1705_v1_1_0166'
p676
g2
(g6
S'i\xfe\xfb|_\xb1E?'
p677
tp678
Rp679
sS'coets_1705_v1_1_0167'
p680
g2
(g6
S'QJ\x8aT\xa5\xee+?'
p681
tp682
Rp683
sS'coets_1705_v1_1_0164'
p684
g2
(g6
S'\x8c\x95\x1d\xa0\x8d\t1?'
p685
tp686
Rp687
sS'coets_1705_v1_1_0165'
p688
g2
(g6
S'u/\x86\xa8TkF?'
p689
tp690
Rp691
sS'coets_1705_v1_1_0162'
p692
g2
(g6
S'O\x15\xc46\xfcYL?'
p693
tp694
Rp695
sS'coets_1705_v1_1_0163'
p696
g2
(g6
S'b\x91\x12F\x16rI?'
p697
tp698
Rp699
sS'coets_1705_v1_1_0160'
p700
g2
(g6
S'\x83o\xbdW\x81\xaaI?'
p701
tp702
Rp703
sS'coets_1705_v1_1_0161'
p704
g2
(g6
S'\xf0\xb5\xaa\xa3\x03h@?'
p705
tp706
Rp707
sS'coets_1705_v1_1_0168'
p708
g2
(g6
S'!\xee\x19\xe5\xb4\xa5$?'
p709
tp710
Rp711
sS'coets_1705_v1_1_0169'
p712
g2
(g6
S'\x9c1\xd0S\xb2E\x0f?'
p713
tp714
Rp715
sS'coets_1705_v1_1_0539'
p716
g2
(g6
S'\xed\xbb\x80\xd4\t\xdfK?'
p717
tp718
Rp719
sS'coets_1705_v1_1_0538'
p720
g2
(g6
S'\xa8\xeao\x07\xc4\xceP?'
p721
tp722
Rp723
sS'coets_1705_v1_1_0469'
p724
g2
(g6
S'\x0b\x08j\x80}fS?'
p725
tp726
Rp727
sS'coets_1705_v1_1_0468'
p728
g2
(g6
S')\x0b\xee\xd4V\x17S?'
p729
tp730
Rp731
sS'coets_1705_v1_1_0467'
p732
g2
(g6
S'}E\x81\x06\xc2WT?'
p733
tp734
Rp735
sS'coets_1705_v1_1_0466'
p736
g2
(g6
S'.V\xd4l\x11\xfeR?'
p737
tp738
Rp739
sS'coets_1705_v1_1_0465'
p740
g2
(g6
S'(\xc2\x99\x92f\x1cI?'
p741
tp742
Rp743
sS'coets_1705_v1_1_0464'
p744
g2
(g6
S'\xe1\x9f\xed\xf0\x0f\x83L?'
p745
tp746
Rp747
sS'coets_1705_v1_1_0463'
p748
g2
(g6
S'\x1c\xb0\x12\xd6U\xcdP?'
p749
tp750
Rp751
sS'coets_1705_v1_1_0462'
p752
g2
(g6
S'\xb7\xc1\x05\x93`\x9aK?'
p753
tp754
Rp755
sS'coets_1705_v1_1_0461'
p756
g2
(g6
S'&\xc6V\xfb\xf5\xacQ?'
p757
tp758
Rp759
sS'coets_1705_v1_1_0460'
p760
g2
(g6
S'\x96\xc2`\xd1j1P?'
p761
tp762
Rp763
sS'coets_1705_v1_1_0218'
p764
g2
(g6
S'\x89\xcbFP=cG?'
p765
tp766
Rp767
sS'coets_1705_v1_1_0219'
p768
g2
(g6
S'\xf2\x86\xbc!o\xc8K?'
p769
tp770
Rp771
sS'coets_1705_v1_1_0214'
p772
g2
(g6
S'8m\xb6\xcaNpH?'
p773
tp774
Rp775
sS'coets_1705_v1_1_0215'
p776
g2
(g6
S'9\xd7\xf9\x84\x86wK?'
p777
tp778
Rp779
sS'coets_1705_v1_1_0216'
p780
g2
(g6
S'\xec\xe0-\xf9\xaf\x9bG?'
p781
tp782
Rp783
sS'coets_1705_v1_1_0217'
p784
g2
(g6
S'\xean\x81\xcd|\xfa@?'
p785
tp786
Rp787
sS'coets_1705_v1_1_0210'
p788
g2
(g6
S'\xba\x86u\xd3\xf9;P?'
p789
tp790
Rp791
sS'coets_1705_v1_1_0211'
p792
g2
(g6
S'\xfd\xd1u\x87\xb7-F?'
p793
tp794
Rp795
sS'coets_1705_v1_1_0212'
p796
g2
(g6
S'\x01^\x93\xb1\xb0\x94K?'
p797
tp798
Rp799
sS'coets_1705_v1_1_0213'
p800
g2
(g6
S'\x8c\xf2\x14Y\x0c\x88O?'
p801
tp802
Rp803
sS'coets_1705_v1_1_0269'
p804
g2
(g6
S'\xfai\xb1\x8d\x9f\x16K?'
p805
tp806
Rp807
sS'coets_1705_v1_1_0268'
p808
g2
(g6
S'\x0fo[\xacu\xadH?'
p809
tp810
Rp811
sS'coets_1705_v1_1_0502'
p812
g2
(g6
S'7d\xd1\xff\x90OL?'
p813
tp814
Rp815
sS'coets_1705_v1_1_0503'
p816
g2
(g6
S'e\xc8\x7f\x11\xc5\xc6L?'
p817
tp818
Rp819
sS'coets_1705_v1_1_0504'
p820
g2
(g6
S'zz\xdf$4\xf0K?'
p821
tp822
Rp823
sS'coets_1705_v1_1_0505'
p824
g2
(g6
S'\xbe\xd1\xfa\xf9\xa6\xfdM?'
p825
tp826
Rp827
sS'coets_1705_v1_1_0506'
p828
g2
(g6
S'\x9eL\\E.sI?'
p829
tp830
Rp831
sS'coets_1705_v1_1_0507'
p832
g2
(g6
S'\xeb5\xa9\x0b\xdbtN?'
p833
tp834
Rp835
sS'coets_1705_v1_1_0261'
p836
g2
(g6
S"\x8e\xe8,'\xf1\xfd\x03?"
p837
tp838
Rp839
sS'coets_1705_v1_1_0260'
p840
g2
(g6
S'\x80\xdcX\xc59\xaaL?'
p841
tp842
Rp843
sS'coets_1705_v1_1_0263'
p844
g2
(g6
S'\xb5\x04\xad~\x87\xa2\x1e?'
p845
tp846
Rp847
sS'coets_1705_v1_1_0262'
p848
g2
(g6
S'\xe9#\xa3\xaa\x18~B?'
p849
tp850
Rp851
sS'coets_1705_v1_1_0265'
p852
g2
(g6
S'\xf0\xc5|\x7fZ*\n?'
p853
tp854
Rp855
sS'coets_1705_v1_1_0264'
p856
g2
(g6
S"\x8e\xe8,'\xf1\xfd\x03?"
p857
tp858
Rp859
sS'coets_1705_v1_1_0267'
p860
g2
(g6
S'B{\t\xed%\xb4W?'
p861
tp862
Rp863
sS'coets_1705_v1_1_0266'
p864
g2
(g6
S'\xe1\xe9\xd6\xfc\xb0H\x19?'
p865
tp866
Rp867
sS'coets_1705_v1_1_0287'
p868
g2
(g6
S'\x1f\xbf\xc2\x82\x99w ?'
p869
tp870
Rp871
sS'coets_1705_v1_1_0286'
p872
g2
(g6
S'\\\x08\xe0x!\xd4M?'
p873
tp874
Rp875
sS'coets_1705_v1_1_0285'
p876
g2
(g6
S'\xc3>\xbc\xbf\xb4`T?'
p877
tp878
Rp879
sS'coets_1705_v1_1_0284'
p880
g2
(g6
S'\xc2>\xbc\xbf\xb4`D?'
p881
tp882
Rp883
sS'coets_1705_v1_1_0283'
p884
g2
(g6
S'2\xfb\x0eJ\x02\x81R?'
p885
tp886
Rp887
sS'coets_1705_v1_1_0282'
p888
g2
(g6
S'\xe1\xacpW%15?'
p889
tp890
Rp891
sS'coets_1705_v1_1_0281'
p892
g2
(g6
S'};\xbe%\x81\xddH?'
p893
tp894
Rp895
sS'coets_1705_v1_1_0280'
p896
g2
(g6
S'\xda\x0f\x81\xb9\xe4\xc0&?'
p897
tp898
Rp899
sS'coets_1705_v1_1_0320'
p900
g2
(g6
S'\r\x03\x07\x88\xb3>M?'
p901
tp902
Rp903
sS'coets_1705_v1_1_0321'
p904
g2
(g6
S'\xcb\xce\xb30\x08\x16\x1d?'
p905
tp906
Rp907
sS'coets_1705_v1_1_0322'
p908
g2
(g6
S'n\xf6yO\x9d\x01G?'
p909
tp910
Rp911
sS'coets_1705_v1_1_0323'
p912
g2
(g6
S'\\\x8a%\x9b\x19\xc3P?'
p913
tp914
Rp915
sS'coets_1705_v1_1_0324'
p916
g2
(g6
S'\xb4\n\xe7c\xc5p@?'
p917
tp918
Rp919
sS'coets_1705_v1_1_0325'
p920
g2
(g6
S'\xc82V]]\x7fK?'
p921
tp922
Rp923
sS'coets_1705_v1_1_0326'
p924
g2
(g6
S"\x81\x84\x83'\xf0\x97%?"
p925
tp926
Rp927
sS'coets_1705_v1_1_0288'
p928
g2
(g6
S'*\x02\xa4kGz\x18?'
p929
tp930
Rp931
sS'coets_1705_v1_1_0041'
p932
g2
(g6
S'\xff\x8c\xc2\x99\xb7\xc21?'
p933
tp934
Rp935
sS'coets_1705_v1_1_0040'
p936
g2
(g6
S'&\xc8\x07@\xab\xa4K?'
p937
tp938
Rp939
sS'coets_1705_v1_1_0043'
p940
g2
(g6
S'>\xa4\xe5\x18tOK?'
p941
tp942
Rp943
sS'coets_1705_v1_1_0042'
p944
g2
(g6
S'\xb08\xab:<\xa1\x1a?'
p945
tp946
Rp947
sS'coets_1705_v1_1_0045'
p948
g2
(g6
S'\xe9\xbb\x8f%\x1f\x0eK?'
p949
tp950
Rp951
sS'coets_1705_v1_1_0044'
p952
g2
(g6
S'\x96\xc7\x1c\x0e\xbf\x16P?'
p953
tp954
Rp955
sS'coets_1705_v1_1_0047'
p956
g2
(g6
S'\n{1\x06\x1c\x98A?'
p957
tp958
Rp959
sS'coets_1705_v1_1_0046'
p960
g2
(g6
S'A"\xce\xe3\xec\x82B?'
p961
tp962
Rp963
sS'coets_1705_v1_1_0049'
p964
g2
(g6
S'\xcc-\xfd\rfmL?'
p965
tp966
Rp967
sS'coets_1705_v1_1_0048'
p968
g2
(g6
S'\x13\xa3G\xc2+>I?'
p969
tp970
Rp971
sS'coets_1705_v1_1_0034'
p972
g2
(g6
S'\xa4\xf7 \x84\xcb\xd9@?'
p973
tp974
Rp975
sS'coets_1705_v1_1_0035'
p976
g2
(g6
S's\x98[\xf8y\x84+?'
p977
tp978
Rp979
sS'coets_1705_v1_1_0036'
p980
g2
(g6
S'\xc3\xd3e\xc97\x1e+?'
p981
tp982
Rp983
sS'coets_1705_v1_1_0037'
p984
g2
(g6
S'O\xce\x0e\xb3L\x04L?'
p985
tp986
Rp987
sS'coets_1705_v1_1_0139'
p988
g2
(g6
S'\xbc\x83w\x8d#\x9a\x1a?'
p989
tp990
Rp991
sS'coets_1705_v1_1_0138'
p992
g2
(g6
S'\xa2\x0fKa\x92\x15J?'
p993
tp994
Rp995
sS'coets_1705_v1_1_0032'
p996
g2
(g6
S'\xff\x9d^\xbeX\x88A?'
p997
tp998
Rp999
sS'coets_1705_v1_1_0033'
p1000
g2
(g6
S'\n{1\x06\x1c\x98A?'
p1001
tp1002
Rp1003
sS'coets_1705_v1_1_0135'
p1004
g2
(g6
S'g\xf8\r\xa8\xf4`M?'
p1005
tp1006
Rp1007
sS'coets_1705_v1_1_0134'
p1008
g2
(g6
S'\t4\xae\xcd@\xc0G?'
p1009
tp1010
Rp1011
sS'coets_1705_v1_1_0137'
p1012
g2
(g6
S'?\x8c\x8f\x82\x93\x0cK?'
p1013
tp1014
Rp1015
sS'coets_1705_v1_1_0136'
p1016
g2
(g6
S'>Vo\xd9\xf3\x8b3?'
p1017
tp1018
Rp1019
sS'coets_1705_v1_1_0131'
p1020
g2
(g6
S'\xe3\x19\xec[\xe8\xaeM?'
p1021
tp1022
Rp1023
sS'coets_1705_v1_1_0130'
p1024
g2
(g6
S'\rC[QxEJ?'
p1025
tp1026
Rp1027
sS'coets_1705_v1_1_0133'
p1028
g2
(g6
S'\x86q(\x8c\x9d\xd0H?'
p1029
tp1030
Rp1031
sS'coets_1705_v1_1_0132'
p1032
g2
(g6
S'\xa3XHf\xce#H?'
p1033
tp1034
Rp1035
sS'coets_1705_v1_1_0391'
p1036
g2
(g6
S'\x0f\x93\xe60\x14\xf8J?'
p1037
tp1038
Rp1039
sS'coets_1705_v1_1_0390'
p1040
g2
(g6
S'q(X\x077\x9bF?'
p1041
tp1042
Rp1043
sS'coets_1705_v1_1_0148'
p1044
g2
(g6
S'm\r\xa9\x00\x976H?'
p1045
tp1046
Rp1047
sS'coets_1705_v1_1_0149'
p1048
g2
(g6
S'f\xb3\x93C\x07}H?'
p1049
tp1050
Rp1051
sS'coets_1705_v1_1_0500'
p1052
g2
(g6
S'\xb3A\xc1\xdc3\x1bT?'
p1053
tp1054
Rp1055
sS'coets_1705_v1_1_0501'
p1056
g2
(g6
S'\x0f\xcb\xa2\xa5\x96\x88H?'
p1057
tp1058
Rp1059
sS'coets_1705_v1_1_0496'
p1060
g2
(g6
S'\xcas\x87\xd0#{V?'
p1061
tp1062
Rp1063
sS'coets_1705_v1_1_0497'
p1064
g2
(g6
S'>\xf2\x9a\xf1\x8d\xfdK?'
p1065
tp1066
Rp1067
sS'coets_1705_v1_1_0494'
p1068
g2
(g6
S'\xaf\xadd\xd84\x82N?'
p1069
tp1070
Rp1071
sS'coets_1705_v1_1_0495'
p1072
g2
(g6
S'@\xbd<\xd3\x1beD?'
p1073
tp1074
Rp1075
sS'coets_1705_v1_1_0492'
p1076
g2
(g6
S'\xd4\xcc\xe1\x8e\x04\xb5P?'
p1077
tp1078
Rp1079
sS'coets_1705_v1_1_0146'
p1080
g2
(g6
S'\xa6\xacoN\xf3\x8c\x1f?'
p1081
tp1082
Rp1083
sS'coets_1705_v1_1_0490'
p1084
g2
(g6
S'@\xbd<\xd3\x1beD?'
p1085
tp1086
Rp1087
sS'coets_1705_v1_1_0491'
p1088
g2
(g6
S'\x03\xec\x92H\xdb\x9b\x1c?'
p1089
tp1090
Rp1091
sS'coets_1705_v1_1_0147'
p1092
g2
(g6
S'\xb7\x80\xb9s\xca\xecH?'
p1093
tp1094
Rp1095
sS'coets_1705_v1_1_0498'
p1096
g2
(g6
S'\xffk_\xa7X\xf8R?'
p1097
tp1098
Rp1099
sS'coets_1705_v1_1_0499'
p1100
g2
(g6
S'c\x83\xd7"\xba\x80M?'
p1101
tp1102
Rp1103
sS'coets_1705_v1_1_0423'
p1104
g2
(g6
S'!\xbc\x02\xcfJ\xa6L?'
p1105
tp1106
Rp1107
sS'coets_1705_v1_1_0422'
p1108
g2
(g6
S'\xeb\xd7\xe6\x12|\xc9M?'
p1109
tp1110
Rp1111
sS'coets_1705_v1_1_0421'
p1112
g2
(g6
S'\xd1|\x96\xfa\x1f\x0fJ?'
p1113
tp1114
Rp1115
sS'coets_1705_v1_1_0420'
p1116
g2
(g6
S'\xdaR\xde\xac\x84WH?'
p1117
tp1118
Rp1119
sS'coets_1705_v1_1_0427'
p1120
g2
(g6
S'u\x83\xb2\xa7\xa2TJ?'
p1121
tp1122
Rp1123
sS'coets_1705_v1_1_0426'
p1124
g2
(g6
S'\x9b)\xd6\x1em\xa7F?'
p1125
tp1126
Rp1127
sS'coets_1705_v1_1_0425'
p1128
g2
(g6
S'\x8a\xa4\xcd\xb8u5A?'
p1129
tp1130
Rp1131
sS'coets_1705_v1_1_0424'
p1132
g2
(g6
S'\xe5\xd9\nb&\xde=?'
p1133
tp1134
Rp1135
sS'coets_1705_v1_1_0429'
p1136
g2
(g6
S'\x02\xa7\xba\x9bJOQ?'
p1137
tp1138
Rp1139
sS'coets_1705_v1_1_0428'
p1140
g2
(g6
S'\xab\x87a\xd5\xfe\x06P?'
p1141
tp1142
Rp1143
sS'coets_1705_v1_1_0508'
p1144
g2
(g6
S'\xc4"Rz\x0f\x18H?'
p1145
tp1146
Rp1147
sS'coets_1705_v1_1_0509'
p1148
g2
(g6
S'\x9b\xcc\x17\x8f\x01\xf4Q?'
p1149
tp1150
Rp1151
sS'coets_1705_v1_1_0377'
p1152
g2
(g6
S'pj\x98\xea\x8fNI?'
p1153
tp1154
Rp1155
sS'coets_1705_v1_1_0376'
p1156
g2
(g6
S'\x80\xd5\xf4k\x1f\xb0M?'
p1157
tp1158
Rp1159
sS'coets_1705_v1_1_0250'
p1160
g2
(g6
S'\x98A^l,\xbeA?'
p1161
tp1162
Rp1163
sS'coets_1705_v1_1_0251'
p1164
g2
(g6
S'W\xfc\xfeR\xfe}#?'
p1165
tp1166
Rp1167
sS'coets_1705_v1_1_0252'
p1168
g2
(g6
S'I\x86\xe76\x0f#\x19?'
p1169
tp1170
Rp1171
sS'coets_1705_v1_1_0253'
p1172
g2
(g6
S',\x07({\nQ\x11?'
p1173
tp1174
Rp1175
sS'coets_1705_v1_1_0254'
p1176
g2
(g6
S'%\xa1\xe2A\x12*\x0e?'
p1177
tp1178
Rp1179
sS'coets_1705_v1_1_0255'
p1180
g2
(g6
S',\x07({\nQ\x11?'
p1181
tp1182
Rp1183
sS'coets_1705_v1_1_0256'
p1184
g2
(g6
S'\x9f\x85\x12L\xaf}\x16?'
p1185
tp1186
Rp1187
sS'coets_1705_v1_1_0257'
p1188
g2
(g6
S'\r2\xf5h\x04\x8cM?'
p1189
tp1190
Rp1191
sS'coets_1705_v1_1_0258'
p1192
g2
(g6
S'`\xaa\xf6\xec\xb8D;?'
p1193
tp1194
Rp1195
sS'coets_1705_v1_1_0259'
p1196
g2
(g6
S'\xcd\xcd0\xb8\x02\xc1J?'
p1197
tp1198
Rp1199
sS'coets_1705_v1_1_0393'
p1200
g2
(g6
S'zg\xe2s\x90/I?'
p1201
tp1202
Rp1203
sS'coets_1705_v1_1_0392'
p1204
g2
(g6
S'%\x1dD\xfc\xdb$F?'
p1205
tp1206
Rp1207
sS'coets_1705_v1_1_0395'
p1208
g2
(g6
S'\xe3\xa5\xb2\x98V\xbdK?'
p1209
tp1210
Rp1211
sS'coets_1705_v1_1_0394'
p1212
g2
(g6
S'\xa0i\xf2\xb2\x1bFI?'
p1213
tp1214
Rp1215
sS'coets_1705_v1_1_0397'
p1216
g2
(g6
S'ZB\x0et\xae\xaaG?'
p1217
tp1218
Rp1219
sS'coets_1705_v1_1_0396'
p1220
g2
(g6
S'J\xb0*\xf4L*L?'
p1221
tp1222
Rp1223
sS'coets_1705_v1_1_0078'
p1224
g2
(g6
S'L\xd4\xe9\x8e\x80\x12<?'
p1225
tp1226
Rp1227
sS'coets_1705_v1_1_0079'
p1228
g2
(g6
S'\x9a\xe7D\x10\xd2\x9f.?'
p1229
tp1230
Rp1231
sS'coets_1705_v1_1_0375'
p1232
g2
(g6
S'\x9a^\xc0\x0f\x92\xd2H?'
p1233
tp1234
Rp1235
sS'coets_1705_v1_1_0374'
p1236
g2
(g6
S'\xa4\xf2\xc7\xde\x9dgD?'
p1237
tp1238
Rp1239
sS'coets_1705_v1_1_0373'
p1240
g2
(g6
S'\xd6%zp\xf9\x7fF?'
p1241
tp1242
Rp1243
sS'coets_1705_v1_1_0372'
p1244
g2
(g6
S',\xed)IQ.D?'
p1245
tp1246
Rp1247
sS'coets_1705_v1_1_0371'
p1248
g2
(g6
S'p<\xa2\x86\xaflG?'
p1249
tp1250
Rp1251
sS'coets_1705_v1_1_0370'
p1252
g2
(g6
S'jXr\xba\xc1\x91H?'
p1253
tp1254
Rp1255
sS'coets_1705_v1_1_0070'
p1256
g2
(g6
S'3+\xff\xfd\xb0\xd0G?'
p1257
tp1258
Rp1259
sS'coets_1705_v1_1_0071'
p1260
g2
(g6
S'\x0e4\x9aL\xbe\xf5L?'
p1261
tp1262
Rp1263
sS'coets_1705_v1_1_0072'
p1264
g2
(g6
S'j\x10:\x88\xab\x1aM?'
p1265
tp1266
Rp1267
sS'coets_1705_v1_1_0073'
p1268
g2
(g6
S'\xa3\x10Q\xef\n\xf2A?'
p1269
tp1270
Rp1271
sS'coets_1705_v1_1_0074'
p1272
g2
(g6
S'B7K\x81\xcf\x15\x18?'
p1273
tp1274
Rp1275
sS'coets_1705_v1_1_0075'
p1276
g2
(g6
S'2N!>h\xff\x15?'
p1277
tp1278
Rp1279
sS'coets_1705_v1_1_0076'
p1280
g2
(g6
S'\xfe\xb0z\x8c\xa5@R?'
p1281
tp1282
Rp1283
sS'coets_1705_v1_1_0077'
p1284
g2
(g6
S'\xb0\x85\x84<q\xebI?'
p1285
tp1286
Rp1287
sS'coets_1705_v1_1_0171'
p1288
g2
(g6
S'\xa7/\xbd\xd43$I?'
p1289
tp1290
Rp1291
sS'coets_1705_v1_1_0170'
p1292
g2
(g6
S'\xc7\xb5\x19\x08\xf8\xf2\x17?'
p1293
tp1294
Rp1295
sS'coets_1705_v1_1_0173'
p1296
g2
(g6
S'\x9f\xa7\x9e\xd3\xf0\xf4\n?'
p1297
tp1298
Rp1299
sS'coets_1705_v1_1_0172'
p1300
g2
(g6
S'\xff\x7f\xd6\x1b\x0boM?'
p1301
tp1302
Rp1303
sS'coets_1705_v1_1_0175'
p1304
g2
(g6
S'\xc5\xe7\xe6\xdf\x81]!?'
p1305
tp1306
Rp1307
sS'coets_1705_v1_1_0174'
p1308
g2
(g6
S'\x07[!\xf3\xa8\xbbL?'
p1309
tp1310
Rp1311
sS'coets_1705_v1_1_0177'
p1312
g2
(g6
S'\xa7\xbd4>]\x16L?'
p1313
tp1314
Rp1315
sS'coets_1705_v1_1_0176'
p1316
g2
(g6
S'\xad\xb2\xb0\xebG\xff<?'
p1317
tp1318
Rp1319
sS'coets_1705_v1_1_0179'
p1320
g2
(g6
S'\xbc\xc9\tA\xf0\x1cL?'
p1321
tp1322
Rp1323
sS'coets_1705_v1_1_0178'
p1324
g2
(g6
S'B\x02\xee\x81\xa2fF?'
p1325
tp1326
Rp1327
sS'coets_1705_v1_1_0378'
p1328
g2
(g6
S'\xc9\xb3)b%\xd5Q?'
p1329
tp1330
Rp1331
sS'coets_1705_v1_1_0085'
p1332
g2
(g6
S'\x0c\x81sN\xf3?<?'
p1333
tp1334
Rp1335
sS'coets_1705_v1_1_0084'
p1336
g2
(g6
S'+\x13\xfd\xc2*o\x17?'
p1337
tp1338
Rp1339
sS'coets_1705_v1_1_0087'
p1340
g2
(g6
S'Z\x0e\xc0=?r\x19?'
p1341
tp1342
Rp1343
sS'coets_1705_v1_1_0086'
p1344
g2
(g6
S'n\x13)\x0e\xc0\x7f\x0c?'
p1345
tp1346
Rp1347
sS'coets_1705_v1_1_0081'
p1348
g2
(g6
S'@\xcc\x94h\xe0[H?'
p1349
tp1350
Rp1351
sS'coets_1705_v1_1_0080'
p1352
g2
(g6
S'\x13\xf9\x80=8e#?'
p1353
tp1354
Rp1355
sS'coets_1705_v1_1_0083'
p1356
g2
(g6
S'\x89B=\xcc\xa8\x0b ?'
p1357
tp1358
Rp1359
sS'coets_1705_v1_1_0082'
p1360
g2
(g6
S'N\x80\\\x85\x99` ?'
p1361
tp1362
Rp1363
sS'coets_1705_v1_1_0089'
p1364
g2
(g6
S'\xb8\x91~c4vE?'
p1365
tp1366
Rp1367
sS'coets_1705_v1_1_0088'
p1368
g2
(g6
S'\x103\x16\xf1\x02\x82E?'
p1369
tp1370
Rp1371
sS'coets_1705_v1_1_0531'
p1372
g2
(g6
S'y\xac\x08/\xe6eD?'
p1373
tp1374
Rp1375
sS'coets_1705_v1_1_0530'
p1376
g2
(g6
S'y\xbf\xcbg\xe7\xa4R?'
p1377
tp1378
Rp1379
sS'coets_1705_v1_1_0104'
p1380
g2
(g6
S'!~\xa9\xba\x10\x9c!?'
p1381
tp1382
Rp1383
sS'coets_1705_v1_1_0105'
p1384
g2
(g6
S"\x0c\x92A\xccL'#?"
p1385
tp1386
Rp1387
sS'coets_1705_v1_1_0106'
p1388
g2
(g6
S'DJ\xf3?\xb2q\x12?'
p1389
tp1390
Rp1391
sS'coets_1705_v1_1_0107'
p1392
g2
(g6
S'\xce\xca\xb4`\x9a\xc8R?'
p1393
tp1394
Rp1395
sS'coets_1705_v1_1_0100'
p1396
g2
(g6
S'm\xed\x89U\xdfI.?'
p1397
tp1398
Rp1399
sS'coets_1705_v1_1_0101'
p1400
g2
(g6
S'/\xa2D_\xd4\x18D?'
p1401
tp1402
Rp1403
sS'coets_1705_v1_1_0102'
p1404
g2
(g6
S'\xfbgj\xe9\x06\xb5@?'
p1405
tp1406
Rp1407
sS'coets_1705_v1_1_0103'
p1408
g2
(g6
S'\xa7z\xd2E\xa26!?'
p1409
tp1410
Rp1411
sS'coets_1705_v1_1_0108'
p1412
g2
(g6
S'\x00\x9e\xddZ\x90WM?'
p1413
tp1414
Rp1415
sS'coets_1705_v1_1_0109'
p1416
g2
(g6
S'\xef3iS\xdc\xd2S?'
p1417
tp1418
Rp1419
sS'coets_1705_v1_1_0458'
p1420
g2
(g6
S'\\\xf1\x83\x07,\xd5N?'
p1421
tp1422
Rp1423
sS'coets_1705_v1_1_0459'
p1424
g2
(g6
S'\xab#\x14\xfb\x1e\xf6O?'
p1425
tp1426
Rp1427
sS'coets_1705_v1_1_0289'
p1428
g2
(g6
S':;\x9c\xaa|RF?'
p1429
tp1430
Rp1431
sS'coets_1705_v1_1_0452'
p1432
g2
(g6
S'\x9a\xe8\xa2;3xN?'
p1433
tp1434
Rp1435
sS'coets_1705_v1_1_0453'
p1436
g2
(g6
S'\x7f\xae\xf2\x94\x83\x17,?'
p1437
tp1438
Rp1439
sS'coets_1705_v1_1_0450'
p1440
g2
(g6
S'\xec\xa9\xf0\xae\x9b\xe7K?'
p1441
tp1442
Rp1443
sS'coets_1705_v1_1_0327'
p1444
g2
(g6
S'\xa2\x8fy\xff\xd4\xd8K?'
p1445
tp1446
Rp1447
sS'coets_1705_v1_1_0456'
p1448
g2
(g6
S'\x08\x82\xb4\xe1\xa2\xb3Q?'
p1449
tp1450
Rp1451
sS'coets_1705_v1_1_0457'
p1452
g2
(g6
S'\x19\xa8\x0f\x98\xdd\xadP?'
p1453
tp1454
Rp1455
sS'coets_1705_v1_1_0454'
p1456
g2
(g6
S'\xe8\xec\xc2\xb9I\xa5N?'
p1457
tp1458
Rp1459
sS'coets_1705_v1_1_0455'
p1460
g2
(g6
S'\x85\xfbd\x1bf>O?'
p1461
tp1462
Rp1463
sS'coets_1705_v1_1_0209'
p1464
g2
(g6
S'\xbbS@\xd8\xef\x9cD?'
p1465
tp1466
Rp1467
sS'coets_1705_v1_1_0208'
p1468
g2
(g6
S'z\x02\xe01v\xf9\xfb>'
p1469
tp1470
Rp1471
sS'coets_1705_v1_1_0207'
p1472
g2
(g6
S'\x1e\x8d\x80\xb1C%O?'
p1473
tp1474
Rp1475
sS'coets_1705_v1_1_0206'
p1476
g2
(g6
S'z\x02\xe01v\xf9\xfb>'
p1477
tp1478
Rp1479
sS'coets_1705_v1_1_0205'
p1480
g2
(g6
S'\xba\xb1\x8asT9\xfc>'
p1481
tp1482
Rp1483
sS'coets_1705_v1_1_0204'
p1484
g2
(g6
S'\x03\xba^\x8c\xf5@K?'
p1485
tp1486
Rp1487
sS'coets_1705_v1_1_0203'
p1488
g2
(g6
S"iN\x06UX\x81'?"
p1489
tp1490
Rp1491
sS'coets_1705_v1_1_0202'
p1492
g2
(g6
S'C\xe0X\x0eP\xf6$?'
p1493
tp1494
Rp1495
sS'coets_1705_v1_1_0201'
p1496
g2
(g6
S'\xac|iH\xae\xd04?'
p1497
tp1498
Rp1499
sS'coets_1705_v1_1_0200'
p1500
g2
(g6
S'\x97A^l,\xbeA?'
p1501
tp1502
Rp1503
sS'coets_1705_v1_1_0513'
p1504
g2
(g6
S'\xf8\xdd\xa6\xca\x05&Q?'
p1505
tp1506
Rp1507
sS'coets_1705_v1_1_0512'
p1508
g2
(g6
S'\xed\xee\xa5Q\x14g(?'
p1509
tp1510
Rp1511
sS'coets_1705_v1_1_0511'
p1512
g2
(g6
S'\x16YJm?\x7fL?'
p1513
tp1514
Rp1515
sS'coets_1705_v1_1_0510'
p1516
g2
(g6
S'\x90,?8\xa3\x19K?'
p1517
tp1518
Rp1519
sS'coets_1705_v1_1_0517'
p1520
g2
(g6
S'\xcfw\xcd\xa5\x0c\nN?'
p1521
tp1522
Rp1523
sS'coets_1705_v1_1_0516'
p1524
g2
(g6
S'_\xfd2\x99\x89\xa9I?'
p1525
tp1526
Rp1527
sS'coets_1705_v1_1_0515'
p1528
g2
(g6
S'5h\xb0\x92t\x97P?'
p1529
tp1530
Rp1531
sS'coets_1705_v1_1_0514'
p1532
g2
(g6
S'H\x88V\x0cY\xefM?'
p1533
tp1534
Rp1535
sS'coets_1705_v1_1_0519'
p1536
g2
(g6
S'aJ\x11\x05\x0b\xa22?'
p1537
tp1538
Rp1539
sS'coets_1705_v1_1_0518'
p1540
g2
(g6
S'<\xad\xe1\xed\xd8\xdbN?'
p1541
tp1542
Rp1543
sS'coets_1705_v1_1_0339'
p1544
g2
(g6
S'-fV\x85\xc1\x13I?'
p1545
tp1546
Rp1547
sS'coets_1705_v1_1_0338'
p1548
g2
(g6
S'H\xb8\x88\xaa\x0e\xfdM?'
p1549
tp1550
Rp1551
sS'coets_1705_v1_1_0333'
p1552
g2
(g6
S'\xf0QE,2\xa4A?'
p1553
tp1554
Rp1555
sS'coets_1705_v1_1_0332'
p1556
g2
(g6
S'\x1fE\x1d\x9d4"O?'
p1557
tp1558
Rp1559
sS'coets_1705_v1_1_0331'
p1560
g2
(g6
S'G\x1e#\x89\xc9\x84A?'
p1561
tp1562
Rp1563
sS'coets_1705_v1_1_0330'
p1564
g2
(g6
S'!\xbeS\xefQ\xa8L?'
p1565
tp1566
Rp1567
sS'coets_1705_v1_1_0337'
p1568
g2
(g6
S'\xbaU\xd9^\xa2=I?'
p1569
tp1570
Rp1571
sS'coets_1705_v1_1_0336'
p1572
g2
(g6
S'\xa9\x86\xef\xbb\xac\xefK?'
p1573
tp1574
Rp1575
sS'coets_1705_v1_1_0335'
p1576
g2
(g6
S'9\x0eY\x1b1\x7f5?'
p1577
tp1578
Rp1579
sS'coets_1705_v1_1_0334'
p1580
g2
(g6
S'\x95\xb8\x06\xe1\xab\x87R?'
p1581
tp1582
Rp1583
sS'coets_1705_v1_1_0313'
p1584
g2
(g6
S'\xf4\xd5\xb7G\x98\xa5P?'
p1585
tp1586
Rp1587
sS'coets_1705_v1_1_0312'
p1588
g2
(g6
S'tcJ?c\xa6K?'
p1589
tp1590
Rp1591
sS'coets_1705_v1_1_0027'
p1592
g2
(g6
S'\xe5J\x97\xc4X\xac@?'
p1593
tp1594
Rp1595
sS'coets_1705_v1_1_0026'
p1596
g2
(g6
S'-!\xc6X[\x9a@?'
p1597
tp1598
Rp1599
sS'coets_1705_v1_1_0025'
p1600
g2
(g6
S'l\x19\x9a\x01\x83\xf7G?'
p1601
tp1602
Rp1603
sS'coets_1705_v1_1_0024'
p1604
g2
(g6
S'\x19c\xc5\x96L_A?'
p1605
tp1606
Rp1607
sS'coets_1705_v1_1_0023'
p1608
g2
(g6
S'\xfc;\xf2:\x04\xeaE?'
p1609
tp1610
Rp1611
sS'coets_1705_v1_1_0022'
p1612
g2
(g6
S'\x19\xb0\x9e\x98\x81\xa9@?'
p1613
tp1614
Rp1615
sS'coets_1705_v1_1_0021'
p1616
g2
(g6
S'L\xd4\xe9\x8e\x80\x12<?'
p1617
tp1618
Rp1619
sS'coets_1705_v1_1_0020'
p1620
g2
(g6
S'%S\x7f\xee\tN??'
p1621
tp1622
Rp1623
sS'coets_1705_v1_1_0140'
p1624
g2
(g6
S'\x99\xd1\xd1\xaek\x1e\x0b?'
p1625
tp1626
Rp1627
sS'coets_1705_v1_1_0141'
p1628
g2
(g6
S'g"[h\x92(\x04?'
p1629
tp1630
Rp1631
sS'coets_1705_v1_1_0142'
p1632
g2
(g6
S'{\xf9\x0b\x90\x88.)?'
p1633
tp1634
Rp1635
sS'coets_1705_v1_1_0143'
p1636
g2
(g6
S'\xca\xd1\x08\xdbJ\xd7M?'
p1637
tp1638
Rp1639
sS'coets_1705_v1_1_0144'
p1640
g2
(g6
S"\xad\xd0db\xe3\xc5'?"
p1641
tp1642
Rp1643
sS'coets_1705_v1_1_0145'
p1644
g2
(g6
S'\x94\xbe\xa1\x8a\xe5n??'
p1645
tp1646
Rp1647
sS'coets_1705_v1_1_0029'
p1648
g2
(g6
S'\xcc\x92q\xde}\x7fA?'
p1649
tp1650
Rp1651
sS'coets_1705_v1_1_0028'
p1652
g2
(g6
S'\xa4:(MN\x87C?'
p1653
tp1654
Rp1655
sS'coets_1705_v1_1_0319'
p1656
g2
(g6
S'JB\x893\x8f\x043?'
p1657
tp1658
Rp1659
sS'coets_1705_v1_1_0318'
p1660
g2
(g6
S'\x01\xc1\x9e\xd0\xfeZD?'
p1661
tp1662
Rp1663
sS'coets_1705_v1_1_0388'
p1664
g2
(g6
S'\x92\x0bg\xfc\x89\xe6O?'
p1665
tp1666
Rp1667
sS'coets_1705_v1_1_0389'
p1668
g2
(g6
S'\x8b\x1afe\x9e\tF?'
p1669
tp1670
Rp1671
sS'coets_1705_v1_1_0382'
p1672
g2
(g6
S'\xda\xf6l\xbd\x8d\rO?'
p1673
tp1674
Rp1675
sS'coets_1705_v1_1_0383'
p1676
g2
(g6
S'\xf8\x08\x0e\x8d\x82QE?'
p1677
tp1678
Rp1679
sS'coets_1705_v1_1_0481'
p1680
g2
(g6
S'\xa4\x99\xf6\\\x07\xfdJ?'
p1681
tp1682
Rp1683
sS'coets_1705_v1_1_0480'
p1684
g2
(g6
S'\xac\xb3\x19\x15\x8b$P?'
p1685
tp1686
Rp1687
sS'coets_1705_v1_1_0483'
p1688
g2
(g6
S'\x85Y\x11\xacC\x94C?'
p1689
tp1690
Rp1691
sS'coets_1705_v1_1_0482'
p1692
g2
(g6
S'c\t\xd1\x15=\xa2F?'
p1693
tp1694
Rp1695
sS'coets_1705_v1_1_0485'
p1696
g2
(g6
S't\xf0\xd2\x9b\xc6\xd2T?'
p1697
tp1698
Rp1699
sS'coets_1705_v1_1_0484'
p1700
g2
(g6
S'(\x89\xa05\xb9\xaaD?'
p1701
tp1702
Rp1703
sS'coets_1705_v1_1_0487'
p1704
g2
(g6
S'\x938\xff\xde\xaa\xc9S?'
p1705
tp1706
Rp1707
sS'coets_1705_v1_1_0486'
p1708
g2
(g6
S'u1\xcf6\xeccI?'
p1709
tp1710
Rp1711
sS'coets_1705_v1_1_0489'
p1712
g2
(g6
S'\xfc\xe3\xc2Ia\x0fV?'
p1713
tp1714
Rp1715
sS'coets_1705_v1_1_0030'
p1716
g2
(g6
S'\x87!\xfbt\x01wP?'
p1717
tp1718
Rp1719
sS'coets_1705_v1_1_0031'
p1720
g2
(g6
S'{\xd9\x87\xe3\xbf\x92L?'
p1721
tp1722
Rp1723
sS'coets_1705_v1_1_0418'
p1724
g2
(g6
S'\x18i.\xe3x@I?'
p1725
tp1726
Rp1727
sS'coets_1705_v1_1_0419'
p1728
g2
(g6
S'\x97\x9a\x9e\x8d\xfbFK?'
p1729
tp1730
Rp1731
sS'coets_1705_v1_1_0416'
p1732
g2
(g6
S'f\x87\x7fm-\x04@?'
p1733
tp1734
Rp1735
sS'coets_1705_v1_1_0417'
p1736
g2
(g6
S'/\x00\xe2\xa0t\xf5D?'
p1737
tp1738
Rp1739
sS'coets_1705_v1_1_0414'
p1740
g2
(g6
S'\x85q\x82\xef\xc4\x98I?'
p1741
tp1742
Rp1743
sS'coets_1705_v1_1_0415'
p1744
g2
(g6
S'!\xbc\x02\xcfJ\xa6<?'
p1745
tp1746
Rp1747
sS'coets_1705_v1_1_0412'
p1748
g2
(g6
S'\x1a\xffY\x01/\xeaD?'
p1749
tp1750
Rp1751
sS'coets_1705_v1_1_0413'
p1752
g2
(g6
S'\x95\xb5a\xc1\xee\xe7A?'
p1753
tp1754
Rp1755
sS'coets_1705_v1_1_0410'
p1756
g2
(g6
S'K\x1fT;g;F?'
p1757
tp1758
Rp1759
sS'coets_1705_v1_1_0411'
p1760
g2
(g6
S'q\xb2:3\xd8@<?'
p1761
tp1762
Rp1763
sS'coets_1705_v1_1_0038'
p1764
g2
(g6
S'\xb2\xeb\xd18\x07W\x0b?'
p1765
tp1766
Rp1767
sS'coets_1705_v1_1_0039'
p1768
g2
(g6
S'\x19\x87}\x89:\xddA?'
p1769
tp1770
Rp1771
sS'coets_1705_v1_1_0243'
p1772
g2
(g6
S"\x8ch\xca'\xb4\x9e\x07?"
p1773
tp1774
Rp1775
sS'coets_1705_v1_1_0242'
p1776
g2
(g6
S'dP\x85\x15xq/?'
p1777
tp1778
Rp1779
sS'coets_1705_v1_1_0241'
p1780
g2
(g6
S'\x10\xb1\xb5\x88\xf4\x93)?'
p1781
tp1782
Rp1783
sS'coets_1705_v1_1_0240'
p1784
g2
(g6
S'\x08"#\x86\rX\x06?'
p1785
tp1786
Rp1787
sS'coets_1705_v1_1_0247'
p1788
g2
(g6
S'@\x83\x95z\xb9(\t?'
p1789
tp1790
Rp1791
sS'coets_1705_v1_1_0246'
p1792
g2
(g6
S'\xc6\xbd^\xd5\x0b\x8d\x13?'
p1793
tp1794
Rp1795
sS'coets_1705_v1_1_0245'
p1796
g2
(g6
S'\x14\x19z\x82\x0c\xabD?'
p1797
tp1798
Rp1799
sS'coets_1705_v1_1_0244'
p1800
g2
(g6
S'\xf6\xcf\x1b\x84\xb3T"?'
p1801
tp1802
Rp1803
sS'coets_1705_v1_1_0249'
p1804
g2
(g6
S'\x18w\xf5\xac\xd3\x7f\x12?'
p1805
tp1806
Rp1807
sS'coets_1705_v1_1_0248'
p1808
g2
(g6
S'\x89\xcbFP=cG?'
p1809
tp1810
Rp1811
sS'coets_1705_v1_1_0342'
p1812
g2
(g6
S'\xf9\xd7\xbbo\xec7I?'
p1813
tp1814
Rp1815
sS'coets_1705_v1_1_0343'
p1816
g2
(g6
S'oM\xd2\xac\xd1\xafH?'
p1817
tp1818
Rp1819
sS'coets_1705_v1_1_0340'
p1820
g2
(g6
S'\x95tJ\xf7\xd9\xd7J?'
p1821
tp1822
Rp1823
sS'coets_1705_v1_1_0068'
p1824
g2
(g6
S'Z\x0e\xc0=?rI?'
p1825
tp1826
Rp1827
sS'coets_1705_v1_1_0346'
p1828
g2
(g6
S' Q1]X\x03Q?'
p1829
tp1830
Rp1831
sS'coets_1705_v1_1_0347'
p1832
g2
(g6
S']\x17\xae\xe0\x96eK?'
p1833
tp1834
Rp1835
sS'coets_1705_v1_1_0344'
p1836
g2
(g6
S'k\n\x17\x8b\xf4\xe5D?'
p1837
tp1838
Rp1839
sS'coets_1705_v1_1_0345'
p1840
g2
(g6
S'*\xb2\x9b\xea\xc6\xc6,?'
p1841
tp1842
Rp1843
sS'coets_1705_v1_1_0063'
p1844
g2
(g6
S'k\t\x86\x80\xf9\xb2P?'
p1845
tp1846
Rp1847
sS'coets_1705_v1_1_0062'
p1848
g2
(g6
S's\x98[\xf8y\x84+?'
p1849
tp1850
Rp1851
sS'coets_1705_v1_1_0348'
p1852
g2
(g6
S'\xf1Sr%\xa0\xb6M?'
p1853
tp1854
Rp1855
sS'coets_1705_v1_1_0060'
p1856
g2
(g6
S'\xc0\x82\x95j\x84EO?'
p1857
tp1858
Rp1859
sS'coets_1705_v1_1_0067'
p1860
g2
(g6
S'\x0843\xe0\x1a\\B?'
p1861
tp1862
Rp1863
sS'coets_1705_v1_1_0066'
p1864
g2
(g6
S'\x13\xa3G\xc2+>I?'
p1865
tp1866
Rp1867
sS'coets_1705_v1_1_0065'
p1868
g2
(g6
S'g\xe1\xd60\x8d\xa6C?'
p1869
tp1870
Rp1871
sS'coets_1705_v1_1_0064'
p1872
g2
(g6
S'y\xac\x08/\xe6eD?'
p1873
tp1874
Rp1875
sS'coets_1705_v1_1_0188'
p1876
g2
(g6
S'\x96\xe1\x02\xe4\x0fA\x1a?'
p1877
tp1878
Rp1879
sS'coets_1705_v1_1_0189'
p1880
g2
(g6
S'\x8f\xf8\x0c\xb1\xa1\xf9\x07?'
p1881
tp1882
Rp1883
sS'coets_1705_v1_1_0184'
p1884
g2
(g6
S'fW\xe5~\xe2OG?'
p1885
tp1886
Rp1887
sS'coets_1705_v1_1_0185'
p1888
g2
(g6
S'w\xc4\x1dqG\xdc!?'
p1889
tp1890
Rp1891
sS'coets_1705_v1_1_0186'
p1892
g2
(g6
S'|\xd4\xefS>\x10)?'
p1893
tp1894
Rp1895
sS'coets_1705_v1_1_0187'
p1896
g2
(g6
S'r\x04[V\xd6D\x13?'
p1897
tp1898
Rp1899
sS'coets_1705_v1_1_0180'
p1900
g2
(g6
S'q(wz\xa39)?'
p1901
tp1902
Rp1903
sS'coets_1705_v1_1_0181'
p1904
g2
(g6
S'\xc7O\x8bm\xfc\xb4H?'
p1905
tp1906
Rp1907
sS'coets_1705_v1_1_0182'
p1908
g2
(g6
S'\x06\xcbKD\xd6pL?'
p1909
tp1910
Rp1911
sS'coets_1705_v1_1_0183'
p1912
g2
(g6
S']\xa2\x8d{\xbd\xaa\x17?'
p1913
tp1914
Rp1915
sS'coets_1705_v1_1_0117'
p1916
g2
(g6
S'|\xf9\x0b\x90\x88.I?'
p1917
tp1918
Rp1919
sS'coets_1705_v1_1_0116'
p1920
g2
(g6
S'\xce\x9b;\xfa\x94xK?'
p1921
tp1922
Rp1923
sS'coets_1705_v1_1_0115'
p1924
g2
(g6
S'4\xc3\xc2\x08\x8f)P?'
p1925
tp1926
Rp1927
sS'coets_1705_v1_1_0114'
p1928
g2
(g6
S'A6\xa3\xf6%\xc1N?'
p1929
tp1930
Rp1931
sS'coets_1705_v1_1_0113'
p1932
g2
(g6
S'8pM\xe7V\x06P?'
p1933
tp1934
Rp1935
sS'coets_1705_v1_1_0112'
p1936
g2
(g6
S's\x1e\xc1\xb8\xea\xe1I?'
p1937
tp1938
Rp1939
sS'coets_1705_v1_1_0111'
p1940
g2
(g6
S',\xaf3\xe6\x05VR?'
p1941
tp1942
Rp1943
sS'coets_1705_v1_1_0110'
p1944
g2
(g6
S'\x15\x7f\xbc\x97l8O?'
p1945
tp1946
Rp1947
sS'coets_1705_v1_1_0447'
p1948
g2
(g6
S'+\xf7\xce\x88\r\x97T?'
p1949
tp1950
Rp1951
sS'coets_1705_v1_1_0119'
p1952
g2
(g6
S'\x07?\x85\xe8?\xf9K?'
p1953
tp1954
Rp1955
sS'coets_1705_v1_1_0118'
p1956
g2
(g6
S'\x1a\x02]\xe6\x96\xf1M?'
p1957
tp1958
Rp1959
sS'coets_1705_v1_1_0528'
p1960
g2
(g6
S'\xd6\tC\xeb\xeelH?'
p1961
tp1962
Rp1963
sS'coets_1705_v1_1_0529'
p1964
g2
(g6
S'S\xa0p\xdbk)\x1c?'
p1965
tp1966
Rp1967
sS'coets_1705_v1_1_0522'
p1968
g2
(g6
S']\xb8\x8a\xaa~cJ?'
p1969
tp1970
Rp1971
sS'coets_1705_v1_1_0523'
p1972
g2
(g6
S'/\x95\x0bsn\x10H?'
p1973
tp1974
Rp1975
sS'coets_1705_v1_1_0488'
p1976
g2
(g6
S'\xd8\x8f\t\x9fs\xfbG?'
p1977
tp1978
Rp1979
sS'coets_1705_v1_1_0359'
p1980
g2
(g6
S'\x8ax\xcb"e\xb6E?'
p1981
tp1982
Rp1983
sS'coets_1705_v1_1_0291'
p1984
g2
(g6
S'\xe2\xd3\xc9\xb9\x85\xbb%?'
p1985
tp1986
Rp1987
sS'coets_1705_v1_1_0351'
p1988
g2
(g6
S'\xd4\x12\x01\x1d{\xb9M?'
p1989
tp1990
Rp1991
sS'coets_1705_v1_1_0350'
p1992
g2
(g6
S'\x9d"\xa9\x0f\x0f4G?'
p1993
tp1994
Rp1995
sS'coets_1705_v1_1_0238'
p1996
g2
(g6
S'\x08\xf6\xa9\xfa|f\x0c?'
p1997
tp1998
Rp1999
sS'coets_1705_v1_1_0239'
p2000
g2
(g6
S'e\xe1M\xc22\xa5F?'
p2001
tp2002
Rp2003
sS'coets_1705_v1_1_0232'
p2004
g2
(g6
S'\x88\xf5\xf7\x04blU?'
p2005
tp2006
Rp2007
sS'coets_1705_v1_1_0233'
p2008
g2
(g6
S'B4\xbbw\x99\x08Q?'
p2009
tp2010
Rp2011
sS'coets_1705_v1_1_0230'
p2012
g2
(g6
S'\xc8\xaf\xe6\xf5\x182P?'
p2013
tp2014
Rp2015
sS'coets_1705_v1_1_0231'
p2016
g2
(g6
S'm\xbfN\x95U.P?'
p2017
tp2018
Rp2019
sS'coets_1705_v1_1_0236'
p2020
g2
(g6
S'\x92\xba4\xdb@\x1c\x12?'
p2021
tp2022
Rp2023
sS'coets_1705_v1_1_0237'
p2024
g2
(g6
S'\xdb\x17\xcfHa*+?'
p2025
tp2026
Rp2027
sS'coets_1705_v1_1_0234'
p2028
g2
(g6
S'\xca\xc0\xd3\xad\xf9aQ?'
p2029
tp2030
Rp2031
sS'coets_1705_v1_1_0235'
p2032
g2
(g6
S'\xddw*\xd1}\xa7"?'
p2033
tp2034
Rp2035
sS'coets_1705_v1_1_0445'
p2036
g2
(g6
S'|\xc90\xa1@2M?'
p2037
tp2038
Rp2039
sS'coets_1705_v1_1_0444'
p2040
g2
(g6
S'f\xfd\x92\xf2\x1fRO?'
p2041
tp2042
Rp2043
sS'coets_1705_v1_1_0328'
p2044
g2
(g6
S'\xdd\xf5\xd9\x9d\xfb\xebO?'
p2045
tp2046
Rp2047
sS'coets_1705_v1_1_0446'
p2048
g2
(g6
S'\xef\xed\xd4DM6T?'
p2049
tp2050
Rp2051
sS'coets_1705_v1_1_0441'
p2052
g2
(g6
S'\x9e\xb2\xabJ\xef\xc8Q?'
p2053
tp2054
Rp2055
sS'coets_1705_v1_1_0440'
p2056
g2
(g6
S'k\x89\x9e\xf8O\x19P?'
p2057
tp2058
Rp2059
sS'coets_1705_v1_1_0443'
p2060
g2
(g6
S'\x85\xc0\x9d\xec\x87ZR?'
p2061
tp2062
Rp2063
sS'coets_1705_v1_1_0442'
p2064
g2
(g6
S'\xfe\xcb\x9d\xe7\xc3\xd2R?'
p2065
tp2066
Rp2067
sS'coets_1705_v1_1_0526'
p2068
g2
(g6
S'\xefz@\xe5;\xdfO?'
p2069
tp2070
Rp2071
sS'coets_1705_v1_1_0527'
p2072
g2
(g6
S'\xf9 \x8a$H\xedP?'
p2073
tp2074
Rp2075
sS'coets_1705_v1_1_0524'
p2076
g2
(g6
S'\xa8\xeao\x07\xc4\xceP?'
p2077
tp2078
Rp2079
sS'coets_1705_v1_1_0525'
p2080
g2
(g6
S'=3\xdb\xe0[\xfd\x17?'
p2081
tp2082
Rp2083
sS'coets_1705_v1_1_0449'
p2084
g2
(g6
S"'\xf5\xaf\xfd\xea\x81D?"
p2085
tp2086
Rp2087
sS'coets_1705_v1_1_0448'
p2088
g2
(g6
S'\x89}F\xba\xa3\x16J?'
p2089
tp2090
Rp2091
sS'coets_1705_v1_1_0520'
p2092
g2
(g6
S"\xd5\x83Z\r\x16'M?"
p2093
tp2094
Rp2095
sS'coets_1705_v1_1_0521'
p2096
g2
(g6
S'0\xd6)8\xe8XH?'
p2097
tp2098
Rp2099
s.