(dp0
S'coets_1705_v1_1_0054.tif'
p1
(I2300
I3852
tp2
sS'coets_1705_v1_1_0471.tif'
p3
(I2286
I3848
tp4
sS'coets_1705_v1_1_0302.tif'
p5
(I2300
I3832
tp6
sS'coets_1705_v1_1_0223.tif'
p7
(I2322
I3840
tp8
sS'coets_1705_v1_1_0365.tif'
p9
(I2322
I3846
tp10
sS'coets_1705_v1_1_0033.tif'
p11
(I2300
I3852
tp12
sS'coets_1705_v1_1_0215.tif'
p13
(I2322
I3840
tp14
sS'coets_1705_v1_1_0392.tif'
p15
(I2322
I3846
tp16
sS'coets_1705_v1_1_0339.tif'
p17
(I2300
I3832
tp18
sS'coets_1705_v1_1_0100.tif'
p19
(I2326
I3840
tp20
sS'coets_1705_v1_1_0080.tif'
p21
(I2300
I3852
tp22
sS'coets_1705_v1_1_0389.tif'
p23
(I2322
I3846
tp24
sS'coets_1705_v1_1_0091.tif'
p25
(I2326
I3840
tp26
sS'coets_1705_v1_1_0274.tif'
p27
(I2300
I3832
tp28
sS'coets_1705_v1_1_0484.tif'
p29
(I2286
I3848
tp30
sS'coets_1705_v1_1_0328.tif'
p31
(I2300
I3832
tp32
sS'coets_1705_v1_1_0448.tif'
p33
(I2322
I3846
tp34
sS'coets_1705_v1_1_0388.tif'
p35
(I2322
I3846
tp36
sS'coets_1705_v1_1_0205.tif'
p37
(I2322
I3840
tp38
sS'coets_1705_v1_1_0470.tif'
p39
(I2286
I3848
tp40
sS'coets_1705_v1_1_0383.tif'
p41
(I2322
I3846
tp42
sS'coets_1705_v1_1_0406.tif'
p43
(I2322
I3846
tp44
sS'coets_1705_v1_1_0213.tif'
p45
(I2322
I3840
tp46
sS'coets_1705_v1_1_0209.tif'
p47
(I2322
I3840
tp48
sS'coets_1705_v1_1_0367.tif'
p49
(I2322
I3846
tp50
sS'coets_1705_v1_1_0134.tif'
p51
(I2326
I3840
tp52
sS'coets_1705_v1_1_0028.tif'
p53
(I2300
I3852
tp54
sS'coets_1705_v1_1_0371.tif'
p55
(I2322
I3846
tp56
sS'coets_1705_v1_1_0524.tif'
p57
(I2286
I3848
tp58
sS'coets_1705_v1_1_0449.tif'
p59
(I2322
I3846
tp60
sS'coets_1705_v1_1_0170.tif'
p61
(I2326
I3840
tp62
sS'coets_1705_v1_1_0214.tif'
p63
(I2322
I3840
tp64
sS'coets_1705_v1_1_0112.tif'
p65
(I2326
I3840
tp66
sS'coets_1705_v1_1_0301.tif'
p67
(I2300
I3832
tp68
sS'coets_1705_v1_1_0192.tif'
p69
(I2322
I3840
tp70
sS'coets_1705_v1_1_0239.tif'
p71
(I2322
I3840
tp72
sS'coets_1705_v1_1_0530.tif'
p73
(I2286
I3848
tp74
sS'coets_1705_v1_1_0108.tif'
p75
(I2326
I3840
tp76
sS'coets_1705_v1_1_0225.tif'
p77
(I2322
I3840
tp78
sS'coets_1705_v1_1_0039.tif'
p79
(I2300
I3852
tp80
sS'coets_1705_v1_1_0377.tif'
p81
(I2322
I3846
tp82
sS'coets_1705_v1_1_0297.tif'
p83
(I2300
I3832
tp84
sS'coets_1705_v1_1_0321.tif'
p85
(I2286
I3844
tp86
sS'coets_1705_v1_1_0077.tif'
p87
(I2300
I3852
tp88
sS'coets_1705_v1_1_0431.tif'
p89
(I2322
I3846
tp90
sS'coets_1705_v1_1_0189.tif'
p91
(I2310
I3834
tp92
sS'coets_1705_v1_1_0412.tif'
p93
(I2322
I3846
tp94
sS'coets_1705_v1_1_0424.tif'
p95
(I2322
I3846
tp96
sS'coets_1705_v1_1_0472.tif'
p97
(I2286
I3848
tp98
sS'coets_1705_v1_1_0356.tif'
p99
(I2300
I3832
tp100
sS'coets_1705_v1_1_0254.tif'
p101
(I2322
I3840
tp102
sS'coets_1705_v1_1_0240.tif'
p103
(I2322
I3840
tp104
sS'coets_1705_v1_1_0347.tif'
p105
(I2286
I3844
tp106
sS'coets_1705_v1_1_0193.tif'
p107
(I2322
I3840
tp108
sS'coets_1705_v1_1_0164.tif'
p109
(I2326
I3840
tp110
sS'coets_1705_v1_1_0181.tif'
p111
(I2322
I3840
tp112
sS'coets_1705_v1_1_0079.tif'
p113
(I2300
I3852
tp114
sS'coets_1705_v1_1_0331.tif'
p115
(I2300
I3832
tp116
sS'coets_1705_v1_1_0038.tif'
p117
(I2300
I3852
tp118
sS'coets_1705_v1_1_0020.tif'
p119
(I2300
I3852
tp120
sS'coets_1705_v1_1_0248.tif'
p121
(I2322
I3840
tp122
sS'coets_1705_v1_1_0106.tif'
p123
(I2312
I3836
tp124
sS'coets_1705_v1_1_0408.tif'
p125
(I2322
I3846
tp126
sS'coets_1705_v1_1_0390.tif'
p127
(I2322
I3846
tp128
sS'coets_1705_v1_1_0479.tif'
p129
(I2286
I3848
tp130
sS'coets_1705_v1_1_0437.tif'
p131
(I2322
I3846
tp132
sS'coets_1705_v1_1_0539.tif'
p133
(I2286
I3848
tp134
sS'coets_1705_v1_1_0504.tif'
p135
(I2286
I3848
tp136
sS'coets_1705_v1_1_0253.tif'
p137
(I2322
I3840
tp138
sS'coets_1705_v1_1_0069.tif'
p139
(I2300
I3852
tp140
sS'coets_1705_v1_1_0313.tif'
p141
(I2300
I3832
tp142
sS'coets_1705_v1_1_0271.tif'
p143
(I2322
I3840
tp144
sS'coets_1705_v1_1_0506.tif'
p145
(I2286
I3848
tp146
sS'coets_1705_v1_1_0286.tif'
p147
(I2300
I3832
tp148
sS'coets_1705_v1_1_0509.tif'
p149
(I2286
I3848
tp150
sS'coets_1705_v1_1_0370.tif'
p151
(I2322
I3846
tp152
sS'coets_1705_v1_1_0518.tif'
p153
(I2286
I3848
tp154
sS'coets_1705_v1_1_0023.tif'
p155
(I2300
I3852
tp156
sS'coets_1705_v1_1_0200.tif'
p157
(I2322
I3840
tp158
sS'coets_1705_v1_1_0410.tif'
p159
(I2322
I3846
tp160
sS'coets_1705_v1_1_0217.tif'
p161
(I2322
I3840
tp162
sS'coets_1705_v1_1_0102.tif'
p163
(I2326
I3840
tp164
sS'coets_1705_v1_1_0526.tif'
p165
(I2286
I3848
tp166
sS'coets_1705_v1_1_0533.tif'
p167
(I2286
I3848
tp168
sS'coets_1705_v1_1_0082.tif'
p169
(I2300
I3852
tp170
sS'coets_1705_v1_1_0191.tif'
p171
(I2310
I3834
tp172
sS'coets_1705_v1_1_0287.tif'
p173
(I2286
I3844
tp174
sS'coets_1705_v1_1_0404.tif'
p175
(I2322
I3846
tp176
sS'coets_1705_v1_1_0528.tif'
p177
(I2286
I3848
tp178
sS'coets_1705_v1_1_0133.tif'
p179
(I2326
I3840
tp180
sS'coets_1705_v1_1_0523.tif'
p181
(I2286
I3848
tp182
sS'coets_1705_v1_1_0278.tif'
p183
(I2300
I3832
tp184
sS'coets_1705_v1_1_0109.tif'
p185
(I2326
I3840
tp186
sS'coets_1705_v1_1_0499.tif'
p187
(I2286
I3848
tp188
sS'coets_1705_v1_1_0487.tif'
p189
(I2286
I3848
tp190
sS'coets_1705_v1_1_0284.tif'
p191
(I2300
I3832
tp192
sS'coets_1705_v1_1_0071.tif'
p193
(I2300
I3852
tp194
sS'coets_1705_v1_1_0064.tif'
p195
(I650
I1038
tp196
sS'coets_1705_v1_1_0416.tif'
p197
(I2322
I3846
tp198
sS'coets_1705_v1_1_0403.tif'
p199
(I2322
I3846
tp200
sS'coets_1705_v1_1_0053.tif'
p201
(I2300
I3852
tp202
sS'coets_1705_v1_1_0405.tif'
p203
(I2322
I3846
tp204
sS'coets_1705_v1_1_0182.tif'
p205
(I2322
I3840
tp206
sS'coets_1705_v1_1_0500.tif'
p207
(I2286
I3848
tp208
sS'coets_1705_v1_1_0323.tif'
p209
(I2300
I3832
tp210
sS'coets_1705_v1_1_0432.tif'
p211
(I2322
I3846
tp212
sS'coets_1705_v1_1_0413.tif'
p213
(I2322
I3846
tp214
sS'coets_1705_v1_1_0450.tif'
p215
(I2322
I3846
tp216
sS'coets_1705_v1_1_0198.tif'
p217
(I2322
I3840
tp218
sS'coets_1705_v1_1_0097.tif'
p219
(I2326
I3840
tp220
sS'coets_1705_v1_1_0061.tif'
p221
(I2300
I3852
tp222
sS'coets_1705_v1_1_0135.tif'
p223
(I2326
I3840
tp224
sS'coets_1705_v1_1_0144.tif'
p225
(I2326
I3840
tp226
sS'coets_1705_v1_1_0178.tif'
p227
(I2326
I3840
tp228
sS'coets_1705_v1_1_0269.tif'
p229
(I2322
I3840
tp230
sS'coets_1705_v1_1_0115.tif'
p231
(I2326
I3840
tp232
sS'coets_1705_v1_1_0075.tif'
p233
(I2296
I3846
tp234
sS'coets_1705_v1_1_0382.tif'
p235
(I2322
I3846
tp236
sS'coets_1705_v1_1_0334.tif'
p237
(I2300
I3832
tp238
sS'coets_1705_v1_1_0303.tif'
p239
(I2286
I3844
tp240
sS'coets_1705_v1_1_0104.tif'
p241
(I2326
I3840
tp242
sS'coets_1705_v1_1_0517.tif'
p243
(I2286
I3848
tp244
sS'coets_1705_v1_1_0467.tif'
p245
(I2286
I3848
tp246
sS'coets_1705_v1_1_0446.tif'
p247
(I2322
I3846
tp248
sS'coets_1705_v1_1_0186.tif'
p249
(I2322
I3840
tp250
sS'coets_1705_v1_1_0096.tif'
p251
(I2326
I3840
tp252
sS'coets_1705_v1_1_0277.tif'
p253
(I2300
I3832
tp254
sS'coets_1705_v1_1_0043.tif'
p255
(I2300
I3852
tp256
sS'coets_1705_v1_1_0381.tif'
p257
(I2322
I3846
tp258
sS'coets_1705_v1_1_0482.tif'
p259
(I2286
I3848
tp260
sS'coets_1705_v1_1_0074.tif'
p261
(I2300
I3852
tp262
sS'coets_1705_v1_1_0345.tif'
p263
(I2300
I3832
tp264
sS'coets_1705_v1_1_0525.tif'
p265
(I2286
I3848
tp266
sS'coets_1705_v1_1_0025.tif'
p267
(I2300
I3852
tp268
sS'coets_1705_v1_1_0113.tif'
p269
(I2326
I3840
tp270
sS'coets_1705_v1_1_0034.tif'
p271
(I2300
I3852
tp272
sS'coets_1705_v1_1_0427.tif'
p273
(I2322
I3846
tp274
sS'coets_1705_v1_1_0179.tif'
p275
(I2326
I3840
tp276
sS'coets_1705_v1_1_0510.tif'
p277
(I2286
I3848
tp278
sS'coets_1705_v1_1_0029.tif'
p279
(I2300
I3852
tp280
sS'coets_1705_v1_1_0527.tif'
p281
(I2286
I3848
tp282
sS'coets_1705_v1_1_0536.tif'
p283
(I2286
I3848
tp284
sS'coets_1705_v1_1_0425.tif'
p285
(I2322
I3846
tp286
sS'coets_1705_v1_1_0055.tif'
p287
(I2300
I3852
tp288
sS'coets_1705_v1_1_0128.tif'
p289
(I2326
I3840
tp290
sS'coets_1705_v1_1_0453.tif'
p291
(I2322
I3846
tp292
sS'coets_1705_v1_1_0415.tif'
p293
(I2322
I3846
tp294
sS'coets_1705_v1_1_0346.tif'
p295
(I2300
I3832
tp296
sS'coets_1705_v1_1_0246.tif'
p297
(I2322
I3840
tp298
sS'coets_1705_v1_1_0481.tif'
p299
(I2286
I3848
tp300
sS'coets_1705_v1_1_0021.tif'
p301
(I2300
I3852
tp302
sS'coets_1705_v1_1_0401.tif'
p303
(I2322
I3846
tp304
sS'coets_1705_v1_1_0094.tif'
p305
(I2326
I3840
tp306
sS'coets_1705_v1_1_0227.tif'
p307
(I2322
I3840
tp308
sS'coets_1705_v1_1_0049.tif'
p309
(I2300
I3852
tp310
sS'coets_1705_v1_1_0076.tif'
p311
(I2300
I3852
tp312
sS'coets_1705_v1_1_0478.tif'
p313
(I2286
I3848
tp314
sS'coets_1705_v1_1_0099.tif'
p315
(I2326
I3840
tp316
sS'coets_1705_v1_1_0140.tif'
p317
(I2326
I3840
tp318
sS'coets_1705_v1_1_0466.tif'
p319
(I2286
I3848
tp320
sS'coets_1705_v1_1_0145.tif'
p321
(I2326
I3840
tp322
sS'coets_1705_v1_1_0455.tif'
p323
(I2322
I3846
tp324
sS'coets_1705_v1_1_0255.tif'
p325
(I2322
I3840
tp326
sS'coets_1705_v1_1_0332.tif'
p327
(I2300
I3832
tp328
sS'coets_1705_v1_1_0224.tif'
p329
(I2322
I3840
tp330
sS'coets_1705_v1_1_0093.tif'
p331
(I2326
I3840
tp332
sS'coets_1705_v1_1_0314.tif'
p333
(I2300
I3832
tp334
sS'coets_1705_v1_1_0147.tif'
p335
(I2326
I3840
tp336
sS'coets_1705_v1_1_0081.tif'
p337
(I2300
I3852
tp338
sS'coets_1705_v1_1_0452.tif'
p339
(I2322
I3846
tp340
sS'coets_1705_v1_1_0358.tif'
p341
(I2300
I3832
tp342
sS'coets_1705_v1_1_0211.tif'
p343
(I2322
I3840
tp344
sS'coets_1705_v1_1_0162.tif'
p345
(I2326
I3840
tp346
sS'coets_1705_v1_1_0083.tif'
p347
(I2296
I3846
tp348
sS'coets_1705_v1_1_0105.tif'
p349
(I2312
I3836
tp350
sS'coets_1705_v1_1_0070.tif'
p351
(I2300
I3852
tp352
sS'coets_1705_v1_1_0067.tif'
p353
(I2300
I3852
tp354
sS'coets_1705_v1_1_0423.tif'
p355
(I2322
I3846
tp356
sS'coets_1705_v1_1_0159.tif'
p357
(I2326
I3840
tp358
sS'coets_1705_v1_1_0336.tif'
p359
(I2300
I3832
tp360
sS'coets_1705_v1_1_0183.tif'
p361
(I2322
I3840
tp362
sS'coets_1705_v1_1_0050.tif'
p363
(I2300
I3852
tp364
sS'coets_1705_v1_1_0522.tif'
p365
(I2286
I3848
tp366
sS'coets_1705_v1_1_0027.tif'
p367
(I2300
I3852
tp368
sS'coets_1705_v1_1_0228.tif'
p369
(I2322
I3840
tp370
sS'coets_1705_v1_1_0480.tif'
p371
(I2286
I3848
tp372
sS'coets_1705_v1_1_0210.tif'
p373
(I2322
I3840
tp374
sS'coets_1705_v1_1_0439.tif'
p375
(I2322
I3846
tp376
sS'coets_1705_v1_1_0052.tif'
p377
(I2300
I3852
tp378
sS'coets_1705_v1_1_0266.tif'
p379
(I2322
I3840
tp380
sS'coets_1705_v1_1_0337.tif'
p381
(I2300
I3832
tp382
sS'coets_1705_v1_1_0048.tif'
p383
(I2300
I3852
tp384
sS'coets_1705_v1_1_0430.tif'
p385
(I2322
I3846
tp386
sS'coets_1705_v1_1_0402.tif'
p387
(I2322
I3846
tp388
sS'coets_1705_v1_1_0340.tif'
p389
(I2300
I3832
tp390
sS'coets_1705_v1_1_0300.tif'
p391
(I2300
I3832
tp392
sS'coets_1705_v1_1_0107.tif'
p393
(I2326
I3840
tp394
sS'coets_1705_v1_1_0111.tif'
p395
(I2326
I3840
tp396
sS'coets_1705_v1_1_0384.tif'
p397
(I2322
I3846
tp398
sS'coets_1705_v1_1_0229.tif'
p399
(I2322
I3840
tp400
sS'coets_1705_v1_1_0078.tif'
p401
(I2300
I3852
tp402
sS'coets_1705_v1_1_0398.tif'
p403
(I2322
I3846
tp404
sS'coets_1705_v1_1_0161.tif'
p405
(I2326
I3840
tp406
sS'coets_1705_v1_1_0065.tif'
p407
(I2300
I3852
tp408
sS'coets_1705_v1_1_0400.tif'
p409
(I2322
I3846
tp410
sS'coets_1705_v1_1_0494.tif'
p411
(I2286
I3848
tp412
sS'coets_1705_v1_1_0529.tif'
p413
(I2286
I3848
tp414
sS'coets_1705_v1_1_0312.tif'
p415
(I2300
I3832
tp416
sS'coets_1705_v1_1_0085.tif'
p417
(I2300
I3852
tp418
sS'coets_1705_v1_1_0037.tif'
p419
(I2300
I3852
tp420
sS'coets_1705_v1_1_0440.tif'
p421
(I2322
I3846
tp422
sS'coets_1705_v1_1_0141.tif'
p423
(I2312
I3836
tp424
sS'coets_1705_v1_1_0451.tif'
p425
(I2322
I3846
tp426
sS'coets_1705_v1_1_0118.tif'
p427
(I2326
I3840
tp428
sS'coets_1705_v1_1_0344.tif'
p429
(I2300
I3832
tp430
sS'coets_1705_v1_1_0251.tif'
p431
(I2322
I3840
tp432
sS'coets_1705_v1_1_0272.tif'
p433
(I2300
I3832
tp434
sS'coets_1705_v1_1_0244.tif'
p435
(I2322
I3840
tp436
sS'coets_1705_v1_1_0212.tif'
p437
(I2322
I3840
tp438
sS'coets_1705_v1_1_0136.tif'
p439
(I2326
I3840
tp440
sS'coets_1705_v1_1_0502.tif'
p441
(I2286
I3848
tp442
sS'coets_1705_v1_1_0127.tif'
p443
(I2326
I3840
tp444
sS'coets_1705_v1_1_0335.tif'
p445
(I2300
I3832
tp446
sS'coets_1705_v1_1_0116.tif'
p447
(I2326
I3840
tp448
sS'coets_1705_v1_1_0063.tif'
p449
(I2300
I3852
tp450
sS'coets_1705_v1_1_0305.tif'
p451
(I2300
I3832
tp452
sS'coets_1705_v1_1_0151.tif'
p453
(I2326
I3840
tp454
sS'coets_1705_v1_1_0066.tif'
p455
(I2300
I3852
tp456
sS'coets_1705_v1_1_0516.tif'
p457
(I2286
I3848
tp458
sS'coets_1705_v1_1_0464.tif'
p459
(I2286
I3848
tp460
sS'coets_1705_v1_1_0268.tif'
p461
(I2322
I3840
tp462
sS'coets_1705_v1_1_0219.tif'
p463
(I2322
I3840
tp464
sS'coets_1705_v1_1_0257.tif'
p465
(I2322
I3840
tp466
sS'coets_1705_v1_1_0288.tif'
p467
(I650
I1038
tp468
sS'coets_1705_v1_1_0468.tif'
p469
(I2286
I3848
tp470
sS'coets_1705_v1_1_0173.tif'
p471
(I2312
I3836
tp472
sS'coets_1705_v1_1_0045.tif'
p473
(I2300
I3852
tp474
sS'coets_1705_v1_1_0149.tif'
p475
(I2326
I3840
tp476
sS'coets_1705_v1_1_0333.tif'
p477
(I2300
I3832
tp478
sS'coets_1705_v1_1_0110.tif'
p479
(I2326
I3840
tp480
sS'coets_1705_v1_1_0296.tif'
p481
(I2300
I3832
tp482
sS'coets_1705_v1_1_0309.tif'
p483
(I2300
I3832
tp484
sS'coets_1705_v1_1_0317.tif'
p485
(I2300
I3832
tp486
sS'coets_1705_v1_1_0130.tif'
p487
(I2326
I3840
tp488
sS'coets_1705_v1_1_0270.tif'
p489
(I2322
I3840
tp490
sS'coets_1705_v1_1_0306.tif'
p491
(I2300
I3832
tp492
sS'coets_1705_v1_1_0386.tif'
p493
(I2322
I3846
tp494
sS'coets_1705_v1_1_0393.tif'
p495
(I2322
I3846
tp496
sS'coets_1705_v1_1_0342.tif'
p497
(I2300
I3832
tp498
sS'coets_1705_v1_1_0264.tif'
p499
(I2322
I3840
tp500
sS'coets_1705_v1_1_0541.tif'
p501
(I2286
I3848
tp502
sS'coets_1705_v1_1_0315.tif'
p503
(I2300
I3832
tp504
sS'coets_1705_v1_1_0290.tif'
p505
(I2300
I3832
tp506
sS'coets_1705_v1_1_0024.tif'
p507
(I2300
I3852
tp508
sS'coets_1705_v1_1_0520.tif'
p509
(I2286
I3848
tp510
sS'coets_1705_v1_1_0474.tif'
p511
(I2286
I3848
tp512
sS'coets_1705_v1_1_0276.tif'
p513
(I2300
I3832
tp514
sS'coets_1705_v1_1_0263.tif'
p515
(I2310
I3834
tp516
sS'coets_1705_v1_1_0265.tif'
p517
(I2310
I3834
tp518
sS'coets_1705_v1_1_0378.tif'
p519
(I2322
I3846
tp520
sS'coets_1705_v1_1_0143.tif'
p521
(I2326
I3840
tp522
sS'coets_1705_v1_1_0252.tif'
p523
(I2322
I3840
tp524
sS'coets_1705_v1_1_0273.tif'
p525
(I2300
I3832
tp526
sS'coets_1705_v1_1_0230.tif'
p527
(I2322
I3840
tp528
sS'coets_1705_v1_1_0540.tif'
p529
(I2286
I3848
tp530
sS'coets_1705_v1_1_0046.tif'
p531
(I2300
I3852
tp532
sS'coets_1705_v1_1_0508.tif'
p533
(I2286
I3848
tp534
sS'coets_1705_v1_1_0458.tif'
p535
(I2286
I3848
tp536
sS'coets_1705_v1_1_0146.tif'
p537
(I2326
I3840
tp538
sS'coets_1705_v1_1_0322.tif'
p539
(I2300
I3832
tp540
sS'coets_1705_v1_1_0148.tif'
p541
(I2326
I3840
tp542
sS'coets_1705_v1_1_0374.tif'
p543
(I2322
I3846
tp544
sS'coets_1705_v1_1_0062.tif'
p545
(I2300
I3852
tp546
sS'coets_1705_v1_1_0154.tif'
p547
(I2326
I3840
tp548
sS'coets_1705_v1_1_0512.tif'
p549
(I2282
I3846
tp550
sS'coets_1705_v1_1_0163.tif'
p551
(I2312
I3836
tp552
sS'coets_1705_v1_1_0535.tif'
p553
(I2286
I3848
tp554
sS'coets_1705_v1_1_0442.tif'
p555
(I2322
I3846
tp556
sS'coets_1705_v1_1_0498.tif'
p557
(I2286
I3848
tp558
sS'coets_1705_v1_1_0073.tif'
p559
(I2296
I3846
tp560
sS'coets_1705_v1_1_0421.tif'
p561
(I2322
I3846
tp562
sS'coets_1705_v1_1_0307.tif'
p563
(I2300
I3832
tp564
sS'coets_1705_v1_1_0207.tif'
p565
(I2322
I3840
tp566
sS'coets_1705_v1_1_0226.tif'
p567
(I2322
I3840
tp568
sS'coets_1705_v1_1_0361.tif'
p569
(I2300
I3832
tp570
sS'coets_1705_v1_1_0051.tif'
p571
(I2300
I3852
tp572
sS'coets_1705_v1_1_0357.tif'
p573
(I2300
I3832
tp574
sS'coets_1705_v1_1_0125.tif'
p575
(I2326
I3840
tp576
sS'coets_1705_v1_1_0385.tif'
p577
(I2322
I3846
tp578
sS'coets_1705_v1_1_0359.tif'
p579
(I2300
I3832
tp580
sS'coets_1705_v1_1_0056.tif'
p581
(I2300
I3852
tp582
sS'coets_1705_v1_1_0422.tif'
p583
(I2322
I3846
tp584
sS'coets_1705_v1_1_0493.tif'
p585
(I2286
I3848
tp586
sS'coets_1705_v1_1_0514.tif'
p587
(I2286
I3848
tp588
sS'coets_1705_v1_1_0542.tif'
p589
(I2286
I3848
tp590
sS'coets_1705_v1_1_0247.tif'
p591
(I2310
I3834
tp592
sS'coets_1705_v1_1_0501.tif'
p593
(I2286
I3848
tp594
sS'coets_1705_v1_1_0387.tif'
p595
(I2322
I3846
tp596
sS'coets_1705_v1_1_0391.tif'
p597
(I2322
I3846
tp598
sS'coets_1705_v1_1_0350.tif'
p599
(I2300
I3832
tp600
sS'coets_1705_v1_1_0457.tif'
p601
(I2286
I3848
tp602
sS'coets_1705_v1_1_0396.tif'
p603
(I2322
I3846
tp604
sS'coets_1705_v1_1_0245.tif'
p605
(I2322
I3840
tp606
sS'coets_1705_v1_1_0343.tif'
p607
(I2300
I3832
tp608
sS'coets_1705_v1_1_0233.tif'
p609
(I2322
I3840
tp610
sS'coets_1705_v1_1_0275.tif'
p611
(I2300
I3832
tp612
sS'coets_1705_v1_1_0126.tif'
p613
(I2326
I3840
tp614
sS'coets_1705_v1_1_0537.tif'
p615
(I2286
I3848
tp616
sS'coets_1705_v1_1_0030.tif'
p617
(I2296
I3846
tp618
sS'coets_1705_v1_1_0261.tif'
p619
(I2322
I3840
tp620
sS'coets_1705_v1_1_0519.tif'
p621
(I2286
I3848
tp622
sS'coets_1705_v1_1_0087.tif'
p623
(I2300
I3852
tp624
sS'coets_1705_v1_1_0376.tif'
p625
(I2322
I3846
tp626
sS'coets_1705_v1_1_0456.tif'
p627
(I2286
I3848
tp628
sS'coets_1705_v1_1_0119.tif'
p629
(I2326
I3840
tp630
sS'coets_1705_v1_1_0483.tif'
p631
(I2286
I3848
tp632
sS'coets_1705_v1_1_0462.tif'
p633
(I2286
I3848
tp634
sS'coets_1705_v1_1_0218.tif'
p635
(I2322
I3840
tp636
sS'coets_1705_v1_1_0256.tif'
p637
(I2322
I3840
tp638
sS'coets_1705_v1_1_0206.tif'
p639
(I650
I1038
tp640
sS'coets_1705_v1_1_0235.tif'
p641
(I2322
I3840
tp642
sS'coets_1705_v1_1_0131.tif'
p643
(I2326
I3840
tp644
sS'coets_1705_v1_1_0341.tif'
p645
(I2300
I3832
tp646
sS'coets_1705_v1_1_0407.tif'
p647
(I2322
I3846
tp648
sS'coets_1705_v1_1_0152.tif'
p649
(I2326
I3840
tp650
sS'coets_1705_v1_1_0092.tif'
p651
(I2326
I3840
tp652
sS'coets_1705_v1_1_0292.tif'
p653
(I2300
I3832
tp654
sS'coets_1705_v1_1_0084.tif'
p655
(I2300
I3852
tp656
sS'coets_1705_v1_1_0438.tif'
p657
(I2322
I3846
tp658
sS'coets_1705_v1_1_0429.tif'
p659
(I2322
I3846
tp660
sS'coets_1705_v1_1_0174.tif'
p661
(I2326
I3840
tp662
sS'coets_1705_v1_1_0168.tif'
p663
(I2326
I3840
tp664
sS'coets_1705_v1_1_0060.tif'
p665
(I2300
I3852
tp666
sS'coets_1705_v1_1_0511.tif'
p667
(I2286
I3848
tp668
sS'coets_1705_v1_1_0534.tif'
p669
(I2286
I3848
tp670
sS'coets_1705_v1_1_0057.tif'
p671
(I2300
I3852
tp672
sS'coets_1705_v1_1_0232.tif'
p673
(I2322
I3840
tp674
sS'coets_1705_v1_1_0476.tif'
p675
(I2286
I3848
tp676
sS'coets_1705_v1_1_0031.tif'
p677
(I2296
I3846
tp678
sS'coets_1705_v1_1_0463.tif'
p679
(I2286
I3848
tp680
sS'coets_1705_v1_1_0289.tif'
p681
(I2300
I3832
tp682
sS'coets_1705_v1_1_0495.tif'
p683
(I2286
I3848
tp684
sS'coets_1705_v1_1_0243.tif'
p685
(I2310
I3834
tp686
sS'coets_1705_v1_1_0156.tif'
p687
(I2326
I3840
tp688
sS'coets_1705_v1_1_0338.tif'
p689
(I2300
I3832
tp690
sS'coets_1705_v1_1_0352.tif'
p691
(I2300
I3832
tp692
sS'coets_1705_v1_1_0068.tif'
p693
(I2300
I3852
tp694
sS'coets_1705_v1_1_0044.tif'
p695
(I2300
I3852
tp696
sS'coets_1705_v1_1_0454.tif'
p697
(I2322
I3846
tp698
sS'coets_1705_v1_1_0330.tif'
p699
(I2300
I3832
tp700
sS'coets_1705_v1_1_0088.tif'
p701
(I2296
I3846
tp702
sS'coets_1705_v1_1_0489.tif'
p703
(I2286
I3848
tp704
sS'coets_1705_v1_1_0503.tif'
p705
(I2286
I3848
tp706
sS'coets_1705_v1_1_0026.tif'
p707
(I2300
I3852
tp708
sS'coets_1705_v1_1_0282.tif'
p709
(I2300
I3832
tp710
sS'coets_1705_v1_1_0316.tif'
p711
(I2300
I3832
tp712
sS'coets_1705_v1_1_0259.tif'
p713
(I2322
I3840
tp714
sS'coets_1705_v1_1_0295.tif'
p715
(I2300
I3832
tp716
sS'coets_1705_v1_1_0157.tif'
p717
(I2326
I3840
tp718
sS'coets_1705_v1_1_0363.tif'
p719
(I2300
I3832
tp720
sS'coets_1705_v1_1_0250.tif'
p721
(I2322
I3840
tp722
sS'coets_1705_v1_1_0262.tif'
p723
(I2322
I3840
tp724
sS'coets_1705_v1_1_0120.tif'
p725
(I2326
I3840
tp726
sS'coets_1705_v1_1_0160.tif'
p727
(I2326
I3840
tp728
sS'coets_1705_v1_1_0311.tif'
p729
(I2300
I3832
tp730
sS'coets_1705_v1_1_0089.tif'
p731
(I2326
I3840
tp732
sS'coets_1705_v1_1_0419.tif'
p733
(I2322
I3846
tp734
sS'coets_1705_v1_1_0461.tif'
p735
(I2286
I3848
tp736
sS'coets_1705_v1_1_0117.tif'
p737
(I2326
I3840
tp738
sS'coets_1705_v1_1_0441.tif'
p739
(I2322
I3846
tp740
sS'coets_1705_v1_1_0195.tif'
p741
(I2322
I3840
tp742
sS'coets_1705_v1_1_0260.tif'
p743
(I2322
I3840
tp744
sS'coets_1705_v1_1_0531.tif'
p745
(I650
I1038
tp746
sS'coets_1705_v1_1_0379.tif'
p747
(I2322
I3846
tp748
sS'coets_1705_v1_1_0443.tif'
p749
(I2322
I3846
tp750
sS'coets_1705_v1_1_0172.tif'
p751
(I2326
I3840
tp752
sS'coets_1705_v1_1_0293.tif'
p753
(I2286
I3844
tp754
sS'coets_1705_v1_1_0475.tif'
p755
(I2282
I3846
tp756
sS'coets_1705_v1_1_0532.tif'
p757
(I2286
I3848
tp758
sS'coets_1705_v1_1_0360.tif'
p759
(I2300
I3832
tp760
sS'coets_1705_v1_1_0490.tif'
p761
(I2286
I3848
tp762
sS'coets_1705_v1_1_0220.tif'
p763
(I2322
I3840
tp764
sS'coets_1705_v1_1_0231.tif'
p765
(I2322
I3840
tp766
sS'coets_1705_v1_1_0124.tif'
p767
(I2326
I3840
tp768
sS'coets_1705_v1_1_0414.tif'
p769
(I2322
I3846
tp770
sS'coets_1705_v1_1_0436.tif'
p771
(I2322
I3846
tp772
sS'coets_1705_v1_1_0349.tif'
p773
(I2300
I3832
tp774
sS'coets_1705_v1_1_0184.tif'
p775
(I650
I1038
tp776
sS'coets_1705_v1_1_0465.tif'
p777
(I2286
I3848
tp778
sS'coets_1705_v1_1_0155.tif'
p779
(I2326
I3840
tp780
sS'coets_1705_v1_1_0492.tif'
p781
(I2286
I3848
tp782
sS'coets_1705_v1_1_0515.tif'
p783
(I2286
I3848
tp784
sS'coets_1705_v1_1_0165.tif'
p785
(I2326
I3840
tp786
sS'coets_1705_v1_1_0488.tif'
p787
(I2286
I3848
tp788
sS'coets_1705_v1_1_0473.tif'
p789
(I2286
I3848
tp790
sS'coets_1705_v1_1_0469.tif'
p791
(I2286
I3848
tp792
sS'coets_1705_v1_1_0351.tif'
p793
(I2300
I3832
tp794
sS'coets_1705_v1_1_0354.tif'
p795
(I2300
I3832
tp796
sS'coets_1705_v1_1_0204.tif'
p797
(I2322
I3840
tp798
sS'coets_1705_v1_1_0327.tif'
p799
(I2300
I3832
tp800
sS'coets_1705_v1_1_0138.tif'
p801
(I2326
I3840
tp802
sS'coets_1705_v1_1_0310.tif'
p803
(I2300
I3832
tp804
sS'coets_1705_v1_1_0180.tif'
p805
(I2322
I3840
tp806
sS'coets_1705_v1_1_0372.tif'
p807
(I2322
I3846
tp808
sS'coets_1705_v1_1_0208.tif'
p809
(I650
I1038
tp810
sS'coets_1705_v1_1_0153.tif'
p811
(I2326
I3840
tp812
sS'coets_1705_v1_1_0459.tif'
p813
(I2286
I3848
tp814
sS'coets_1705_v1_1_0368.tif'
p815
(I2322
I3846
tp816
sS'coets_1705_v1_1_0059.tif'
p817
(I2300
I3852
tp818
sS'coets_1705_v1_1_0196.tif'
p819
(I2322
I3840
tp820
sS'coets_1705_v1_1_0445.tif'
p821
(I2322
I3846
tp822
sS'coets_1705_v1_1_0036.tif'
p823
(I2300
I3852
tp824
sS'coets_1705_v1_1_0299.tif'
p825
(I2300
I3832
tp826
sS'coets_1705_v1_1_0169.tif'
p827
(I2312
I3836
tp828
sS'coets_1705_v1_1_0177.tif'
p829
(I2326
I3840
tp830
sS'coets_1705_v1_1_0098.tif'
p831
(I2326
I3840
tp832
sS'coets_1705_v1_1_0166.tif'
p833
(I2326
I3840
tp834
sS'coets_1705_v1_1_0122.tif'
p835
(I2326
I3840
tp836
sS'coets_1705_v1_1_0434.tif'
p837
(I2322
I3846
tp838
sS'coets_1705_v1_1_0420.tif'
p839
(I2322
I3846
tp840
sS'coets_1705_v1_1_0329.tif'
p841
(I2300
I3832
tp842
sS'coets_1705_v1_1_0304.tif'
p843
(I2300
I3832
tp844
sS'coets_1705_v1_1_0175.tif'
p845
(I2312
I3836
tp846
sS'coets_1705_v1_1_0538.tif'
p847
(I2286
I3848
tp848
sS'coets_1705_v1_1_0298.tif'
p849
(I2300
I3832
tp850
sS'coets_1705_v1_1_0280.tif'
p851
(I2300
I3832
tp852
sS'coets_1705_v1_1_0185.tif'
p853
(I2322
I3840
tp854
sS'coets_1705_v1_1_0513.tif'
p855
(I2286
I3848
tp856
sS'coets_1705_v1_1_0428.tif'
p857
(I2322
I3846
tp858
sS'coets_1705_v1_1_0366.tif'
p859
(I2322
I3846
tp860
sS'coets_1705_v1_1_0139.tif'
p861
(I2312
I3836
tp862
sS'coets_1705_v1_1_0190.tif'
p863
(I2322
I3840
tp864
sS'coets_1705_v1_1_0047.tif'
p865
(I2300
I3852
tp866
sS'coets_1705_v1_1_0380.tif'
p867
(I2322
I3846
tp868
sS'coets_1705_v1_1_0197.tif'
p869
(I2322
I3840
tp870
sS'coets_1705_v1_1_0433.tif'
p871
(I2322
I3846
tp872
sS'coets_1705_v1_1_0090.tif'
p873
(I2326
I3840
tp874
sS'coets_1705_v1_1_0238.tif'
p875
(I2322
I3840
tp876
sS'coets_1705_v1_1_0485.tif'
p877
(I2286
I3848
tp878
sS'coets_1705_v1_1_0411.tif'
p879
(I2322
I3846
tp880
sS'coets_1705_v1_1_0142.tif'
p881
(I2326
I3840
tp882
sS'coets_1705_v1_1_0283.tif'
p883
(I2300
I3832
tp884
sS'coets_1705_v1_1_0460.tif'
p885
(I2286
I3848
tp886
sS'coets_1705_v1_1_0114.tif'
p887
(I2326
I3840
tp888
sS'coets_1705_v1_1_0505.tif'
p889
(I2286
I3848
tp890
sS'coets_1705_v1_1_0477.tif'
p891
(I2286
I3848
tp892
sS'coets_1705_v1_1_0308.tif'
p893
(I2300
I3832
tp894
sS'coets_1705_v1_1_0362.tif'
p895
(I2300
I3832
tp896
sS'coets_1705_v1_1_0395.tif'
p897
(I2322
I3846
tp898
sS'coets_1705_v1_1_0222.tif'
p899
(I2322
I3840
tp900
sS'coets_1705_v1_1_0241.tif'
p901
(I2322
I3840
tp902
sS'coets_1705_v1_1_0167.tif'
p903
(I2312
I3836
tp904
sS'coets_1705_v1_1_0086.tif'
p905
(I2296
I3846
tp906
sS'coets_1705_v1_1_0101.tif'
p907
(I2326
I3840
tp908
sS'coets_1705_v1_1_0353.tif'
p909
(I2300
I3832
tp910
sS'coets_1705_v1_1_0418.tif'
p911
(I2322
I3846
tp912
sS'coets_1705_v1_1_0042.tif'
p913
(I2300
I3852
tp914
sS'coets_1705_v1_1_0137.tif'
p915
(I2326
I3840
tp916
sS'coets_1705_v1_1_0369.tif'
p917
(I2322
I3846
tp918
sS'coets_1705_v1_1_0242.tif'
p919
(I2322
I3840
tp920
sS'coets_1705_v1_1_0291.tif'
p921
(I2286
I3844
tp922
sS'coets_1705_v1_1_0486.tif'
p923
(I2286
I3848
tp924
sS'coets_1705_v1_1_0237.tif'
p925
(I2322
I3840
tp926
sS'coets_1705_v1_1_0188.tif'
p927
(I2322
I3840
tp928
sS'coets_1705_v1_1_0123.tif'
p929
(I2326
I3840
tp930
sS'coets_1705_v1_1_0355.tif'
p931
(I2286
I3844
tp932
sS'coets_1705_v1_1_0324.tif'
p933
(I2300
I3832
tp934
sS'coets_1705_v1_1_0318.tif'
p935
(I2300
I3832
tp936
sS'coets_1705_v1_1_0409.tif'
p937
(I2322
I3846
tp938
sS'coets_1705_v1_1_0375.tif'
p939
(I2322
I3846
tp940
sS'coets_1705_v1_1_0397.tif'
p941
(I2322
I3846
tp942
sS'coets_1705_v1_1_0041.tif'
p943
(I2300
I3852
tp944
sS'coets_1705_v1_1_0194.tif'
p945
(I2322
I3840
tp946
sS'coets_1705_v1_1_0058.tif'
p947
(I2300
I3852
tp948
sS'coets_1705_v1_1_0364.tif'
p949
(I2322
I3846
tp950
sS'coets_1705_v1_1_0236.tif'
p951
(I2322
I3840
tp952
sS'coets_1705_v1_1_0491.tif'
p953
(I2286
I3848
tp954
sS'coets_1705_v1_1_0417.tif'
p955
(I2322
I3846
tp956
sS'coets_1705_v1_1_0202.tif'
p957
(I2322
I3840
tp958
sS'coets_1705_v1_1_0521.tif'
p959
(I2286
I3848
tp960
sS'coets_1705_v1_1_0285.tif'
p961
(I2300
I3832
tp962
sS'coets_1705_v1_1_0373.tif'
p963
(I2322
I3846
tp964
sS'coets_1705_v1_1_0095.tif'
p965
(I2312
I3836
tp966
sS'coets_1705_v1_1_0121.tif'
p967
(I2326
I3840
tp968
sS'coets_1705_v1_1_0267.tif'
p969
(I2322
I3840
tp970
sS'coets_1705_v1_1_0496.tif'
p971
(I2286
I3848
tp972
sS'coets_1705_v1_1_0187.tif'
p973
(I2310
I3834
tp974
sS'coets_1705_v1_1_0032.tif'
p975
(I650
I1038
tp976
sS'coets_1705_v1_1_0258.tif'
p977
(I2322
I3840
tp978
sS'coets_1705_v1_1_0249.tif'
p979
(I2310
I3834
tp980
sS'coets_1705_v1_1_0294.tif'
p981
(I2300
I3832
tp982
sS'coets_1705_v1_1_0129.tif'
p983
(I2326
I3840
tp984
sS'coets_1705_v1_1_0394.tif'
p985
(I2322
I3846
tp986
sS'coets_1705_v1_1_0319.tif'
p987
(I2286
I3844
tp988
sS'coets_1705_v1_1_0216.tif'
p989
(I2322
I3840
tp990
sS'coets_1705_v1_1_0203.tif'
p991
(I2322
I3840
tp992
sS'coets_1705_v1_1_0326.tif'
p993
(I2300
I3832
tp994
sS'coets_1705_v1_1_0348.tif'
p995
(I2300
I3832
tp996
sS'coets_1705_v1_1_0199.tif'
p997
(I2322
I3840
tp998
sS'coets_1705_v1_1_0158.tif'
p999
(I2326
I3840
tp1000
sS'coets_1705_v1_1_0426.tif'
p1001
(I2322
I3846
tp1002
sS'coets_1705_v1_1_0132.tif'
p1003
(I2326
I3840
tp1004
sS'coets_1705_v1_1_0281.tif'
p1005
(I2300
I3832
tp1006
sS'coets_1705_v1_1_0507.tif'
p1007
(I2286
I3848
tp1008
sS'coets_1705_v1_1_0234.tif'
p1009
(I2322
I3840
tp1010
sS'coets_1705_v1_1_0150.tif'
p1011
(I2326
I3840
tp1012
sS'coets_1705_v1_1_0447.tif'
p1013
(I2322
I3846
tp1014
sS'coets_1705_v1_1_0040.tif'
p1015
(I2300
I3852
tp1016
sS'coets_1705_v1_1_0022.tif'
p1017
(I2300
I3852
tp1018
sS'coets_1705_v1_1_0176.tif'
p1019
(I2326
I3840
tp1020
sS'coets_1705_v1_1_0035.tif'
p1021
(I2300
I3852
tp1022
sS'coets_1705_v1_1_0320.tif'
p1023
(I2300
I3832
tp1024
sS'coets_1705_v1_1_0072.tif'
p1025
(I2300
I3852
tp1026
sS'coets_1705_v1_1_0103.tif'
p1027
(I2326
I3840
tp1028
sS'coets_1705_v1_1_0325.tif'
p1029
(I2300
I3832
tp1030
sS'coets_1705_v1_1_0435.tif'
p1031
(I2322
I3846
tp1032
sS'coets_1705_v1_1_0171.tif'
p1033
(I2326
I3840
tp1034
sS'coets_1705_v1_1_0444.tif'
p1035
(I2322
I3846
tp1036
sS'coets_1705_v1_1_0279.tif'
p1037
(I2300
I3832
tp1038
sS'coets_1705_v1_1_0201.tif'
p1039
(I2322
I3840
tp1040
sS'coets_1705_v1_1_0399.tif'
p1041
(I2322
I3846
tp1042
sS'coets_1705_v1_1_0221.tif'
p1043
(I2322
I3840
tp1044
sS'coets_1705_v1_1_0497.tif'
p1045
(I2286
I3848
tp1046
s.