(dp0
S'euclidiselement02euclgoog_0099'
p1
cnumpy.core.multiarray
scalar
p2
(cnumpy
dtype
p3
(S'f8'
p4
I0
I1
tp5
Rp6
(I3
S'<'
p7
NNNI-1
I-1
I0
tp8
bS']\xadR\xa6\xb2\nK?'
p9
tp10
Rp11
sS'euclidiselement02euclgoog_0098'
p12
g2
(g6
S'\xfaGK>O\xc8F?'
p13
tp14
Rp15
sS'euclidiselement02euclgoog_0091'
p16
g2
(g6
S'u\xf3\xca\xf23\xbc\x1b?'
p17
tp18
Rp19
sS'euclidiselement02euclgoog_0090'
p20
g2
(g6
S'NM\xfcK\xce\xde=?'
p21
tp22
Rp23
sS'euclidiselement02euclgoog_0093'
p24
g2
(g6
S"\xc6\xb5\x19\x08\xf8\xf2'?"
p25
tp26
Rp27
sS'euclidiselement02euclgoog_0092'
p28
g2
(g6
S'O\xdd\x8b!*\xd5:?'
p29
tp30
Rp31
sS'euclidiselement02euclgoog_0095'
p32
g2
(g6
S'\xa3\xb4*\xda\xa0\xfeR?'
p33
tp34
Rp35
sS'euclidiselement02euclgoog_0094'
p36
g2
(g6
S'\xeb\xf463\x86\xfbL?'
p37
tp38
Rp39
sS'euclidiselement02euclgoog_0097'
p40
g2
(g6
S'\x11-\xad\x1bz\xd3Q?'
p41
tp42
Rp43
sS'euclidiselement02euclgoog_0096'
p44
g2
(g6
S"'d\xcb\xac\xad!U?"
p45
tp46
Rp47
sS'euclidiselement02euclgoog_0392'
p48
g2
(g6
S'\xe6\x00\x92`\xf8\xfcD?'
p49
tp50
Rp51
sS'euclidiselement02euclgoog_0393'
p52
g2
(g6
S'zg\xe2s\x90/I?'
p53
tp54
Rp55
sS'euclidiselement02euclgoog_0390'
p56
g2
(g6
S'\xa4\xf2\xc7\xde\x9dgD?'
p57
tp58
Rp59
sS'euclidiselement02euclgoog_0391'
p60
g2
(g6
S'\x0f\x93\xe60\x14\xf8J?'
p61
tp62
Rp63
sS'euclidiselement02euclgoog_0396'
p64
g2
(g6
S'\x81\xa0\n{\xfa\x84K?'
p65
tp66
Rp67
sS'euclidiselement02euclgoog_0397'
p68
g2
(g6
S'ZB\x0et\xae\xaaG?'
p69
tp70
Rp71
sS'euclidiselement02euclgoog_0394'
p72
g2
(g6
S'\xa0i\xf2\xb2\x1bFI?'
p73
tp74
Rp75
sS'euclidiselement02euclgoog_0395'
p76
g2
(g6
S'\xe3\xa5\xb2\x98V\xbdK?'
p77
tp78
Rp79
sS'euclidiselement02euclgoog_0398'
p80
g2
(g6
S'\xe84\xea)\xc8\x1dG?'
p81
tp82
Rp83
sS'euclidiselement02euclgoog_0399'
p84
g2
(g6
S'F\x00S\xf1.p??'
p85
tp86
Rp87
sS'euclidiselement02euclgoog_0147'
p88
g2
(g6
S'\xb7\x80\xb9s\xca\xecH?'
p89
tp90
Rp91
sS'euclidiselement02euclgoog_0146'
p92
g2
(g6
S'\xa6\xacoN\xf3\x8c\x1f?'
p93
tp94
Rp95
sS'euclidiselement02euclgoog_0145'
p96
g2
(g6
S'F\x8eM\x7f\x99T??'
p97
tp98
Rp99
sS'euclidiselement02euclgoog_0144'
p100
g2
(g6
S"\xad\xd0db\xe3\xc5'?"
p101
tp102
Rp103
sS'euclidiselement02euclgoog_0143'
p104
g2
(g6
S'\xca\xd1\x08\xdbJ\xd7M?'
p105
tp106
Rp107
sS'euclidiselement02euclgoog_0142'
p108
g2
(g6
S'{\xf9\x0b\x90\x88.)?'
p109
tp110
Rp111
sS'euclidiselement02euclgoog_0141'
p112
g2
(g6
S'g"[h\x92(\x04?'
p113
tp114
Rp115
sS'euclidiselement02euclgoog_0140'
p116
g2
(g6
S'\xe4\x8d\xdf&\xdb\xe2\t?'
p117
tp118
Rp119
sS'euclidiselement02euclgoog_0419'
p120
g2
(g6
S'\x97\x9a\x9e\x8d\xfbFK?'
p121
tp122
Rp123
sS'euclidiselement02euclgoog_0418'
p124
g2
(g6
S'\x18i.\xe3x@I?'
p125
tp126
Rp127
sS'euclidiselement02euclgoog_0149'
p128
g2
(g6
S'f\xb3\x93C\x07}H?'
p129
tp130
Rp131
sS'euclidiselement02euclgoog_0148'
p132
g2
(g6
S'm\r\xa9\x00\x976H?'
p133
tp134
Rp135
sS'euclidiselement02euclgoog_0028'
p136
g2
(g6
S'(\xfa\x88\xc8\xc9ME?'
p137
tp138
Rp139
sS'euclidiselement02euclgoog_0029'
p140
g2
(g6
S'P3\x83\x83d\x16A?'
p141
tp142
Rp143
sS'euclidiselement02euclgoog_0024'
p144
g2
(g6
S'\x19c\xc5\x96L_A?'
p145
tp146
Rp147
sS'euclidiselement02euclgoog_0025'
p148
g2
(g6
S'l\x19\x9a\x01\x83\xf7G?'
p149
tp150
Rp151
sS'euclidiselement02euclgoog_0026'
p152
g2
(g6
S'-!\xc6X[\x9a@?'
p153
tp154
Rp155
sS'euclidiselement02euclgoog_0027'
p156
g2
(g6
S'\xe5J\x97\xc4X\xac@?'
p157
tp158
Rp159
sS'euclidiselement02euclgoog_0021'
p160
g2
(g6
S'L\xd4\xe9\x8e\x80\x12<?'
p161
tp162
Rp163
sS'euclidiselement02euclgoog_0022'
p164
g2
(g6
S'\x19\xb0\x9e\x98\x81\xa9@?'
p165
tp166
Rp167
sS'euclidiselement02euclgoog_0023'
p168
g2
(g6
S'G\xe9\xff\xbf\xbf\x0bG?'
p169
tp170
Rp171
sS'euclidiselement02euclgoog_0522'
p172
g2
(g6
S']\xb8\x8a\xaa~cJ?'
p173
tp174
Rp175
sS'euclidiselement02euclgoog_0323'
p176
g2
(g6
S'\\\x8a%\x9b\x19\xc3P?'
p177
tp178
Rp179
sS'euclidiselement02euclgoog_0322'
p180
g2
(g6
S'C\x97\xab}\x1a\x0bF?'
p181
tp182
Rp183
sS'euclidiselement02euclgoog_0321'
p184
g2
(g6
S'!\xcc\xbb\xd1+\xf0\x1a?'
p185
tp186
Rp187
sS'euclidiselement02euclgoog_0320'
p188
g2
(g6
S'\r\x03\x07\x88\xb3>M?'
p189
tp190
Rp191
sS'euclidiselement02euclgoog_0327'
p192
g2
(g6
S'\x8aV\xed-|\xdeI?'
p193
tp194
Rp195
sS'euclidiselement02euclgoog_0326'
p196
g2
(g6
S'\xdb\xb5\xfa\x9aM\x1a%?'
p197
tp198
Rp199
sS'euclidiselement02euclgoog_0325'
p200
g2
(g6
S'\xc82V]]\x7fK?'
p201
tp202
Rp203
sS'euclidiselement02euclgoog_0324'
p204
g2
(g6
S'\xb4\n\xe7c\xc5p@?'
p205
tp206
Rp207
sS'euclidiselement02euclgoog_0329'
p208
g2
(g6
S'\x9f;Oc\x03#J?'
p209
tp210
Rp211
sS'euclidiselement02euclgoog_0328'
p212
g2
(g6
S'\xdd\xf5\xd9\x9d\xfb\xebO?'
p213
tp214
Rp215
sS'euclidiselement02euclgoog_0451'
p216
g2
(g6
S'H\x89\xadD\xe7\x17P?'
p217
tp218
Rp219
sS'euclidiselement02euclgoog_0450'
p220
g2
(g6
S'\xec\xa9\xf0\xae\x9b\xe7K?'
p221
tp222
Rp223
sS'euclidiselement02euclgoog_0453'
p224
g2
(g6
S'\x7f\xae\xf2\x94\x83\x17,?'
p225
tp226
Rp227
sS'euclidiselement02euclgoog_0452'
p228
g2
(g6
S'\x9a\xe8\xa2;3xN?'
p229
tp230
Rp231
sS'euclidiselement02euclgoog_0455'
p232
g2
(g6
S'\x85\xfbd\x1bf>O?'
p233
tp234
Rp235
sS'euclidiselement02euclgoog_0454'
p236
g2
(g6
S'\xe8\xec\xc2\xb9I\xa5N?'
p237
tp238
Rp239
sS'euclidiselement02euclgoog_0457'
p240
g2
(g6
S'\x84\xd9\xaa\xcb\xc2]P?'
p241
tp242
Rp243
sS'euclidiselement02euclgoog_0456'
p244
g2
(g6
S'\x11\xd7bL\x9e8Q?'
p245
tp246
Rp247
sS'euclidiselement02euclgoog_0194'
p248
g2
(g6
S':\x19Ta\x05^L?'
p249
tp250
Rp251
sS'euclidiselement02euclgoog_0195'
p252
g2
(g6
S'R\x7f\xbd\xf3-fO?'
p253
tp254
Rp255
sS'euclidiselement02euclgoog_0196'
p256
g2
(g6
S'\xdf\xab\x0c\xce\t3 ?'
p257
tp258
Rp259
sS'euclidiselement02euclgoog_0197'
p260
g2
(g6
S'(\x9fc\x81\xf29F?'
p261
tp262
Rp263
sS'euclidiselement02euclgoog_0190'
p264
g2
(g6
S'\xe9\x92\xda\xfd]JK?'
p265
tp266
Rp267
sS'euclidiselement02euclgoog_0191'
p268
g2
(g6
S'\xdc\xf2\xc7]}\xb9F?'
p269
tp270
Rp271
sS'euclidiselement02euclgoog_0219'
p272
g2
(g6
S'\xf2\x86\xbc!o\xc8K?'
p273
tp274
Rp275
sS'euclidiselement02euclgoog_0193'
p276
g2
(g6
S"F\x07'\x17\x1f\x1b-?"
p277
tp278
Rp279
sS'euclidiselement02euclgoog_0217'
p280
g2
(g6
S'\xean\x81\xcd|\xfa@?'
p281
tp282
Rp283
sS'euclidiselement02euclgoog_0216'
p284
g2
(g6
S'\xec\xe0-\xf9\xaf\x9bG?'
p285
tp286
Rp287
sS'euclidiselement02euclgoog_0215'
p288
g2
(g6
S'\xe1+1\xd9//J?'
p289
tp290
Rp291
sS'euclidiselement02euclgoog_0214'
p292
g2
(g6
S'8m\xb6\xcaNpH?'
p293
tp294
Rp295
sS'euclidiselement02euclgoog_0213'
p296
g2
(g6
S'\x8c\xf2\x14Y\x0c\x88O?'
p297
tp298
Rp299
sS'euclidiselement02euclgoog_0212'
p300
g2
(g6
S'\x01^\x93\xb1\xb0\x94K?'
p301
tp302
Rp303
sS'euclidiselement02euclgoog_0211'
p304
g2
(g6
S'\xfd\xd1u\x87\xb7-F?'
p305
tp306
Rp307
sS'euclidiselement02euclgoog_0210'
p308
g2
(g6
S'\xaa\x1c\x0e\xc0\x91SM?'
p309
tp310
Rp311
sS'euclidiselement02euclgoog_0356'
p312
g2
(g6
S'\x82\xd0v\xea\xc1JR?'
p313
tp314
Rp315
sS'euclidiselement02euclgoog_0357'
p316
g2
(g6
S'\xa5\xa3\xc4\x98\xf8\xbcR?'
p317
tp318
Rp319
sS'euclidiselement02euclgoog_0354'
p320
g2
(g6
S'w\xf5&\xe5t\x1b\x1c?'
p321
tp322
Rp323
sS'euclidiselement02euclgoog_0355'
p324
g2
(g6
S'\xec\n\xba\xb0\xac=4?'
p325
tp326
Rp327
sS'euclidiselement02euclgoog_0352'
p328
g2
(g6
S'`\x13\xf3pP\xcfK?'
p329
tp330
Rp331
sS'euclidiselement02euclgoog_0353'
p332
g2
(g6
S'u\xb5G\xe2\xc6IQ?'
p333
tp334
Rp335
sS'euclidiselement02euclgoog_0350'
p336
g2
(g6
S'\x9d"\xa9\x0f\x0f4G?'
p337
tp338
Rp339
sS'euclidiselement02euclgoog_0351'
p340
g2
(g6
S'\x04z\xb4%\xca\xb2L?'
p341
tp342
Rp343
sS'euclidiselement02euclgoog_0358'
p344
g2
(g6
S'5\x8d\xeb\xef\x13\xf6B?'
p345
tp346
Rp347
sS'euclidiselement02euclgoog_0359'
p348
g2
(g6
S'\x8ax\xcb"e\xb6E?'
p349
tp350
Rp351
sS'euclidiselement02euclgoog_0510'
p352
g2
(g6
S'\x90,?8\xa3\x19K?'
p353
tp354
Rp355
sS'euclidiselement02euclgoog_0511'
p356
g2
(g6
S'\x16YJm?\x7fL?'
p357
tp358
Rp359
sS'euclidiselement02euclgoog_0512'
p360
g2
(g6
S'\xed\xee\xa5Q\x14g(?'
p361
tp362
Rp363
sS'euclidiselement02euclgoog_0513'
p364
g2
(g6
S'\xf8\xdd\xa6\xca\x05&Q?'
p365
tp366
Rp367
sS'euclidiselement02euclgoog_0514'
p368
g2
(g6
S'H\x88V\x0cY\xefM?'
p369
tp370
Rp371
sS'euclidiselement02euclgoog_0515'
p372
g2
(g6
S'5h\xb0\x92t\x97P?'
p373
tp374
Rp375
sS'euclidiselement02euclgoog_0516'
p376
g2
(g6
S'_\xfd2\x99\x89\xa9I?'
p377
tp378
Rp379
sS'euclidiselement02euclgoog_0517'
p380
g2
(g6
S'\xcfw\xcd\xa5\x0c\nN?'
p381
tp382
Rp383
sS'euclidiselement02euclgoog_0518'
p384
g2
(g6
S'<\xad\xe1\xed\xd8\xdbN?'
p385
tp386
Rp387
sS'euclidiselement02euclgoog_0519'
p388
g2
(g6
S'aJ\x11\x05\x0b\xa22?'
p389
tp390
Rp391
sS'euclidiselement02euclgoog_0459'
p392
g2
(g6
S'\xab#\x14\xfb\x1e\xf6O?'
p393
tp394
Rp395
sS'euclidiselement02euclgoog_0458'
p396
g2
(g6
S'\\\xf1\x83\x07,\xd5N?'
p397
tp398
Rp399
sS'euclidiselement02euclgoog_0109'
p400
g2
(g6
S'\xbcMc\xfdI\xb6R?'
p401
tp402
Rp403
sS'euclidiselement02euclgoog_0108'
p404
g2
(g6
S'\x00\x9e\xddZ\x90WM?'
p405
tp406
Rp407
sS'euclidiselement02euclgoog_0103'
p408
g2
(g6
S'\xa7z\xd2E\xa26!?'
p409
tp410
Rp411
sS'euclidiselement02euclgoog_0102'
p412
g2
(g6
S'\xfbgj\xe9\x06\xb5@?'
p413
tp414
Rp415
sS'euclidiselement02euclgoog_0101'
p416
g2
(g6
S'/\xa2D_\xd4\x18D?'
p417
tp418
Rp419
sS'euclidiselement02euclgoog_0100'
p420
g2
(g6
S'\x9f\xb7\xf3\xa0\x08\xa4.?'
p421
tp422
Rp423
sS'euclidiselement02euclgoog_0107'
p424
g2
(g6
S'\xce\xca\xb4`\x9a\xc8R?'
p425
tp426
Rp427
sS'euclidiselement02euclgoog_0106'
p428
g2
(g6
S'DJ\xf3?\xb2q\x12?'
p429
tp430
Rp431
sS'euclidiselement02euclgoog_0105'
p432
g2
(g6
S"\x0c\x92A\xccL'#?"
p433
tp434
Rp435
sS'euclidiselement02euclgoog_0104'
p436
g2
(g6
S'!~\xa9\xba\x10\x9c!?'
p437
tp438
Rp439
sS'euclidiselement02euclgoog_0077'
p440
g2
(g6
S'\xb0\x85\x84<q\xebI?'
p441
tp442
Rp443
sS'euclidiselement02euclgoog_0076'
p444
g2
(g6
S'\xfe\xb0z\x8c\xa5@R?'
p445
tp446
Rp447
sS'euclidiselement02euclgoog_0075'
p448
g2
(g6
S'2N!>h\xff\x15?'
p449
tp450
Rp451
sS'euclidiselement02euclgoog_0074'
p452
g2
(g6
S'B7K\x81\xcf\x15\x18?'
p453
tp454
Rp455
sS'euclidiselement02euclgoog_0073'
p456
g2
(g6
S'\xb0\xb5\x84\x88\xd9$A?'
p457
tp458
Rp459
sS'euclidiselement02euclgoog_0072'
p460
g2
(g6
S'j\x10:\x88\xab\x1aM?'
p461
tp462
Rp463
sS'euclidiselement02euclgoog_0178'
p464
g2
(g6
S'B\x02\xee\x81\xa2fF?'
p465
tp466
Rp467
sS'euclidiselement02euclgoog_0179'
p468
g2
(g6
S'\xbc\xc9\tA\xf0\x1cL?'
p469
tp470
Rp471
sS'euclidiselement02euclgoog_0176'
p472
g2
(g6
S'\xf9_d\xa8i`>?'
p473
tp474
Rp475
sS'euclidiselement02euclgoog_0177'
p476
g2
(g6
S'\xa7\xbd4>]\x16L?'
p477
tp478
Rp479
sS'euclidiselement02euclgoog_0174'
p480
g2
(g6
S'\x07[!\xf3\xa8\xbbL?'
p481
tp482
Rp483
sS'euclidiselement02euclgoog_0175'
p484
g2
(g6
S'\xc5\xe7\xe6\xdf\x81]!?'
p485
tp486
Rp487
sS'euclidiselement02euclgoog_0172'
p488
g2
(g6
S'\xff\x7f\xd6\x1b\x0boM?'
p489
tp490
Rp491
sS'euclidiselement02euclgoog_0173'
p492
g2
(g6
S'\x9f\xa7\x9e\xd3\xf0\xf4\n?'
p493
tp494
Rp495
sS'euclidiselement02euclgoog_0170'
p496
g2
(g6
S'\xc7\xb5\x19\x08\xf8\xf2\x17?'
p497
tp498
Rp499
sS'euclidiselement02euclgoog_0171'
p500
g2
(g6
S'\xa7/\xbd\xd43$I?'
p501
tp502
Rp503
sS'euclidiselement02euclgoog_0071'
p504
g2
(g6
S'\x0e4\x9aL\xbe\xf5L?'
p505
tp506
Rp507
sS'euclidiselement02euclgoog_0070'
p508
g2
(g6
S'3+\xff\xfd\xb0\xd0G?'
p509
tp510
Rp511
sS'euclidiselement02euclgoog_0253'
p512
g2
(g6
S',\x07({\nQ\x11?'
p513
tp514
Rp515
sS'euclidiselement02euclgoog_0252'
p516
g2
(g6
S'I\x86\xe76\x0f#\x19?'
p517
tp518
Rp519
sS'euclidiselement02euclgoog_0251'
p520
g2
(g6
S'.Zo\x0fjg#?'
p521
tp522
Rp523
sS'euclidiselement02euclgoog_0250'
p524
g2
(g6
S'\xa0\x80\x1e\xb3\xa1\xb8@?'
p525
tp526
Rp527
sS'euclidiselement02euclgoog_0257'
p528
g2
(g6
S'\r2\xf5h\x04\x8cM?'
p529
tp530
Rp531
sS'euclidiselement02euclgoog_0256'
p532
g2
(g6
S'\x9f\x85\x12L\xaf}\x16?'
p533
tp534
Rp535
sS'euclidiselement02euclgoog_0255'
p536
g2
(g6
S',\x07({\nQ\x11?'
p537
tp538
Rp539
sS'euclidiselement02euclgoog_0254'
p540
g2
(g6
S'%\xa1\xe2A\x12*\x0e?'
p541
tp542
Rp543
sS'euclidiselement02euclgoog_0312'
p544
g2
(g6
S'tcJ?c\xa6K?'
p545
tp546
Rp547
sS'euclidiselement02euclgoog_0313'
p548
g2
(g6
S'\xf4\xd5\xb7G\x98\xa5P?'
p549
tp550
Rp551
sS'euclidiselement02euclgoog_0259'
p552
g2
(g6
S'\xcd\xcd0\xb8\x02\xc1J?'
p553
tp554
Rp555
sS'euclidiselement02euclgoog_0258'
p556
g2
(g6
S'\x02\x1c9\xd51\xae:?'
p557
tp558
Rp559
sS'euclidiselement02euclgoog_0316'
p560
g2
(g6
S'H1\xbf\xfc+\x83K?'
p561
tp562
Rp563
sS'euclidiselement02euclgoog_0317'
p564
g2
(g6
S'\xcd\xf4Q\xb1\xe9\xbf5?'
p565
tp566
Rp567
sS'euclidiselement02euclgoog_0314'
p568
g2
(g6
S'\xa3\xf7@\xd7\xfdrK?'
p569
tp570
Rp571
sS'euclidiselement02euclgoog_0315'
p572
g2
(g6
S'2O\x8b\x88\x077+?'
p573
tp574
Rp575
sS'euclidiselement02euclgoog_0079'
p576
g2
(g6
S'\xc8\x9f\x00\xc2c\xf5-?'
p577
tp578
Rp579
sS'euclidiselement02euclgoog_0078'
p580
g2
(g6
S'L\xd4\xe9\x8e\x80\x12<?'
p581
tp582
Rp583
sS'euclidiselement02euclgoog_0536'
p584
g2
(g6
S'\xfb\xa2\xa4\x84\xe7\xc6E?'
p585
tp586
Rp587
sS'euclidiselement02euclgoog_0415'
p588
g2
(g6
S'!\xbc\x02\xcfJ\xa6<?'
p589
tp590
Rp591
sS'euclidiselement02euclgoog_0414'
p592
g2
(g6
S'\x85q\x82\xef\xc4\x98I?'
p593
tp594
Rp595
sS'euclidiselement02euclgoog_0537'
p596
g2
(g6
S'\xfb\xdb\x8c\xcc\xea\\L?'
p597
tp598
Rp599
sS'euclidiselement02euclgoog_0417'
p600
g2
(g6
S'/\x00\xe2\xa0t\xf5D?'
p601
tp602
Rp603
sS'euclidiselement02euclgoog_0416'
p604
g2
(g6
S'f\x87\x7fm-\x04@?'
p605
tp606
Rp607
sS'euclidiselement02euclgoog_0411'
p608
g2
(g6
S'q\xb2:3\xd8@<?'
p609
tp610
Rp611
sS'euclidiselement02euclgoog_0410'
p612
g2
(g6
S'K\x1fT;g;F?'
p613
tp614
Rp615
sS'euclidiselement02euclgoog_0381'
p616
g2
(g6
S'\x1dM^\xaff\x1bH?'
p617
tp618
Rp619
sS'euclidiselement02euclgoog_0380'
p620
g2
(g6
S'\x03\xc4\x173*\x7fB?'
p621
tp622
Rp623
sS'euclidiselement02euclgoog_0383'
p624
g2
(g6
S'\xf8\x08\x0e\x8d\x82QE?'
p625
tp626
Rp627
sS'euclidiselement02euclgoog_0382'
p628
g2
(g6
S'-\xe6\xb0\x94\xd6^N?'
p629
tp630
Rp631
sS'euclidiselement02euclgoog_0385'
p632
g2
(g6
S'\xf5QB\xfd\x1fNH?'
p633
tp634
Rp635
sS'euclidiselement02euclgoog_0384'
p636
g2
(g6
S'\xbf\xd0\x8b\xbd\x8c\x04C?'
p637
tp638
Rp639
sS'euclidiselement02euclgoog_0387'
p640
g2
(g6
S'\xca\xe1\x9a\x9e\xcf0N?'
p641
tp642
Rp643
sS'euclidiselement02euclgoog_0386'
p644
g2
(g6
S'\xd7m\x1c\xb9ArI?'
p645
tp646
Rp647
sS'euclidiselement02euclgoog_0389'
p648
g2
(g6
S'\x8b\x1afe\x9e\tF?'
p649
tp650
Rp651
sS'euclidiselement02euclgoog_0388'
p652
g2
(g6
S'\x92\x0bg\xfc\x89\xe6O?'
p653
tp654
Rp655
sS'euclidiselement02euclgoog_0412'
p656
g2
(g6
S'\x1a\xffY\x01/\xeaD?'
p657
tp658
Rp659
sS'euclidiselement02euclgoog_0226'
p660
g2
(g6
S'7W\xd5y`{A?'
p661
tp662
Rp663
sS'euclidiselement02euclgoog_0227'
p664
g2
(g6
S'\xab\xda\xb3\xe3\x12mL?'
p665
tp666
Rp667
sS'euclidiselement02euclgoog_0224'
p668
g2
(g6
S'\x85`V\x94\x83oR?'
p669
tp670
Rp671
sS'euclidiselement02euclgoog_0225'
p672
g2
(g6
S'W\xfc\xfeR\xfe}C?'
p673
tp674
Rp675
sS'euclidiselement02euclgoog_0222'
p676
g2
(g6
S'_B{\t\xed%T?'
p677
tp678
Rp679
sS'euclidiselement02euclgoog_0223'
p680
g2
(g6
S'\xaa\xda\xb3\xe3\x12mL?'
p681
tp682
Rp683
sS'euclidiselement02euclgoog_0220'
p684
g2
(g6
S'\x8d\xad\x8e\xba\xeb\xc4T?'
p685
tp686
Rp687
sS'euclidiselement02euclgoog_0221'
p688
g2
(g6
S"':\x14`\xc8\xf7H?"
p689
tp690
Rp691
sS'euclidiselement02euclgoog_0228'
p692
g2
(g6
S'\x14\xaf6\xc8\xd4\xa3\x11?'
p693
tp694
Rp695
sS'euclidiselement02euclgoog_0229'
p696
g2
(g6
S'T\x822\xcc\x1b;M?'
p697
tp698
Rp699
sS'euclidiselement02euclgoog_0132'
p700
g2
(g6
S'\xa3XHf\xce#H?'
p701
tp702
Rp703
sS'euclidiselement02euclgoog_0133'
p704
g2
(g6
S'\x86q(\x8c\x9d\xd0H?'
p705
tp706
Rp707
sS'euclidiselement02euclgoog_0130'
p708
g2
(g6
S'\rC[QxEJ?'
p709
tp710
Rp711
sS'euclidiselement02euclgoog_0131'
p712
g2
(g6
S'\xe3\x19\xec[\xe8\xaeM?'
p713
tp714
Rp715
sS'euclidiselement02euclgoog_0136'
p716
g2
(g6
S'>Vo\xd9\xf3\x8b3?'
p717
tp718
Rp719
sS'euclidiselement02euclgoog_0137'
p720
g2
(g6
S'?\x8c\x8f\x82\x93\x0cK?'
p721
tp722
Rp723
sS'euclidiselement02euclgoog_0134'
p724
g2
(g6
S'IO\xc1\xef\x16\xc1B?'
p725
tp726
Rp727
sS'euclidiselement02euclgoog_0135'
p728
g2
(g6
S'g\xf8\r\xa8\xf4`M?'
p729
tp730
Rp731
sS'euclidiselement02euclgoog_0428'
p732
g2
(g6
S'\xab\x87a\xd5\xfe\x06P?'
p733
tp734
Rp735
sS'euclidiselement02euclgoog_0429'
p736
g2
(g6
S'\x02\x9d\x15\\\x8e\xe6P?'
p737
tp738
Rp739
sS'euclidiselement02euclgoog_0138'
p740
g2
(g6
S'\xa2\x0fKa\x92\x15J?'
p741
tp742
Rp743
sS'euclidiselement02euclgoog_0139'
p744
g2
(g6
S'\xbc\x83w\x8d#\x9a\x1a?'
p745
tp746
Rp747
sS'euclidiselement02euclgoog_0039'
p748
g2
(g6
S'\x19\x87}\x89:\xddA?'
p749
tp750
Rp751
sS'euclidiselement02euclgoog_0038'
p752
g2
(g6
S'\xb2\xeb\xd18\x07W\x0b?'
p753
tp754
Rp755
sS'euclidiselement02euclgoog_0033'
p756
g2
(g6
S'\n{1\x06\x1c\x98A?'
p757
tp758
Rp759
sS'euclidiselement02euclgoog_0032'
p760
g2
(g6
S'\xff\x9d^\xbeX\x88A?'
p761
tp762
Rp763
sS'euclidiselement02euclgoog_0031'
p764
g2
(g6
S'{\xd9\x87\xe3\xbf\x92L?'
p765
tp766
Rp767
sS'euclidiselement02euclgoog_0030'
p768
g2
(g6
S'\x87!\xfbt\x01wP?'
p769
tp770
Rp771
sS'euclidiselement02euclgoog_0037'
p772
g2
(g6
S'O\xce\x0e\xb3L\x04L?'
p773
tp774
Rp775
sS'euclidiselement02euclgoog_0036'
p776
g2
(g6
S'\xc3\xd3e\xc97\x1e+?'
p777
tp778
Rp779
sS'euclidiselement02euclgoog_0035'
p780
g2
(g6
S'\xdd\xcd \xb9\xba8+?'
p781
tp782
Rp783
sS'euclidiselement02euclgoog_0034'
p784
g2
(g6
S'\xa4\xf7 \x84\xcb\xd9@?'
p785
tp786
Rp787
sS'euclidiselement02euclgoog_0525'
p788
g2
(g6
S'=3\xdb\xe0[\xfd\x17?'
p789
tp790
Rp791
sS'euclidiselement02euclgoog_0444'
p792
g2
(g6
S'f\xfd\x92\xf2\x1fRO?'
p793
tp794
Rp795
sS'euclidiselement02euclgoog_0524'
p796
g2
(g6
S'\xa8\xeao\x07\xc4\xceP?'
p797
tp798
Rp799
sS'euclidiselement02euclgoog_0527'
p800
g2
(g6
S'\xf9 \x8a$H\xedP?'
p801
tp802
Rp803
sS'euclidiselement02euclgoog_0526'
p804
g2
(g6
S'\xefz@\xe5;\xdfO?'
p805
tp806
Rp807
sS'euclidiselement02euclgoog_0521'
p808
g2
(g6
S'0\xd6)8\xe8XH?'
p809
tp810
Rp811
sS'euclidiselement02euclgoog_0520'
p812
g2
(g6
S"\xd5\x83Z\r\x16'M?"
p813
tp814
Rp815
sS'euclidiselement02euclgoog_0523'
p816
g2
(g6
S'/\x95\x0bsn\x10H?'
p817
tp818
Rp819
sS'euclidiselement02euclgoog_0048'
p820
g2
(g6
S'\x13\xa3G\xc2+>I?'
p821
tp822
Rp823
sS'euclidiselement02euclgoog_0049'
p824
g2
(g6
S'\xcc-\xfd\rfmL?'
p825
tp826
Rp827
sS'euclidiselement02euclgoog_0046'
p828
g2
(g6
S'A"\xce\xe3\xec\x82B?'
p829
tp830
Rp831
sS'euclidiselement02euclgoog_0047'
p832
g2
(g6
S'\x81Q\x8c1\x8c\xd7A?'
p833
tp834
Rp835
sS'euclidiselement02euclgoog_0044'
p836
g2
(g6
S'\x96\xc7\x1c\x0e\xbf\x16P?'
p837
tp838
Rp839
sS'euclidiselement02euclgoog_0045'
p840
g2
(g6
S'\xe9\xbb\x8f%\x1f\x0eK?'
p841
tp842
Rp843
sS'euclidiselement02euclgoog_0042'
p844
g2
(g6
S'\xde\xcd \xb9\xba8\x1b?'
p845
tp846
Rp847
sS'euclidiselement02euclgoog_0043'
p848
g2
(g6
S'*\xbd\xc3G\x1eHM?'
p849
tp850
Rp851
sS'euclidiselement02euclgoog_0040'
p852
g2
(g6
S'&\xc8\x07@\xab\xa4K?'
p853
tp854
Rp855
sS'euclidiselement02euclgoog_0041'
p856
g2
(g6
S'\xff\x8c\xc2\x99\xb7\xc21?'
p857
tp858
Rp859
sS'euclidiselement02euclgoog_0183'
p860
g2
(g6
S']\xa2\x8d{\xbd\xaa\x17?'
p861
tp862
Rp863
sS'euclidiselement02euclgoog_0182'
p864
g2
(g6
S'\x06\xcbKD\xd6pL?'
p865
tp866
Rp867
sS'euclidiselement02euclgoog_0181'
p868
g2
(g6
S's\xf7\tV\x05\x83I?'
p869
tp870
Rp871
sS'euclidiselement02euclgoog_0180'
p872
g2
(g6
S'q(wz\xa39)?'
p873
tp874
Rp875
sS'euclidiselement02euclgoog_0187'
p876
g2
(g6
S'r\x04[V\xd6D\x13?'
p877
tp878
Rp879
sS'euclidiselement02euclgoog_0186'
p880
g2
(g6
S"CJ\x9c\xc8\x87\xfd'?"
p881
tp882
Rp883
sS'euclidiselement02euclgoog_0185'
p884
g2
(g6
S'\xa6\x8b\xfc\xfc\x8a\'"?'
p885
tp886
Rp887
sS'euclidiselement02euclgoog_0184'
p888
g2
(g6
S'fW\xe5~\xe2OG?'
p889
tp890
Rp891
sS'euclidiselement02euclgoog_0262'
p892
g2
(g6
S'\xe9#\xa3\xaa\x18~B?'
p893
tp894
Rp895
sS'euclidiselement02euclgoog_0263'
p896
g2
(g6
S'\xb5\x04\xad~\x87\xa2\x1e?'
p897
tp898
Rp899
sS'euclidiselement02euclgoog_0189'
p900
g2
(g6
S'\x98\x80\xb8\x9a\xce\x92\t?'
p901
tp902
Rp903
sS'euclidiselement02euclgoog_0261'
p904
g2
(g6
S"\x8e\xe8,'\xf1\xfd\x03?"
p905
tp906
Rp907
sS'euclidiselement02euclgoog_0266'
p908
g2
(g6
S'\xe1\xe9\xd6\xfc\xb0H\x19?'
p909
tp910
Rp911
sS'euclidiselement02euclgoog_0267'
p912
g2
(g6
S'B{\t\xed%\xb4W?'
p913
tp914
Rp915
sS'euclidiselement02euclgoog_0264'
p916
g2
(g6
S"\x8e\xe8,'\xf1\xfd\x03?"
p917
tp918
Rp919
sS'euclidiselement02euclgoog_0265'
p920
g2
(g6
S'\x93`3\x88\xf3\xdc\x08?'
p921
tp922
Rp923
sS'euclidiselement02euclgoog_0442'
p924
g2
(g6
S'\xfe\xcb\x9d\xe7\xc3\xd2R?'
p925
tp926
Rp927
sS'euclidiselement02euclgoog_0443'
p928
g2
(g6
S'\x85\xc0\x9d\xec\x87ZR?'
p929
tp930
Rp931
sS'euclidiselement02euclgoog_0440'
p932
g2
(g6
S'k\x89\x9e\xf8O\x19P?'
p933
tp934
Rp935
sS'euclidiselement02euclgoog_0441'
p936
g2
(g6
S'\x9e\xb2\xabJ\xef\xc8Q?'
p937
tp938
Rp939
sS'euclidiselement02euclgoog_0446'
p940
g2
(g6
S'\xef\xed\xd4DM6T?'
p941
tp942
Rp943
sS'euclidiselement02euclgoog_0447'
p944
g2
(g6
S'+\xf7\xce\x88\r\x97T?'
p945
tp946
Rp947
sS'euclidiselement02euclgoog_0345'
p948
g2
(g6
S'*\xb2\x9b\xea\xc6\xc6,?'
p949
tp950
Rp951
sS'euclidiselement02euclgoog_0344'
p952
g2
(g6
S'k\n\x17\x8b\xf4\xe5D?'
p953
tp954
Rp955
sS'euclidiselement02euclgoog_0347'
p956
g2
(g6
S']\x17\xae\xe0\x96eK?'
p957
tp958
Rp959
sS'euclidiselement02euclgoog_0346'
p960
g2
(g6
S' Q1]X\x03Q?'
p961
tp962
Rp963
sS'euclidiselement02euclgoog_0341'
p964
g2
(g6
S's\x90\x8d\xce\xaeyL?'
p965
tp966
Rp967
sS'euclidiselement02euclgoog_0340'
p968
g2
(g6
S'\xa2\xd35\xe9\xa6\x88C?'
p969
tp970
Rp971
sS'euclidiselement02euclgoog_0343'
p972
g2
(g6
S'oM\xd2\xac\xd1\xafH?'
p973
tp974
Rp975
sS'euclidiselement02euclgoog_0342'
p976
g2
(g6
S'g\xee\x94\x18\xd1\xfeH?'
p977
tp978
Rp979
sS'euclidiselement02euclgoog_0445'
p980
g2
(g6
S'|\xc90\xa1@2M?'
p981
tp982
Rp983
sS'euclidiselement02euclgoog_0349'
p984
g2
(g6
S'j\xcf\x92B\x17\x1fF?'
p985
tp986
Rp987
sS'euclidiselement02euclgoog_0348'
p988
g2
(g6
S'\xb7\xb2\x8d>\x9c\xdcJ?'
p989
tp990
Rp991
sS'euclidiselement02euclgoog_0268'
p992
g2
(g6
S'\x0fo[\xacu\xadH?'
p993
tp994
Rp995
sS'euclidiselement02euclgoog_0269'
p996
g2
(g6
S'\xfai\xb1\x8d\x9f\x16K?'
p997
tp998
Rp999
sS'euclidiselement02euclgoog_0464'
p1000
g2
(g6
S'\x07\xf80\xc5\x8e\x94I?'
p1001
tp1002
Rp1003
sS'euclidiselement02euclgoog_0465'
p1004
g2
(g6
S'(\xc2\x99\x92f\x1cI?'
p1005
tp1006
Rp1007
sS'euclidiselement02euclgoog_0466'
p1008
g2
(g6
S'.V\xd4l\x11\xfeR?'
p1009
tp1010
Rp1011
sS'euclidiselement02euclgoog_0467'
p1012
g2
(g6
S'}E\x81\x06\xc2WT?'
p1013
tp1014
Rp1015
sS'euclidiselement02euclgoog_0460'
p1016
g2
(g6
S'\x96\xc2`\xd1j1P?'
p1017
tp1018
Rp1019
sS'euclidiselement02euclgoog_0461'
p1020
g2
(g6
S'&\xc6V\xfb\xf5\xacQ?'
p1021
tp1022
Rp1023
sS'euclidiselement02euclgoog_0462'
p1024
g2
(g6
S'\xb7\xc1\x05\x93`\x9aK?'
p1025
tp1026
Rp1027
sS'euclidiselement02euclgoog_0463'
p1028
g2
(g6
S'\x1c\xb0\x12\xd6U\xcdP?'
p1029
tp1030
Rp1031
sS'euclidiselement02euclgoog_0507'
p1032
g2
(g6
S'\xeb5\xa9\x0b\xdbtN?'
p1033
tp1034
Rp1035
sS'euclidiselement02euclgoog_0506'
p1036
g2
(g6
S'\x9eL\\E.sI?'
p1037
tp1038
Rp1039
sS'euclidiselement02euclgoog_0505'
p1040
g2
(g6
S'\xbe\xd1\xfa\xf9\xa6\xfdM?'
p1041
tp1042
Rp1043
sS'euclidiselement02euclgoog_0504'
p1044
g2
(g6
S'zz\xdf$4\xf0K?'
p1045
tp1046
Rp1047
sS'euclidiselement02euclgoog_0468'
p1048
g2
(g6
S'\xffk_\xa7X\xf8R?'
p1049
tp1050
Rp1051
sS'euclidiselement02euclgoog_0260'
p1052
g2
(g6
S'\x80\xdcX\xc59\xaaL?'
p1053
tp1054
Rp1055
sS'euclidiselement02euclgoog_0501'
p1056
g2
(g6
S'q\xe8\x9c\x1eP K?'
p1057
tp1058
Rp1059
sS'euclidiselement02euclgoog_0500'
p1060
g2
(g6
S'\xe2j\xa0\xe7G\xc6R?'
p1061
tp1062
Rp1063
sS'euclidiselement02euclgoog_0188'
p1064
g2
(g6
S'\x96\xe1\x02\xe4\x0fA\x1a?'
p1065
tp1066
Rp1067
sS'euclidiselement02euclgoog_0488'
p1068
g2
(g6
S'\xd8\x8f\t\x9fs\xfbG?'
p1069
tp1070
Rp1071
sS'euclidiselement02euclgoog_0489'
p1072
g2
(g6
S'\xfc\xe3\xc2Ia\x0fV?'
p1073
tp1074
Rp1075
sS'euclidiselement02euclgoog_0486'
p1076
g2
(g6
S'+L\xeao|\xa8G?'
p1077
tp1078
Rp1079
sS'euclidiselement02euclgoog_0487'
p1080
g2
(g6
S'\x16\xa2\xc0\xd9\x831R?'
p1081
tp1082
Rp1083
sS'euclidiselement02euclgoog_0484'
p1084
g2
(g6
S'(\x89\xa05\xb9\xaaD?'
p1085
tp1086
Rp1087
sS'euclidiselement02euclgoog_0485'
p1088
g2
(g6
S't\xf0\xd2\x9b\xc6\xd2T?'
p1089
tp1090
Rp1091
sS'euclidiselement02euclgoog_0482'
p1092
g2
(g6
S'c\t\xd1\x15=\xa2F?'
p1093
tp1094
Rp1095
sS'euclidiselement02euclgoog_0483'
p1096
g2
(g6
S'_B\xfd\xb1\xe8\xa6D?'
p1097
tp1098
Rp1099
sS'euclidiselement02euclgoog_0480'
p1100
g2
(g6
S'\xac\xb3\x19\x15\x8b$P?'
p1101
tp1102
Rp1103
sS'euclidiselement02euclgoog_0481'
p1104
g2
(g6
S'\xa4\x99\xf6\\\x07\xfdJ?'
p1105
tp1106
Rp1107
sS'euclidiselement02euclgoog_0169'
p1108
g2
(g6
S'\x9c1\xd0S\xb2E\x0f?'
p1109
tp1110
Rp1111
sS'euclidiselement02euclgoog_0168'
p1112
g2
(g6
S'!\xee\x19\xe5\xb4\xa5$?'
p1113
tp1114
Rp1115
sS'euclidiselement02euclgoog_0165'
p1116
g2
(g6
S'u/\x86\xa8TkF?'
p1117
tp1118
Rp1119
sS'euclidiselement02euclgoog_0164'
p1120
g2
(g6
S'\x8c\x95\x1d\xa0\x8d\t1?'
p1121
tp1122
Rp1123
sS'euclidiselement02euclgoog_0167'
p1124
g2
(g6
S'QJ\x8aT\xa5\xee+?'
p1125
tp1126
Rp1127
sS'euclidiselement02euclgoog_0166'
p1128
g2
(g6
S'\xa1\x83>,\x85IF?'
p1129
tp1130
Rp1131
sS'euclidiselement02euclgoog_0161'
p1132
g2
(g6
S'\xf0\xb5\xaa\xa3\x03h@?'
p1133
tp1134
Rp1135
sS'euclidiselement02euclgoog_0160'
p1136
g2
(g6
S'U\xc5\xc5\x7f\xf9^H?'
p1137
tp1138
Rp1139
sS'euclidiselement02euclgoog_0163'
p1140
g2
(g6
S"M'\x97z\xcf\x8dG?"
p1141
tp1142
Rp1143
sS'euclidiselement02euclgoog_0162'
p1144
g2
(g6
S'O\x15\xc46\xfcYL?'
p1145
tp1146
Rp1147
sS'euclidiselement02euclgoog_0318'
p1148
g2
(g6
S'\x01\xc1\x9e\xd0\xfeZD?'
p1149
tp1150
Rp1151
sS'euclidiselement02euclgoog_0319'
p1152
g2
(g6
S'JB\x893\x8f\x043?'
p1153
tp1154
Rp1155
sS'euclidiselement02euclgoog_0420'
p1156
g2
(g6
S'\xdaR\xde\xac\x84WH?'
p1157
tp1158
Rp1159
sS'euclidiselement02euclgoog_0542'
p1160
g2
(g6
S'\x011\x7f\x8b\x8ePC?'
p1161
tp1162
Rp1163
sS'euclidiselement02euclgoog_0541'
p1164
g2
(g6
S'e\x8b\xebu\xdc{K?'
p1165
tp1166
Rp1167
sS'euclidiselement02euclgoog_0540'
p1168
g2
(g6
S'.\x0b\x99k\x04\xcdM?'
p1169
tp1170
Rp1171
sS'euclidiselement02euclgoog_0421'
p1172
g2
(g6
S'\xd1|\x96\xfa\x1f\x0fJ?'
p1173
tp1174
Rp1175
sS'euclidiselement02euclgoog_0310'
p1176
g2
(g6
S'\x00u\xab\r-\xa8G?'
p1177
tp1178
Rp1179
sS'euclidiselement02euclgoog_0309'
p1180
g2
(g6
S'\x10|=\xda\xd0\xc4\x1a?'
p1181
tp1182
Rp1183
sS'euclidiselement02euclgoog_0308'
p1184
g2
(g6
S'>5@(\xb7aF?'
p1185
tp1186
Rp1187
sS'euclidiselement02euclgoog_0311'
p1188
g2
(g6
S'\xb37*\xf3\x10D!?'
p1189
tp1190
Rp1191
sS'euclidiselement02euclgoog_0301'
p1192
g2
(g6
S'\x82\xe6@\x1f\x87A\x1c?'
p1193
tp1194
Rp1195
sS'euclidiselement02euclgoog_0300'
p1196
g2
(g6
S'\xff\xfbt\xbb\x0f"J?'
p1197
tp1198
Rp1199
sS'euclidiselement02euclgoog_0303'
p1200
g2
(g6
S'\x18\x96h~7<\r?'
p1201
tp1202
Rp1203
sS'euclidiselement02euclgoog_0302'
p1204
g2
(g6
S'Q\xd9\x135\xcf\xee>?'
p1205
tp1206
Rp1207
sS'euclidiselement02euclgoog_0305'
p1208
g2
(g6
S'\xd8f+\xb9LoO?'
p1209
tp1210
Rp1211
sS'euclidiselement02euclgoog_0304'
p1212
g2
(g6
S'F4\xed\xbd\x8e{K?'
p1213
tp1214
Rp1215
sS'euclidiselement02euclgoog_0307'
p1216
g2
(g6
S'\xf3\xbb9\xfd\xc8PM?'
p1217
tp1218
Rp1219
sS'euclidiselement02euclgoog_0306'
p1220
g2
(g6
S'9\xecz&H\xa7I?'
p1221
tp1222
Rp1223
sS'euclidiselement02euclgoog_0422'
p1224
g2
(g6
S'\xeb\xd7\xe6\x12|\xc9M?'
p1225
tp1226
Rp1227
sS'euclidiselement02euclgoog_0235'
p1228
g2
(g6
S'\xccD\x88f\xf7.#?'
p1229
tp1230
Rp1231
sS'euclidiselement02euclgoog_0234'
p1232
g2
(g6
S'\xd6\xfa\xe8q\xad\x8fN?'
p1233
tp1234
Rp1235
sS'euclidiselement02euclgoog_0237'
p1236
g2
(g6
S'\xdb\x17\xcfHa*+?'
p1237
tp1238
Rp1239
sS'euclidiselement02euclgoog_0236'
p1240
g2
(g6
S'\x92\xba4\xdb@\x1c\x12?'
p1241
tp1242
Rp1243
sS'euclidiselement02euclgoog_0231'
p1244
g2
(g6
S'm\xbfN\x95U.P?'
p1245
tp1246
Rp1247
sS'euclidiselement02euclgoog_0230'
p1248
g2
(g6
S'\xc8\xaf\xe6\xf5\x182P?'
p1249
tp1250
Rp1251
sS'euclidiselement02euclgoog_0233'
p1252
g2
(g6
S'B4\xbbw\x99\x08Q?'
p1253
tp1254
Rp1255
sS'euclidiselement02euclgoog_0232'
p1256
g2
(g6
S'\x88\xf5\xf7\x04blU?'
p1257
tp1258
Rp1259
sS'euclidiselement02euclgoog_0239'
p1260
g2
(g6
S'\t\xaf[\x85\xf0\xbaE?'
p1261
tp1262
Rp1263
sS'euclidiselement02euclgoog_0238'
p1264
g2
(g6
S'\x8d\xd3\xaf\xc18\xfd\n?'
p1265
tp1266
Rp1267
sS'euclidiselement02euclgoog_0406'
p1268
g2
(g6
S'\xba\x06\x83\xae\xd0\xb3??'
p1269
tp1270
Rp1271
sS'euclidiselement02euclgoog_0407'
p1272
g2
(g6
S'g\xa1+R\x95\x14A?'
p1273
tp1274
Rp1275
sS'euclidiselement02euclgoog_0403'
p1276
g2
(g6
S'\n\xfd\xba\x12^N??'
p1277
tp1278
Rp1279
sS'euclidiselement02euclgoog_0121'
p1280
g2
(g6
S'_s\x02%\xae\x81O?'
p1281
tp1282
Rp1283
sS'euclidiselement02euclgoog_0289'
p1284
g2
(g6
S':;\x9c\xaa|RF?'
p1285
tp1286
Rp1287
sS'euclidiselement02euclgoog_0123'
p1288
g2
(g6
S'\xa8\x11\t^\x98]N?'
p1289
tp1290
Rp1291
sS'euclidiselement02euclgoog_0122'
p1292
g2
(g6
S't?\xec\x99\xbb\xd0P?'
p1293
tp1294
Rp1295
sS'euclidiselement02euclgoog_0125'
p1296
g2
(g6
S':4\xe5\xf9\x1fy*?'
p1297
tp1298
Rp1299
sS'euclidiselement02euclgoog_0124'
p1300
g2
(g6
S'\xbd\xb1\xf0\xd6\xd5\x84T?'
p1301
tp1302
Rp1303
sS'euclidiselement02euclgoog_0127'
p1304
g2
(g6
S'.J\xed\x9eJ\xa7H?'
p1305
tp1306
Rp1307
sS'euclidiselement02euclgoog_0126'
p1308
g2
(g6
S',\xaf3\xe6\x05V2?'
p1309
tp1310
Rp1311
sS'euclidiselement02euclgoog_0280'
p1312
g2
(g6
S")\xaad\x11\xc7\xc3'?"
p1313
tp1314
Rp1315
sS'euclidiselement02euclgoog_0281'
p1316
g2
(g6
S'};\xbe%\x81\xddH?'
p1317
tp1318
Rp1319
sS'euclidiselement02euclgoog_0282'
p1320
g2
(g6
S'\xe1\xacpW%15?'
p1321
tp1322
Rp1323
sS'euclidiselement02euclgoog_0283'
p1324
g2
(g6
S'2\xfb\x0eJ\x02\x81R?'
p1325
tp1326
Rp1327
sS'euclidiselement02euclgoog_0284'
p1328
g2
(g6
S'\xc2>\xbc\xbf\xb4`D?'
p1329
tp1330
Rp1331
sS'euclidiselement02euclgoog_0285'
p1332
g2
(g6
S'\xc3>\xbc\xbf\xb4`T?'
p1333
tp1334
Rp1335
sS'euclidiselement02euclgoog_0286'
p1336
g2
(g6
S'\\\x08\xe0x!\xd4M?'
p1337
tp1338
Rp1339
sS'euclidiselement02euclgoog_0287'
p1340
g2
(g6
S'\x1f\xbf\xc2\x82\x99w ?'
p1341
tp1342
Rp1343
sS'euclidiselement02euclgoog_0439'
p1344
g2
(g6
S'wu\xca\x8d\x19\xc2I?'
p1345
tp1346
Rp1347
sS'euclidiselement02euclgoog_0438'
p1348
g2
(g6
S'\x01\xec&\n\xe5\x9bN?'
p1349
tp1350
Rp1351
sS'euclidiselement02euclgoog_0437'
p1352
g2
(g6
S'Ps\xbaN\x8e\xabI?'
p1353
tp1354
Rp1355
sS'euclidiselement02euclgoog_0436'
p1356
g2
(g6
S'e\x87\xfaE\xf7}J?'
p1357
tp1358
Rp1359
sS'euclidiselement02euclgoog_0435'
p1360
g2
(g6
S'..\xd8\x04U\xd7F?'
p1361
tp1362
Rp1363
sS'euclidiselement02euclgoog_0434'
p1364
g2
(g6
S',\x07Q\x06\x83\xb8O?'
p1365
tp1366
Rp1367
sS'euclidiselement02euclgoog_0433'
p1368
g2
(g6
S'\x89\x87p!\x96\x05P?'
p1369
tp1370
Rp1371
sS'euclidiselement02euclgoog_0432'
p1372
g2
(g6
S'\x1e\x95\x00\xf8\xae\rK?'
p1373
tp1374
Rp1375
sS'euclidiselement02euclgoog_0431'
p1376
g2
(g6
S'c,\xa0\xa5\x8b\xc4F?'
p1377
tp1378
Rp1379
sS'euclidiselement02euclgoog_0430'
p1380
g2
(g6
S'\xc9\x9c.05\xe4P?'
p1381
tp1382
Rp1383
sS'euclidiselement02euclgoog_0408'
p1384
g2
(g6
S'X\xf4\t\xc6vyD?'
p1385
tp1386
Rp1387
sS'euclidiselement02euclgoog_0409'
p1388
g2
(g6
S'\x93\xc9\xab@g\xb9B?'
p1389
tp1390
Rp1391
sS'euclidiselement02euclgoog_0059'
p1392
g2
(g6
S'FU(\x98\x89\x85H?'
p1393
tp1394
Rp1395
sS'euclidiselement02euclgoog_0058'
p1396
g2
(g6
S'p\xb6\xd1\xa2\x90ZA?'
p1397
tp1398
Rp1399
sS'euclidiselement02euclgoog_0055'
p1400
g2
(g6
S'\x1b\xb1w\xc4\xff\x02M?'
p1401
tp1402
Rp1403
sS'euclidiselement02euclgoog_0054'
p1404
g2
(g6
S'T\x9f\x12\xc8\xd1)M?'
p1405
tp1406
Rp1407
sS'euclidiselement02euclgoog_0057'
p1408
g2
(g6
S'>\xce\xdc\xe0MVQ?'
p1409
tp1410
Rp1411
sS'euclidiselement02euclgoog_0056'
p1412
g2
(g6
S'.\xb2\x7fO\x91\xebN?'
p1413
tp1414
Rp1415
sS'euclidiselement02euclgoog_0051'
p1416
g2
(g6
S'\xabE7\xab6\xf8Q?'
p1417
tp1418
Rp1419
sS'euclidiselement02euclgoog_0050'
p1420
g2
(g6
S'E1p\xa5\x9b\x07H?'
p1421
tp1422
Rp1423
sS'euclidiselement02euclgoog_0053'
p1424
g2
(g6
S'\xde\x1e\xf1\x17n\x11G?'
p1425
tp1426
Rp1427
sS'euclidiselement02euclgoog_0052'
p1428
g2
(g6
S'r_&h\xa9s\x15?'
p1429
tp1430
Rp1431
sS'euclidiselement02euclgoog_0288'
p1432
g2
(g6
S'*\x02\xa4kGz\x18?'
p1433
tp1434
Rp1435
sS'euclidiselement02euclgoog_0120'
p1436
g2
(g6
S'y\xe8F\xa0\x1e\xa5L?'
p1437
tp1438
Rp1439
sS'euclidiselement02euclgoog_0534'
p1440
g2
(g6
S'\x80M\x84D:wD?'
p1441
tp1442
Rp1443
sS'euclidiselement02euclgoog_0535'
p1444
g2
(g6
S'\x01f\xbb\x7f\xac1O?'
p1445
tp1446
Rp1447
sS'euclidiselement02euclgoog_0532'
p1448
g2
(g6
S'\x98\xfb\x04\xc5\xc5XO?'
p1449
tp1450
Rp1451
sS'euclidiselement02euclgoog_0533'
p1452
g2
(g6
S'\xed\xbf\x1b\x13E\xb8H?'
p1453
tp1454
Rp1455
sS'euclidiselement02euclgoog_0218'
p1456
g2
(g6
S'\x89\xcbFP=cG?'
p1457
tp1458
Rp1459
sS'euclidiselement02euclgoog_0530'
p1460
g2
(g6
S'y\xbf\xcbg\xe7\xa4R?'
p1461
tp1462
Rp1463
sS'euclidiselement02euclgoog_0531'
p1464
g2
(g6
S'y\xac\x08/\xe6eD?'
p1465
tp1466
Rp1467
sS'euclidiselement02euclgoog_0129'
p1468
g2
(g6
S'\x91\xa2\xb2\xb7\x92\x8aI?'
p1469
tp1470
Rp1471
sS'euclidiselement02euclgoog_0128'
p1472
g2
(g6
S'\xd4\x81]\xec1\xfe.?'
p1473
tp1474
Rp1475
sS'euclidiselement02euclgoog_0279'
p1476
g2
(g6
S'\xf2\xeb\xaaMw\x1cN?'
p1477
tp1478
Rp1479
sS'euclidiselement02euclgoog_0278'
p1480
g2
(g6
S'\xd4\x01\x92\xa2\x86\xcdO?'
p1481
tp1482
Rp1483
sS'euclidiselement02euclgoog_0271'
p1484
g2
(g6
S'\xffU*@\xb5\xfaG?'
p1485
tp1486
Rp1487
sS'euclidiselement02euclgoog_0270'
p1488
g2
(g6
S'\xf2\x86\xbc!o\xc8\x1b?'
p1489
tp1490
Rp1491
sS'euclidiselement02euclgoog_0273'
p1492
g2
(g6
S'\xd7Pa\x84\x87xE?'
p1493
tp1494
Rp1495
sS'euclidiselement02euclgoog_0272'
p1496
g2
(g6
S'\xfd\xb5\x8b\xd8\xcf_6?'
p1497
tp1498
Rp1499
sS'euclidiselement02euclgoog_0275'
p1500
g2
(g6
S'\xe2\xb7\xd5\xf1\x87,J?'
p1501
tp1502
Rp1503
sS'euclidiselement02euclgoog_0274'
p1504
g2
(g6
S'&\xad\x92\xd2)\xbcG?'
p1505
tp1506
Rp1507
sS'euclidiselement02euclgoog_0277'
p1508
g2
(g6
S"r\xf6'\xadi\x01P?"
p1509
tp1510
Rp1511
sS'euclidiselement02euclgoog_0276'
p1512
g2
(g6
S'\x9aX$@O\xf0P?'
p1513
tp1514
Rp1515
sS'euclidiselement02euclgoog_0538'
p1516
g2
(g6
S'eT\xea\xec\xf5\x1bP?'
p1517
tp1518
Rp1519
sS'euclidiselement02euclgoog_0539'
p1520
g2
(g6
S'\xed\xbb\x80\xd4\t\xdfK?'
p1521
tp1522
Rp1523
sS'euclidiselement02euclgoog_0370'
p1524
g2
(g6
S'jXr\xba\xc1\x91H?'
p1525
tp1526
Rp1527
sS'euclidiselement02euclgoog_0371'
p1528
g2
(g6
S'p<\xa2\x86\xaflG?'
p1529
tp1530
Rp1531
sS'euclidiselement02euclgoog_0372'
p1532
g2
(g6
S'\x93\xf7\xa1\xa4G\x9bD?'
p1533
tp1534
Rp1535
sS'euclidiselement02euclgoog_0373'
p1536
g2
(g6
S'\xd6%zp\xf9\x7fF?'
p1537
tp1538
Rp1539
sS'euclidiselement02euclgoog_0374'
p1540
g2
(g6
S'\xa4\xf2\xc7\xde\x9dgD?'
p1541
tp1542
Rp1543
sS'euclidiselement02euclgoog_0375'
p1544
g2
(g6
S'\x9a^\xc0\x0f\x92\xd2H?'
p1545
tp1546
Rp1547
sS'euclidiselement02euclgoog_0376'
p1548
g2
(g6
S'\x80\xd5\xf4k\x1f\xb0M?'
p1549
tp1550
Rp1551
sS'euclidiselement02euclgoog_0377'
p1552
g2
(g6
S'pj\x98\xea\x8fNI?'
p1553
tp1554
Rp1555
sS'euclidiselement02euclgoog_0378'
p1556
g2
(g6
S'\xc9\xb3)b%\xd5Q?'
p1557
tp1558
Rp1559
sS'euclidiselement02euclgoog_0379'
p1560
g2
(g6
S'\x19\x9d\x86\xacHaK?'
p1561
tp1562
Rp1563
sS'euclidiselement02euclgoog_0088'
p1564
g2
(g6
S'\x9dh_(\xea$E?'
p1565
tp1566
Rp1567
sS'euclidiselement02euclgoog_0089'
p1568
g2
(g6
S'\xb8\x91~c4vE?'
p1569
tp1570
Rp1571
sS'euclidiselement02euclgoog_0082'
p1572
g2
(g6
S'N\x80\\\x85\x99` ?'
p1573
tp1574
Rp1575
sS'euclidiselement02euclgoog_0083'
p1576
g2
(g6
S'\x89B=\xcc\xa8\x0b ?'
p1577
tp1578
Rp1579
sS'euclidiselement02euclgoog_0080'
p1580
g2
(g6
S'\x13\xf9\x80=8e#?'
p1581
tp1582
Rp1583
sS'euclidiselement02euclgoog_0081'
p1584
g2
(g6
S'@\xcc\x94h\xe0[H?'
p1585
tp1586
Rp1587
sS'euclidiselement02euclgoog_0086'
p1588
g2
(g6
S'n\x13)\x0e\xc0\x7f\x0c?'
p1589
tp1590
Rp1591
sS'euclidiselement02euclgoog_0087'
p1592
g2
(g6
S'.yJ\xbf\xc0\xda\x18?'
p1593
tp1594
Rp1595
sS'euclidiselement02euclgoog_0084'
p1596
g2
(g6
S'+\x13\xfd\xc2*o\x17?'
p1597
tp1598
Rp1599
sS'euclidiselement02euclgoog_0085'
p1600
g2
(g6
S'\x0c\x81sN\xf3?<?'
p1601
tp1602
Rp1603
sS'euclidiselement02euclgoog_0502'
p1604
g2
(g6
S'7d\xd1\xff\x90OL?'
p1605
tp1606
Rp1607
sS'euclidiselement02euclgoog_0473'
p1608
g2
(g6
S'\xfc\xe3\xc2Ia\x0fV?'
p1609
tp1610
Rp1611
sS'euclidiselement02euclgoog_0472'
p1612
g2
(g6
S'\xca.\xbd\xb7\xc4}+?'
p1613
tp1614
Rp1615
sS'euclidiselement02euclgoog_0471'
p1616
g2
(g6
S'Qc\xfei\xd7\x95V?'
p1617
tp1618
Rp1619
sS'euclidiselement02euclgoog_0470'
p1620
g2
(g6
S'\x1c\xb0\x12\xd6U\xcdP?'
p1621
tp1622
Rp1623
sS'euclidiselement02euclgoog_0477'
p1624
g2
(g6
S'\xae7\x1b4G4P?'
p1625
tp1626
Rp1627
sS'euclidiselement02euclgoog_0476'
p1628
g2
(g6
S'\xfeg\xc4h\x1d\x1fV?'
p1629
tp1630
Rp1631
sS'euclidiselement02euclgoog_0475'
p1632
g2
(g6
S'<\xa2\xbfd/<O?'
p1633
tp1634
Rp1635
sS'euclidiselement02euclgoog_0474'
p1636
g2
(g6
S'\xc3\xd9\xfd7\x1f\x1d.?'
p1637
tp1638
Rp1639
sS'euclidiselement02euclgoog_0479'
p1640
g2
(g6
S'\xaa\xa1\xd7p+eO?'
p1641
tp1642
Rp1643
sS'euclidiselement02euclgoog_0478'
p1644
g2
(g6
S'\x7f\xbfe\xe9\xea~O?'
p1645
tp1646
Rp1647
sS'euclidiselement02euclgoog_0499'
p1648
g2
(g6
S'c\x83\xd7"\xba\x80M?'
p1649
tp1650
Rp1651
sS'euclidiselement02euclgoog_0498'
p1652
g2
(g6
S'y\xbf\xcbg\xe7\xa4R?'
p1653
tp1654
Rp1655
sS'euclidiselement02euclgoog_0495'
p1656
g2
(g6
S'\x9c\x8d\xadI\xa6NC?'
p1657
tp1658
Rp1659
sS'euclidiselement02euclgoog_0494'
p1660
g2
(g6
S'\xaf\xadd\xd84\x82N?'
p1661
tp1662
Rp1663
sS'euclidiselement02euclgoog_0497'
p1664
g2
(g6
S'>\xf2\x9a\xf1\x8d\xfdK?'
p1665
tp1666
Rp1667
sS'euclidiselement02euclgoog_0496'
p1668
g2
(g6
S'%@\x7f2\xc7BT?'
p1669
tp1670
Rp1671
sS'euclidiselement02euclgoog_0491'
p1672
g2
(g6
S'S\xa0p\xdbk)\x1c?'
p1673
tp1674
Rp1675
sS'euclidiselement02euclgoog_0490'
p1676
g2
(g6
S'@\xbd<\xd3\x1beD?'
p1677
tp1678
Rp1679
sS'euclidiselement02euclgoog_0493'
p1680
g2
(g6
S"'\x07d\xab\xc5\x19D?"
p1681
tp1682
Rp1683
sS'euclidiselement02euclgoog_0492'
p1684
g2
(g6
S'\xd4\xcc\xe1\x8e\x04\xb5P?'
p1685
tp1686
Rp1687
sS'euclidiselement02euclgoog_0158'
p1688
g2
(g6
S'\x83\x0e\xa7\xe8*\x04$?'
p1689
tp1690
Rp1691
sS'euclidiselement02euclgoog_0159'
p1692
g2
(g6
S'=6P.<\x9fI?'
p1693
tp1694
Rp1695
sS'euclidiselement02euclgoog_0404'
p1696
g2
(g6
S'\xe8\xaa\x07\xfe&xA?'
p1697
tp1698
Rp1699
sS'euclidiselement02euclgoog_0405'
p1700
g2
(g6
S'\x9e\xedry\xcd\xac>?'
p1701
tp1702
Rp1703
sS'euclidiselement02euclgoog_0402'
p1704
g2
(g6
S'H\xb7\xa3\xa8\xc7\xf9A?'
p1705
tp1706
Rp1707
sS'euclidiselement02euclgoog_0192'
p1708
g2
(g6
S'k\x87\xdc\xea\xf1\xd1J?'
p1709
tp1710
Rp1711
sS'euclidiselement02euclgoog_0400'
p1712
g2
(g6
S'\xabL\x90W\xb4\x16H?'
p1713
tp1714
Rp1715
sS'euclidiselement02euclgoog_0401'
p1716
g2
(g6
S'r\xe6\x92\xfc\xa7a>?'
p1717
tp1718
Rp1719
sS'euclidiselement02euclgoog_0150'
p1720
g2
(g6
S'\xf6\xa8\x0e\xe5\xbbLG?'
p1721
tp1722
Rp1723
sS'euclidiselement02euclgoog_0151'
p1724
g2
(g6
S'\xf8\xac\x91\x85\nw ?'
p1725
tp1726
Rp1727
sS'euclidiselement02euclgoog_0152'
p1728
g2
(g6
S'PD=\x9d\x01\xaa#?'
p1729
tp1730
Rp1731
sS'euclidiselement02euclgoog_0153'
p1732
g2
(g6
S'3N\xc3\x07\x83\xf3\x16?'
p1733
tp1734
Rp1735
sS'euclidiselement02euclgoog_0154'
p1736
g2
(g6
S'\x9d\xf3[\x8e?1\x14?'
p1737
tp1738
Rp1739
sS'euclidiselement02euclgoog_0155'
p1740
g2
(g6
S'\x83\xa7\xf5lS/K?'
p1741
tp1742
Rp1743
sS'euclidiselement02euclgoog_0156'
p1744
g2
(g6
S'\x02]\xe6\x96\xf1\x9d1?'
p1745
tp1746
Rp1747
sS'euclidiselement02euclgoog_0157'
p1748
g2
(g6
S'\x1a\xbb\xca\x15w\t/?'
p1749
tp1750
Rp1751
sS'euclidiselement02euclgoog_0509'
p1752
g2
(g6
S'\x9b\xcc\x17\x8f\x01\xf4Q?'
p1753
tp1754
Rp1755
sS'euclidiselement02euclgoog_0198'
p1756
g2
(g6
S'\t\xa6\xd7>\x0b%H?'
p1757
tp1758
Rp1759
sS'euclidiselement02euclgoog_0508'
p1760
g2
(g6
S'\xc4"Rz\x0f\x18H?'
p1761
tp1762
Rp1763
sS'euclidiselement02euclgoog_0413'
p1764
g2
(g6
S'\x95\xb5a\xc1\xee\xe7A?'
p1765
tp1766
Rp1767
sS'euclidiselement02euclgoog_0199'
p1768
g2
(g6
S'uS\xd50J/I?'
p1769
tp1770
Rp1771
sS'euclidiselement02euclgoog_0503'
p1772
g2
(g6
S'e\xc8\x7f\x11\xc5\xc6L?'
p1773
tp1774
Rp1775
sS'euclidiselement02euclgoog_0469'
p1776
g2
(g6
S'\xc7.\x01\x0cm\xecR?'
p1777
tp1778
Rp1779
sS'euclidiselement02euclgoog_0334'
p1780
g2
(g6
S'\x85\xbf\xde\x9e\xb3\xdeP?'
p1781
tp1782
Rp1783
sS'euclidiselement02euclgoog_0335'
p1784
g2
(g6
S'$4\\\x80\x0c6:?'
p1785
tp1786
Rp1787
sS'euclidiselement02euclgoog_0336'
p1788
g2
(g6
S'\xf3\xf9\xeb\x06\t\x10L?'
p1789
tp1790
Rp1791
sS'euclidiselement02euclgoog_0337'
p1792
g2
(g6
S'\xbaU\xd9^\xa2=I?'
p1793
tp1794
Rp1795
sS'euclidiselement02euclgoog_0330'
p1796
g2
(g6
S'!\xbeS\xefQ\xa8L?'
p1797
tp1798
Rp1799
sS'euclidiselement02euclgoog_0331'
p1800
g2
(g6
S'G\x1e#\x89\xc9\x84A?'
p1801
tp1802
Rp1803
sS'euclidiselement02euclgoog_0332'
p1804
g2
(g6
S'\x1fE\x1d\x9d4"O?'
p1805
tp1806
Rp1807
sS'euclidiselement02euclgoog_0333'
p1808
g2
(g6
S'\xf0QE,2\xa4A?'
p1809
tp1810
Rp1811
sS'euclidiselement02euclgoog_0338'
p1812
g2
(g6
S'H\xb8\x88\xaa\x0e\xfdM?'
p1813
tp1814
Rp1815
sS'euclidiselement02euclgoog_0339'
p1816
g2
(g6
S'-fV\x85\xc1\x13I?'
p1817
tp1818
Rp1819
sS'euclidiselement02euclgoog_0369'
p1820
g2
(g6
S'|\x04\x02\x1f\x8b"E?'
p1821
tp1822
Rp1823
sS'euclidiselement02euclgoog_0368'
p1824
g2
(g6
S'emNa\x8fmI?'
p1825
tp1826
Rp1827
sS'euclidiselement02euclgoog_0363'
p1828
g2
(g6
S'Er\x9f\xc7\xce:J?'
p1829
tp1830
Rp1831
sS'euclidiselement02euclgoog_0249'
p1832
g2
(g6
S'\x18w\xf5\xac\xd3\x7f\x12?'
p1833
tp1834
Rp1835
sS'euclidiselement02euclgoog_0200'
p1836
g2
(g6
S'\x97A^l,\xbeA?'
p1837
tp1838
Rp1839
sS'euclidiselement02euclgoog_0201'
p1840
g2
(g6
S'E\xaf\xeb\xe9\xb1?5?'
p1841
tp1842
Rp1843
sS'euclidiselement02euclgoog_0202'
p1844
g2
(g6
S'C\xe0X\x0eP\xf6$?'
p1845
tp1846
Rp1847
sS'euclidiselement02euclgoog_0203'
p1848
g2
(g6
S"\xf4\x05}A_\xd0'?"
p1849
tp1850
Rp1851
sS'euclidiselement02euclgoog_0204'
p1852
g2
(g6
S'\x03\xba^\x8c\xf5@K?'
p1853
tp1854
Rp1855
sS'euclidiselement02euclgoog_0205'
p1856
g2
(g6
S'\xba\xb1\x8asT9\xfc>'
p1857
tp1858
Rp1859
sS'euclidiselement02euclgoog_0206'
p1860
g2
(g6
S'z\x02\xe01v\xf9\xfb>'
p1861
tp1862
Rp1863
sS'euclidiselement02euclgoog_0207'
p1864
g2
(g6
S'\x1e\x8d\x80\xb1C%O?'
p1865
tp1866
Rp1867
sS'euclidiselement02euclgoog_0208'
p1868
g2
(g6
S'z\x02\xe01v\xf9\xfb>'
p1869
tp1870
Rp1871
sS'euclidiselement02euclgoog_0209'
p1872
g2
(g6
S'\xbbS@\xd8\xef\x9cD?'
p1873
tp1874
Rp1875
sS'euclidiselement02euclgoog_0297'
p1876
g2
(g6
S'\x01\xddr\xe5UBG?'
p1877
tp1878
Rp1879
sS'euclidiselement02euclgoog_0296'
p1880
g2
(g6
S'*o\x8e&\xb6\xfc1?'
p1881
tp1882
Rp1883
sS'euclidiselement02euclgoog_0295'
p1884
g2
(g6
S'\x983j,7 L?'
p1885
tp1886
Rp1887
sS'euclidiselement02euclgoog_0294'
p1888
g2
(g6
S'\xe9I`\xf5e\xa1\x13?'
p1889
tp1890
Rp1891
sS'euclidiselement02euclgoog_0293'
p1892
g2
(g6
S' \xc36\x11d\xb03?'
p1893
tp1894
Rp1895
sS'euclidiselement02euclgoog_0292'
p1896
g2
(g6
S'\xc5*\x1f\x84]|\x16?'
p1897
tp1898
Rp1899
sS'euclidiselement02euclgoog_0291'
p1900
g2
(g6
S'\xe2\xd3\xc9\xb9\x85\xbb%?'
p1901
tp1902
Rp1903
sS'euclidiselement02euclgoog_0290'
p1904
g2
(g6
S'<\xb1\xa4;7\xe0S?'
p1905
tp1906
Rp1907
sS'euclidiselement02euclgoog_0529'
p1908
g2
(g6
S'\x8c\xebu\xdc{\x1b ?'
p1909
tp1910
Rp1911
sS'euclidiselement02euclgoog_0528'
p1912
g2
(g6
S'\xd6\tC\xeb\xeelH?'
p1913
tp1914
Rp1915
sS'euclidiselement02euclgoog_0299'
p1916
g2
(g6
S'\xdc[t|\xb6sC?'
p1917
tp1918
Rp1919
sS'euclidiselement02euclgoog_0298'
p1920
g2
(g6
S'\xe3\xe7\xf4\x9f\x02\xf8S?'
p1921
tp1922
Rp1923
sS'euclidiselement02euclgoog_0448'
p1924
g2
(g6
S'\x89}F\xba\xa3\x16J?'
p1925
tp1926
Rp1927
sS'euclidiselement02euclgoog_0449'
p1928
g2
(g6
S'\xfb\xcc/\x0f\x19\xddB?'
p1929
tp1930
Rp1931
sS'euclidiselement02euclgoog_0118'
p1932
g2
(g6
S'\x1a\x02]\xe6\x96\xf1M?'
p1933
tp1934
Rp1935
sS'euclidiselement02euclgoog_0119'
p1936
g2
(g6
S'\x07?\x85\xe8?\xf9K?'
p1937
tp1938
Rp1939
sS'euclidiselement02euclgoog_0114'
p1940
g2
(g6
S'A6\xa3\xf6%\xc1N?'
p1941
tp1942
Rp1943
sS'euclidiselement02euclgoog_0115'
p1944
g2
(g6
S'4\xc3\xc2\x08\x8f)P?'
p1945
tp1946
Rp1947
sS'euclidiselement02euclgoog_0116'
p1948
g2
(g6
S'\xce\x9b;\xfa\x94xK?'
p1949
tp1950
Rp1951
sS'euclidiselement02euclgoog_0117'
p1952
g2
(g6
S'|\xf9\x0b\x90\x88.I?'
p1953
tp1954
Rp1955
sS'euclidiselement02euclgoog_0110'
p1956
g2
(g6
S'\x15\x7f\xbc\x97l8O?'
p1957
tp1958
Rp1959
sS'euclidiselement02euclgoog_0111'
p1960
g2
(g6
S',\xaf3\xe6\x05VR?'
p1961
tp1962
Rp1963
sS'euclidiselement02euclgoog_0112'
p1964
g2
(g6
S's\x1e\xc1\xb8\xea\xe1I?'
p1965
tp1966
Rp1967
sS'euclidiselement02euclgoog_0113'
p1968
g2
(g6
S'8pM\xe7V\x06P?'
p1969
tp1970
Rp1971
sS'euclidiselement02euclgoog_0068'
p1972
g2
(g6
S'Z\x0e\xc0=?rI?'
p1973
tp1974
Rp1975
sS'euclidiselement02euclgoog_0069'
p1976
g2
(g6
S'\xa4\xf7 \x84\xcb\xd9@?'
p1977
tp1978
Rp1979
sS'euclidiselement02euclgoog_0060'
p1980
g2
(g6
S'\xc0\x82\x95j\x84EO?'
p1981
tp1982
Rp1983
sS'euclidiselement02euclgoog_0061'
p1984
g2
(g6
S'\xe1X\xfc`\xd1\\T?'
p1985
tp1986
Rp1987
sS'euclidiselement02euclgoog_0062'
p1988
g2
(g6
S's\x98[\xf8y\x84+?'
p1989
tp1990
Rp1991
sS'euclidiselement02euclgoog_0063'
p1992
g2
(g6
S'k\t\x86\x80\xf9\xb2P?'
p1993
tp1994
Rp1995
sS'euclidiselement02euclgoog_0064'
p1996
g2
(g6
S'y\xac\x08/\xe6eD?'
p1997
tp1998
Rp1999
sS'euclidiselement02euclgoog_0065'
p2000
g2
(g6
S'g\xe1\xd60\x8d\xa6C?'
p2001
tp2002
Rp2003
sS'euclidiselement02euclgoog_0066'
p2004
g2
(g6
S'\x13\xa3G\xc2+>I?'
p2005
tp2006
Rp2007
sS'euclidiselement02euclgoog_0067'
p2008
g2
(g6
S'\x0843\xe0\x1a\\B?'
p2009
tp2010
Rp2011
sS'euclidiselement02euclgoog_0244'
p2012
g2
(g6
S'\xf6\xcf\x1b\x84\xb3T"?'
p2013
tp2014
Rp2015
sS'euclidiselement02euclgoog_0245'
p2016
g2
(g6
S'\x14\x19z\x82\x0c\xabD?'
p2017
tp2018
Rp2019
sS'euclidiselement02euclgoog_0246'
p2020
g2
(g6
S'\xc6\xbd^\xd5\x0b\x8d\x13?'
p2021
tp2022
Rp2023
sS'euclidiselement02euclgoog_0247'
p2024
g2
(g6
S'@\x83\x95z\xb9(\t?'
p2025
tp2026
Rp2027
sS'euclidiselement02euclgoog_0240'
p2028
g2
(g6
S'\x08"#\x86\rX\x06?'
p2029
tp2030
Rp2031
sS'euclidiselement02euclgoog_0241'
p2032
g2
(g6
S'\xa7_\x83q\xfa5(?'
p2033
tp2034
Rp2035
sS'euclidiselement02euclgoog_0242'
p2036
g2
(g6
S"\xc6\xc7F\x07'\x17/?"
p2037
tp2038
Rp2039
sS'euclidiselement02euclgoog_0243'
p2040
g2
(g6
S"\x8ch\xca'\xb4\x9e\x07?"
p2041
tp2042
Rp2043
sS'euclidiselement02euclgoog_0367'
p2044
g2
(g6
S'x\xbd\xf1\xfd\x97:B?'
p2045
tp2046
Rp2047
sS'euclidiselement02euclgoog_0366'
p2048
g2
(g6
S'\x03\xc4\x92\x0b\xf4\xf8L?'
p2049
tp2050
Rp2051
sS'euclidiselement02euclgoog_0365'
p2052
g2
(g6
S'72\x16\x1b\x9a\x01G?'
p2053
tp2054
Rp2055
sS'euclidiselement02euclgoog_0364'
p2056
g2
(g6
S'\x1fM^\xaff\x1bH?'
p2057
tp2058
Rp2059
sS'euclidiselement02euclgoog_0248'
p2060
g2
(g6
S'\xbe\xa6\x87lO\xb3F?'
p2061
tp2062
Rp2063
sS'euclidiselement02euclgoog_0362'
p2064
g2
(g6
S'\xbb\x9b\xc2A\xe2\xffL?'
p2065
tp2066
Rp2067
sS'euclidiselement02euclgoog_0361'
p2068
g2
(g6
S'\xd61\xb1P\x01\x99I?'
p2069
tp2070
Rp2071
sS'euclidiselement02euclgoog_0360'
p2072
g2
(g6
S'\xd1/\xad(\xad\x06Q?'
p2073
tp2074
Rp2075
sS'euclidiselement02euclgoog_0423'
p2076
g2
(g6
S'!\xbc\x02\xcfJ\xa6L?'
p2077
tp2078
Rp2079
sS'euclidiselement02euclgoog_0424'
p2080
g2
(g6
S'\xe5\xd9\nb&\xde=?'
p2081
tp2082
Rp2083
sS'euclidiselement02euclgoog_0425'
p2084
g2
(g6
S'\x8a\xa4\xcd\xb8u5A?'
p2085
tp2086
Rp2087
sS'euclidiselement02euclgoog_0426'
p2088
g2
(g6
S'\x9b)\xd6\x1em\xa7F?'
p2089
tp2090
Rp2091
sS'euclidiselement02euclgoog_0427'
p2092
g2
(g6
S'u\x83\xb2\xa7\xa2TJ?'
p2093
tp2094
Rp2095
s.