(lp0
S'anaritius_1893_v1_1_0001.tiff'
p1
aS'anaritius_1893_v1_1_0003.tiff'
p2
aS'anaritius_1893_v1_1_0005.tiff'
p3
aS'anaritius_1893_v1_1_0007.tiff'
p4
aS'anaritius_1893_v1_1_0009.tiff'
p5
aS'anaritius_1893_v1_1_0091.tiff'
p6
aS'anaritius_1893_v1_1_0089.tiff'
p7
aS'anaritius_1893_v1_1_0087.tiff'
p8
a.