(lp0
I6
aI7
aI22
aI20
aI17
aI18
aI9
aI17
aI17
aI9
aI20
aI23
aI19
aI7
aI8
aI8
aI16
aI17
aI18
aI7
aI9
aI18
aI9
aI20
aI17
aI9
aI5
aI19
aI7
aI7
aI7
aI21
aI7
aI9
aI6
aI19
aI7
aI8
aI8
aI20
aI18
aI19
aI6
aI5
aI5
aI5
aI4
aI6
aI4
aI21
aI7
aI17
aI8
aI8
aI8
aI18
aI8
aI7
aI17
aI7
aI7
aI7
aI16
aI8
aI6
aI18
aI17
aI17
a.