(dp0
S'anaritius_1893_v1_1_0083.tiff'
p1
(I3957
I6007
tp2
sS'anaritius_1893_v1_1_0017.tiff'
p3
(I3957
I6007
tp4
sS'anaritius_1893_v1_1_0079.tiff'
p5
(I3957
I6007
tp6
sS'anaritius_1893_v1_1_0031.tiff'
p7
(I3957
I6007
tp8
sS'anaritius_1893_v1_1_0057.tiff'
p9
(I3957
I6007
tp10
sS'anaritius_1893_v1_1_0027.tiff'
p11
(I3957
I6007
tp12
sS'anaritius_1893_v1_1_0047.tiff'
p13
(I3957
I6007
tp14
sS'anaritius_1893_v1_1_0039.tiff'
p15
(I3957
I6007
tp16
sS'anaritius_1893_v1_1_0045.tiff'
p17
(I3957
I6007
tp18
sS'anaritius_1893_v1_1_0013.tiff'
p19
(I3957
I6007
tp20
sS'anaritius_1893_v1_1_0065.tiff'
p21
(I3957
I6007
tp22
sS'anaritius_1893_v1_1_0025.tiff'
p23
(I3957
I6007
tp24
sS'anaritius_1893_v1_1_0035.tiff'
p25
(I3957
I6007
tp26
sS'anaritius_1893_v1_1_0023.tiff'
p27
(I3957
I6007
tp28
sS'anaritius_1893_v1_1_0055.tiff'
p29
(I3957
I6007
tp30
sS'anaritius_1893_v1_1_0011.tiff'
p31
(I3957
I6007
tp32
sS'anaritius_1893_v1_1_0085.tiff'
p33
(I3957
I6007
tp34
sS'anaritius_1893_v1_1_0037.tiff'
p35
(I3957
I6007
tp36
sS'anaritius_1893_v1_1_0061.tiff'
p37
(I3957
I6007
tp38
sS'anaritius_1893_v1_1_0049.tiff'
p39
(I3957
I6007
tp40
sS'anaritius_1893_v1_1_0019.tiff'
p41
(I3957
I6007
tp42
sS'anaritius_1893_v1_1_0041.tiff'
p43
(I3957
I6007
tp44
sS'anaritius_1893_v1_1_0081.tiff'
p45
(I3957
I6007
tp46
sS'anaritius_1893_v1_1_0077.tiff'
p47
(I3957
I6007
tp48
sS'anaritius_1893_v1_1_0063.tiff'
p49
(I3957
I6007
tp50
sS'anaritius_1893_v1_1_0043.tiff'
p51
(I3957
I6007
tp52
sS'anaritius_1893_v1_1_0069.tiff'
p53
(I3957
I6007
tp54
sS'anaritius_1893_v1_1_0059.tiff'
p55
(I3957
I6007
tp56
sS'anaritius_1893_v1_1_0029.tiff'
p57
(I3957
I6007
tp58
sS'anaritius_1893_v1_1_0071.tiff'
p59
(I3957
I6007
tp60
sS'anaritius_1893_v1_1_0073.tiff'
p61
(I3957
I6007
tp62
sS'anaritius_1893_v1_1_0051.tiff'
p63
(I3957
I6007
tp64
sS'anaritius_1893_v1_1_0021.tiff'
p65
(I3957
I6007
tp66
sS'anaritius_1893_v1_1_0075.tiff'
p67
(I3957
I6007
tp68
sS'anaritius_1893_v1_1_0015.tiff'
p69
(I3957
I6007
tp70
sS'anaritius_1893_v1_1_0033.tiff'
p71
(I3957
I6007
tp72
sS'anaritius_1893_v1_1_0053.tiff'
p73
(I3957
I6007
tp74
sS'anaritius_1893_v1_1_0067.tiff'
p75
(I3957
I6007
tp76
s.