(dp0
S'anaritius_1893_v1_1_0039'
p1
cnumpy.core.multiarray
scalar
p2
(cnumpy
dtype
p3
(S'f8'
p4
I0
I1
tp5
Rp6
(I3
S'<'
p7
NNNI-1
I-1
I0
tp8
bS"\xa3=\xca\x8e\xf7\xa7'?"
p9
tp10
Rp11
sS'anaritius_1893_v1_1_0065'
p12
g2
(g6
S'L\x14\x11\xe2\x06\xd8$?'
p13
tp14
Rp15
sS'anaritius_1893_v1_1_0071'
p16
g2
(g6
S'\xe7b\x9d\xbe\x95\x7f#?'
p17
tp18
Rp19
sS'anaritius_1893_v1_1_0051'
p20
g2
(g6
S'\xfcjE\x13\xc3;&?'
p21
tp22
Rp23
sS'anaritius_1893_v1_1_0053'
p24
g2
(g6
S'\xa7@@\xa5j\xe1%?'
p25
tp26
Rp27
sS'anaritius_1893_v1_1_0055'
p28
g2
(g6
S'\xecd\xc7\x13\xa1.$?'
p29
tp30
Rp31
sS'anaritius_1893_v1_1_0057'
p32
g2
(g6
S'\xa7\xc10[a\xd2$?'
p33
tp34
Rp35
sS'anaritius_1893_v1_1_0059'
p36
g2
(g6
S"\xa3=\xca\x8e\xf7\xa7'?"
p37
tp38
Rp39
sS'anaritius_1893_v1_1_0079'
p40
g2
(g6
S'\xaeE\xe0\x10\xe9\xc9$?'
p41
tp42
Rp43
sS'anaritius_1893_v1_1_0025'
p44
g2
(g6
S"\xb0\x06#A'n$?"
p45
tp46
Rp47
sS'anaritius_1893_v1_1_0027'
p48
g2
(g6
S'\xac\xc3Z\xb0l\x81%?'
p49
tp50
Rp51
sS'anaritius_1893_v1_1_0021'
p52
g2
(g6
S'\x0c\xf4\x944\xc9\x1b%?'
p53
tp54
Rp55
sS'anaritius_1893_v1_1_0023'
p56
g2
(g6
S'\xf8)^\xee\xf50%?'
p57
tp58
Rp59
sS'anaritius_1893_v1_1_0061'
p60
g2
(g6
S'\x93x\xea\xca\x84\xd8#?'
p61
tp62
Rp63
sS'anaritius_1893_v1_1_0063'
p64
g2
(g6
S'\x9c<\xec\xfaS\x83$?'
p65
tp66
Rp67
sS'anaritius_1893_v1_1_0029'
p68
g2
(g6
S'\xf1\xa7\x8f\xa4[\x1b#?'
p69
tp70
Rp71
sS'anaritius_1893_v1_1_0067'
p72
g2
(g6
S'L\x14\x11\xe2\x06\xd8$?'
p73
tp74
Rp75
sS'anaritius_1893_v1_1_0069'
p76
g2
(g6
S'\x0c\xf4\x944\xc9\x1b%?'
p77
tp78
Rp79
sS'anaritius_1893_v1_1_0085'
p80
g2
(g6
S"\xab\xc1yD\x7f\x9f'?"
p81
tp82
Rp83
sS'anaritius_1893_v1_1_0083'
p84
g2
(g6
S'\xdf\xde\xed\x08\x0e\x88#?'
p85
tp86
Rp87
sS'anaritius_1893_v1_1_0081'
p88
g2
(g6
S'd\xa0\x1f\x03\x9e\xbe$?'
p89
tp90
Rp91
sS'anaritius_1893_v1_1_0043'
p92
g2
(g6
S'H\xd3)\xbd9\xcd#?'
p93
tp94
Rp95
sS'anaritius_1893_v1_1_0041'
p96
g2
(g6
S'\xc6P\xfe{\x89\xbf%?'
p97
tp98
Rp99
sS'anaritius_1893_v1_1_0047'
p100
g2
(g6
S'\xe0\x9f09L,#?'
p101
tp102
Rp103
sS'anaritius_1893_v1_1_0045'
p104
g2
(g6
S'\xa8\x80\x92\x1f\xb2\x94&?'
p105
tp106
Rp107
sS'anaritius_1893_v1_1_0077'
p108
g2
(g6
S'L\x14\x11\xe2\x06\xd8$?'
p109
tp110
Rp111
sS'anaritius_1893_v1_1_0049'
p112
g2
(g6
S'\xb4G\nf\xf4x%?'
p113
tp114
Rp115
sS'anaritius_1893_v1_1_0037'
p116
g2
(g6
S'd\xa0\x1f\x03\x9e\xbe$?'
p117
tp118
Rp119
sS'anaritius_1893_v1_1_0033'
p120
g2
(g6
S'\xf8)^\xee\xf50%?'
p121
tp122
Rp123
sS'anaritius_1893_v1_1_0031'
p124
g2
(g6
S'\xe4\xde6\xf2+U&?'
p125
tp126
Rp127
sS'anaritius_1893_v1_1_0019'
p128
g2
(g6
S'\xe0\x9f09L,#?'
p129
tp130
Rp131
sS'anaritius_1893_v1_1_0035'
p132
g2
(g6
S"\xfc\xe9T]\xccJ'?"
p133
tp134
Rp135
sS'anaritius_1893_v1_1_0015'
p136
g2
(g6
S'<\x8f\x83\x98\xdb\xbb!?'
p137
tp138
Rp139
sS'anaritius_1893_v1_1_0017'
p140
g2
(g6
S'\xa7\xc10[a\xd2$?'
p141
tp142
Rp143
sS'anaritius_1893_v1_1_0011'
p144
g2
(g6
S'\x99\xbaf\x9a\xd7:%?'
p145
tp146
Rp147
sS'anaritius_1893_v1_1_0013'
p148
g2
(g6
S'\xec\xdf\x14\x86\xcfy)?'
p149
tp150
Rp151
sS'anaritius_1893_v1_1_0075'
p152
g2
(g6
S'\xa9A\xd5O\xf08&?'
p153
tp154
Rp155
sS'anaritius_1893_v1_1_0073'
p156
g2
(g6
S'i\xa2IX\xa9m%?'
p157
tp158
Rp159
s.