(dp0
S'anaritius_1893_v1_1_0083.tiff'
p1
(lp2
((I1621
I619
tp3
(I85
I9
tp4
tp5
a((I1971
I619
tp6
(I72
I9
tp7
tp8
a((I1761
I803
tp9
(I21
I88
tp10
tp11
a((I2261
I1043
tp12
(I22
I89
tp13
tp14
a((I2277
I2866
tp15
(I22
I89
tp16
tp17
a((I840
I3108
tp18
(I22
I89
tp19
tp20
a((I577
I4710
tp21
(I2461
I17
tp22
tp23
asS'anaritius_1893_v1_1_0017.tiff'
p24
(lp25
((I1955
I645
tp26
(I82
I9
tp27
tp28
a((I1610
I646
tp29
(I86
I10
tp30
tp31
a((I2158
I2410
tp32
(I766
I729
tp33
tp34
a((I1876
I2417
tp35
(I22
I89
tp36
tp37
a((I955
I2689
tp38
(I75
I18
tp39
tp40
a((I592
I3928
tp41
(I2459
I18
tp42
tp43
a((I992
I4164
tp44
(I48
I8
tp45
tp46
a((I2397
I4568
tp47
(I139
I90
tp48
tp49
a((I2627
I4584
tp50
(I236
I111
tp51
tp52
a((I1539
I4585
tp53
(I142
I89
tp54
tp55
a((I1236
I4586
tp56
(I236
I107
tp57
tp58
a((I1965
I4588
tp59
(I17
I73
tp60
tp61
a((I2548
I4589
tp62
(I16
I73
tp63
tp64
a((I2036
I4621
tp65
(I199
I95
tp66
tp67
a((I1131
I4692
tp68
(I139
I87
tp69
tp70
a((I1278
I4710
tp71
(I16
I72
tp72
tp73
asS'anaritius_1893_v1_1_0079.tiff'
p74
(lp75
((I1591
I638
tp76
(I70
I10
tp77
tp78
a((I1931
I638
tp79
(I75
I9
tp80
tp81
a((I2131
I1166
tp82
(I822
I560
tp83
tp84
a((I556
I3424
tp85
(I2463
I18
tp86
tp87
a((I2406
I3669
tp88
(I237
I110
tp89
tp90
a((I1540
I3670
tp91
(I23
I95
tp92
tp93
a((I2199
I3673
tp94
(I17
I75
tp95
tp96
a((I2109
I3674
tp97
(I16
I71
tp98
tp99
a((I1933
I3675
tp100
(I16
I71
tp101
tp102
a((I1881
I3806
tp103
(I312
I111
tp104
tp105
a((I2259
I3807
tp106
(I237
I110
tp107
tp108
a((I1311
I3808
tp109
(I172
I89
tp110
tp111
a((I1822
I3810
tp112
(I16
I73
tp113
tp114
a((I2200
I3812
tp115
(I17
I71
tp116
tp117
a((I2804
I3812
tp118
(I17
I71
tp119
tp120
a((I1524
I3842
tp121
(I192
I73
tp122
tp123
a((I1434
I3944
tp124
(I202
I131
tp125
tp126
a((I1700
I3944
tp127
(I236
I111
tp128
tp129
a((I2561
I3944
tp130
(I166
I74
tp131
tp132
a((I1982
I3945
tp133
(I173
I87
tp134
tp135
a((I1259
I3948
tp136
(I17
I75
tp137
tp138
a((I1377
I3948
tp139
(I18
I73
tp140
tp141
a((I1641
I3950
tp142
(I17
I71
tp143
tp144
a((I2362
I3970
tp145
(I160
I86
tp146
tp147
a((I2196
I3976
tp148
(I167
I81
tp149
tp150
a((I1731
I4078
tp151
(I205
I105
tp152
tp153
a((I1551
I4080
tp154
(I143
I85
tp155
tp156
a((I2024
I4082
tp157
(I152
I111
tp158
tp159
a((I2242
I4082
tp160
(I173
I75
tp161
tp162
a((I2804
I4086
tp163
(I17
I71
tp164
tp165
a((I2184
I4088
tp166
(I17
I71
tp167
tp168
a((I2454
I4116
tp169
(I127
I97
tp170
tp171
a((I1601
I4218
tp172
(I153
I113
tp173
tp174
a((I1819
I4222
tp175
(I230
I71
tp176
tp177
a((I2417
I4223
tp178
(I16
I73
tp179
tp180
a((I2326
I4224
tp181
(I17
I71
tp182
tp183
a((I2152
I4225
tp184
(I16
I71
tp185
tp186
a((I2669
I4254
tp187
(I150
I77
tp188
tp189
a((I1587
I4391
tp190
(I153
I74
tp191
tp192
a((I1533
I4490
tp193
(I17
I69
tp194
tp195
asS'anaritius_1893_v1_1_0031.tiff'
p196
(lp197
((I1959
I645
tp198
(I78
I9
tp199
tp200
a((I1619
I646
tp201
(I71
I9
tp202
tp203
a((I2980
I899
tp204
(I15
I65
tp205
tp206
a((I1742
I987
tp207
(I1216
I694
tp208
tp209
a((I581
I4242
tp210
(I73
I18
tp211
tp212
a((I576
I4588
tp213
(I2457
I17
tp214
tp215
asS'anaritius_1893_v1_1_0057.tiff'
p216
(lp217
((I1971
I638
tp218
(I78
I10
tp219
tp220
a((I1625
I639
tp221
(I81
I11
tp222
tp223
a((I2606
I1784
tp224
(I21
I89
tp225
tp226
a((I1902
I2146
tp227
(I21
I89
tp228
tp229
a((I2244
I2147
tp230
(I21
I89
tp231
tp232
a((I1839
I2387
tp233
(I21
I88
tp234
tp235
a((I2174
I2389
tp236
(I21
I87
tp237
tp238
a((I2336
I2511
tp239
(I14
I64
tp240
tp241
a((I1482
I3988
tp242
(I72
I9
tp243
tp244
a((I1480
I3998
tp245
(I75
I8
tp246
tp247
a((I615
I4730
tp248
(I2458
I19
tp249
tp250
asS'anaritius_1893_v1_1_0027.tiff'
p251
(lp252
((I1928
I635
tp253
(I83
I9
tp254
tp255
a((I1589
I637
tp256
(I75
I9
tp257
tp258
a((I1939
I952
tp259
(I916
I882
tp260
tp261
a((I1133
I3340
tp262
(I21
I89
tp263
tp264
a((I609
I4694
tp265
(I2452
I19
tp266
tp267
asS'anaritius_1893_v1_1_0047.tiff'
p268
(lp269
((I1997
I645
tp270
(I71
I7
tp271
tp272
a((I1645
I646
tp273
(I85
I7
tp274
tp275
a((I1913
I2001
tp276
(I1026
I971
tp277
tp278
a((I2328
I3481
tp279
(I15
I64
tp280
tp281
asS'anaritius_1893_v1_1_0039.tiff'
p282
(lp283
((I1661
I557
tp284
(I87
I9
tp285
tp286
a((I2004
I557
tp287
(I85
I9
tp288
tp289
a((I2386
I1099
tp290
(I21
I89
tp291
tp292
a((I2630
I1099
tp293
(I21
I89
tp294
tp295
a((I2845
I1220
tp296
(I21
I89
tp297
tp298
a((I1789
I1221
tp299
(I22
I89
tp300
tp301
a((I1563
I1375
tp302
(I71
I17
tp303
tp304
a((I2267
I1704
tp305
(I15
I63
tp306
tp307
a((I2191
I3396
tp308
(I17
I74
tp309
tp310
a((I1259
I3513
tp311
(I1232
I9
tp312
tp313
a((I640
I3991
tp314
(I2465
I20
tp315
tp316
a((I1361
I4064
tp317
(I297
I110
tp318
tp319
a((I1902
I4065
tp320
(I236
I111
tp321
tp322
a((I2702
I4066
tp323
(I235
I109
tp324
tp325
a((I1665
I4068
tp326
(I17
I74
tp327
tp328
a((I1853
I4068
tp329
(I16
I71
tp330
tp331
a((I2643
I4069
tp332
(I17
I73
tp333
tp334
a((I2597
I4200
tp335
(I218
I85
tp336
tp337
a((I846
I4201
tp338
(I235
I109
tp339
tp340
a((I1427
I4202
tp341
(I178
I117
tp342
tp343
a((I2150
I4202
tp344
(I234
I109
tp345
tp346
a((I2092
I4205
tp347
(I15
I71
tp348
tp349
a((I1613
I4206
tp350
(I16
I72
tp351
tp352
a((I2116
I4336
tp353
(I218
I85
tp354
tp355
a((I2901
I4341
tp356
(I181
I117
tp357
tp358
a((I2844
I4346
tp359
(I16
I72
tp360
tp361
a((I3090
I4346
tp362
(I15
I71
tp363
tp364
asS'anaritius_1893_v1_1_0045.tiff'
p365
(lp366
((I2014
I691
tp367
(I79
I11
tp368
tp369
a((I1681
I695
tp370
(I84
I9
tp371
tp372
a((I1231
I876
tp373
(I21
I88
tp374
tp375
a((I2651
I999
tp376
(I16
I65
tp377
tp378
a((I2406
I1235
tp379
(I22
I90
tp380
tp381
a((I1527
I1719
tp382
(I22
I90
tp383
tp384
a((I2288
I1959
tp385
(I21
I89
tp386
tp387
a((I2795
I1961
tp388
(I16
I65
tp389
tp390
a((I1713
I2081
tp391
(I21
I88
tp392
tp393
a((I2545
I2522
tp394
(I16
I72
tp395
tp396
a((I1684
I2581
tp397
(I6
I53
tp398
tp399
a((I1699
I2603
tp400
(I820
I9
tp401
tp402
a((I1266
I2605
tp403
(I410
I5
tp404
tp405
a((I651
I4044
tp406
(I2465
I19
tp407
tp408
a((I1891
I4291
tp409
(I168
I75
tp410
tp411
a((I1392
I4292
tp412
(I235
I111
tp413
tp414
a((I1674
I4292
tp415
(I178
I89
tp416
tp417
a((I2620
I4293
tp418
(I319
I112
tp419
tp420
a((I2384
I4330
tp421
(I195
I93
tp422
tp423
a((I1087
I4426
tp424
(I181
I117
tp425
tp426
a((I1340
I4428
tp427
(I238
I110
tp428
tp429
a((I1021
I4430
tp430
(I17
I73
tp431
tp432
a((I2213
I4430
tp433
(I116
I127
tp434
tp435
a((I2400
I4430
tp436
(I181
I117
tp437
tp438
a((I1275
I4431
tp439
(I17
I73
tp440
tp441
a((I1790
I4433
tp442
(I16
I72
tp443
tp444
a((I2062
I4433
tp445
(I17
I73
tp446
tp447
a((I2335
I4433
tp448
(I17
I74
tp449
tp450
a((I2587
I4435
tp451
(I16
I72
tp452
tp453
a((I3101
I4435
tp454
(I16
I72
tp455
tp456
a((I2892
I4436
tp457
(I16
I71
tp458
tp459
a((I2860
I4567
tp460
(I164
I75
tp461
tp462
asS'anaritius_1893_v1_1_0013.tiff'
p463
(lp464
((I1609
I673
tp465
(I77
I11
tp466
tp467
a((I1905
I673
tp468
(I85
I9
tp469
tp470
a((I1689
I2757
tp471
(I74
I18
tp472
tp473
a((I1865
I3146
tp474
(I912
I823
tp475
tp476
a((I2872
I3184
tp477
(I21
I751
tp478
tp479
a((I588
I4251
tp480
(I2457
I20
tp481
tp482
a((I2631
I4358
tp483
(I233
I108
tp484
tp485
a((I2575
I4361
tp486
(I16
I71
tp487
tp488
a((I1535
I4362
tp489
(I234
I109
tp490
tp491
a((I1484
I4364
tp492
(I17
I73
tp493
tp494
a((I1012
I4513
tp495
(I172
I84
tp496
tp497
a((I788
I4514
tp498
(I172
I84
tp499
tp500
a((I1283
I4516
tp501
(I221
I109
tp502
tp503
a((I1991
I4517
tp504
(I17
I73
tp505
tp506
a((I1510
I4519
tp507
(I17
I69
tp508
tp509
a((I1731
I4520
tp510
(I17
I73
tp511
tp512
a((I2420
I4544
tp513
(I186
I85
tp514
tp515
a((I2066
I4549
tp516
(I193
I94
tp517
tp518
asS'anaritius_1893_v1_1_0065.tiff'
p519
(lp520
((I1978
I646
tp521
(I84
I8
tp522
tp523
a((I1635
I650
tp524
(I81
I8
tp525
tp526
a((I2070
I1915
tp527
(I22
I89
tp528
tp529
a((I2423
I1915
tp530
(I21
I89
tp531
tp532
a((I1631
I3486
tp533
(I15
I63
tp534
tp535
a((I2835
I4000
tp536
(I75
I18
tp537
tp538
asS'anaritius_1893_v1_1_0025.tiff'
p539
(lp540
((I1599
I645
tp541
(I83
I9
tp542
tp543
a((I1945
I645
tp544
(I78
I9
tp545
tp546
a((I2204
I1461
tp547
(I77
I19
tp548
tp549
a((I2748
I1581
tp550
(I75
I17
tp551
tp552
a((I1294
I1703
tp553
(I70
I17
tp554
tp555
a((I1821
I1823
tp556
(I72
I17
tp557
tp558
a((I2273
I1823
tp559
(I75
I17
tp560
tp561
a((I1513
I1943
tp562
(I48
I7
tp563
tp564
a((I1525
I1951
tp565
(I33
I7
tp566
tp567
a((I2980
I2905
tp568
(I75
I18
tp569
tp570
a((I2484
I2993
tp571
(I15
I63
tp572
tp573
a((I923
I3024
tp574
(I73
I9
tp575
tp576
a((I1628
I3026
tp577
(I71
I17
tp578
tp579
a((I953
I3032
tp580
(I41
I8
tp581
tp582
a((I1509
I4106
tp583
(I73
I17
tp584
tp585
a((I617
I4480
tp586
(I2454
I23
tp587
tp588
a((I2918
I4751
tp589
(I60
I8
tp590
tp591
a((I2286
I4752
tp592
(I65
I7
tp593
tp594
a((I2310
I4764
tp595
(I41
I7
tp596
tp597
a((I2918
I4764
tp598
(I58
I7
tp599
tp600
a((I1355
I4832
tp601
(I63
I8
tp602
tp603
a((I1355
I4846
tp604
(I63
I7
tp605
tp606
asS'anaritius_1893_v1_1_0035.tiff'
p607
(lp608
((I1958
I655
tp609
(I81
I10
tp610
tp611
a((I1618
I657
tp612
(I77
I7
tp613
tp614
a((I2470
I1620
tp615
(I18
I74
tp616
tp617
a((I1225
I1669
tp618
(I1228
I9
tp619
tp620
a((I622
I4072
tp621
(I2457
I18
tp622
tp623
a((I2664
I4386
tp624
(I235
I111
tp625
tp626
a((I2275
I4390
tp627
(I17
I74
tp628
tp629
a((I2605
I4390
tp630
(I17
I73
tp631
tp632
a((I1413
I4418
tp633
(I197
I43
tp634
tp635
a((I910
I4522
tp636
(I165
I77
tp637
tp638
a((I2334
I4523
tp639
(I235
I111
tp640
tp641
a((I1432
I4527
tp642
(I17
I73
tp643
tp644
a((I2036
I4527
tp645
(I17
I74
tp646
tp647
a((I1808
I4528
tp648
(I16
I71
tp649
tp650
a((I2093
I4555
tp651
(I197
I43
tp652
tp653
a((I1065
I4658
tp654
(I13
I53
tp655
tp656
asS'anaritius_1893_v1_1_0023.tiff'
p657
(lp658
((I1617
I647
tp659
(I81
I11
tp660
tp661
a((I1957
I649
tp662
(I77
I11
tp663
tp664
a((I2500
I2280
tp665
(I18
I75
tp666
tp667
a((I1233
I2311
tp668
(I1226
I9
tp669
tp670
a((I589
I4060
tp671
(I2454
I20
tp672
tp673
a((I1584
I4375
tp674
(I235
I111
tp675
tp676
a((I2620
I4375
tp677
(I235
I111
tp678
tp679
a((I1878
I4376
tp680
(I143
I89
tp681
tp682
a((I2074
I4376
tp683
(I165
I75
tp684
tp685
a((I1359
I4379
tp686
(I171
I86
tp687
tp688
a((I2547
I4380
tp689
(I16
I72
tp690
tp691
a((I2069
I4518
tp692
(I18
I75
tp693
tp694
a((I2486
I4518
tp695
(I16
I73
tp696
tp697
a((I2580
I4544
tp698
(I181
I44
tp699
tp700
a((I2899
I4547
tp701
(I145
I81
tp702
tp703
a((I1628
I4548
tp704
(I151
I77
tp705
tp706
asS'anaritius_1893_v1_1_0055.tiff'
p707
(lp708
((I1961
I604
tp709
(I86
I9
tp710
tp711
a((I1623
I605
tp712
(I77
I9
tp713
tp714
a((I2760
I1027
tp715
(I21
I89
tp716
tp717
a((I3045
I1029
tp718
(I22
I89
tp719
tp720
a((I677
I1155
tp721
(I15
I63
tp722
tp723
a((I1013
I1272
tp724
(I21
I89
tp725
tp726
a((I2015
I1798
tp727
(I973
I560
tp728
tp729
a((I2970
I2363
tp730
(I17
I71
tp731
tp732
a((I1110
I2839
tp733
(I21
I89
tp734
tp735
a((I598
I4697
tp736
(I2457
I18
tp737
tp738
asS'anaritius_1893_v1_1_0011.tiff'
p739
(lp740
((I2254
I1921
tp741
(I19
I97
tp742
tp743
a((I1878
I1924
tp744
(I18
I94
tp745
tp746
a((I1969
I1925
tp747
(I19
I93
tp748
tp749
a((I2496
I1925
tp750
(I18
I93
tp751
tp752
a((I1903
I1927
tp753
(I17
I90
tp754
tp755
a((I1175
I1947
tp756
(I17
I71
tp757
tp758
a((I1703
I2239
tp759
(I92
I6
tp760
tp761
a((I1798
I2239
tp762
(I209
I7
tp763
tp764
a((I1243
I2457
tp765
(I17
I81
tp766
tp767
a((I1757
I2475
tp768
(I15
I61
tp769
tp770
a((I1457
I2477
tp771
(I15
I61
tp772
tp773
a((I1651
I2477
tp774
(I15
I61
tp775
tp776
a((I2028
I2477
tp777
(I15
I61
tp778
tp779
a((I2166
I2477
tp780
(I15
I61
tp781
tp782
a((I633
I4612
tp783
(I2450
I22
tp784
tp785
a((I2026
I4814
tp786
(I47
I9
tp787
tp788
asS'anaritius_1893_v1_1_0085.tiff'
p789
(lp790
((I1613
I633
tp791
(I83
I9
tp792
tp793
a((I1960
I633
tp794
(I79
I8
tp795
tp796
a((I2558
I818
tp797
(I15
I64
tp798
tp799
a((I817
I1058
tp800
(I15
I63
tp801
tp802
a((I1362
I1058
tp803
(I22
I89
tp804
tp805
a((I2810
I1179
tp806
(I15
I65
tp807
tp808
a((I2126
I1386
tp809
(I783
I630
tp810
tp811
a((I1897
I1679
tp812
(I15
I69
tp813
tp814
a((I1862
I1798
tp815
(I473
I398
tp816
tp817
a((I2674
I2385
tp818
(I21
I89
tp819
tp820
a((I2739
I2386
tp821
(I22
I89
tp822
tp823
a((I1688
I3092
tp824
(I269
I267
tp825
tp826
asS'anaritius_1893_v1_1_0037.tiff'
p827
(lp828
((I1975
I653
tp829
(I76
I9
tp830
tp831
a((I1635
I655
tp832
(I69
I8
tp833
tp834
a((I1633
I2741
tp835
(I1352
I816
tp836
tp837
a((I997
I2922
tp838
(I71
I17
tp839
tp840
a((I957
I3767
tp841
(I75
I18
tp842
tp843
a((I3028
I4090
tp844
(I21
I88
tp845
tp846
a((I1657
I4577
tp847
(I21
I88
tp848
tp849
asS'anaritius_1893_v1_1_0061.tiff'
p850
(lp851
((I1608
I619
tp852
(I86
I11
tp853
tp854
a((I1949
I621
tp855
(I86
I9
tp856
tp857
a((I837
I3962
tp858
(I71
I9
tp859
tp860
a((I835
I3972
tp861
(I73
I7
tp862
tp863
a((I1031
I4321
tp864
(I77
I19
tp865
tp866
a((I609
I4702
tp867
(I2456
I17
tp868
tp869
asS'anaritius_1893_v1_1_0049.tiff'
p870
(lp871
((I1669
I643
tp872
(I69
I8
tp873
tp874
a((I2014
I643
tp875
(I73
I7
tp876
tp877
a((I1689
I1103
tp878
(I74
I18
tp879
tp880
a((I2472
I1227
tp881
(I75
I17
tp882
tp883
a((I1845
I1915
tp884
(I14
I64
tp885
tp886
a((I2836
I3997
tp887
(I75
I18
tp888
tp889
a((I625
I4410
tp890
(I2462
I21
tp891
tp892
a((I1915
I4680
tp893
(I17
I73
tp894
tp895
a((I1867
I4801
tp896
(I16
I71
tp897
tp898
asS'anaritius_1893_v1_1_0019.tiff'
p899
(lp900
((I1625
I629
tp901
(I69
I9
tp902
tp903
a((I1967
I629
tp904
(I76
I9
tp905
tp906
a((I2596
I1089
tp907
(I49
I9
tp908
tp909
a((I2572
I1091
tp910
(I73
I16
tp911
tp912
a((I2132
I1534
tp913
(I22
I89
tp914
tp915
a((I1438
I2015
tp916
(I22
I89
tp917
tp918
a((I1884
I2377
tp919
(I22
I89
tp920
tp921
a((I1666
I2382
tp922
(I14
I62
tp923
tp924
a((I2022
I2737
tp925
(I21
I89
tp926
tp927
a((I1777
I2738
tp928
(I21
I89
tp929
tp930
a((I2480
I3420
tp931
(I17
I72
tp932
tp933
a((I1209
I3484
tp934
(I1229
I9
tp935
tp936
a((I592
I4340
tp937
(I2460
I17
tp938
tp939
a((I2406
I4435
tp940
(I139
I88
tp941
tp942
a((I797
I4446
tp943
(I179
I119
tp944
tp945
a((I1259
I4447
tp946
(I235
I111
tp947
tp948
a((I1556
I4447
tp949
(I137
I89
tp950
tp951
a((I1751
I4448
tp952
(I259
I110
tp953
tp954
a((I2627
I4448
tp955
(I235
I111
tp956
tp957
a((I983
I4452
tp958
(I17
I69
tp959
tp960
a((I2016
I4452
tp961
(I17
I72
tp962
tp963
a((I2225
I4452
tp964
(I17
I72
tp965
tp966
a((I2555
I4453
tp967
(I16
I73
tp968
tp969
a((I2184
I4586
tp970
(I295
I109
tp971
tp972
a((I2030
I4590
tp973
(I16
I73
tp974
tp975
a((I2486
I4590
tp976
(I15
I72
tp977
tp978
a((I2681
I4590
tp979
(I16
I72
tp980
tp981
a((I2775
I4616
tp982
(I183
I45
tp983
tp984
a((I1850
I4621
tp985
(I119
I90
tp986
tp987
asS'anaritius_1893_v1_1_0041.tiff'
p988
(lp989
((I2003
I549
tp990
(I84
I11
tp991
tp992
a((I1659
I550
tp993
(I79
I9
tp994
tp995
a((I2214
I3996
tp996
(I787
I793
tp997
tp998
a((I2112
I4220
tp999
(I108
I18
tp1000
tp1001
asS'anaritius_1893_v1_1_0081.tiff'
p1002
(lp1003
((I1616
I623
tp1004
(I76
I11
tp1005
tp1006
a((I1960
I624
tp1007
(I75
I9
tp1008
tp1009
a((I1052
I807
tp1010
(I22
I89
tp1011
tp1012
a((I2057
I1017
tp1013
(I881
I631
tp1014
tp1015
a((I2762
I3995
tp1016
(I17
I70
tp1017
tp1018
a((I2313
I4029
tp1019
(I646
I421
tp1020
tp1021
a((I595
I4700
tp1022
(I2466
I17
tp1023
tp1024
asS'anaritius_1893_v1_1_0077.tiff'
p1025
(lp1026
((I1955
I669
tp1027
(I81
I8
tp1028
tp1029
a((I1611
I671
tp1030
(I81
I6
tp1031
tp1032
a((I2920
I3511
tp1033
(I15
I61
tp1034
tp1035
a((I1468
I3866
tp1036
(I22
I89
tp1037
tp1038
a((I1355
I4835
tp1039
(I11
I64
tp1040
tp1041
asS'anaritius_1893_v1_1_0063.tiff'
p1042
(lp1043
((I1951
I608
tp1044
(I78
I8
tp1045
tp1046
a((I1611
I609
tp1047
(I67
I8
tp1048
tp1049
a((I731
I2033
tp1050
(I78
I18
tp1051
tp1052
a((I2452
I2963
tp1053
(I15
I64
tp1054
tp1055
a((I1690
I3462
tp1056
(I1312
I887
tp1057
tp1058
a((I759
I4322
tp1059
(I75
I18
tp1060
tp1061
asS'anaritius_1893_v1_1_0043.tiff'
p1062
(lp1063
((I1665
I642
tp1064
(I83
I10
tp1065
tp1066
a((I2012
I643
tp1067
(I77
I9
tp1068
tp1069
a((I1623
I2152
tp1070
(I21
I88
tp1071
tp1072
a((I669
I4734
tp1073
(I2464
I17
tp1074
tp1075
asS'anaritius_1893_v1_1_0069.tiff'
p1076
(lp1077
((I1687
I625
tp1078
(I71
I9
tp1079
tp1080
a((I2030
I625
tp1081
(I75
I9
tp1082
tp1083
a((I2310
I979
tp1084
(I687
I1021
tp1085
tp1086
a((I797
I2769
tp1087
(I75
I11
tp1088
tp1089
a((I798
I2779
tp1090
(I70
I9
tp1091
tp1092
a((I1557
I4459
tp1093
(I75
I18
tp1094
tp1095
a((I1468
I4791
tp1096
(I14
I63
tp1097
tp1098
asS'anaritius_1893_v1_1_0059.tiff'
p1099
(lp1100
((I1966
I615
tp1101
(I79
I11
tp1102
tp1103
a((I1634
I617
tp1104
(I84
I9
tp1105
tp1106
a((I1655
I1761
tp1107
(I21
I89
tp1108
tp1109
a((I1993
I1761
tp1110
(I21
I88
tp1111
tp1112
a((I1045
I2124
tp1113
(I21
I88
tp1114
tp1115
a((I1705
I2124
tp1116
(I21
I88
tp1117
tp1118
a((I2550
I3168
tp1119
(I16
I70
tp1120
tp1121
a((I2239
I3249
tp1122
(I287
I6
tp1123
tp1124
a((I2069
I3250
tp1125
(I135
I5
tp1126
tp1127
a((I1711
I3252
tp1128
(I88
I5
tp1129
tp1130
a((I1812
I3252
tp1131
(I123
I5
tp1132
tp1133
a((I1938
I3252
tp1134
(I25
I4
tp1135
tp1136
a((I2015
I3252
tp1137
(I43
I4
tp1138
tp1139
a((I1177
I3253
tp1140
(I286
I6
tp1141
tp1142
a((I1627
I3253
tp1143
(I83
I4
tp1144
tp1145
a((I612
I3967
tp1146
(I2459
I21
tp1147
tp1148
a((I2626
I4040
tp1149
(I233
I110
tp1150
tp1151
a((I1693
I4047
tp1152
(I17
I73
tp1153
tp1154
a((I2370
I4078
tp1155
(I201
I94
tp1156
tp1157
a((I2870
I4175
tp1158
(I208
I102
tp1159
tp1160
a((I2614
I4177
tp1161
(I216
I82
tp1162
tp1163
a((I2019
I4180
tp1164
(I236
I109
tp1165
tp1166
a((I1712
I4184
tp1167
(I17
I73
tp1168
tp1169
a((I1504
I4185
tp1170
(I17
I73
tp1171
tp1172
a((I1147
I4188
tp1173
(I17
I71
tp1174
tp1175
a((I1771
I4214
tp1176
(I193
I42
tp1177
tp1178
a((I2602
I4314
tp1179
(I233
I110
tp1180
tp1181
a((I1389
I4316
tp1182
(I215
I85
tp1183
tp1184
a((I2304
I4321
tp1185
(I17
I71
tp1186
tp1187
a((I2098
I4323
tp1188
(I16
I73
tp1189
tp1190
a((I2362
I4348
tp1191
(I195
I43
tp1192
tp1193
a((I3056
I4448
tp1194
(I17
I69
tp1195
tp1196
a((I2494
I4449
tp1197
(I17
I69
tp1198
tp1199
a((I2674
I4536
tp1200
(I15
I69
tp1201
tp1202
a((I2867
I4538
tp1203
(I14
I63
tp1204
tp1205
asS'anaritius_1893_v1_1_0029.tiff'
p1206
(lp1207
((I1617
I658
tp1208
(I82
I9
tp1209
tp1210
a((I1963
I659
tp1211
(I74
I7
tp1212
tp1213
a((I2772
I1633
tp1214
(I9
I38
tp1215
tp1216
a((I1797
I1823
tp1217
(I644
I8
tp1218
tp1219
a((I1215
I1824
tp1220
(I581
I8
tp1221
tp1222
a((I1550
I2228
tp1223
(I22
I89
tp1224
tp1225
a((I1792
I2228
tp1226
(I21
I89
tp1227
tp1228
a((I2842
I2463
tp1229
(I21
I88
tp1230
tp1231
a((I2600
I2465
tp1232
(I21
I89
tp1233
tp1234
a((I594
I4529
tp1235
(I2453
I16
tp1236
tp1237
a((I1112
I4661
tp1238
(I64
I10
tp1239
tp1240
asS'anaritius_1893_v1_1_0071.tiff'
p1241
(lp1242
((I1947
I667
tp1243
(I84
I8
tp1244
tp1245
a((I1611
I669
tp1246
(I71
I7
tp1247
tp1248
a((I3030
I969
tp1249
(I21
I90
tp1250
tp1251
a((I2571
I970
tp1252
(I22
I89
tp1253
tp1254
a((I1563
I3175
tp1255
(I75
I18
tp1256
tp1257
a((I579
I4054
tp1258
(I2466
I17
tp1259
tp1260
a((I2441
I4309
tp1261
(I58
I7
tp1262
tp1263
a((I791
I4367
tp1264
(I170
I88
tp1265
tp1266
a((I1142
I4368
tp1267
(I170
I88
tp1268
tp1269
a((I2474
I4490
tp1270
(I177
I127
tp1271
tp1272
a((I2657
I4494
tp1273
(I16
I73
tp1274
tp1275
a((I2521
I4597
tp1276
(I138
I87
tp1277
tp1278
a((I2670
I4613
tp1279
(I16
I73
tp1280
tp1281
asS'anaritius_1893_v1_1_0073.tiff'
p1282
(lp1283
((I1967
I593
tp1284
(I78
I9
tp1285
tp1286
a((I1635
I595
tp1287
(I83
I7
tp1288
tp1289
a((I2460
I2221
tp1290
(I20
I89
tp1291
tp1292
a((I2217
I2222
tp1293
(I22
I90
tp1294
tp1295
a((I1042
I2223
tp1296
(I21
I89
tp1297
tp1298
a((I1289
I2223
tp1299
(I21
I89
tp1300
tp1301
a((I3038
I2341
tp1302
(I21
I90
tp1303
tp1304
a((I2382
I2342
tp1305
(I22
I90
tp1306
tp1307
a((I2364
I3808
tp1308
(I579
I893
tp1309
tp1310
a((I2174
I4154
tp1311
(I15
I63
tp1312
tp1313
a((I2953
I4722
tp1314
(I16
I67
tp1315
tp1316
asS'anaritius_1893_v1_1_0051.tiff'
p1317
(lp1318
((I1969
I666
tp1319
(I78
I10
tp1320
tp1321
a((I1629
I667
tp1322
(I71
I7
tp1323
tp1324
a((I1750
I3620
tp1325
(I22
I89
tp1326
tp1327
a((I2468
I3972
tp1328
(I17
I75
tp1329
tp1330
a((I1535
I4022
tp1331
(I914
I9
tp1332
tp1333
a((I1221
I4025
tp1334
(I284
I6
tp1335
tp1336
a((I1358
I4159
tp1337
(I305
I76
tp1338
tp1339
a((I601
I4516
tp1340
(I2460
I19
tp1341
tp1342
a((I1167
I4712
tp1343
(I104
I7
tp1344
tp1345
a((I2010
I4725
tp1346
(I113
I128
tp1347
tp1348
a((I2128
I4731
tp1349
(I17
I73
tp1350
tp1351
a((I1875
I4732
tp1352
(I17
I73
tp1353
tp1354
a((I1237
I4733
tp1355
(I15
I72
tp1356
tp1357
asS'anaritius_1893_v1_1_0021.tiff'
p1358
(lp1359
((I1629
I655
tp1360
(I83
I9
tp1361
tp1362
a((I1976
I656
tp1363
(I85
I10
tp1364
tp1365
a((I2682
I963
tp1366
(I22
I89
tp1367
tp1368
a((I1986
I1809
tp1369
(I951
I622
tp1370
tp1371
a((I1650
I2436
tp1372
(I74
I10
tp1373
tp1374
a((I1652
I2445
tp1375
(I71
I8
tp1376
tp1377
a((I1525
I3160
tp1378
(I76
I18
tp1379
tp1380
a((I1511
I3966
tp1381
(I21
I89
tp1382
tp1383
a((I607
I4724
tp1384
(I2459
I17
tp1385
tp1386
asS'anaritius_1893_v1_1_0075.tiff'
p1387
(lp1388
((I1624
I605
tp1389
(I82
I7
tp1390
tp1391
a((I1971
I605
tp1392
(I78
I7
tp1393
tp1394
a((I1996
I2292
tp1395
(I997
I901
tp1396
tp1397
a((I610
I3429
tp1398
(I2463
I16
tp1399
tp1400
a((I2017
I3483
tp1401
(I193
I126
tp1402
tp1403
a((I1343
I3484
tp1404
(I312
I108
tp1405
tp1406
a((I1859
I3487
tp1407
(I17
I73
tp1408
tp1409
a((I1661
I3488
tp1410
(I16
I71
tp1411
tp1412
a((I2216
I3488
tp1413
(I16
I71
tp1414
tp1415
a((I2872
I3488
tp1416
(I17
I71
tp1417
tp1418
a((I2929
I3488
tp1419
(I17
I71
tp1420
tp1421
a((I2426
I3489
tp1422
(I16
I71
tp1423
tp1424
a((I2323
I3619
tp1425
(I158
I103
tp1426
tp1427
a((I2706
I3620
tp1428
(I338
I111
tp1429
tp1430
a((I807
I3622
tp1431
(I173
I74
tp1432
tp1433
a((I1465
I3622
tp1434
(I155
I111
tp1435
tp1436
a((I3052
I3624
tp1437
(I16
I71
tp1438
tp1439
a((I1626
I3625
tp1440
(I16
I71
tp1441
tp1442
a((I1362
I3626
tp1443
(I16
I71
tp1444
tp1445
a((I1684
I3626
tp1446
(I227
I70
tp1447
tp1448
a((I2488
I3626
tp1449
(I16
I73
tp1450
tp1451
a((I1018
I3656
tp1452
(I128
I96
tp1453
tp1454
a((I1207
I3758
tp1455
(I196
I129
tp1456
tp1457
a((I2373
I3758
tp1458
(I233
I84
tp1459
tp1460
a((I1898
I3759
tp1461
(I238
I110
tp1462
tp1463
a((I1408
I3763
tp1464
(I16
I73
tp1465
tp1466
a((I1592
I3763
tp1467
(I17
I71
tp1468
tp1469
a((I2612
I3764
tp1470
(I17
I71
tp1471
tp1472
a((I1685
I3778
tp1473
(I17
I72
tp1474
tp1475
a((I1396
I3892
tp1476
(I117
I105
tp1477
tp1478
a((I1575
I3894
tp1479
(I339
I113
tp1480
tp1481
a((I1996
I3895
tp1482
(I311
I112
tp1483
tp1484
a((I2390
I3896
tp1485
(I235
I111
tp1486
tp1487
a((I1171
I3897
tp1488
(I171
I87
tp1489
tp1490
a((I3050
I3898
tp1491
(I17
I69
tp1492
tp1493
a((I1057
I3899
tp1494
(I17
I73
tp1495
tp1496
a((I1918
I3900
tp1497
(I16
I73
tp1498
tp1499
a((I2313
I3900
tp1500
(I16
I73
tp1501
tp1502
a((I2848
I3908
tp1503
(I196
I115
tp1504
tp1505
a((I1495
I4032
tp1506
(I171
I128
tp1507
tp1508
a((I1735
I4032
tp1509
(I199
I132
tp1510
tp1511
a((I2906
I4032
tp1512
(I163
I75
tp1513
tp1514
a((I2013
I4034
tp1515
(I235
I111
tp1516
tp1517
a((I2307
I4034
tp1518
(I170
I88
tp1519
tp1520
a((I999
I4037
tp1521
(I17
I71
tp1522
tp1523
a((I1671
I4037
tp1524
(I16
I73
tp1525
tp1526
a((I1939
I4038
tp1527
(I16
I73
tp1528
tp1529
a((I2698
I4057
tp1530
(I161
I87
tp1531
tp1532
a((I2533
I4064
tp1533
(I166
I79
tp1534
tp1535
a((I2502
I4170
tp1536
(I152
I111
tp1537
tp1538
a((I3050
I4174
tp1539
(I16
I71
tp1540
tp1541
a((I2660
I4175
tp1542
(I16
I73
tp1543
tp1544
a((I2720
I4175
tp1545
(I227
I70
tp1546
tp1547
asS'anaritius_1893_v1_1_0015.tiff'
p1548
(lp1549
((I1630
I653
tp1550
(I86
I9
tp1551
tp1552
a((I1941
I653
tp1553
(I72
I10
tp1554
tp1555
a((I2831
I1957
tp1556
(I76
I18
tp1557
tp1558
a((I1359
I2077
tp1559
(I76
I18
tp1560
tp1561
a((I571
I4638
tp1562
(I2456
I17
tp1563
tp1564
asS'anaritius_1893_v1_1_0033.tiff'
p1565
(lp1566
((I1944
I651
tp1567
(I75
I11
tp1568
tp1569
a((I1598
I653
tp1570
(I84
I9
tp1571
tp1572
a((I2242
I3158
tp1573
(I71
I15
tp1574
tp1575
a((I580
I4604
tp1576
(I2457
I18
tp1577
tp1578
asS'anaritius_1893_v1_1_0053.tiff'
p1579
(lp1580
((I1617
I606
tp1581
(I83
I8
tp1582
tp1583
a((I1963
I607
tp1584
(I84
I8
tp1585
tp1586
a((I2089
I2836
tp1587
(I22
I89
tp1588
tp1589
a((I1848
I3079
tp1590
(I22
I89
tp1591
tp1592
a((I2474
I3114
tp1593
(I77
I19
tp1594
tp1595
a((I2092
I3804
tp1596
(I21
I89
tp1597
tp1598
a((I2300
I3805
tp1599
(I20
I88
tp1600
tp1601
a((I602
I3994
tp1602
(I2463
I20
tp1603
tp1604
a((I2563
I4102
tp1605
(I314
I109
tp1606
tp1607
a((I1589
I4103
tp1608
(I23
I95
tp1609
tp1610
a((I2340
I4104
tp1611
(I169
I87
tp1612
tp1613
a((I2229
I4108
tp1614
(I16
I71
tp1615
tp1616
a((I1610
I4139
tp1617
(I201
I46
tp1618
tp1619
a((I1139
I4228
tp1620
(I137
I88
tp1621
tp1622
a((I2676
I4238
tp1623
(I367
I110
tp1624
tp1625
a((I2078
I4239
tp1626
(I219
I84
tp1627
tp1628
a((I1592
I4240
tp1629
(I236
I111
tp1630
tp1631
a((I2350
I4240
tp1632
(I164
I73
tp1633
tp1634
a((I1886
I4241
tp1635
(I140
I87
tp1636
tp1637
a((I810
I4242
tp1638
(I166
I75
tp1639
tp1640
a((I3050
I4242
tp1641
(I16
I72
tp1642
tp1643
a((I1285
I4244
tp1644
(I17
I73
tp1645
tp1646
a((I1344
I4275
tp1647
(I195
I41
tp1648
tp1649
a((I2864
I4375
tp1650
(I167
I87
tp1651
tp1652
a((I1181
I4377
tp1653
(I219
I84
tp1654
tp1655
a((I2248
I4377
tp1656
(I127
I96
tp1657
tp1658
a((I1441
I4378
tp1659
(I163
I75
tp1660
tp1661
a((I2562
I4380
tp1662
(I17
I73
tp1663
tp1664
a((I1946
I4384
tp1665
(I16
I73
tp1666
tp1667
a((I2190
I4384
tp1668
(I16
I71
tp1669
tp1670
a((I2621
I4408
tp1671
(I196
I43
tp1672
tp1673
a((I1726
I4414
tp1674
(I154
I94
tp1675
tp1676
asS'anaritius_1893_v1_1_0067.tiff'
p1677
(lp1678
((I1971
I644
tp1679
(I73
I8
tp1680
tp1681
a((I1623
I645
tp1682
(I83
I8
tp1683
tp1684
a((I2804
I1306
tp1685
(I22
I89
tp1686
tp1687
a((I3050
I1307
tp1688
(I20
I89
tp1689
tp1690
a((I2525
I1935
tp1691
(I16
I73
tp1692
tp1693
a((I2377
I1985
tp1694
(I33
I4
tp1695
tp1696
a((I2139
I1986
tp1697
(I23
I4
tp1698
tp1699
a((I2193
I1987
tp1700
(I17
I3
tp1701
tp1702
a((I2217
I1987
tp1703
(I11
I2
tp1704
tp1705
a((I829
I3274
tp1706
(I15
I63
tp1707
tp1708
a((I609
I3720
tp1709
(I2460
I18
tp1710
tp1711
a((I760
I3876
tp1712
(I16
I68
tp1713
tp1714
a((I2054
I3896
tp1715
(I299
I77
tp1716
tp1717
a((I2616
I3968
tp1718
(I139
I88
tp1719
tp1720
a((I2836
I3981
tp1721
(I237
I110
tp1722
tp1723
a((I1377
I3983
tp1724
(I241
I116
tp1725
tp1726
a((I1691
I3983
tp1727
(I237
I110
tp1728
tp1729
a((I1988
I3984
tp1730
(I137
I86
tp1731
tp1732
a((I1625
I3987
tp1733
(I16
I71
tp1734
tp1735
a((I2438
I3987
tp1736
(I16
I71
tp1737
tp1738
a((I2763
I3987
tp1739
(I17
I69
tp1740
tp1741
a((I2593
I4120
tp1742
(I164
I73
tp1743
tp1744
a((I3060
I4124
tp1745
(I14
I68
tp1746
tp1747
a((I1298
I4550
tp1748
(I299
I77
tp1749
tp1750
as.