(dp0
S'clm13084-diag-0034'
p1
(lp2
S'munich_clm13084_0103.jpg'
p3
aI1277
aI1788
aI464
aI450
aI472
aI60
asS'clm13084-diag-0035'
p4
(lp5
S'munich_clm13084_0103.jpg'
p6
aI1277
aI1788
aI460
aI568
aI498
aI108
asS'clm13084-diag-0036'
p7
(lp8
S'munich_clm13084_0103.jpg'
p9
aI1277
aI1788
aI98
aI689
aI338
aI86
asS'clm13084-diag-0037'
p10
(lp11
S'munich_clm13084_0103.jpg'
p12
aI1277
aI1788
aI372
aI677
aI456
aI138
asS'clm13084-diag-0030'
p13
(lp14
S'munich_clm13084_0102.jpg'
p15
aI1277
aI1818
aI516
aI1468
aI218
aI198
asS'clm13084-diag-0031'
p16
(lp17
S'munich_clm13084_0102.jpg'
p18
aI1277
aI1818
aI755
aI1470
aI222
aI198
asS'clm13084-diag-0032'
p19
(lp20
S'munich_clm13084_0102.jpg'
p21
aI1277
aI1818
aI941
aI1460
aI252
aI152
asS'clm13084-diag-0033'
p22
(lp23
S'munich_clm13084_0103.jpg'
p24
aI1277
aI1788
aI488
aI96
aI470
aI318
asS'clm13084-diag-0038'
p25
(lp26
S'munich_clm13084_0103.jpg'
p27
aI1277
aI1788
aI805
aI717
aI428
aI104
asS'clm13084-diag-0039'
p28
(lp29
S'munich_clm13084_0103.jpg'
p30
aI1277
aI1788
aI483
aI947
aI132
aI108
asS'clm13084-diag-0126'
p31
(lp32
S'munich_clm13084_0126.jpg'
p33
aI1277
aI1810
aI456
aI117
aI378
aI330
asS'clm13084-diag-0127'
p34
(lp35
S'munich_clm13084_0126.jpg'
p36
aI1277
aI1810
aI474
aI732
aI261
aI264
asS'clm13084-diag-0124'
p37
(lp38
S'munich_clm13084_0125.jpg'
p39
aI1277
aI1796
aI444
aI696
aI273
aI330
asS'clm13084-diag-0125'
p40
(lp41
S'munich_clm13084_0125.jpg'
p42
aI1277
aI1796
aI357
aI1152
aI309
aI252
asS'clm13084-diag-0122'
p43
(lp44
S'munich_clm13084_0124.jpg'
p45
aI1277
aI1810
aI519
aI522
aI255
aI303
asS'clm13084-diag-0123'
p46
(lp47
S'munich_clm13084_0124.jpg'
p48
aI1277
aI1810
aI501
aI1347
aI396
aI279
asS'clm13084-diag-0120'
p49
(lp50
S'munich_clm13084_0123.jpg'
p51
aI1277
aI1798
aI273
aI81
aI522
aI282
asS'clm13084-diag-0121'
p52
(lp53
S'munich_clm13084_0123.jpg'
p54
aI1277
aI1798
aI252
aI1302
aI672
aI315
asS'clm13084-diag-0128'
p55
(lp56
S'munich_clm13084_0126.jpg'
p57
aI1277
aI1810
aI459
aI1233
aI276
aI234
asS'clm13084-diag-0129'
p58
(lp59
S'munich_clm13084_0127.jpg'
p60
aI1277
aI1796
aI456
aI162
aI261
aI270
asS'clm13084-diag-0029'
p61
(lp62
S'munich_clm13084_0102.jpg'
p63
aI1277
aI1818
aI202
aI1484
aI228
aI198
asS'clm13084-diag-0028'
p64
(lp65
S'munich_clm13084_0102.jpg'
p66
aI1277
aI1818
aI891
aI1212
aI190
aI136
asS'clm13084-diag-0023'
p67
(lp68
S'munich_clm13084_0102.jpg'
p69
aI1277
aI1818
aI514
aI1063
aI160
aI42
asS'clm13084-diag-0022'
p70
(lp71
S'munich_clm13084_0102.jpg'
p72
aI1277
aI1818
aI322
aI1071
aI164
aI34
asS'clm13084-diag-0021'
p73
(lp74
S'munich_clm13084_0102.jpg'
p75
aI1277
aI1818
aI947
aI813
aI177
aI177
asS'clm13084-diag-0020'
p76
(lp77
S'munich_clm13084_0102.jpg'
p78
aI1277
aI1818
aI696
aI823
aI176
aI172
asS'clm13084-diag-0027'
p79
(lp80
S'munich_clm13084_0102.jpg'
p81
aI1277
aI1818
aI466
aI1242
aI384
aI94
asS'clm13084-diag-0026'
p82
(lp83
S'munich_clm13084_0102.jpg'
p84
aI1277
aI1818
aI264
aI1242
aI162
aI124
asS'clm13084-diag-0025'
p85
(lp86
S'munich_clm13084_0102.jpg'
p87
aI1277
aI1818
aI867
aI1041
aI232
aI68
asS'clm13084-diag-0024'
p88
(lp89
S'munich_clm13084_0102.jpg'
p90
aI1277
aI1818
aI668
aI1059
aI50
aI60
asS'clm13084-diag-0134'
p91
(lp92
S'munich_clm13084_0133.jpg'
p93
aI1277
aI1794
aI36
aI684
aI1098
aI957
asS'clm13084-diag-0131'
p94
(lp95
S'munich_clm13084_0127.jpg'
p96
aI1277
aI1796
aI372
aI1266
aI372
aI393
asS'clm13084-diag-0130'
p97
(lp98
S'munich_clm13084_0127.jpg'
p99
aI1277
aI1796
aI390
aI717
aI333
aI321
asS'clm13084-diag-0133'
p100
(lp101
S'munich_clm13084_0128.jpg'
p102
aI1277
aI1815
aI462
aI984
aI480
aI447
asS'clm13084-diag-0132'
p103
(lp104
S'munich_clm13084_0128.jpg'
p105
aI1277
aI1815
aI504
aI339
aI450
aI441
asS'clm13084-diag-0058'
p106
(lp107
S'munich_clm13084_0105.jpg'
p108
aI1277
aI1804
aI447
aI964
aI256
aI228
asS'clm13084-diag-0059'
p109
(lp110
S'munich_clm13084_0105.jpg'
p111
aI1277
aI1804
aI248
aI1442
aI186
aI220
asS'clm13084-diag-0056'
p112
(lp113
S'munich_clm13084_0105.jpg'
p114
aI1277
aI1804
aI491
aI314
aI196
aI194
asS'clm13084-diag-0057'
p115
(lp116
S'munich_clm13084_0105.jpg'
p117
aI1277
aI1804
aI487
aI682
aI284
aI194
asS'clm13084-diag-0054'
p118
(lp119
S'munich_clm13084_0104.jpg'
p120
aI1277
aI1818
aI589
aI1408
aI246
aI210
asS'clm13084-diag-0055'
p121
(lp122
S'munich_clm13084_0105.jpg'
p123
aI1277
aI1804
aI487
aI114
aI220
aI190
asS'clm13084-diag-0052'
p124
(lp125
S'munich_clm13084_0104.jpg'
p126
aI1277
aI1818
aI585
aI1159
aI214
aI194
asS'clm13084-diag-0053'
p127
(lp128
S'munich_clm13084_0104.jpg'
p129
aI1277
aI1818
aI889
aI1202
aI232
aI116
asS'clm13084-diag-0050'
p130
(lp131
S'munich_clm13084_0104.jpg'
p132
aI1277
aI1818
aI569
aI955
aI304
aI170
asS'clm13084-diag-0051'
p133
(lp134
S'munich_clm13084_0104.jpg'
p135
aI1277
aI1818
aI253
aI1205
aI248
aI138
asS'clm13084-diag-0108'
p136
(lp137
S'munich_clm13084_0118.jpg'
p138
aI1277
aI1809
aI450
aI519
aI546
aI228
asS'clm13084-diag-0109'
p139
(lp140
S'munich_clm13084_0118.jpg'
p141
aI1277
aI1809
aI561
aI825
aI291
aI393
asS'clm13084-diag-0100'
p142
(lp143
S'munich_clm13084_0110.jpg'
p144
aI1277
aI1802
aI587
aI1148
aI236
aI160
asS'clm13084-diag-0101'
p145
(lp146
S'munich_clm13084_0110.jpg'
p147
aI1277
aI1802
aI557
aI1312
aI298
aI208
asS'clm13084-diag-0102'
p148
(lp149
S'munich_clm13084_0111.jpg'
p150
aI1277
aI1790
aI225
aI66
aI657
aI222
asS'clm13084-diag-0103'
p151
(lp152
S'munich_clm13084_0111.jpg'
p153
aI1277
aI1790
aI270
aI357
aI570
aI201
asS'clm13084-diag-0104'
p154
(lp155
S'munich_clm13084_0112.jpg'
p156
aI1277
aI1808
aI540
aI1146
aI321
aI213
asS'clm13084-diag-0105'
p157
(lp158
S'munich_clm13084_0117.jpg'
p159
aI1277
aI1794
aI96
aI909
aI612
aI495
asS'clm13084-diag-0106'
p160
(lp161
S'munich_clm13084_0117.jpg'
p162
aI1277
aI1794
aI681
aI960
aI441
aI435
asS'clm13084-diag-0107'
p163
(lp164
S'munich_clm13084_0118.jpg'
p165
aI1277
aI1809
aI471
aI117
aI348
aI345
asS'clm13084-diag-0049'
p166
(lp167
S'munich_clm13084_0104.jpg'
p168
aI1277
aI1818
aI551
aI737
aI226
aI198
asS'clm13084-diag-0048'
p169
(lp170
S'munich_clm13084_0104.jpg'
p171
aI1277
aI1818
aI789
aI478
aI282
aI182
asS'clm13084-diag-0045'
p172
(lp173
S'munich_clm13084_0104.jpg'
p174
aI1277
aI1818
aI428
aI252
aI316
aI186
asS'clm13084-diag-0044'
p175
(lp176
S'munich_clm13084_0104.jpg'
p177
aI1277
aI1818
aI164
aI276
aI194
aI180
asS'clm13084-diag-0047'
p178
(lp179
S'munich_clm13084_0104.jpg'
p180
aI1277
aI1818
aI338
aI493
aI282
aI170
asS'clm13084-diag-0046'
p181
(lp182
S'munich_clm13084_0104.jpg'
p183
aI1277
aI1818
aI855
aI230
aI220
aI214
asS'clm13084-diag-0041'
p184
(lp185
S'munich_clm13084_0103.jpg'
p186
aI1277
aI1788
aI144
aI1410
aI182
aI194
asS'clm13084-diag-0040'
p187
(lp188
S'munich_clm13084_0103.jpg'
p189
aI1277
aI1788
aI225
aI1029
aI532
aI310
asS'clm13084-diag-0043'
p190
(lp191
S'munich_clm13084_0103.jpg'
p192
aI1277
aI1788
aI753
aI1434
aI200
aI168
asS'clm13084-diag-0042'
p193
(lp194
S'munich_clm13084_0103.jpg'
p195
aI1277
aI1788
aI392
aI1420
aI270
aI180
asS'clm13084-diag-0119'
p196
(lp197
S'munich_clm13084_0122.jpg'
p198
aI1277
aI1818
aI438
aI477
aI570
aI249
asS'clm13084-diag-0118'
p199
(lp200
S'munich_clm13084_0121.jpg'
p201
aI1277
aI1794
aI312
aI576
aI591
aI369
asS'clm13084-diag-0117'
p202
(lp203
S'munich_clm13084_0121.jpg'
p204
aI1277
aI1794
aI252
aI12
aI561
aI339
asS'clm13084-diag-0116'
p205
(lp206
S'munich_clm13084_0120.jpg'
p207
aI1277
aI1828
aI282
aI816
aI687
aI456
asS'clm13084-diag-0115'
p208
(lp209
S'munich_clm13084_0120.jpg'
p210
aI1277
aI1828
aI273
aI279
aI540
aI282
asS'clm13084-diag-0114'
p211
(lp212
S'munich_clm13084_0119.jpg'
p213
aI1277
aI1794
aI411
aI1452
aI471
aI144
asS'clm13084-diag-0113'
p214
(lp215
S'munich_clm13084_0119.jpg'
p216
aI1277
aI1794
aI447
aI927
aI339
aI318
asS'clm13084-diag-0112'
p217
(lp218
S'munich_clm13084_0119.jpg'
p219
aI1277
aI1794
aI369
aI555
aI417
aI222
asS'clm13084-diag-0111'
p220
(lp221
S'munich_clm13084_0119.jpg'
p222
aI1277
aI1794
aI393
aI132
aI375
aI291
asS'clm13084-diag-0110'
p223
(lp224
S'munich_clm13084_0118.jpg'
p225
aI1277
aI1809
aI387
aI1263
aI462
aI324
asS'clm13084-diag-0070'
p226
(lp227
S'munich_clm13084_0106.jpg'
p228
aI1277
aI1808
aI592
aI1225
aI204
aI200
asS'clm13084-diag-0071'
p229
(lp230
S'munich_clm13084_0106.jpg'
p231
aI1277
aI1808
aI594
aI1475
aI198
aI198
asS'clm13084-diag-0072'
p232
(lp233
S'munich_clm13084_0107.jpg'
p234
aI1277
aI1804
aI506
aI128
aI163
aI168
asS'clm13084-diag-0073'
p235
(lp236
S'munich_clm13084_0107.jpg'
p237
aI1277
aI1804
aI509
aI322
aI201
aI187
asS'clm13084-diag-0074'
p238
(lp239
S'munich_clm13084_0107.jpg'
p240
aI1277
aI1804
aI150
aI489
aI222
aI198
asS'clm13084-diag-0075'
p241
(lp242
S'munich_clm13084_0107.jpg'
p243
aI1277
aI1804
aI498
aI509
aI208
aI176
asS'clm13084-diag-0076'
p244
(lp245
S'munich_clm13084_0107.jpg'
p246
aI1277
aI1804
aI853
aI462
aI218
aI262
asS'clm13084-diag-0077'
p247
(lp248
S'munich_clm13084_0107.jpg'
p249
aI1277
aI1804
aI146
aI729
aI278
aI160
asS'clm13084-diag-0078'
p250
(lp251
S'munich_clm13084_0107.jpg'
p252
aI1277
aI1804
aI730
aI725
aI184
aI186
asS'clm13084-diag-0079'
p253
(lp254
S'munich_clm13084_0107.jpg'
p255
aI1277
aI1804
aI126
aI911
aI302
aI232
asS'clm13084-diag-0067'
p256
(lp257
S'munich_clm13084_0106.jpg'
p258
aI1277
aI1808
aI993
aI793
aI208
aI200
asS'clm13084-diag-0066'
p259
(lp260
S'munich_clm13084_0106.jpg'
p261
aI1277
aI1808
aI485
aI781
aI470
aI194
asS'clm13084-diag-0065'
p262
(lp263
S'munich_clm13084_0106.jpg'
p264
aI1277
aI1808
aI192
aI796
aI202
aI204
asS'clm13084-diag-0064'
p265
(lp266
S'munich_clm13084_0106.jpg'
p267
aI1277
aI1808
aI595
aI506
aI224
aI178
asS'clm13084-diag-0063'
p268
(lp269
S'munich_clm13084_0106.jpg'
p270
aI1277
aI1808
aI661
aI320
aI176
aI150
asS'clm13084-diag-0062'
p271
(lp272
S'munich_clm13084_0106.jpg'
p273
aI1277
aI1808
aI769
aI100
aI226
aI208
asS'clm13084-diag-0061'
p274
(lp275
S'munich_clm13084_0106.jpg'
p276
aI1277
aI1808
aI388
aI108
aI200
aI192
asS'clm13084-diag-0060'
p277
(lp278
S'munich_clm13084_0105.jpg'
p279
aI1277
aI1804
aI579
aI1492
aI562
aI134
asS'clm13084-diag-0069'
p280
(lp281
S'munich_clm13084_0106.jpg'
p282
aI1277
aI1808
aI838
aI965
aI230
aI160
asS'clm13084-diag-0068'
p283
(lp284
S'munich_clm13084_0106.jpg'
p285
aI1277
aI1808
aI240
aI997
aI456
aI98
asS'clm13084-diag-0012'
p286
(lp287
S'munich_clm13084_0052.jpg'
p288
aI1277
aI1808
aI369
aI1137
aI543
aI318
asS'clm13084-diag-0013'
p289
(lp290
S'munich_clm13084_0053.jpg'
p291
aI1277
aI1792
aI291
aI204
aI582
aI330
asS'clm13084-diag-0010'
p292
(lp293
S'munich_clm13084_0052.jpg'
p294
aI1277
aI1808
aI411
aI60
aI459
aI315
asS'clm13084-diag-0011'
p295
(lp296
S'munich_clm13084_0052.jpg'
p297
aI1277
aI1808
aI288
aI486
aI702
aI366
asS'clm13084-diag-0016'
p298
(lp299
S'munich_clm13084_0053.jpg'
p300
aI1277
aI1792
aI222
aI1263
aI693
aI447
asS'clm13084-diag-0017'
p301
(lp302
S'munich_clm13084_0095.jpg'
p303
aI1277
aI1789
aI123
aI1287
aI675
aI456
asS'clm13084-diag-0014'
p304
(lp305
S'munich_clm13084_0053.jpg'
p306
aI1277
aI1792
aI78
aI525
aI984
aI450
asS'clm13084-diag-0015'
p307
(lp308
S'munich_clm13084_0053.jpg'
p309
aI1277
aI1792
aI225
aI954
aI663
aI312
asS'clm13084-diag-0018'
p310
(lp311
S'munich_clm13084_0100.jpg'
p312
aI1277
aI1811
aI345
aI1470
aI654
aI255
asS'clm13084-diag-0019'
p313
(lp314
S'munich_clm13084_0102.jpg'
p315
aI1277
aI1818
aI521
aI820
aI156
aI43
asS'clm13084-diag-0098'
p316
(lp317
S'munich_clm13084_0109.jpg'
p318
aI1277
aI1804
aI220
aI210
aI580
aI78
asS'clm13084-diag-0099'
p319
(lp320
S'munich_clm13084_0109.jpg'
p321
aI1277
aI1804
aI274
aI560
aI798
aI184
asS'clm13084-diag-0092'
p322
(lp323
S'munich_clm13084_0108.jpg'
p324
aI1277
aI1798
aI858
aI974
aI294
aI208
asS'clm13084-diag-0093'
p325
(lp326
S'munich_clm13084_0108.jpg'
p327
aI1277
aI1798
aI219
aI1206
aI166
aI228
asS'clm13084-diag-0090'
p328
(lp329
S'munich_clm13084_0108.jpg'
p330
aI1277
aI1798
aI192
aI952
aI202
aI200
asS'clm13084-diag-0091'
p331
(lp332
S'munich_clm13084_0108.jpg'
p333
aI1277
aI1798
aI564
aI972
aI170
aI188
asS'clm13084-diag-0096'
p334
(lp335
S'munich_clm13084_0108.jpg'
p336
aI1277
aI1798
aI221
aI1454
aI156
aI184
asS'clm13084-diag-0097'
p337
(lp338
S'munich_clm13084_0108.jpg'
p339
aI1277
aI1798
aI523
aI1476
aI628
aI152
asS'clm13084-diag-0094'
p340
(lp341
S'munich_clm13084_0108.jpg'
p342
aI1277
aI1798
aI441
aI1234
aI422
aI158
asS'clm13084-diag-0095'
p343
(lp344
S'munich_clm13084_0108.jpg'
p345
aI1277
aI1798
aI925
aI1230
aI194
aI184
asS'clm13084-diag-0001'
p346
(lp347
S'munich_clm13084_0048.jpg'
p348
aI1277
aI1798
aI201
aI765
aI828
aI684
asS'clm13084-diag-0003'
p349
(lp350
S'munich_clm13084_0049.jpg'
p351
aI1277
aI1787
aI72
aI48
aI1038
aI1698
asS'clm13084-diag-0002'
p352
(lp353
S'munich_clm13084_0048.jpg'
p354
aI1277
aI1798
aI294
aI1446
aI765
aI318
asS'clm13084-diag-0005'
p355
(lp356
S'munich_clm13084_0050.jpg'
p357
aI1277
aI1808
aI210
aI399
aI657
aI288
asS'clm13084-diag-0004'
p358
(lp359
S'munich_clm13084_0050.jpg'
p360
aI1277
aI1808
aI201
aI81
aI714
aI357
asS'clm13084-diag-0007'
p361
(lp362
S'munich_clm13084_0050.jpg'
p363
aI1277
aI1808
aI219
aI1029
aI807
aI522
asS'clm13084-diag-0006'
p364
(lp365
S'munich_clm13084_0050.jpg'
p366
aI1277
aI1808
aI213
aI687
aI867
aI339
asS'clm13084-diag-0009'
p367
(lp368
S'munich_clm13084_0051.jpg'
p369
aI1277
aI1792
aI120
aI831
aI915
aI363
asS'clm13084-diag-0008'
p370
(lp371
S'munich_clm13084_0051.jpg'
p372
aI1277
aI1792
aI246
aI252
aI504
aI315
asS'clm13084-diag-0089'
p373
(lp374
S'munich_clm13084_0108.jpg'
p375
aI1277
aI1798
aI772
aI698
aI416
aI176
asS'clm13084-diag-0088'
p376
(lp377
S'munich_clm13084_0108.jpg'
p378
aI1277
aI1798
aI478
aI666
aI150
aI188
asS'clm13084-diag-0081'
p379
(lp380
S'munich_clm13084_0107.jpg'
p381
aI1277
aI1804
aI218
aI1175
aI598
aI112
asS'clm13084-diag-0080'
p382
(lp383
S'munich_clm13084_0107.jpg'
p384
aI1277
aI1804
aI482
aI921
aI514
aI210
asS'clm13084-diag-0083'
p385
(lp386
S'munich_clm13084_0107.jpg'
p387
aI1277
aI1804
aI150
aI1426
aI164
aI248
asS'clm13084-diag-0082'
p388
(lp389
S'munich_clm13084_0107.jpg'
p390
aI1277
aI1804
aI540
aI1317
aI190
aI84
asS'clm13084-diag-0085'
p391
(lp392
S'munich_clm13084_0108.jpg'
p393
aI1277
aI1798
aI555
aI105
aI220
aI207
asS'clm13084-diag-0084'
p394
(lp395
S'munich_clm13084_0107.jpg'
p396
aI1277
aI1804
aI539
aI1448
aI448
aI166
asS'clm13084-diag-0087'
p397
(lp398
S'munich_clm13084_0108.jpg'
p399
aI1277
aI1798
aI192
aI666
aI194
aI184
asS'clm13084-diag-0086'
p400
(lp401
S'munich_clm13084_0108.jpg'
p402
aI1277
aI1798
aI569
aI304
aI188
aI221
as.