(dp0
S'10-38'
p1
(lp2
S'grynaeus_1533_v1_1_0164.png'
p3
aI1000
aI1485
aI64
aI874
aI611
aI73
asS'10-39'
p4
(lp5
S'grynaeus_1533_v1_1_0165.png'
p6
aI1000
aI1485
aI279
aI507
aI612
aI100
asS'10-30'
p7
(lp8
S'grynaeus_1533_v1_1_0160.png'
p9
aI1000
aI1485
aI57
aI441
aI605
aI77
asS'10-31'
p10
(lp11
S'grynaeus_1533_v1_1_0160.png'
p12
aI1000
aI1485
aI68
aI962
aI600
aI98
asS'10-32'
p13
(lp14
S'grynaeus_1533_v1_1_0161.png'
p15
aI1000
aI1485
aI282
aI659
aI602
aI74
asS'10-33'
p16
(lp17
S'grynaeus_1533_v1_1_0162.png'
p18
aI1000
aI1485
aI68
aI798
aI603
aI85
asS'10-34'
p19
(lp20
S'grynaeus_1533_v1_1_0163.png'
p21
aI1000
aI1485
aI287
aI518
aI606
aI82
asS'10-35'
p22
(lp23
S'grynaeus_1533_v1_1_0163.png'
p24
aI1000
aI1485
aI279
aI949
aI613
aI105
asS'10-36'
p25
(lp26
S'grynaeus_1533_v1_1_0164.png'
p27
aI1000
aI1485
aI63
aI439
aI487
aI70
asS'10-37'
p28
(lp29
S'grynaeus_1533_v1_1_0164.png'
p30
aI1000
aI1485
aI68
aI685
aI603
aI70
asS'1-8_2'
p31
(lp32
S'grynaeus_1533_v1_1_0019.png'
p33
aI1000
aI1485
aI243
aI151
aI480
aI49
asS'10-114'
p34
(lp35
S'grynaeus_1533_v1_1_0206.png'
p36
aI1000
aI1485
aI68
aI632
aI598
aI92
asS'10-115'
p37
(lp38
S'grynaeus_1533_v1_1_0206.png'
p39
aI1000
aI1485
aI67
aI1105
aI599
aI68
asS'10-110'
p40
(lp41
S'grynaeus_1533_v1_1_0203.png'
p42
aI1000
aI1485
aI293
aI793
aI602
aI86
asS'10-111'
p43
(lp44
S'grynaeus_1533_v1_1_0204.png'
p45
aI1000
aI1485
aI55
aI224
aI427
aI61
asS'10-112'
p46
(lp47
S'grynaeus_1533_v1_1_0204.png'
p48
aI1000
aI1485
aI58
aI1090
aI609
aI70
asS'10-113'
p49
(lp50
S'grynaeus_1533_v1_1_0205.png'
p51
aI1000
aI1485
aI285
aI835
aI607
aI117
asS'1-6'
p52
(lp53
S'grynaeus_1533_v1_1_0018.png'
p54
aI1000
aI1485
aI125
aI449
aI606
aI79
asS'7-9'
p55
(lp56
S'grynaeus_1533_v1_1_0105.png'
p57
aI1000
aI1485
aI302
aI360
aI426
aI116
asS'4-3'
p58
(lp59
S'grynaeus_1533_v1_1_0060.png'
p60
aI1000
aI1485
aI103
aI538
aI601
aI70
asS'10-49'
p61
(lp62
S'grynaeus_1533_v1_1_0169.png'
p63
aI1000
aI1485
aI270
aI1066
aI384
aI71
asS'10-48'
p64
(lp65
S'grynaeus_1533_v1_1_0169.png'
p66
aI1000
aI1485
aI278
aI621
aI359
aI73
asS'10-45'
p67
(lp68
S'grynaeus_1533_v1_1_0168.png'
p69
aI1000
aI1485
aI42
aI215
aI565
aI68
asS'10-44'
p70
(lp71
S'grynaeus_1533_v1_1_0167.png'
p72
aI1000
aI1485
aI286
aI531
aI609
aI68
asS'10-47'
p73
(lp74
S'grynaeus_1533_v1_1_0168.png'
p75
aI1000
aI1485
aI51
aI706
aI605
aI80
asS'10-46'
p76
(lp77
S'grynaeus_1533_v1_1_0168.png'
p78
aI1000
aI1485
aI49
aI461
aI604
aI73
asS'7-19'
p79
(lp80
S'grynaeus_1533_v1_1_0108.png'
p81
aI1000
aI1485
aI85
aI308
aI432
aI171
asS'10-40'
p82
(lp83
S'grynaeus_1533_v1_1_0165.png'
p84
aI1000
aI1485
aI277
aI929
aI610
aI99
asS'10-43'
p85
(lp86
S'grynaeus_1533_v1_1_0167.png'
p87
aI1000
aI1485
aI292
aI300
aI600
aI68
asS'10-42'
p88
(lp89
S'grynaeus_1533_v1_1_0166.png'
p90
aI1000
aI1485
aI49
aI940
aI601
aI70
asS'6-29'
p91
(lp92
S'grynaeus_1533_v1_1_0097.png'
p93
aI1000
aI1485
aI278
aI569
aI608
aI93
asS'6-28'
p94
(lp95
S'grynaeus_1533_v1_1_0096.png'
p96
aI1000
aI1485
aI113
aI779
aI317
aI251
asS'6-21'
p97
(lp98
S'grynaeus_1533_v1_1_0092.png'
p99
aI1000
aI1485
aI121
aI986
aI408
aI72
asS'6-20'
p100
(lp101
S'grynaeus_1533_v1_1_0091.png'
p102
aI1000
aI1485
aI280
aI231
aI611
aI99
asS'6-23'
p103
(lp104
S'grynaeus_1533_v1_1_0093.png'
p105
aI1000
aI1485
aI274
aI1016
aI604
aI65
asS'6-22'
p106
(lp107
S'grynaeus_1533_v1_1_0093.png'
p108
aI1000
aI1485
aI285
aI231
aI616
aI119
asS'6-25'
p109
(lp110
S'grynaeus_1533_v1_1_0095.png'
p111
aI1000
aI1485
aI267
aI185
aI616
aI69
asS'6-24'
p112
(lp113
S'grynaeus_1533_v1_1_0094.png'
p114
aI1000
aI1485
aI109
aI553
aI614
aI66
asS'6-27'
p115
(lp116
S'grynaeus_1533_v1_1_0095.png'
p117
aI1000
aI1485
aI263
aI1039
aI612
aI118
asS'6-26'
p118
(lp119
S'grynaeus_1533_v1_1_0095.png'
p120
aI1000
aI1485
aI270
aI661
aI607
aI87
asS'4-8'
p121
(lp122
S'grynaeus_1533_v1_1_0062.png'
p123
aI1000
aI1485
aI95
aI722
aI402
aI64
asS'4-9'
p124
(lp125
S'grynaeus_1533_v1_1_0062.png'
p126
aI1000
aI1485
aI99
aI1066
aI436
aI70
asS'11-15'
p127
(lp128
S'grynaeus_1533_v1_1_0215.png'
p129
aI1000
aI1485
aI295
aI964
aI601
aI90
asS'11-14'
p130
(lp131
S'grynaeus_1533_v1_1_0215.png'
p132
aI1000
aI1485
aI300
aI659
aI586
aI68
asS'11-17'
p133
(lp134
S'grynaeus_1533_v1_1_0216.png'
p135
aI1000
aI1485
aI67
aI833
aI595
aI76
asS'11-16'
p136
(lp137
S'grynaeus_1533_v1_1_0216.png'
p138
aI1000
aI1485
aI63
aI488
aI595
aI68
asS'11-11'
p139
(lp140
S'grynaeus_1533_v1_1_0214.png'
p141
aI1000
aI1485
aI64
aI670
aI471
aI68
asS'11-10'
p142
(lp143
S'grynaeus_1533_v1_1_0214.png'
p144
aI1000
aI1485
aI58
aI377
aI601
aI71
asS'11-13'
p145
(lp146
S'grynaeus_1533_v1_1_0215.png'
p147
aI1000
aI1485
aI300
aI370
aI535
aI65
asS'11-12'
p148
(lp149
S'grynaeus_1533_v1_1_0215.png'
p150
aI1000
aI1485
aI294
aI176
aI603
aI71
asS'11-19'
p151
(lp152
S'grynaeus_1533_v1_1_0217.png'
p153
aI1000
aI1485
aI305
aI608
aI601
aI70
asS'11-18'
p154
(lp155
S'grynaeus_1533_v1_1_0217.png'
p156
aI1000
aI1485
aI309
aI195
aI599
aI70
asS'1-48'
p157
(lp158
S'grynaeus_1533_v1_1_0033.png'
p159
aI1000
aI1485
aI246
aI327
aI613
aI101
asS'6-9'
p160
(lp161
S'grynaeus_1533_v1_1_0086.png'
p162
aI1000
aI1485
aI103
aI841
aI491
aI65
asS'6-6'
p163
(lp164
S'grynaeus_1533_v1_1_0084.png'
p165
aI1000
aI1485
aI112
aI900
aI607
aI90
asS'6-7'
p166
(lp167
S'grynaeus_1533_v1_1_0085.png'
p168
aI1000
aI1485
aI279
aI445
aI610
aI123
asS'1-44'
p169
(lp170
S'grynaeus_1533_v1_1_0031.png'
p171
aI1000
aI1485
aI242
aI354
aI611
aI65
asS'6-5'
p172
(lp173
S'grynaeus_1533_v1_1_0084.png'
p174
aI1000
aI1485
aI109
aI346
aI602
aI106
asS'1-42'
p175
(lp176
S'grynaeus_1533_v1_1_0030.png'
p177
aI1000
aI1485
aI116
aI711
aI600
aI67
asS'6-3'
p178
(lp179
S'grynaeus_1533_v1_1_0083.png'
p180
aI1000
aI1485
aI278
aI247
aI611
aI154
asS'1-40'
p181
(lp182
S'grynaeus_1533_v1_1_0030.png'
p183
aI1000
aI1485
aI105
aI191
aI606
aI63
asS'6-1'
p184
(lp185
S'grynaeus_1533_v1_1_0081.png'
p186
aI1000
aI1485
aI264
aI1008
aI609
aI112
asS'9-18'
p187
(lp188
S'grynaeus_1533_v1_1_0137.png'
p189
aI1000
aI1485
aI268
aI513
aI614
aI88
asS'7-28_2'
p190
(lp191
S'grynaeus_1533_v1_1_0112.png'
p192
aI1000
aI1485
aI87
aI148
aI323
aI65
asS'7-35'
p193
(lp194
S'grynaeus_1533_v1_1_0114.png'
p195
aI1000
aI1485
aI91
aI940
aI466
aI68
asS'7-34'
p196
(lp197
S'grynaeus_1533_v1_1_0114.png'
p198
aI1000
aI1485
aI84
aI200
aI562
aI60
asS'7-37'
p199
(lp200
S'grynaeus_1533_v1_1_0115.png'
p201
aI1000
aI1485
aI288
aI716
aI603
aI67
asS'7-36'
p202
(lp203
S'grynaeus_1533_v1_1_0115.png'
p204
aI1000
aI1485
aI298
aI165
aI428
aI73
asS'7-31'
p205
(lp206
S'grynaeus_1533_v1_1_0112.png'
p207
aI1000
aI1485
aI94
aI998
aI527
aI66
asS'7-30'
p208
(lp209
S'grynaeus_1533_v1_1_0112.png'
p210
aI1000
aI1485
aI92
aI659
aI604
aI63
asS'7-33'
p211
(lp212
S'grynaeus_1533_v1_1_0113.png'
p213
aI1000
aI1485
aI291
aI584
aI606
aI71
asS'7-32'
p214
(lp215
S'grynaeus_1533_v1_1_0113.png'
p216
aI1000
aI1485
aI296
aI435
aI490
aI69
asS'7-39'
p217
(lp218
S'grynaeus_1533_v1_1_0116.png'
p219
aI1000
aI1485
aI85
aI186
aI493
aI66
asS'7-38'
p220
(lp221
S'grynaeus_1533_v1_1_0115.png'
p222
aI1000
aI1485
aI282
aI949
aI460
aI68
asS'9-1'
p223
(lp224
S'grynaeus_1533_v1_1_0130.png'
p225
aI1000
aI1485
aI65
aI290
aI601
aI161
asS'9-3'
p226
(lp227
S'grynaeus_1533_v1_1_0130.png'
p228
aI1000
aI1485
aI63
aI890
aI377
aI85
asS'9-2'
p229
(lp230
S'grynaeus_1533_v1_1_0130.png'
p231
aI1000
aI1485
aI58
aI596
aI421
aI76
asS'9-5'
p232
(lp233
S'grynaeus_1533_v1_1_0131.png'
p234
aI1000
aI1485
aI288
aI623
aI461
aI81
asS'9-4'
p235
(lp236
S'grynaeus_1533_v1_1_0131.png'
p237
aI1000
aI1485
aI285
aI382
aI463
aI73
asS'9-7'
p238
(lp239
S'grynaeus_1533_v1_1_0131.png'
p240
aI1000
aI1485
aI276
aI1105
aI507
aI80
asS'9-6'
p241
(lp242
S'grynaeus_1533_v1_1_0131.png'
p243
aI1000
aI1485
aI287
aI880
aI501
aI67
asS'9-9'
p244
(lp245
S'grynaeus_1533_v1_1_0132.png'
p246
aI1000
aI1485
aI71
aI915
aI605
aI99
asS'9-8'
p247
(lp248
S'grynaeus_1533_v1_1_0132.png'
p249
aI1000
aI1485
aI64
aI332
aI617
aI145
asS'10-add2'
p250
(lp251
S'grynaeus_1533_v1_1_0207.png'
p252
aI1000
aI1485
aI287
aI864
aI605
aI76
asS'10-28_v'
p253
(lp254
S'grynaeus_1533_v1_1_0157.png'
p255
aI1000
aI1485
aI278
aI949
aI360
aI128
asS'6-10'
p256
(lp257
S'grynaeus_1533_v1_1_0086.png'
p258
aI1000
aI1485
aI110
aI1044
aI606
aI71
asS'6-11'
p259
(lp260
S'grynaeus_1533_v1_1_0087.png'
p261
aI1000
aI1485
aI290
aI439
aI497
aI60
asS'10-98'
p262
(lp263
S'grynaeus_1533_v1_1_0197.png'
p264
aI1000
aI1485
aI297
aI403
aI599
aI67
asS'6-13'
p265
(lp266
S'grynaeus_1533_v1_1_0087.png'
p267
aI1000
aI1485
aI290
aI878
aI425
aI62
asS'6-14'
p268
(lp269
S'grynaeus_1533_v1_1_0087.png'
p270
aI1000
aI1485
aI279
aI1090
aI606
aI102
asS'6-15'
p271
(lp272
S'grynaeus_1533_v1_1_0088.png'
p273
aI1000
aI1485
aI108
aI575
aI606
aI108
asS'6-16'
p274
(lp275
S'grynaeus_1533_v1_1_0088.png'
p276
aI1000
aI1485
aI124
aI1071
aI608
aI83
asS'6-17'
p277
(lp278
S'grynaeus_1533_v1_1_0089.png'
p279
aI1000
aI1485
aI259
aI742
aI618
aI122
asS'10-92'
p280
(lp281
S'grynaeus_1533_v1_1_0192.png'
p282
aI1000
aI1485
aI56
aI693
aI601
aI79
asS'6-19'
p283
(lp284
S'grynaeus_1533_v1_1_0090.png'
p285
aI1000
aI1485
aI100
aI723
aI609
aI80
asS'10-90'
p286
(lp287
S'grynaeus_1533_v1_1_0190.png'
p288
aI1000
aI1485
aI54
aI1067
aI298
aI73
asS'10-91'
p289
(lp290
S'grynaeus_1533_v1_1_0191.png'
p291
aI1000
aI1485
aI291
aI846
aI606
aI69
asS'10-96'
p292
(lp293
S'grynaeus_1533_v1_1_0195.png'
p294
aI1000
aI1485
aI285
aI903
aI614
aI80
asS'10-97'
p295
(lp296
S'grynaeus_1533_v1_1_0196.png'
p297
aI1000
aI1485
aI57
aI686
aI612
aI77
asS'10-94'
p298
(lp299
S'grynaeus_1533_v1_1_0194.png'
p300
aI1000
aI1485
aI58
aI433
aI606
aI81
asS'10-95'
p301
(lp302
S'grynaeus_1533_v1_1_0195.png'
p303
aI1000
aI1485
aI295
aI266
aI608
aI80
asS'7-17'
p304
(lp305
S'grynaeus_1533_v1_1_0107.png'
p306
aI1000
aI1485
aI288
aI787
aI606
aI75
asS'7-16'
p307
(lp308
S'grynaeus_1533_v1_1_0107.png'
p309
aI1000
aI1485
aI291
aI493
aI612
aI76
asS'3-31'
p310
(lp311
S'grynaeus_1533_v1_1_0054.png'
p312
aI1000
aI1485
aI104
aI1028
aI608
aI122
asS'3-30'
p313
(lp314
S'grynaeus_1533_v1_1_0054.png'
p315
aI1000
aI1485
aI105
aI832
aI396
aI59
asS'3-33'
p316
(lp317
S'grynaeus_1533_v1_1_0056.png'
p318
aI1000
aI1485
aI89
aI286
aI613
aI69
asS'3-32'
p319
(lp320
S'grynaeus_1533_v1_1_0055.png'
p321
aI1000
aI1485
aI249
aI782
aI602
aI98
asS'3-35'
p322
(lp323
S'grynaeus_1533_v1_1_0057.png'
p324
aI1000
aI1485
aI256
aI444
aI611
aI95
asS'8-14'
p325
(lp326
S'grynaeus_1533_v1_1_0124.png'
p327
aI1000
aI1485
aI66
aI543
aI603
aI94
asS'3-37'
p328
(lp329
S'grynaeus_1533_v1_1_0058.png'
p330
aI1000
aI1485
aI97
aI790
aI605
aI170
asS'3-36'
p331
(lp332
S'grynaeus_1533_v1_1_0057.png'
p333
aI1000
aI1485
aI245
aI1056
aI608
aI95
asS'7-22_v'
p334
(lp335
S'grynaeus_1533_v1_1_0109.png'
p336
aI1000
aI1485
aI297
aI561
aI607
aI93
asS'7-14'
p337
(lp338
S'grynaeus_1533_v1_1_0106.png'
p339
aI1000
aI1485
aI115
aI768
aI465
aI99
asS'7-13'
p340
(lp341
S'grynaeus_1533_v1_1_0106.png'
p342
aI1000
aI1485
aI106
aI579
aI476
aI78
asS'6-12'
p343
(lp344
S'grynaeus_1533_v1_1_0087.png'
p345
aI1000
aI1485
aI283
aI628
aI466
aI69
asS'7-12'
p346
(lp347
S'grynaeus_1533_v1_1_0106.png'
p348
aI1000
aI1485
aI113
aI364
aI519
aI96
asS'10-99'
p349
(lp350
S'grynaeus_1533_v1_1_0197.png'
p351
aI1000
aI1485
aI291
aI1073
aI601
aI67
asS'7-11'
p352
(lp353
S'grynaeus_1533_v1_1_0106.png'
p354
aI1000
aI1485
aI101
aI181
aI531
aI69
asS'7-10'
p355
(lp356
S'grynaeus_1533_v1_1_0105.png'
p357
aI1000
aI1485
aI287
aI735
aI499
aI119
asS'12-14'
p358
(lp359
S'grynaeus_1533_v1_1_0247.png'
p360
aI1000
aI1485
aI309
aI396
aI594
aI67
asS'12-15'
p361
(lp362
S'grynaeus_1533_v1_1_0247.png'
p363
aI1000
aI1485
aI306
aI806
aI597
aI94
asS'12-16'
p364
(lp365
S'grynaeus_1533_v1_1_0248.png'
p366
aI1000
aI1485
aI57
aI648
aI601
aI103
asS'12-17'
p367
(lp368
S'grynaeus_1533_v1_1_0248.png'
p369
aI1000
aI1485
aI58
aI1051
aI600
aI92
asS'12-10'
p370
(lp371
S'grynaeus_1533_v1_1_0241.png'
p372
aI1000
aI1485
aI301
aI766
aI598
aI64
asS'12-11'
p373
(lp374
S'grynaeus_1533_v1_1_0243.png'
p375
aI1000
aI1485
aI299
aI395
aI612
aI63
asS'12-12'
p376
(lp377
S'grynaeus_1533_v1_1_0244.png'
p378
aI1000
aI1485
aI65
aI702
aI597
aI73
asS'12-13'
p379
(lp380
S'grynaeus_1533_v1_1_0246.png'
p381
aI1000
aI1485
aI56
aI797
aI453
aI96
asS'12-18'
p382
(lp383
S'grynaeus_1533_v1_1_0251.png'
p384
aI1000
aI1485
aI304
aI498
aI600
aI69
asS'7-20_v'
p385
(lp386
S'grynaeus_1533_v1_1_0108.png'
p387
aI1000
aI1485
aI79
aI854
aI506
aI99
asS'2-14'
p388
(lp389
S'grynaeus_1533_v1_1_0041.png'
p390
aI1000
aI1485
aI247
aI674
aI492
aI62
asS'6-18'
p391
(lp392
S'grynaeus_1533_v1_1_0090.png'
p393
aI1000
aI1485
aI100
aI257
aI602
aI77
asS'2-10'
p394
(lp395
S'grynaeus_1533_v1_1_0039.png'
p396
aI1000
aI1485
aI248
aI391
aI607
aI146
asS'2-11'
p397
(lp398
S'grynaeus_1533_v1_1_0040.png'
p399
aI1000
aI1485
aI92
aI267
aI611
aI102
asS'2-12'
p400
(lp401
S'grynaeus_1533_v1_1_0040.png'
p402
aI1000
aI1485
aI108
aI742
aI606
aI148
asS'2-13'
p403
(lp404
S'grynaeus_1533_v1_1_0041.png'
p405
aI1000
aI1485
aI245
aI222
aI612
aI150
asS'8-23'
p406
(lp407
S'grynaeus_1533_v1_1_0128.png'
p408
aI1000
aI1485
aI74
aI885
aI494
aI65
asS'8-22'
p409
(lp410
S'grynaeus_1533_v1_1_0128.png'
p411
aI1000
aI1485
aI68
aI730
aI504
aI80
asS'8-21'
p412
(lp413
S'grynaeus_1533_v1_1_0127.png'
p414
aI1000
aI1485
aI279
aI873
aI602
aI68
asS'8-20'
p415
(lp416
S'grynaeus_1533_v1_1_0127.png'
p417
aI1000
aI1485
aI273
aI423
aI613
aI68
asS'8-27'
p418
(lp419
S'grynaeus_1533_v1_1_0129.png'
p420
aI1000
aI1485
aI276
aI840
aI411
aI89
asS'8-26'
p421
(lp422
S'grynaeus_1533_v1_1_0129.png'
p423
aI1000
aI1485
aI276
aI612
aI611
aI67
asS'8-25'
p424
(lp425
S'grynaeus_1533_v1_1_0129.png'
p426
aI1000
aI1485
aI289
aI310
aI401
aI110
asS'8-24'
p427
(lp428
S'grynaeus_1533_v1_1_0128.png'
p429
aI1000
aI1485
aI76
aI1034
aI464
aI122
asS'11-2'
p430
(lp431
S'grynaeus_1533_v1_1_0211.png'
p432
aI1000
aI1485
aI288
aI183
aI602
aI78
asS'1-15'
p433
(lp434
S'grynaeus_1533_v1_1_0021.png'
p435
aI1000
aI1485
aI234
aI448
aI610
aI68
asS'1-14'
p436
(lp437
S'grynaeus_1533_v1_1_0020.png'
p438
aI1000
aI1485
aI126
aI1094
aI610
aI94
asS'1-17'
p439
(lp440
S'grynaeus_1533_v1_1_0021.png'
p441
aI1000
aI1485
aI235
aI1092
aI447
aI61
asS'1-16'
p442
(lp443
S'grynaeus_1533_v1_1_0021.png'
p444
aI1000
aI1485
aI241
aI742
aI602
aI65
asS'1-11'
p445
(lp446
S'grynaeus_1533_v1_1_0019.png'
p447
aI1000
aI1485
aI229
aI1049
aI607
aI65
asS'1-10'
p448
(lp449
S'grynaeus_1533_v1_1_0019.png'
p450
aI1000
aI1485
aI226
aI862
aI446
aI65
asS'1-13'
p451
(lp452
S'grynaeus_1533_v1_1_0020.png'
p453
aI1000
aI1485
aI123
aI766
aI600
aI69
asS'1-12'
p454
(lp455
S'grynaeus_1533_v1_1_0020.png'
p456
aI1000
aI1485
aI115
aI412
aI604
aI71
asS'1-19'
p457
(lp458
S'grynaeus_1533_v1_1_0022.png'
p459
aI1000
aI1485
aI115
aI563
aI606
aI62
asS'1-18'
p460
(lp461
S'grynaeus_1533_v1_1_0022.png'
p462
aI1000
aI1485
aI112
aI353
aI570
aI64
asS'12-2'
p463
(lp464
S'grynaeus_1533_v1_1_0233.png'
p465
aI1000
aI1485
aI286
aI1046
aI604
aI58
asS'11-8'
p466
(lp467
S'grynaeus_1533_v1_1_0213.png'
p468
aI1000
aI1485
aI304
aI517
aI596
aI71
asS'10-103'
p469
(lp470
S'grynaeus_1533_v1_1_0200.png'
p471
aI1000
aI1485
aI60
aI926
aI602
aI58
asS'10-102'
p472
(lp473
S'grynaeus_1533_v1_1_0200.png'
p474
aI1000
aI1485
aI54
aI270
aI606
aI62
asS'10-101'
p475
(lp476
S'grynaeus_1533_v1_1_0199.png'
p477
aI1000
aI1485
aI285
aI614
aI608
aI72
asS'10-100'
p478
(lp479
S'grynaeus_1533_v1_1_0198.png'
p480
aI1000
aI1485
aI63
aI824
aI605
aI79
asS'10-107'
p481
(lp482
S'grynaeus_1533_v1_1_0202.png'
p483
aI1000
aI1485
aI54
aI700
aI602
aI80
asS'10-106'
p484
(lp485
S'grynaeus_1533_v1_1_0202.png'
p486
aI1000
aI1485
aI50
aI224
aI603
aI70
asS'10-105'
p487
(lp488
S'grynaeus_1533_v1_1_0201.png'
p489
aI1000
aI1485
aI293
aI684
aI370
aI59
asS'10-104'
p490
(lp491
S'grynaeus_1533_v1_1_0201.png'
p492
aI1000
aI1485
aI297
aI352
aI601
aI62
asS'10-109'
p493
(lp494
S'grynaeus_1533_v1_1_0203.png'
p495
aI1000
aI1485
aI300
aI423
aI600
aI67
asS'10-108'
p496
(lp497
S'grynaeus_1533_v1_1_0202.png'
p498
aI1000
aI1485
aI60
aI972
aI598
aI73
asS'3-34'
p499
(lp500
S'grynaeus_1533_v1_1_0057.png'
p501
aI1000
aI1485
aI259
aI191
aI608
aI71
asS'10-58'
p502
(lp503
S'grynaeus_1533_v1_1_0175.png'
p504
aI1000
aI1485
aI288
aI496
aI403
aI116
asS'10-59'
p505
(lp506
S'grynaeus_1533_v1_1_0175.png'
p507
aI1000
aI1485
aI291
aI1035
aI603
aI72
asS'10-56'
p508
(lp509
S'grynaeus_1533_v1_1_0174.png'
p510
aI1000
aI1485
aI54
aI484
aI604
aI92
asS'10-57'
p511
(lp512
S'grynaeus_1533_v1_1_0174.png'
p513
aI1000
aI1485
aI60
aI899
aI411
aI93
asS'10-54'
p514
(lp515
S'grynaeus_1533_v1_1_0172.png'
p516
aI1000
aI1485
aI60
aI871
aI419
aI100
asS'10-55'
p517
(lp518
S'grynaeus_1533_v1_1_0173.png'
p519
aI1000
aI1485
aI269
aI688
aI614
aI93
asS'10-52'
p520
(lp521
S'grynaeus_1533_v1_1_0171.png'
p522
aI1000
aI1485
aI289
aI501
aI363
aI70
asS'10-53'
p523
(lp524
S'grynaeus_1533_v1_1_0171.png'
p525
aI1000
aI1485
aI278
aI888
aI360
aI73
asS'10-50'
p526
(lp527
S'grynaeus_1533_v1_1_0170.png'
p528
aI1000
aI1485
aI49
aI543
aI350
aI70
asS'10-51'
p529
(lp530
S'grynaeus_1533_v1_1_0171.png'
p531
aI1000
aI1485
aI289
aI152
aI384
aI76
asS'5-11'
p532
(lp533
S'grynaeus_1533_v1_1_0073.png'
p534
aI1000
aI1485
aI267
aI556
aI492
aI69
asS'1-1'
p535
(lp536
S'grynaeus_1533_v1_1_0016.png'
p537
aI1000
aI1485
aI129
aI427
aI597
aI116
asS'8-19'
p538
(lp539
S'grynaeus_1533_v1_1_0126.png'
p540
aI1000
aI1485
aI61
aI362
aI606
aI96
asS'2-3_2'
p541
(lp542
S'grynaeus_1533_v1_1_0035.png'
p543
aI1000
aI1485
aI236
aI144
aI612
aI73
asS'10-25'
p544
(lp545
S'grynaeus_1533_v1_1_0156.png'
p546
aI1000
aI1485
aI60
aI847
aI607
aI76
asS'5-10'
p547
(lp548
S'grynaeus_1533_v1_1_0073.png'
p549
aI1000
aI1485
aI281
aI234
aI607
aI73
asS'10-24'
p550
(lp551
S'grynaeus_1533_v1_1_0156.png'
p552
aI1000
aI1485
aI56
aI655
aI604
aI82
asS'10-23'
p553
(lp554
S'grynaeus_1533_v1_1_0155.png'
p555
aI1000
aI1485
aI281
aI1030
aI334
aI64
asS'1-4'
p556
(lp557
S'grynaeus_1533_v1_1_0017.png'
p558
aI1000
aI1485
aI243
aI202
aI458
aI187
asS'9-19'
p559
(lp560
S'grynaeus_1533_v1_1_0137.png'
p561
aI1000
aI1485
aI256
aI1008
aI620
aI84
asS'1-7'
p562
(lp563
S'grynaeus_1533_v1_1_0018.png'
p564
aI1000
aI1485
aI127
aI686
aI423
aI145
asS'9-15'
p565
(lp566
S'grynaeus_1533_v1_1_0136.png'
p567
aI1000
aI1485
aI66
aI260
aI605
aI76
asS'9-14'
p568
(lp569
S'grynaeus_1533_v1_1_0135.png'
p570
aI1000
aI1485
aI274
aI903
aI422
aI110
asS'9-17'
p571
(lp572
S'grynaeus_1533_v1_1_0137.png'
p573
aI1000
aI1485
aI273
aI146
aI460
aI130
asS'9-16'
p574
(lp575
S'grynaeus_1533_v1_1_0136.png'
p576
aI1000
aI1485
aI73
aI901
aI499
aI107
asS'9-11'
p577
(lp578
S'grynaeus_1533_v1_1_0133.png'
p579
aI1000
aI1485
aI269
aI1074
aI618
aI78
asS'9-10'
p580
(lp581
S'grynaeus_1533_v1_1_0133.png'
p582
aI1000
aI1485
aI279
aI471
aI609
aI143
asS'9-13'
p583
(lp584
S'grynaeus_1533_v1_1_0134.png'
p585
aI1000
aI1485
aI66
aI1025
aI614
aI99
asS'9-12'
p586
(lp587
S'grynaeus_1533_v1_1_0134.png'
p588
aI1000
aI1485
aI65
aI344
aI607
aI100
asS'8-8'
p589
(lp590
S'grynaeus_1533_v1_1_0120.png'
p591
aI1000
aI1485
aI89
aI649
aI597
aI134
asS'8-9'
p592
(lp593
S'grynaeus_1533_v1_1_0121.png'
p594
aI1000
aI1485
aI274
aI298
aI608
aI120
asS'8-4'
p595
(lp596
S'grynaeus_1533_v1_1_0118.png'
p597
aI1000
aI1485
aI85
aI270
aI600
aI74
asS'8-5'
p598
(lp599
S'grynaeus_1533_v1_1_0119.png'
p600
aI1000
aI1485
aI310
aI546
aI602
aI69
asS'8-6'
p601
(lp602
S'grynaeus_1533_v1_1_0119.png'
p603
aI1000
aI1485
aI294
aI1080
aI606
aI73
asS'8-7'
p604
(lp605
S'grynaeus_1533_v1_1_0120.png'
p606
aI1000
aI1485
aI87
aI503
aI460
aI71
asS'8-1'
p607
(lp608
S'grynaeus_1533_v1_1_0116.png'
p609
aI1000
aI1485
aI89
aI655
aI600
aI149
asS'8-2'
p610
(lp611
S'grynaeus_1533_v1_1_0116.png'
p612
aI1000
aI1485
aI99
aI1048
aI592
aI70
asS'8-3'
p613
(lp614
S'grynaeus_1533_v1_1_0117.png'
p615
aI1000
aI1485
aI294
aI798
aI607
aI79
asS'2-2'
p616
(lp617
S'grynaeus_1533_v1_1_0034.png'
p618
aI1000
aI1485
aI110
aI821
aI604
aI96
asS'2-3'
p619
(lp620
S'grynaeus_1533_v1_1_0034.png'
p621
aI1000
aI1485
aI110
aI1077
aI615
aI94
asS'5-13'
p622
(lp623
S'grynaeus_1533_v1_1_0074.png'
p624
aI1000
aI1485
aI99
aI361
aI601
aI118
asS'2-1'
p625
(lp626
S'grynaeus_1533_v1_1_0034.png'
p627
aI1000
aI1485
aI96
aI443
aI613
aI125
asS'5-15'
p628
(lp629
S'grynaeus_1533_v1_1_0075.png'
p630
aI1000
aI1485
aI285
aI200
aI610
aI76
asS'2-7'
p631
(lp632
S'grynaeus_1533_v1_1_0037.png'
p633
aI1000
aI1485
aI247
aI487
aI622
aI126
asS'5-17'
p634
(lp635
S'grynaeus_1533_v1_1_0075.png'
p636
aI1000
aI1485
aI262
aI836
aI616
aI68
asS'2-5'
p637
(lp638
S'grynaeus_1533_v1_1_0036.png'
p639
aI1000
aI1485
aI106
aI465
aI605
aI100
asS'5-19'
p640
(lp641
S'grynaeus_1533_v1_1_0076.png'
p642
aI1000
aI1485
aI104
aI734
aI607
aI75
asS'5-18'
p643
(lp644
S'grynaeus_1533_v1_1_0076.png'
p645
aI1000
aI1485
aI99
aI434
aI573
aI62
asS'2-8'
p646
(lp647
S'grynaeus_1533_v1_1_0037.png'
p648
aI1000
aI1485
aI251
aI929
aI615
aI123
asS'2-9'
p649
(lp650
S'grynaeus_1533_v1_1_0038.png'
p651
aI1000
aI1485
aI110
aI690
aI609
aI109
asS'13-3'
p652
(lp653
S'grynaeus_1533_v1_1_0254.png'
p654
aI1000
aI1485
aI62
aI616
aI591
aI94
asS'13-2'
p655
(lp656
S'grynaeus_1533_v1_1_0253.png'
p657
aI1000
aI1485
aI303
aI452
aI601
aI102
asS'13-1'
p658
(lp659
S'grynaeus_1533_v1_1_0252.png'
p660
aI1000
aI1485
aI59
aI430
aI595
aI161
asS'13-7'
p661
(lp662
S'grynaeus_1533_v1_1_0256.png'
p663
aI1000
aI1485
aI63
aI1083
aI596
aI74
asS'13-6'
p664
(lp665
S'grynaeus_1533_v1_1_0256.png'
p666
aI1000
aI1485
aI63
aI716
aI594
aI72
asS'13-5'
p667
(lp668
S'grynaeus_1533_v1_1_0255.png'
p669
aI1000
aI1485
aI296
aI1075
aI598
aI95
asS'13-4'
p670
(lp671
S'grynaeus_1533_v1_1_0255.png'
p672
aI1000
aI1485
aI305
aI378
aI600
aI95
asS'13-9'
p673
(lp674
S'grynaeus_1533_v1_1_0258.png'
p675
aI1000
aI1485
aI63
aI236
aI598
aI95
asS'13-8'
p676
(lp677
S'grynaeus_1533_v1_1_0257.png'
p678
aI1000
aI1485
aI303
aI665
aI594
aI83
asS'1-28'
p679
(lp680
S'grynaeus_1533_v1_1_0026.png'
p681
aI1000
aI1485
aI110
aI195
aI605
aI125
asS'1-29'
p682
(lp683
S'grynaeus_1533_v1_1_0026.png'
p684
aI1000
aI1485
aI108
aI538
aI607
aI92
asS'1-24'
p685
(lp686
S'grynaeus_1533_v1_1_0024.png'
p687
aI1000
aI1485
aI126
aI233
aI603
aI88
asS'1-25'
p688
(lp689
S'grynaeus_1533_v1_1_0024.png'
p690
aI1000
aI1485
aI126
aI663
aI602
aI98
asS'1-26'
p691
(lp692
S'grynaeus_1533_v1_1_0024.png'
p693
aI1000
aI1485
aI126
aI1018
aI604
aI157
asS'1-27'
p694
(lp695
S'grynaeus_1533_v1_1_0025.png'
p696
aI1000
aI1485
aI226
aI875
aI619
aI76
asS'1-20'
p697
(lp698
S'grynaeus_1533_v1_1_0022.png'
p699
aI1000
aI1485
aI125
aI747
aI590
aI64
asS'1-21'
p700
(lp701
S'grynaeus_1533_v1_1_0022.png'
p702
aI1000
aI1485
aI123
aI1033
aI601
aI96
asS'1-22'
p703
(lp704
S'grynaeus_1533_v1_1_0023.png'
p705
aI1000
aI1485
aI240
aI439
aI609
aI122
asS'1-23'
p706
(lp707
S'grynaeus_1533_v1_1_0023.png'
p708
aI1000
aI1485
aI227
aI893
aI616
aI80
asS'10-8'
p709
(lp710
S'grynaeus_1533_v1_1_0147.png'
p711
aI1000
aI1485
aI288
aI147
aI544
aI76
asS'10-9'
p712
(lp713
S'grynaeus_1533_v1_1_0147.png'
p714
aI1000
aI1485
aI287
aI297
aI605
aI226
asS'8-10_2'
p715
(lp716
S'grynaeus_1533_v1_1_0122.png'
p717
aI1000
aI1485
aI67
aI147
aI611
aI77
asS'10-1'
p718
(lp719
S'grynaeus_1533_v1_1_0143.png'
p720
aI1000
aI1485
aI291
aI613
aI600
aI126
asS'10-2'
p721
(lp722
S'grynaeus_1533_v1_1_0144.png'
p723
aI1000
aI1485
aI53
aI421
aI609
aI100
asS'10-3'
p724
(lp725
S'grynaeus_1533_v1_1_0144.png'
p726
aI1000
aI1485
aI62
aI767
aI390
aI68
asS'10-4'
p727
(lp728
S'grynaeus_1533_v1_1_0145.png'
p729
aI1000
aI1485
aI286
aI266
aI610
aI72
asS'10-5'
p730
(lp731
S'grynaeus_1533_v1_1_0145.png'
p732
aI1000
aI1485
aI276
aI837
aI503
aI73
asS'10-6'
p733
(lp734
S'grynaeus_1533_v1_1_0146.png'
p735
aI1000
aI1485
aI54
aI172
aI449
aI70
asS'10-7'
p736
(lp737
S'grynaeus_1533_v1_1_0146.png'
p738
aI1000
aI1485
aI62
aI965
aI611
aI71
asS'10-12'
p739
(lp740
S'grynaeus_1533_v1_1_0150.png'
p741
aI1000
aI1485
aI57
aI302
aI545
aI69
asS'10-13'
p742
(lp743
S'grynaeus_1533_v1_1_0150.png'
p744
aI1000
aI1485
aI69
aI880
aI419
aI93
asS'10-10'
p745
(lp746
S'grynaeus_1533_v1_1_0149.png'
p747
aI1000
aI1485
aI269
aI494
aI615
aI72
asS'10-11'
p748
(lp749
S'grynaeus_1533_v1_1_0149.png'
p750
aI1000
aI1485
aI268
aI841
aI498
aI124
asS'10-16'
p751
(lp752
S'grynaeus_1533_v1_1_0151.png'
p753
aI1000
aI1485
aI261
aI1018
aI616
aI98
asS'10-17'
p754
(lp755
S'grynaeus_1533_v1_1_0152.png'
p756
aI1000
aI1485
aI62
aI617
aI611
aI225
asS'10-14'
p757
(lp758
S'grynaeus_1533_v1_1_0151.png'
p759
aI1000
aI1485
aI272
aI280
aI609
aI147
asS'10-15'
p760
(lp761
S'grynaeus_1533_v1_1_0151.png'
p762
aI1000
aI1485
aI264
aI693
aI616
aI97
asS'10-18'
p763
(lp764
S'grynaeus_1533_v1_1_0153.png'
p765
aI1000
aI1485
aI279
aI422
aI607
aI189
asS'10-19'
p766
(lp767
S'grynaeus_1533_v1_1_0154.png'
p768
aI1000
aI1485
aI47
aI366
aI612
aI75
asS'5-12'
p769
(lp770
S'grynaeus_1533_v1_1_0073.png'
p771
aI1000
aI1485
aI249
aI932
aI444
aI94
asS'2-6'
p772
(lp773
S'grynaeus_1533_v1_1_0036.png'
p774
aI1000
aI1485
aI121
aI940
aI606
aI155
asS'5-14'
p775
(lp776
S'grynaeus_1533_v1_1_0074.png'
p777
aI1000
aI1485
aI102
aI892
aI604
aI107
asS'2-4'
p778
(lp779
S'grynaeus_1533_v1_1_0035.png'
p780
aI1000
aI1485
aI242
aI459
aI608
aI91
asS'5-16'
p781
(lp782
S'grynaeus_1533_v1_1_0075.png'
p783
aI1000
aI1485
aI279
aI494
aI545
aI65
asS'13-17'
p784
(lp785
S'grynaeus_1533_v1_1_0265.png'
p786
aI1000
aI1485
aI290
aI1033
aI603
aI98
asS'13-16'
p787
(lp788
S'grynaeus_1533_v1_1_0264.png'
p789
aI1000
aI1485
aI48
aI165
aI596
aI101
asS'13-15'
p790
(lp791
S'grynaeus_1533_v1_1_0263.png'
p792
aI1000
aI1485
aI312
aI364
aI594
aI65
asS'13-14'
p793
(lp794
S'grynaeus_1533_v1_1_0262.png'
p795
aI1000
aI1485
aI55
aI527
aI591
aI93
asS'13-13'
p796
(lp797
S'grynaeus_1533_v1_1_0261.png'
p798
aI1000
aI1485
aI307
aI170
aI595
aI85
asS'13-12'
p799
(lp800
S'grynaeus_1533_v1_1_0260.png'
p801
aI1000
aI1485
aI61
aI773
aI600
aI71
asS'13-11'
p802
(lp803
S'grynaeus_1533_v1_1_0259.png'
p804
aI1000
aI1485
aI304
aI642
aI597
aI86
asS'13-10'
p805
(lp806
S'grynaeus_1533_v1_1_0258.png'
p807
aI1000
aI1485
aI57
aI775
aI608
aI103
asS'14-4'
p808
(lp809
S'grynaeus_1533_v1_1_0273.png'
p810
aI1000
aI1485
aI315
aI156
aI594
aI99
asS'14-1'
p811
(lp812
S'grynaeus_1533_v1_1_0270.png'
p813
aI1000
aI1485
aI54
aI770
aI602
aI123
asS'14-2'
p814
(lp815
S'grynaeus_1533_v1_1_0271.png'
p816
aI1000
aI1485
aI299
aI315
aI601
aI88
asS'13-18'
p817
(lp818
S'grynaeus_1533_v1_1_0267.png'
p819
aI1000
aI1485
aI301
aI762
aI595
aI59
asS'6-14_2'
p820
(lp821
S'grynaeus_1533_v1_1_0088.png'
p822
aI1000
aI1485
aI93
aI142
aI614
aI69
asS'6-16_2'
p823
(lp824
S'grynaeus_1533_v1_1_0089.png'
p825
aI1000
aI1485
aI275
aI146
aI612
aI78
asS'5-5'
p826
(lp827
S'grynaeus_1533_v1_1_0070.png'
p828
aI1000
aI1485
aI106
aI1026
aI608
aI93
asS'5-4'
p829
(lp830
S'grynaeus_1533_v1_1_0070.png'
p831
aI1000
aI1485
aI98
aI443
aI604
aI120
asS'5-7'
p832
(lp833
S'grynaeus_1533_v1_1_0071.png'
p834
aI1000
aI1485
aI252
aI790
aI572
aI72
asS'5-6'
p835
(lp836
S'grynaeus_1533_v1_1_0071.png'
p837
aI1000
aI1485
aI271
aI386
aI508
aI128
asS'5-1'
p838
(lp839
S'grynaeus_1533_v1_1_0069.png'
p840
aI1000
aI1485
aI265
aI241
aI602
aI105
asS'5-3'
p841
(lp842
S'grynaeus_1533_v1_1_0069.png'
p843
aI1000
aI1485
aI247
aI975
aI606
aI115
asS'5-2'
p844
(lp845
S'grynaeus_1533_v1_1_0069.png'
p846
aI1000
aI1485
aI256
aI597
aI610
aI115
asS'7-15_2'
p847
(lp848
S'grynaeus_1533_v1_1_0107.png'
p849
aI1000
aI1485
aI305
aI148
aI421
aI49
asS'5-9'
p850
(lp851
S'grynaeus_1533_v1_1_0072.png'
p852
aI1000
aI1485
aI108
aI999
aI610
aI80
asS'5-8'
p853
(lp854
S'grynaeus_1533_v1_1_0072.png'
p855
aI1000
aI1485
aI95
aI180
aI616
aI96
asS'10-74_2'
p856
(lp857
S'grynaeus_1533_v1_1_0184.png'
p858
aI1000
aI1485
aI51
aI164
aI173
aI44
asS'9-24'
p859
(lp860
S'grynaeus_1533_v1_1_0139.png'
p861
aI1000
aI1485
aI273
aI645
aI381
aI75
asS'9-25'
p862
(lp863
S'grynaeus_1533_v1_1_0139.png'
p864
aI1000
aI1485
aI269
aI750
aI344
aI77
asS'9-26'
p865
(lp866
S'grynaeus_1533_v1_1_0139.png'
p867
aI1000
aI1485
aI260
aI886
aI383
aI75
asS'9-27'
p868
(lp869
S'grynaeus_1533_v1_1_0139.png'
p870
aI1000
aI1485
aI269
aI1014
aI427
aI73
asS'9-20'
p871
(lp872
S'grynaeus_1533_v1_1_0138.png'
p873
aI1000
aI1485
aI62
aI811
aI441
aI87
asS'9-21'
p874
(lp875
S'grynaeus_1533_v1_1_0139.png'
p876
aI1000
aI1485
aI283
aI136
aI175
aI120
asS'9-22'
p877
(lp878
S'grynaeus_1533_v1_1_0139.png'
p879
aI1000
aI1485
aI278
aI319
aI315
aI90
asS'9-23'
p880
(lp881
S'grynaeus_1533_v1_1_0139.png'
p882
aI1000
aI1485
aI276
aI488
aI473
aI101
asS'9-28'
p883
(lp884
S'grynaeus_1533_v1_1_0140.png'
p885
aI1000
aI1485
aI52
aI184
aI490
aI78
asS'9-29'
p886
(lp887
S'grynaeus_1533_v1_1_0140.png'
p888
aI1000
aI1485
aI52
aI353
aI503
aI79
asS'8-18'
p889
(lp890
S'grynaeus_1533_v1_1_0125.png'
p891
aI1000
aI1485
aI304
aI758
aI600
aI94
asS'7-18'
p892
(lp893
S'grynaeus_1533_v1_1_0107.png'
p894
aI1000
aI1485
aI277
aI1055
aI421
aI97
asS'8-16'
p895
(lp896
S'grynaeus_1533_v1_1_0125.png'
p897
aI1000
aI1485
aI300
aI296
aI603
aI91
asS'8-17'
p898
(lp899
S'grynaeus_1533_v1_1_0125.png'
p900
aI1000
aI1485
aI305
aI522
aI404
aI118
asS'7-15'
p901
(lp902
S'grynaeus_1533_v1_1_0106.png'
p903
aI1000
aI1485
aI115
aI1074
aI607
aI111
asS'8-15'
p904
(lp905
S'grynaeus_1533_v1_1_0124.png'
p906
aI1000
aI1485
aI69
aI898
aI343
aI142
asS'8-12'
p907
(lp908
S'grynaeus_1533_v1_1_0123.png'
p909
aI1000
aI1485
aI273
aI333
aI609
aI93
asS'8-13'
p910
(lp911
S'grynaeus_1533_v1_1_0123.png'
p912
aI1000
aI1485
aI273
aI987
aI610
aI123
asS'8-10'
p913
(lp914
S'grynaeus_1533_v1_1_0121.png'
p915
aI1000
aI1485
aI279
aI1100
aI603
aI92
asS'8-11'
p916
(lp917
S'grynaeus_1533_v1_1_0122.png'
p918
aI1000
aI1485
aI81
aI889
aI438
aI111
asS'11-5'
p919
(lp920
S'grynaeus_1533_v1_1_0212.png'
p921
aI1000
aI1485
aI59
aI401
aI597
aI71
asS'11-4'
p922
(lp923
S'grynaeus_1533_v1_1_0211.png'
p924
aI1000
aI1485
aI287
aI729
aI423
aI89
asS'11-7'
p925
(lp926
S'grynaeus_1533_v1_1_0213.png'
p927
aI1000
aI1485
aI305
aI245
aI595
aI99
asS'11-6'
p928
(lp929
S'grynaeus_1533_v1_1_0212.png'
p930
aI1000
aI1485
aI61
aI770
aI602
aI73
asS'11-1'
p931
(lp932
S'grynaeus_1533_v1_1_0210.png'
p933
aI1000
aI1485
aI60
aI901
aI600
aI129
asS'11-3'
p934
(lp935
S'grynaeus_1533_v1_1_0211.png'
p936
aI1000
aI1485
aI290
aI518
aI572
aI62
asS'12-9'
p937
(lp938
S'grynaeus_1533_v1_1_0240.png'
p939
aI1000
aI1485
aI62
aI930
aI595
aI90
asS'12-6'
p940
(lp941
S'grynaeus_1533_v1_1_0238.png'
p942
aI1000
aI1485
aI54
aI935
aI604
aI67
asS'12-7'
p943
(lp944
S'grynaeus_1533_v1_1_0239.png'
p945
aI1000
aI1485
aI291
aI533
aI608
aI65
asS'12-4'
p946
(lp947
S'grynaeus_1533_v1_1_0236.png'
p948
aI1000
aI1485
aI64
aI677
aI603
aI196
asS'12-5'
p949
(lp950
S'grynaeus_1533_v1_1_0237.png'
p951
aI1000
aI1485
aI288
aI1023
aI601
aI69
asS'11-9'
p952
(lp953
S'grynaeus_1533_v1_1_0213.png'
p954
aI1000
aI1485
aI300
aI1091
aI596
aI67
asS'12-3'
p955
(lp956
S'grynaeus_1533_v1_1_0235.png'
p957
aI1000
aI1485
aI309
aI416
aI595
aI111
asS'12-1'
p958
(lp959
S'grynaeus_1533_v1_1_0233.png'
p960
aI1000
aI1485
aI295
aI517
aI600
aI165
asS'1-41'
p961
(lp962
S'grynaeus_1533_v1_1_0030.png'
p963
aI1000
aI1485
aI108
aI439
aI608
aI92
asS'4-12'
p964
(lp965
S'grynaeus_1533_v1_1_0064.png'
p966
aI1000
aI1485
aI97
aI525
aI611
aI73
asS'4-13'
p967
(lp968
S'grynaeus_1533_v1_1_0065.png'
p969
aI1000
aI1485
aI269
aI250
aI603
aI68
asS'4-10'
p970
(lp971
S'grynaeus_1533_v1_1_0063.png'
p972
aI1000
aI1485
aI264
aI413
aI473
aI67
asS'4-11'
p973
(lp974
S'grynaeus_1533_v1_1_0063.png'
p975
aI1000
aI1485
aI253
aI944
aI446
aI70
asS'4-16'
p976
(lp977
S'grynaeus_1533_v1_1_0066.png'
p978
aI1000
aI1485
aI109
aI995
aI605
aI77
asS'4-14'
p979
(lp980
S'grynaeus_1533_v1_1_0065.png'
p981
aI1000
aI1485
aI248
aI887
aI614
aI72
asS'4-15'
p982
(lp983
S'grynaeus_1533_v1_1_0066.png'
p984
aI1000
aI1485
aI103
aI295
aI609
aI73
asS'5-20'
p985
(lp986
S'grynaeus_1533_v1_1_0077.png'
p987
aI1000
aI1485
aI279
aI264
aI614
aI107
asS'5-21'
p988
(lp989
S'grynaeus_1533_v1_1_0077.png'
p990
aI1000
aI1485
aI274
aI672
aI606
aI118
asS'5-22'
p991
(lp992
S'grynaeus_1533_v1_1_0077.png'
p993
aI1000
aI1485
aI265
aI1069
aI602
aI83
asS'5-23'
p994
(lp995
S'grynaeus_1533_v1_1_0078.png'
p996
aI1000
aI1485
aI108
aI530
aI611
aI94
asS'5-24'
p997
(lp998
S'grynaeus_1533_v1_1_0079.png'
p999
aI1000
aI1485
aI278
aI157
aI609
aI133
asS'5-25'
p1000
(lp1001
S'grynaeus_1533_v1_1_0079.png'
p1002
aI1000
aI1485
aI270
aI545
aI613
aI61
asS'15-1'
p1003
(lp1004
S'grynaeus_1533_v1_1_0276.png'
p1005
aI1000
aI1485
aI52
aI620
aI501
aI167
asS'15-3'
p1006
(lp1007
S'grynaeus_1533_v1_1_0276.png'
p1008
aI1000
aI1485
aI51
aI1053
aI345
aI83
asS'15-2'
p1009
(lp1010
S'grynaeus_1533_v1_1_0276.png'
p1011
aI1000
aI1485
aI50
aI825
aI342
aI80
asS'15-5'
p1012
(lp1013
S'grynaeus_1533_v1_1_0277.png'
p1014
aI1000
aI1485
aI298
aI986
aI342
aI70
asS'15-4'
p1015
(lp1016
S'grynaeus_1533_v1_1_0277.png'
p1017
aI1000
aI1485
aI307
aI429
aI288
aI72
asS'11-38_v'
p1018
(lp1019
S'grynaeus_1533_v1_1_0231.png'
p1020
aI1000
aI1485
aI289
aI1024
aI605
aI115
asS'3-36_2'
p1021
(lp1022
S'grynaeus_1533_v1_1_0058.png'
p1023
aI1000
aI1485
aI97
aI158
aI611
aI71
asS'10-41'
p1024
(lp1025
S'grynaeus_1533_v1_1_0166.png'
p1026
aI1000
aI1485
aI47
aI178
aI602
aI123
asS'10-69'
p1027
(lp1028
S'grynaeus_1533_v1_1_0181.png'
p1029
aI1000
aI1485
aI301
aI167
aI600
aI74
asS'10-68'
p1030
(lp1031
S'grynaeus_1533_v1_1_0180.png'
p1032
aI1000
aI1485
aI52
aI647
aI426
aI64
asS'10-63'
p1033
(lp1034
S'grynaeus_1533_v1_1_0178.png'
p1035
aI1000
aI1485
aI57
aI370
aI610
aI71
asS'10-62'
p1036
(lp1037
S'grynaeus_1533_v1_1_0177.png'
p1038
aI1000
aI1485
aI286
aI860
aI392
aI92
asS'10-61'
p1039
(lp1040
S'grynaeus_1533_v1_1_0177.png'
p1041
aI1000
aI1485
aI282
aI406
aI611
aI72
asS'10-60'
p1042
(lp1043
S'grynaeus_1533_v1_1_0176.png'
p1044
aI1000
aI1485
aI59
aI688
aI603
aI70
asS'10-67'
p1045
(lp1046
S'grynaeus_1533_v1_1_0180.png'
p1047
aI1000
aI1485
aI51
aI272
aI600
aI73
asS'10-66'
p1048
(lp1049
S'grynaeus_1533_v1_1_0179.png'
p1050
aI1000
aI1485
aI271
aI715
aI614
aI70
asS'10-65'
p1051
(lp1052
S'grynaeus_1533_v1_1_0179.png'
p1053
aI1000
aI1485
aI285
aI302
aI610
aI71
asS'10-64'
p1054
(lp1055
S'grynaeus_1533_v1_1_0178.png'
p1056
aI1000
aI1485
aI61
aI882
aI615
aI69
asS'6-8'
p1057
(lp1058
S'grynaeus_1533_v1_1_0086.png'
p1059
aI1000
aI1485
aI99
aI234
aI603
aI71
asS'6-33'
p1060
(lp1061
S'grynaeus_1533_v1_1_0099.png'
p1062
aI1000
aI1485
aI272
aI698
aI619
aI105
asS'1-46'
p1063
(lp1064
S'grynaeus_1533_v1_1_0032.png'
p1065
aI1000
aI1485
aI104
aI466
aI476
aI63
asS'1-47'
p1066
(lp1067
S'grynaeus_1533_v1_1_0032.png'
p1068
aI1000
aI1485
aI112
aI752
aI604
aI89
asS'6-4'
p1069
(lp1070
S'grynaeus_1533_v1_1_0083.png'
p1071
aI1000
aI1485
aI265
aI860
aI612
aI91
asS'1-45'
p1072
(lp1073
S'grynaeus_1533_v1_1_0031.png'
p1074
aI1000
aI1485
aI238
aI881
aI607
aI66
asS'6-2'
p1075
(lp1076
S'grynaeus_1533_v1_1_0082.png'
p1077
aI1000
aI1485
aI103
aI674
aI609
aI120
asS'1-43'
p1078
(lp1079
S'grynaeus_1533_v1_1_0030.png'
p1080
aI1000
aI1485
aI120
aI1042
aI598
aI66
asS'3-13'
p1081
(lp1082
S'grynaeus_1533_v1_1_0048.png'
p1083
aI1000
aI1485
aI103
aI624
aI602
aI75
asS'3-12'
p1084
(lp1085
S'grynaeus_1533_v1_1_0048.png'
p1086
aI1000
aI1485
aI89
aI335
aI612
aI83
asS'3-11'
p1087
(lp1088
S'grynaeus_1533_v1_1_0047.png'
p1089
aI1000
aI1485
aI246
aI888
aI455
aI117
asS'3-10'
p1090
(lp1091
S'grynaeus_1533_v1_1_0047.png'
p1092
aI1000
aI1485
aI248
aI401
aI484
aI65
asS'3-17'
p1093
(lp1094
S'grynaeus_1533_v1_1_0050.png'
p1095
aI1000
aI1485
aI101
aI665
aI389
aI98
asS'3-16'
p1096
(lp1097
S'grynaeus_1533_v1_1_0049.png'
p1098
aI1000
aI1485
aI243
aI929
aI606
aI143
asS'3-15'
p1099
(lp1100
S'grynaeus_1533_v1_1_0049.png'
p1101
aI1000
aI1485
aI251
aI567
aI607
aI70
asS'3-14'
p1102
(lp1103
S'grynaeus_1533_v1_1_0048.png'
p1104
aI1000
aI1485
aI110
aI1042
aI611
aI98
asS'3-19'
p1105
(lp1106
S'grynaeus_1533_v1_1_0051.png'
p1107
aI1000
aI1485
aI263
aI279
aI448
aI97
asS'3-18'
p1108
(lp1109
S'grynaeus_1533_v1_1_0050.png'
p1110
aI1000
aI1485
aI103
aI1028
aI605
aI83
asS'12-8'
p1111
(lp1112
S'grynaeus_1533_v1_1_0240.png'
p1113
aI1000
aI1485
aI61
aI197
aI593
aI69
asS'11-33'
p1114
(lp1115
S'grynaeus_1533_v1_1_0227.png'
p1116
aI1000
aI1485
aI310
aI179
aI596
aI71
asS'11-32'
p1117
(lp1118
S'grynaeus_1533_v1_1_0226.png'
p1119
aI1000
aI1485
aI55
aI802
aI596
aI71
asS'11-31'
p1120
(lp1121
S'grynaeus_1533_v1_1_0225.png'
p1122
aI1000
aI1485
aI293
aI624
aI599
aI75
asS'11-30'
p1123
(lp1124
S'grynaeus_1533_v1_1_0225.png'
p1125
aI1000
aI1485
aI296
aI197
aI596
aI68
asS'11-37'
p1126
(lp1127
S'grynaeus_1533_v1_1_0231.png'
p1128
aI1000
aI1485
aI299
aI580
aI599
aI119
asS'11-36'
p1129
(lp1130
S'grynaeus_1533_v1_1_0230.png'
p1131
aI1000
aI1485
aI65
aI1021
aI602
aI102
asS'11-35'
p1132
(lp1133
S'grynaeus_1533_v1_1_0229.png'
p1134
aI1000
aI1485
aI289
aI845
aI602
aI189
asS'11-34'
p1135
(lp1136
S'grynaeus_1533_v1_1_0227.png'
p1137
aI1000
aI1485
aI298
aI1033
aI597
aI90
asS'11-39'
p1138
(lp1139
S'grynaeus_1533_v1_1_0232.png'
p1140
aI1000
aI1485
aI64
aI932
aI335
aI146
asS'11-38'
p1141
(lp1142
S'grynaeus_1533_v1_1_0232.png'
p1143
aI1000
aI1485
aI61
aI349
aI598
aI123
asS'4-1'
p1144
(lp1145
S'grynaeus_1533_v1_1_0059.png'
p1146
aI1000
aI1485
aI252
aI912
aI606
aI114
asS'4-2'
p1147
(lp1148
S'grynaeus_1533_v1_1_0060.png'
p1149
aI1000
aI1485
aI99
aI250
aI612
aI64
asS'7-8'
p1150
(lp1151
S'grynaeus_1533_v1_1_0104.png'
p1152
aI1000
aI1485
aI115
aI904
aI530
aI81
asS'4-4'
p1153
(lp1154
S'grynaeus_1533_v1_1_0060.png'
p1155
aI1000
aI1485
aI104
aI991
aI364
aI55
asS'4-5'
p1156
(lp1157
S'grynaeus_1533_v1_1_0061.png'
p1158
aI1000
aI1485
aI266
aI382
aI394
aI64
asS'4-6'
p1159
(lp1160
S'grynaeus_1533_v1_1_0061.png'
p1161
aI1000
aI1485
aI258
aI1053
aI439
aI55
asS'4-7'
p1162
(lp1163
S'grynaeus_1533_v1_1_0062.png'
p1164
aI1000
aI1485
aI94
aI351
aI456
aI64
asS'7-3'
p1165
(lp1166
S'grynaeus_1533_v1_1_0102.png'
p1167
aI1000
aI1485
aI111
aI874
aI609
aI63
asS'7-2'
p1168
(lp1169
S'grynaeus_1533_v1_1_0102.png'
p1170
aI1000
aI1485
aI111
aI363
aI610
aI72
asS'7-1'
p1171
(lp1172
S'grynaeus_1533_v1_1_0101.png'
p1173
aI1000
aI1485
aI266
aI977
aI614
aI112
asS'7-7'
p1174
(lp1175
S'grynaeus_1533_v1_1_0104.png'
p1176
aI1000
aI1485
aI111
aI575
aI479
aI91
asS'7-6'
p1177
(lp1178
S'grynaeus_1533_v1_1_0104.png'
p1179
aI1000
aI1485
aI118
aI238
aI473
aI99
asS'7-5'
p1180
(lp1181
S'grynaeus_1533_v1_1_0103.png'
p1182
aI1000
aI1485
aI285
aI885
aI435
aI97
asS'7-4'
p1183
(lp1184
S'grynaeus_1533_v1_1_0103.png'
p1185
aI1000
aI1485
aI275
aI574
aI619
aI92
asS'10-add1'
p1186
(lp1187
S'grynaeus_1533_v1_1_0207.png'
p1188
aI1000
aI1485
aI296
aI582
aI365
aI67
asS'10-77_2'
p1189
(lp1190
S'grynaeus_1533_v1_1_0185.png'
p1191
aI1000
aI1485
aI295
aI159
aI233
aI47
asS'10-add3'
p1192
(lp1193
S'grynaeus_1533_v1_1_0208.png'
p1194
aI1000
aI1485
aI52
aI176
aI613
aI69
asS'10-93'
p1195
(lp1196
S'grynaeus_1533_v1_1_0193.png'
p1197
aI1000
aI1485
aI297
aI548
aI606
aI79
asS'1-39'
p1198
(lp1199
S'grynaeus_1533_v1_1_0029.png'
p1200
aI1000
aI1485
aI235
aI859
aI607
aI71
asS'1-38'
p1201
(lp1202
S'grynaeus_1533_v1_1_0029.png'
p1203
aI1000
aI1485
aI227
aI532
aI619
aI68
asS'1-37'
p1204
(lp1205
S'grynaeus_1533_v1_1_0029.png'
p1206
aI1000
aI1485
aI226
aI221
aI613
aI62
asS'1-36'
p1207
(lp1208
S'grynaeus_1533_v1_1_0028.png'
p1209
aI1000
aI1485
aI115
aI915
aI610
aI76
asS'1-35'
p1210
(lp1211
S'grynaeus_1533_v1_1_0028.png'
p1212
aI1000
aI1485
aI109
aI613
aI622
aI68
asS'1-34'
p1213
(lp1214
S'grynaeus_1533_v1_1_0028.png'
p1215
aI1000
aI1485
aI108
aI180
aI610
aI69
asS'1-33'
p1216
(lp1217
S'grynaeus_1533_v1_1_0027.png'
p1218
aI1000
aI1485
aI241
aI797
aI606
aI74
asS'1-32'
p1219
(lp1220
S'grynaeus_1533_v1_1_0027.png'
p1221
aI1000
aI1485
aI239
aI407
aI608
aI89
asS'1-31'
p1222
(lp1223
S'grynaeus_1533_v1_1_0027.png'
p1224
aI1000
aI1485
aI243
aI179
aI495
aI60
asS'1-30'
p1225
(lp1226
S'grynaeus_1533_v1_1_0026.png'
p1227
aI1000
aI1485
aI106
aI971
aI557
aI64
asS'1-9'
p1228
(lp1229
S'grynaeus_1533_v1_1_0019.png'
p1230
aI1000
aI1485
aI235
aI612
aI431
aI70
asS'1-8'
p1231
(lp1232
S'grynaeus_1533_v1_1_0018.png'
p1233
aI1000
aI1485
aI134
aI1111
aI608
aI88
asS'10-29'
p1234
(lp1235
S'grynaeus_1533_v1_1_0159.png'
p1236
aI1000
aI1485
aI276
aI980
aI607
aI69
asS'10-28'
p1237
(lp1238
S'grynaeus_1533_v1_1_0158.png'
p1239
aI1000
aI1485
aI55
aI548
aI556
aI72
asS'10-27'
p1240
(lp1241
S'grynaeus_1533_v1_1_0158.png'
p1242
aI1000
aI1485
aI55
aI240
aI568
aI74
asS'10-26'
p1243
(lp1244
S'grynaeus_1533_v1_1_0157.png'
p1245
aI1000
aI1485
aI285
aI484
aI340
aI71
asS'1-3'
p1246
(lp1247
S'grynaeus_1533_v1_1_0016.png'
p1248
aI1000
aI1485
aI129
aI1021
aI397
aI67
asS'1-2'
p1249
(lp1250
S'grynaeus_1533_v1_1_0016.png'
p1251
aI1000
aI1485
aI129
aI736
aI361
aI57
asS'1-5'
p1252
(lp1253
S'grynaeus_1533_v1_1_0017.png'
p1254
aI1000
aI1485
aI220
aI804
aI388
aI115
asS'10-22'
p1255
(lp1256
S'grynaeus_1533_v1_1_0155.png'
p1257
aI1000
aI1485
aI285
aI577
aI606
aI73
asS'10-21'
p1258
(lp1259
S'grynaeus_1533_v1_1_0154.png'
p1260
aI1000
aI1485
aI65
aI1047
aI612
aI98
asS'10-20'
p1261
(lp1262
S'grynaeus_1533_v1_1_0154.png'
p1263
aI1000
aI1485
aI55
aI575
aI605
aI82
asS'6-32'
p1264
(lp1265
S'grynaeus_1533_v1_1_0099.png'
p1266
aI1000
aI1485
aI287
aI196
aI615
aI99
asS'3-7_2'
p1267
(lp1268
S'grynaeus_1533_v1_1_0045.png'
p1269
aI1000
aI1485
aI252
aI140
aI609
aI121
asS'6-30'
p1270
(lp1271
S'grynaeus_1533_v1_1_0098.png'
p1272
aI1000
aI1485
aI97
aI159
aI602
aI57
asS'6-31'
p1273
(lp1274
S'grynaeus_1533_v1_1_0098.png'
p1275
aI1000
aI1485
aI110
aI525
aI606
aI91
asS'10-112_2'
p1276
(lp1277
S'grynaeus_1533_v1_1_0205.png'
p1278
aI1000
aI1485
aI295
aI162
aI604
aI70
asS'10-13_v'
p1279
(lp1280
S'grynaeus_1533_v1_1_0150.png'
p1281
aI1000
aI1485
aI64
aI695
aI363
aI100
asS'9-36'
p1282
(lp1283
S'grynaeus_1533_v1_1_0141.png'
p1284
aI1000
aI1485
aI271
aI1054
aI607
aI106
asS'9-35'
p1285
(lp1286
S'grynaeus_1533_v1_1_0141.png'
p1287
aI1000
aI1485
aI279
aI642
aI606
aI108
asS'9-34'
p1288
(lp1289
S'grynaeus_1533_v1_1_0141.png'
p1290
aI1000
aI1485
aI284
aI383
aI600
aI98
asS'9-33'
p1291
(lp1292
S'grynaeus_1533_v1_1_0141.png'
p1293
aI1000
aI1485
aI289
aI217
aI542
aI73
asS'9-32'
p1294
(lp1295
S'grynaeus_1533_v1_1_0140.png'
p1296
aI1000
aI1485
aI73
aI990
aI420
aI75
asS'9-31'
p1297
(lp1298
S'grynaeus_1533_v1_1_0140.png'
p1299
aI1000
aI1485
aI64
aI754
aI470
aI77
asS'9-30'
p1300
(lp1301
S'grynaeus_1533_v1_1_0140.png'
p1302
aI1000
aI1485
aI64
aI541
aI485
aI80
asS'14-3'
p1303
(lp1304
S'grynaeus_1533_v1_1_0272.png'
p1305
aI1000
aI1485
aI60
aI423
aI596
aI101
asS'7-28'
p1306
(lp1307
S'grynaeus_1533_v1_1_0111.png'
p1308
aI1000
aI1485
aI281
aI1058
aI611
aI110
asS'7-29'
p1309
(lp1310
S'grynaeus_1533_v1_1_0112.png'
p1311
aI1000
aI1485
aI94
aI450
aI597
aI71
asS'7-22'
p1312
(lp1313
S'grynaeus_1533_v1_1_0110.png'
p1314
aI1000
aI1485
aI83
aI230
aI605
aI61
asS'7-23'
p1315
(lp1316
S'grynaeus_1533_v1_1_0110.png'
p1317
aI1000
aI1485
aI89
aI521
aI493
aI67
asS'7-20'
p1318
(lp1319
S'grynaeus_1533_v1_1_0109.png'
p1320
aI1000
aI1485
aI299
aI160
aI618
aI101
asS'7-21'
p1321
(lp1322
S'grynaeus_1533_v1_1_0109.png'
p1323
aI1000
aI1485
aI287
aI852
aI417
aI71
asS'7-26'
p1324
(lp1325
S'grynaeus_1533_v1_1_0111.png'
p1326
aI1000
aI1485
aI300
aI383
aI609
aI75
asS'7-27'
p1327
(lp1328
S'grynaeus_1533_v1_1_0111.png'
p1329
aI1000
aI1485
aI292
aI634
aI611
aI139
asS'7-24'
p1330
(lp1331
S'grynaeus_1533_v1_1_0110.png'
p1332
aI1000
aI1485
aI91
aI725
aI462
aI67
asS'7-25'
p1333
(lp1334
S'grynaeus_1533_v1_1_0111.png'
p1335
aI1000
aI1485
aI307
aI152
aI604
aI68
asS'10-74'
p1336
(lp1337
S'grynaeus_1533_v1_1_0183.png'
p1338
aI1000
aI1485
aI280
aI1086
aI602
aI84
asS'10-75'
p1339
(lp1340
S'grynaeus_1533_v1_1_0184.png'
p1341
aI1000
aI1485
aI48
aI322
aI604
aI99
asS'10-76'
p1342
(lp1343
S'grynaeus_1533_v1_1_0184.png'
p1344
aI1000
aI1485
aI55
aI843
aI600
aI93
asS'10-77'
p1345
(lp1346
S'grynaeus_1533_v1_1_0184.png'
p1347
aI1000
aI1485
aI59
aI1072
aI607
aI100
asS'10-70'
p1348
(lp1349
S'grynaeus_1533_v1_1_0181.png'
p1350
aI1000
aI1485
aI299
aI402
aI587
aI61
asS'10-71'
p1351
(lp1352
S'grynaeus_1533_v1_1_0181.png'
p1353
aI1000
aI1485
aI289
aI1028
aI602
aI70
asS'10-72'
p1354
(lp1355
S'grynaeus_1533_v1_1_0182.png'
p1356
aI1000
aI1485
aI70
aI993
aI597
aI79
asS'10-73'
p1357
(lp1358
S'grynaeus_1533_v1_1_0183.png'
p1359
aI1000
aI1485
aI284
aI848
aI599
aI87
asS'10-78'
p1360
(lp1361
S'grynaeus_1533_v1_1_0185.png'
p1362
aI1000
aI1485
aI292
aI341
aI604
aI128
asS'10-79'
p1363
(lp1364
S'grynaeus_1533_v1_1_0185.png'
p1365
aI1000
aI1485
aI280
aI842
aI606
aI73
asS'1-14_2'
p1366
(lp1367
S'grynaeus_1533_v1_1_0021.png'
p1368
aI1000
aI1485
aI239
aI165
aI338
aI42
asS'10-89'
p1369
(lp1370
S'grynaeus_1533_v1_1_0190.png'
p1371
aI1000
aI1485
aI53
aI632
aI313
aI77
asS'10-88'
p1372
(lp1373
S'grynaeus_1533_v1_1_0190.png'
p1374
aI1000
aI1485
aI51
aI227
aI325
aI67
asS'10-81'
p1375
(lp1376
S'grynaeus_1533_v1_1_0186.png'
p1377
aI1000
aI1485
aI52
aI486
aI608
aI74
asS'10-80'
p1378
(lp1379
S'grynaeus_1533_v1_1_0186.png'
p1380
aI1000
aI1485
aI52
aI156
aI603
aI69
asS'10-83'
p1381
(lp1382
S'grynaeus_1533_v1_1_0187.png'
p1383
aI1000
aI1485
aI281
aI482
aI609
aI99
asS'10-82'
p1384
(lp1385
S'grynaeus_1533_v1_1_0187.png'
p1386
aI1000
aI1485
aI287
aI169
aI608
aI94
asS'10-85'
p1387
(lp1388
S'grynaeus_1533_v1_1_0188.png'
p1389
aI1000
aI1485
aI46
aI734
aI290
aI75
asS'10-84'
p1390
(lp1391
S'grynaeus_1533_v1_1_0187.png'
p1392
aI1000
aI1485
aI277
aI837
aI609
aI127
asS'10-87'
p1393
(lp1394
S'grynaeus_1533_v1_1_0189.png'
p1395
aI1000
aI1485
aI297
aI560
aI308
aI64
asS'10-86'
p1396
(lp1397
S'grynaeus_1533_v1_1_0189.png'
p1398
aI1000
aI1485
aI294
aI169
aI318
aI72
asS'3-28'
p1399
(lp1400
S'grynaeus_1533_v1_1_0054.png'
p1401
aI1000
aI1485
aI95
aI281
aI598
aI73
asS'3-29'
p1402
(lp1403
S'grynaeus_1533_v1_1_0054.png'
p1404
aI1000
aI1485
aI98
aI596
aI601
aI68
asS'3-26'
p1405
(lp1406
S'grynaeus_1533_v1_1_0053.png'
p1407
aI1000
aI1485
aI249
aI498
aI611
aI68
asS'3-27'
p1408
(lp1409
S'grynaeus_1533_v1_1_0053.png'
p1410
aI1000
aI1485
aI238
aI869
aI613
aI87
asS'3-24'
p1411
(lp1412
S'grynaeus_1533_v1_1_0052.png'
p1413
aI1000
aI1485
aI110
aI684
aI564
aI67
asS'3-25'
p1414
(lp1415
S'grynaeus_1533_v1_1_0052.png'
p1416
aI1000
aI1485
aI109
aI969
aI600
aI75
asS'3-22'
p1417
(lp1418
S'grynaeus_1533_v1_1_0052.png'
p1419
aI1000
aI1485
aI96
aI185
aI613
aI72
asS'3-23'
p1420
(lp1421
S'grynaeus_1533_v1_1_0052.png'
p1422
aI1000
aI1485
aI110
aI481
aI451
aI61
asS'3-20'
p1423
(lp1424
S'grynaeus_1533_v1_1_0051.png'
p1425
aI1000
aI1485
aI259
aI556
aI604
aI91
asS'3-21'
p1426
(lp1427
S'grynaeus_1533_v1_1_0051.png'
p1428
aI1000
aI1485
aI252
aI903
aI561
aI74
asS'11-28'
p1429
(lp1430
S'grynaeus_1533_v1_1_0224.png'
p1431
aI1000
aI1485
aI48
aI374
aI381
aI121
asS'11-29'
p1432
(lp1433
S'grynaeus_1533_v1_1_0224.png'
p1434
aI1000
aI1485
aI50
aI712
aI419
aI97
asS'11-24'
p1435
(lp1436
S'grynaeus_1533_v1_1_0222.png'
p1437
aI1000
aI1485
aI55
aI218
aI600
aI72
asS'11-25'
p1438
(lp1439
S'grynaeus_1533_v1_1_0222.png'
p1440
aI1000
aI1485
aI59
aI651
aI599
aI93
asS'11-26'
p1441
(lp1442
S'grynaeus_1533_v1_1_0223.png'
p1443
aI1000
aI1485
aI289
aI293
aI602
aI70
asS'11-27'
p1444
(lp1445
S'grynaeus_1533_v1_1_0223.png'
p1446
aI1000
aI1485
aI292
aI987
aI594
aI69
asS'11-20'
p1447
(lp1448
S'grynaeus_1533_v1_1_0217.png'
p1449
aI1000
aI1485
aI301
aI919
aI594
aI68
asS'11-21'
p1450
(lp1451
S'grynaeus_1533_v1_1_0218.png'
p1452
aI1000
aI1485
aI65
aI316
aI591
aI68
asS'11-22'
p1453
(lp1454
S'grynaeus_1533_v1_1_0218.png'
p1455
aI1000
aI1485
aI65
aI707
aI602
aI90
asS'11-23'
p1456
(lp1457
S'grynaeus_1533_v1_1_0219.png'
p1458
aI1000
aI1485
aI287
aI715
aI604
aI92
asS'3-9'
p1459
(lp1460
S'grynaeus_1533_v1_1_0046.png'
p1461
aI1000
aI1485
aI95
aI885
aI608
aI93
asS'3-8'
p1462
(lp1463
S'grynaeus_1533_v1_1_0045.png'
p1464
aI1000
aI1485
aI241
aI822
aI609
aI236
asS'3-7'
p1465
(lp1466
S'grynaeus_1533_v1_1_0044.png'
p1467
aI1000
aI1485
aI115
aI1088
aI400
aI75
asS'3-6'
p1468
(lp1469
S'grynaeus_1533_v1_1_0044.png'
p1470
aI1000
aI1485
aI103
aI839
aI417
aI74
asS'3-5'
p1471
(lp1472
S'grynaeus_1533_v1_1_0044.png'
p1473
aI1000
aI1485
aI91
aI630
aI611
aI79
asS'3-4'
p1474
(lp1475
S'grynaeus_1533_v1_1_0044.png'
p1476
aI1000
aI1485
aI87
aI319
aI605
aI81
asS'3-3'
p1477
(lp1478
S'grynaeus_1533_v1_1_0043.png'
p1479
aI1000
aI1485
aI251
aI853
aI605
aI91
asS'3-2'
p1480
(lp1481
S'grynaeus_1533_v1_1_0043.png'
p1482
aI1000
aI1485
aI245
aI501
aI602
aI88
asS'3-1'
p1483
(lp1484
S'grynaeus_1533_v1_1_0043.png'
p1485
aI1000
aI1485
aI235
aI149
aI439
aI116
as.