(lp0
I49
aI32
aI35
aI25
aI16
aI17
aI19
aI19
aI37
aI35
aI27
aI37
aI33
aI35
aI50
aI47
aI29
aI30
aI24
aI27
aI34
aI31
aI29
aI25
aI33
aI33
aI32
aI24
aI28
aI25
aI35
aI27
aI24
aI17
aI29
aI28
aI29
aI29
aI27
aI29
aI22
aI29
aI25
aI37
aI33
aI41
aI31
aI25
aI36
aI44
aI38
aI34
aI31
aI32
aI37
aI38
aI31
aI40
aI31
aI28
aI33
aI81
aI30
aI92
aI30
aI22
aI44
aI13
aI17
aI30
aI25
aI11
aI13
aI21
aI21
aI17
aI17
aI30
aI33
aI1
aI31
aI31
aI27
aI70
aI18
aI15
aI12
aI13
aI14
aI27
aI23
aI32
aI33
aI25
aI21
aI24
aI25
aI28
aI29
aI43
aI48
aI60
aI56
aI35
aI39
aI43
aI29
aI31
aI39
aI27
aI22
aI28
aI18
aI43
aI23
aI21
aI25
aI21
aI27
aI32
aI25
aI29
aI22
aI35
aI27
aI35
aI29
aI27
aI29
aI21
aI29
aI4
aI8
aI31
aI25
aI35
aI29
aI29
aI25
aI41
aI33
aI31
aI39
aI25
aI20
aI17
aI21
aI23
aI45
aI26
aI43
aI28
aI23
aI23
aI25
aI29
aI37
aI24
aI23
aI28
aI28
aI39
aI27
aI23
aI24
aI19
aI25
aI23
aI25
aI29
aI23
aI22
aI19
aI24
aI24
aI23
aI25
aI22
aI21
aI45
aI25
aI23
aI35
aI26
aI27
aI23
aI21
aI33
aI29
aI28
aI21
aI21
aI23
aI24
aI30
aI23
aI29
aI29
aI17
aI23
aI25
aI24
aI24
aI17
aI21
aI23
aI22
aI28
aI26
aI42
aI27
aI21
aI22
aI20
aI21
aI21
aI37
aI23
aI31
aI25
aI25
aI23
aI23
aI25
aI23
aI19
aI25
aI25
aI29
aI37
aI33
aI28
aI33
aI29
aI27
aI31
aI29
aI31
aI30
aI26
aI27
aI29
aI30
aI36
aI34
aI18
aI15
aI27
aI45
aI31
aI31
aI35
aI26
aI23
aI25
aI23
aI34
aI14
aI20
aI33
aI43
aI14
aI15
aI33
aI21
aI25
aI47
aI14
aI13
aI13
aI16
aI21
aI21
aI22
aI41
aI15
aI14
aI43
aI58
aI19
aI19
aI15
aI35
aI38
aI38
aI21
aI12
aI18
aI25
aI34
aI41
aI30
aI39
aI32
aI38
aI27
aI21
aI26
aI12
aI13
aI12
aI27
aI4
a.