(dp0
S'elementa00rondgoog_0368'
p1
cnumpy.core.multiarray
scalar
p2
(cnumpy
dtype
p3
(S'f8'
p4
I0
I1
tp5
Rp6
(I3
S'<'
p7
NNNI-1
I-1
I0
tp8
bS'\x91\x8f\x14\x95\x98\xab$?'
p9
tp10
Rp11
sS'elementa00rondgoog_0259'
p12
g2
(g6
S'\x8a\x04@\x1a\xc7v@?'
p13
tp14
Rp15
sS'elementa00rondgoog_0258'
p16
g2
(g6
S"\x899\xdd'2P<?"
p17
tp18
Rp19
sS'elementa00rondgoog_0257'
p20
g2
(g6
S'#\x0c\x04R\x1e\xa5\x15?'
p21
tp22
Rp23
sS'elementa00rondgoog_0256'
p24
g2
(g6
S'\x96\x8b\xa1]\xd7\x95>?'
p25
tp26
Rp27
sS'elementa00rondgoog_0255'
p28
g2
(g6
S'\x01\x0f<\x07\xe0\x1f@?'
p29
tp30
Rp31
sS'elementa00rondgoog_0254'
p32
g2
(g6
S'.|Tc\xa01=?'
p33
tp34
Rp35
sS'elementa00rondgoog_0253'
p36
g2
(g6
S'\xb7N\x89H\x18\xf1<?'
p37
tp38
Rp39
sS'elementa00rondgoog_0252'
p40
g2
(g6
S'\xaaU\x156;^A?'
p41
tp42
Rp43
sS'elementa00rondgoog_0251'
p44
g2
(g6
S'\xbc\xfeg\xd1]o4?'
p45
tp46
Rp47
sS'elementa00rondgoog_0250'
p48
g2
(g6
S'\xa8J8\x99\xffLB?'
p49
tp50
Rp51
sS'elementa00rondgoog_0228'
p52
g2
(g6
S'\x1d\xc9~\xac\xa1\xcdB?'
p53
tp54
Rp55
sS'elementa00rondgoog_0229'
p56
g2
(g6
S'if\xd8\xd6k\xe1B?'
p57
tp58
Rp59
sS'elementa00rondgoog_0222'
p60
g2
(g6
S'\x8c\xa8]\x1e\xe3\xa1>?'
p61
tp62
Rp63
sS'elementa00rondgoog_0223'
p64
g2
(g6
S'\xef\xbe\xaf(\xf7=!?'
p65
tp66
Rp67
sS'elementa00rondgoog_0220'
p68
g2
(g6
S'4\x82g\xd0\x03\xbd=?'
p69
tp70
Rp71
sS'elementa00rondgoog_0221'
p72
g2
(g6
S'\xc9\xd4\x96\x1cZ\xeeA?'
p73
tp74
Rp75
sS'elementa00rondgoog_0226'
p76
g2
(g6
S'4(J\x1b\xb3\x1dA?'
p77
tp78
Rp79
sS'elementa00rondgoog_0227'
p80
g2
(g6
S'\xa9\x0e\x1dY\xfdp8?'
p81
tp82
Rp83
sS'elementa00rondgoog_0224'
p84
g2
(g6
S'\x9b\xbf\xea\xfbsMA?'
p85
tp86
Rp87
sS'elementa00rondgoog_0225'
p88
g2
(g6
S'\x95W[H\x83,;?'
p89
tp90
Rp91
sS'elementa00rondgoog_0312'
p92
g2
(g6
S'+\xc75\x11\x11\xb19?'
p93
tp94
Rp95
sS'elementa00rondgoog_0419'
p96
g2
(g6
S'U\xb3\xff\x96$/9?'
p97
tp98
Rp99
sS'elementa00rondgoog_0418'
p100
g2
(g6
S'\xa2\xf1nS}\xcf>?'
p101
tp102
Rp103
sS'elementa00rondgoog_0411'
p104
g2
(g6
S"'\xeb\xe5\x9d%<5?"
p105
tp106
Rp107
sS'elementa00rondgoog_0410'
p108
g2
(g6
S'=\xad\xfa\xe4L\x0e??'
p109
tp110
Rp111
sS'elementa00rondgoog_0413'
p112
g2
(g6
S'\x8a\xc2\x8a\x8f\x1b\xda2?'
p113
tp114
Rp115
sS'elementa00rondgoog_0412'
p116
g2
(g6
S'KLQB\xd9\x01>?'
p117
tp118
Rp119
sS'elementa00rondgoog_0415'
p120
g2
(g6
S'\xf3\xba<\xf15(;?'
p121
tp122
Rp123
sS'elementa00rondgoog_0211'
p124
g2
(g6
S')z\xa3\xe9)\x03=?'
p125
tp126
Rp127
sS'elementa00rondgoog_0417'
p128
g2
(g6
S'\xcb\xe2{+#\x9e9?'
p129
tp130
Rp131
sS'elementa00rondgoog_0416'
p132
g2
(g6
S'h\x1f\xe0\xf9-\xf49?'
p133
tp134
Rp135
sS'elementa00rondgoog_0359'
p136
g2
(g6
S'\xca\x95\xe9\x03<\xf0<?'
p137
tp138
Rp139
sS'elementa00rondgoog_0316'
p140
g2
(g6
S'\xc1"\x07\x1a\x9eA:?'
p141
tp142
Rp143
sS'elementa00rondgoog_0317'
p144
g2
(g6
S'\\\x12\xd9\xc0\xc1\xe9=?'
p145
tp146
Rp147
sS'elementa00rondgoog_0314'
p148
g2
(g6
S'\xda\x8fA\xfe\x06\xc5B?'
p149
tp150
Rp151
sS'elementa00rondgoog_0315'
p152
g2
(g6
S'\xee2p\xe8\xf1\x91??'
p153
tp154
Rp155
sS'elementa00rondgoog_0099'
p156
g2
(g6
S"'\xe5KS|{A?"
p157
tp158
Rp159
sS'elementa00rondgoog_0098'
p160
g2
(g6
S'x(t\xfb\xd8\xe8??'
p161
tp162
Rp163
sS'elementa00rondgoog_0310'
p164
g2
(g6
S'2\x9c\x94A<\xf5A?'
p165
tp166
Rp167
sS'elementa00rondgoog_0311'
p168
g2
(g6
S'\xddn#J\x0e\\B?'
p169
tp170
Rp171
sS'elementa00rondgoog_0095'
p172
g2
(g6
S'\xc9\x8cGG\x05\x91@?'
p173
tp174
Rp175
sS'elementa00rondgoog_0094'
p176
g2
(g6
S'\\b\xfd\xc0\xc4\xb95?'
p177
tp178
Rp179
sS'elementa00rondgoog_0097'
p180
g2
(g6
S"\x96K'\xb30\xabC?"
p181
tp182
Rp183
sS'elementa00rondgoog_0096'
p184
g2
(g6
S'kU\xd7\x88\xf8\x8b=?'
p185
tp186
Rp187
sS'elementa00rondgoog_0091'
p188
g2
(g6
S'A\x8c\xdc0T\xa5>?'
p189
tp190
Rp191
sS'elementa00rondgoog_0090'
p192
g2
(g6
S'QRd\xaf<\x8d>?'
p193
tp194
Rp195
sS'elementa00rondgoog_0093'
p196
g2
(g6
S'+z\xa3\xe9)\x03=?'
p197
tp198
Rp199
sS'elementa00rondgoog_0092'
p200
g2
(g6
S'&\xe5KS|{A?'
p201
tp202
Rp203
sS'elementa00rondgoog_0219'
p204
g2
(g6
S'\xeb\xd7\xf8\xb1A4+?'
p205
tp206
Rp207
sS'elementa00rondgoog_0077'
p208
g2
(g6
S'\x1c\xfe\x1b\xba\x0c\xa7>?'
p209
tp210
Rp211
sS'elementa00rondgoog_0076'
p212
g2
(g6
S'\x0b\xad8\xe3\x0cU7?'
p213
tp214
Rp215
sS'elementa00rondgoog_0075'
p216
g2
(g6
S'\xa0{\xfd\x19\x0cM@?'
p217
tp218
Rp219
sS'elementa00rondgoog_0074'
p220
g2
(g6
S'\xc3}\x08\xb7\xdc"A?'
p221
tp222
Rp223
sS'elementa00rondgoog_0073'
p224
g2
(g6
S'\x9bo\xc6\xfbp}9?'
p225
tp226
Rp227
sS'elementa00rondgoog_0072'
p228
g2
(g6
S'\xe99u\xf8\xce\xc9@?'
p229
tp230
Rp231
sS'elementa00rondgoog_0071'
p232
g2
(g6
S'\x99E\x03\x02\xf9f=?'
p233
tp234
Rp235
sS'elementa00rondgoog_0070'
p236
g2
(g6
S'\x823\xca\xba\xce\xc4;?'
p237
tp238
Rp239
sS'elementa00rondgoog_0176'
p240
g2
(g6
S'\xccf\xe6@z\xd74?'
p241
tp242
Rp243
sS'elementa00rondgoog_0177'
p244
g2
(g6
S'\xda\xdd*\x1e\x05\xe37?'
p245
tp246
Rp247
sS'elementa00rondgoog_0174'
p248
g2
(g6
S'\xec;&rE\xf8@?'
p249
tp250
Rp251
sS'elementa00rondgoog_0175'
p252
g2
(g6
S'\x98\xc4*\xc5\xbdO=?'
p253
tp254
Rp255
sS'elementa00rondgoog_0172'
p256
g2
(g6
S'\x07\xf6h\x17\x07\xa63?'
p257
tp258
Rp259
sS'elementa00rondgoog_0173'
p260
g2
(g6
S'\x81o\xe5\xfa\xd0\xa05?'
p261
tp262
Rp263
sS'elementa00rondgoog_0079'
p264
g2
(g6
S'}\x93\x95\x87\xe5+A?'
p265
tp266
Rp267
sS'elementa00rondgoog_0078'
p268
g2
(g6
S'l\xfb/m\x19i>?'
p269
tp270
Rp271
sS'elementa00rondgoog_0067'
p272
g2
(g6
S'\xee2p\xe8\xf1\x91??'
p273
tp274
Rp275
sS'elementa00rondgoog_0068'
p276
g2
(g6
S'\x1a\xf5y\xfd\xd5GB?'
p277
tp278
Rp279
sS'elementa00rondgoog_0069'
p280
g2
(g6
S'p\xff\x1b\xc7\x94IA?'
p281
tp282
Rp283
sS'elementa00rondgoog_0288'
p284
g2
(g6
S'd\xf3k\x86?\xaf=?'
p285
tp286
Rp287
sS'elementa00rondgoog_0289'
p288
g2
(g6
S'g=l\xd5\n;??'
p289
tp290
Rp291
sS'elementa00rondgoog_0280'
p292
g2
(g6
S'\xee!\xf9\x00\r\xc0<?'
p293
tp294
Rp295
sS'elementa00rondgoog_0281'
p296
g2
(g6
S'4\xde\xbfeY\x0e=?'
p297
tp298
Rp299
sS'elementa00rondgoog_0282'
p300
g2
(g6
S'\x92\xc0\xc8\xd1\xd0\xf2<?'
p301
tp302
Rp303
sS'elementa00rondgoog_0283'
p304
g2
(g6
S'9\xf9\xbc\xf1b\x816?'
p305
tp306
Rp307
sS'elementa00rondgoog_0284'
p308
g2
(g6
S'\xcb\xa9\xf2\xc3<\xe4:?'
p309
tp310
Rp311
sS'elementa00rondgoog_0285'
p312
g2
(g6
S'\x0c\xde\xec\x1fE\x9c??'
p313
tp314
Rp315
sS'elementa00rondgoog_0286'
p316
g2
(g6
S"'\x13\xf8\x1d'$A?"
p317
tp318
Rp319
sS'elementa00rondgoog_0287'
p320
g2
(g6
S'\xf7N\xc7\xf5Z\xc3@?'
p321
tp322
Rp323
sS'elementa00rondgoog_0329'
p324
g2
(g6
S'\x8et\x17\t\x8f8;?'
p325
tp326
Rp327
sS'elementa00rondgoog_0328'
p328
g2
(g6
S'\xce\xe4,\xa5\x99\xcc9?'
p329
tp330
Rp331
sS'elementa00rondgoog_0327'
p332
g2
(g6
S'\xf8\xe1m\x12\x92\x1c<?'
p333
tp334
Rp335
sS'elementa00rondgoog_0326'
p336
g2
(g6
S'"\x0f\x96*:\xc7@?'
p337
tp338
Rp339
sS'elementa00rondgoog_0325'
p340
g2
(g6
S'\xc5\xf5\xb4\xd0RWB?'
p341
tp342
Rp343
sS'elementa00rondgoog_0324'
p344
g2
(g6
S'`\x14\x8a:8\x18>?'
p345
tp346
Rp347
sS'elementa00rondgoog_0323'
p348
g2
(g6
S'\x16\x9ea1\xca\xf8>?'
p349
tp350
Rp351
sS'elementa00rondgoog_0322'
p352
g2
(g6
S'{\x1e\xf1\xdf\xfc\x958?'
p353
tp354
Rp355
sS'elementa00rondgoog_0321'
p356
g2
(g6
S'\xd9\xf4\xc5\xb6!\xf9@?'
p357
tp358
Rp359
sS'elementa00rondgoog_0320'
p360
g2
(g6
S'?B\xdc\xe1\x88\x19=?'
p361
tp362
Rp363
sS'elementa00rondgoog_0213'
p364
g2
(g6
S'\xb5\xf2\xba\x19Q#@?'
p365
tp366
Rp367
sS'elementa00rondgoog_0212'
p368
g2
(g6
S'\xf9~$:|\x9a@?'
p369
tp370
Rp371
sS'elementa00rondgoog_0358'
p372
g2
(g6
S'\xce\x04j\xfa\xecA??'
p373
tp374
Rp375
sS'elementa00rondgoog_0210'
p376
g2
(g6
S'\xae\xd6c\x0c\xe8\xf1>?'
p377
tp378
Rp379
sS'elementa00rondgoog_0217'
p380
g2
(g6
S'\xd4\n\x07\xce\xdePB?'
p381
tp382
Rp383
sS'elementa00rondgoog_0216'
p384
g2
(g6
S'\xe3\xbd\xdc\x84\xdd\xb4<?'
p385
tp386
Rp387
sS'elementa00rondgoog_0215'
p388
g2
(g6
S'\xa0\x0b\x9c\xc4\xb5\x07C?'
p389
tp390
Rp391
sS'elementa00rondgoog_0214'
p392
g2
(g6
S'\n:\xcf\x1b)qA?'
p393
tp394
Rp395
sS'elementa00rondgoog_0352'
p396
g2
(g6
S'\xcd\x97\x9a}\xb2\x1e=?'
p397
tp398
Rp399
sS'elementa00rondgoog_0353'
p400
g2
(g6
S'3\xa56\xferT>?'
p401
tp402
Rp403
sS'elementa00rondgoog_0350'
p404
g2
(g6
S'5gm\xcdB\x983?'
p405
tp406
Rp407
sS'elementa00rondgoog_0351'
p408
g2
(g6
S'z\x9a\x86\xca\xa5\\=?'
p409
tp410
Rp411
sS'elementa00rondgoog_0356'
p412
g2
(g6
S'\xb0\xdaOfc\xd2A?'
p413
tp414
Rp415
sS'elementa00rondgoog_0357'
p416
g2
(g6
S'4\xb9?\xbesH<?'
p417
tp418
Rp419
sS'elementa00rondgoog_0354'
p420
g2
(g6
S'\x05\x14\xf5\xf2\xe3\xec8?'
p421
tp422
Rp423
sS'elementa00rondgoog_0355'
p424
g2
(g6
S'\\Z(\x96\x16G??'
p425
tp426
Rp427
sS'elementa00rondgoog_0039'
p428
g2
(g6
S'JC\xaf\x85\xa2\xa2A?'
p429
tp430
Rp431
sS'elementa00rondgoog_0038'
p432
g2
(g6
S'\xe5\x18\xde!\x1c\x96C?'
p433
tp434
Rp435
sS'elementa00rondgoog_0033'
p436
g2
(g6
S'\nq\x1d\xa3\ny=?'
p437
tp438
Rp439
sS'elementa00rondgoog_0032'
p440
g2
(g6
S'\x8c\xd3\x01w\x00\xac5?'
p441
tp442
Rp443
sS'elementa00rondgoog_0031'
p444
g2
(g6
S'\xbc\xa2\x0f<\x08\x1e5?'
p445
tp446
Rp447
sS'elementa00rondgoog_0030'
p448
g2
(g6
S'\xc0\x81\xf1\x87\x0f\xb54?'
p449
tp450
Rp451
sS'elementa00rondgoog_0037'
p452
g2
(g6
S',\x8dU\xb1\x13\x87B?'
p453
tp454
Rp455
sS'elementa00rondgoog_0036'
p456
g2
(g6
S'\x0442H7b>?'
p457
tp458
Rp459
sS'elementa00rondgoog_0035'
p460
g2
(g6
S'Q]\xcb\xb2\x06"@?'
p461
tp462
Rp463
sS'elementa00rondgoog_0034'
p464
g2
(g6
S'\xb9uD\xd0\x02i@?'
p465
tp466
Rp467
sS'elementa00rondgoog_0132'
p468
g2
(g6
S'\xad\xd6c\x0c\xe8\xf1>?'
p469
tp470
Rp471
sS'elementa00rondgoog_0133'
p472
g2
(g6
S'\xab\x10\xce\xd2s\x9f8?'
p473
tp474
Rp475
sS'elementa00rondgoog_0130'
p476
g2
(g6
S'g{8\x8f\x83E9?'
p477
tp478
Rp479
sS'elementa00rondgoog_0131'
p480
g2
(g6
S'\xc4\x07\r\x17\xdd\x1c@?'
p481
tp482
Rp483
sS'elementa00rondgoog_0136'
p484
g2
(g6
S'\xff_\xb7\xff\xf9_ ?'
p485
tp486
Rp487
sS'elementa00rondgoog_0137'
p488
g2
(g6
S'\x13\xfaC-\xae\xcd@?'
p489
tp490
Rp491
sS'elementa00rondgoog_0134'
p492
g2
(g6
S'\xfe\xde\xde\xc2\xbeH@?'
p493
tp494
Rp495
sS'elementa00rondgoog_0135'
p496
g2
(g6
S'\xae\xc4\x95,\xec\xafC?'
p497
tp498
Rp499
sS'elementa00rondgoog_0138'
p500
g2
(g6
S'<\x88z=gH>?'
p501
tp502
Rp503
sS'elementa00rondgoog_0139'
p504
g2
(g6
S'J\x9f\x07\x1b\xf8\xf3@?'
p505
tp506
Rp507
sS'elementa00rondgoog_0147'
p508
g2
(g6
S'\xc6\xf5\xb4\xd0RWB?'
p509
tp510
Rp511
sS'elementa00rondgoog_0146'
p512
g2
(g6
S'\xef=\xd7\xeb\xbb&A?'
p513
tp514
Rp515
sS'elementa00rondgoog_0145'
p516
g2
(g6
S"#\x04/'p2??"
p517
tp518
Rp519
sS'elementa00rondgoog_0144'
p520
g2
(g6
S'\x12\na\x933\xe1;?'
p521
tp522
Rp523
sS'elementa00rondgoog_0143'
p524
g2
(g6
S'\xd2\x08\xcc\xed\xd9\x9e??'
p525
tp526
Rp527
sS'elementa00rondgoog_0142'
p528
g2
(g6
S'\xbba\xb1\xa9s\xf1??'
p529
tp530
Rp531
sS'elementa00rondgoog_0141'
p532
g2
(g6
S'\xb6\xf2\xba\x19Q#@?'
p533
tp534
Rp535
sS'elementa00rondgoog_0140'
p536
g2
(g6
S'4\xb9?\xbesH<?'
p537
tp538
Rp539
sS'elementa00rondgoog_0149'
p540
g2
(g6
S'\x1c\xfe\x1b\xba\x0c\xa7>?'
p541
tp542
Rp543
sS'elementa00rondgoog_0148'
p544
g2
(g6
S'\xc7\x8a\x96\xcd\x8eb@?'
p545
tp546
Rp547
sS'elementa00rondgoog_0248'
p548
g2
(g6
S'\xb5\xf2\xba\x19Q#@?'
p549
tp550
Rp551
sS'elementa00rondgoog_0249'
p552
g2
(g6
S'\xa7?[\xfc\xc3;C?'
p553
tp554
Rp555
sS'elementa00rondgoog_0244'
p556
g2
(g6
S'\xd3\xeb q\xa2KE?'
p557
tp558
Rp559
sS'elementa00rondgoog_0245'
p560
g2
(g6
S"\x92\x80N'*\x08B?"
p561
tp562
Rp563
sS'elementa00rondgoog_0246'
p564
g2
(g6
S'\xb7s\x93V\x8c:@?'
p565
tp566
Rp567
sS'elementa00rondgoog_0247'
p568
g2
(g6
S'QRd\xaf<\x8d>?'
p569
tp570
Rp571
sS'elementa00rondgoog_0240'
p572
g2
(g6
S'\xbc\xfeg\xd1]o4?'
p573
tp574
Rp575
sS'elementa00rondgoog_0241'
p576
g2
(g6
S'_g@\x13W\nA?'
p577
tp578
Rp579
sS'elementa00rondgoog_0242'
p580
g2
(g6
S'\x8f~\x9d\xad\xb3\xd9A?'
p581
tp582
Rp583
sS'elementa00rondgoog_0243'
p584
g2
(g6
S'\xfb\xae\x81~\x9dq@?'
p585
tp586
Rp587
sS'elementa00rondgoog_0406'
p588
g2
(g6
S"\x96K'\xb30\xab3?"
p589
tp590
Rp591
sS'elementa00rondgoog_0407'
p592
g2
(g6
S'o\xe05jXD4?'
p593
tp594
Rp595
sS'elementa00rondgoog_0404'
p596
g2
(g6
S'#@Jgr\x0e9?'
p597
tp598
Rp599
sS'elementa00rondgoog_0405'
p600
g2
(g6
S')\x89iW\x98\xa6??'
p601
tp602
Rp603
sS'elementa00rondgoog_0402'
p604
g2
(g6
S'p9\xfc&\x92s8?'
p605
tp606
Rp607
sS'elementa00rondgoog_0318'
p608
g2
(g6
S'o\xa4\x1a*Vh:?'
p609
tp610
Rp611
sS'elementa00rondgoog_0400'
p612
g2
(g6
S'+noT\xd7\x815?'
p613
tp614
Rp615
sS'elementa00rondgoog_0401'
p616
g2
(g6
S'H\x02Q\xf3\rv<?'
p617
tp618
Rp619
sS'elementa00rondgoog_0319'
p620
g2
(g6
S'\x8eeQ\x9b \x95(?'
p621
tp622
Rp623
sS'elementa00rondgoog_0408'
p624
g2
(g6
S'\xe1\xa9]+kDA?'
p625
tp626
Rp627
sS'elementa00rondgoog_0409'
p628
g2
(g6
S'+\x1eKT\xd4\xb1=?'
p629
tp630
Rp631
sS'elementa00rondgoog_0363'
p632
g2
(g6
S'\xc5I8;\xfa5;?'
p633
tp634
Rp635
sS'elementa00rondgoog_0362'
p636
g2
(g6
S'\xfd\x08\x9f3\xee\x10=?'
p637
tp638
Rp639
sS'elementa00rondgoog_0088'
p640
g2
(g6
S'\x05P\x103\xe6\xc8B?'
p641
tp642
Rp643
sS'elementa00rondgoog_0089'
p644
g2
(g6
S'\xc4\x07\r\x17\xdd\x1c@?'
p645
tp646
Rp647
sS'elementa00rondgoog_0367'
p648
g2
(g6
S'\x0b\xde\xec\x1fE\x9c??'
p649
tp650
Rp651
sS'elementa00rondgoog_0366'
p652
g2
(g6
S'%.\xf2 \xe8H;?'
p653
tp654
Rp655
sS'elementa00rondgoog_0365'
p656
g2
(g6
S'\xde\xbc\x0cj\x0cz7?'
p657
tp658
Rp659
sS'elementa00rondgoog_0364'
p660
g2
(g6
S'P\xcf\xda\xf8\x8aG>?'
p661
tp662
Rp663
sS'elementa00rondgoog_0082'
p664
g2
(g6
S'\xa5\x9c\n\x8a0\xfd:?'
p665
tp666
Rp667
sS'elementa00rondgoog_0083'
p668
g2
(g6
S'\x98\x05\x89WR|B?'
p669
tp670
Rp671
sS'elementa00rondgoog_0080'
p672
g2
(g6
S'\xaf\xa7`I&\xd96?'
p673
tp674
Rp675
sS'elementa00rondgoog_0081'
p676
g2
(g6
S'\xef\xec[\xf3\xa1\xe6@?'
p677
tp678
Rp679
sS'elementa00rondgoog_0086'
p680
g2
(g6
S'4(J\x1b\xb3\x1dA?'
p681
tp682
Rp683
sS'elementa00rondgoog_0087'
p684
g2
(g6
S'\x16\x9ea1\xca\xf8>?'
p685
tp686
Rp687
sS'elementa00rondgoog_0084'
p688
g2
(g6
S'b\xd6\xc0\t\x08\\C?'
p689
tp690
Rp691
sS'elementa00rondgoog_0085'
p692
g2
(g6
S'\x18\xc8$+B\x0f;?'
p693
tp694
Rp695
sS'elementa00rondgoog_0064'
p696
g2
(g6
S'\xd8P\x1eLwJ@?'
p697
tp698
Rp699
sS'elementa00rondgoog_0065'
p700
g2
(g6
S'\xe6#\xbb\xbeW\xa7B?'
p701
tp702
Rp703
sS'elementa00rondgoog_0109'
p704
g2
(g6
S'\xdccF\xad\xd2J\x13?'
p705
tp706
Rp707
sS'elementa00rondgoog_0108'
p708
g2
(g6
S'O{W\x8e\xe3h%?'
p709
tp710
Rp711
sS'elementa00rondgoog_0060'
p712
g2
(g6
S'7\x19\xfaF\xb6\xf6;?'
p713
tp714
Rp715
sS'elementa00rondgoog_0061'
p716
g2
(g6
S'v\xbe6W\xba\xe78?'
p717
tp718
Rp719
sS'elementa00rondgoog_0062'
p720
g2
(g6
S'\xbc\xf9$\x7f\xcb\x1e9?'
p721
tp722
Rp723
sS'elementa00rondgoog_0063'
p724
g2
(g6
S'M\x85\xda\xa9\xbf\xbb<?'
p725
tp726
Rp727
sS'elementa00rondgoog_0103'
p728
g2
(g6
S'\x9d\xefG@\x95$A?'
p729
tp730
Rp731
sS'elementa00rondgoog_0102'
p732
g2
(g6
S'FH\xefN\xec\xa4=?'
p733
tp734
Rp735
sS'elementa00rondgoog_0101'
p736
g2
(g6
S'r\x01\xcd@\x0bxA?'
p737
tp738
Rp739
sS'elementa00rondgoog_0100'
p740
g2
(g6
S'\xfe\xe7\x80\x7f\xf5\xa7<?'
p741
tp742
Rp743
sS'elementa00rondgoog_0107'
p744
g2
(g6
S'\xb9\xd76\xb0\x01{\x13?'
p745
tp746
Rp747
sS'elementa00rondgoog_0106'
p748
g2
(g6
S"\xfb\xf7'L\t?:?"
p749
tp750
Rp751
sS'elementa00rondgoog_0105'
p752
g2
(g6
S'\xdc\xcb\xd2\xd7z\x1d:?'
p753
tp754
Rp755
sS'elementa00rondgoog_0104'
p756
g2
(g6
S'\x8d4\x9d^\xe8M@?'
p757
tp758
Rp759
sS'elementa00rondgoog_0262'
p760
g2
(g6
S'\xdcGh\xc2#\xe4>?'
p761
tp762
Rp763
sS'elementa00rondgoog_0263'
p764
g2
(g6
S'\x87\x87P\xae\xbe\xf13?'
p765
tp766
Rp767
sS'elementa00rondgoog_0268'
p768
g2
(g6
S'o|\x08\xaaT\x80>?'
p769
tp770
Rp771
sS'elementa00rondgoog_0342'
p772
g2
(g6
S'\x1a\xc8$+B\x0f;?'
p773
tp774
Rp775
sS'elementa00rondgoog_0178'
p776
g2
(g6
S'$\xad\x19\xe4\xac1;?'
p777
tp778
Rp779
sS'elementa00rondgoog_0179'
p780
g2
(g6
S'?g\\\x89n\xdf=?'
p781
tp782
Rp783
sS'elementa00rondgoog_0170'
p784
g2
(g6
S'P\xcf\xda\xf8\x8aG>?'
p785
tp786
Rp787
sS'elementa00rondgoog_0171'
p788
g2
(g6
S'L\x85\xda\xa9\xbf\xbb<?'
p789
tp790
Rp791
sS'elementa00rondgoog_0338'
p792
g2
(g6
S'\xa8\xfa\x13\x99\xfc|:?'
p793
tp794
Rp795
sS'elementa00rondgoog_0339'
p796
g2
(g6
S'\x8f\x9e\xda\x02\x07O7?'
p797
tp798
Rp799
sS'elementa00rondgoog_0334'
p800
g2
(g6
S'+z\xa3\xe9)\x03=?'
p801
tp802
Rp803
sS'elementa00rondgoog_0335'
p804
g2
(g6
S'\xd4\xed\xd1\xea\x18z5?'
p805
tp806
Rp807
sS'elementa00rondgoog_0336'
p808
g2
(g6
S'\xb3\x16\xe1?\xd7*9?'
p809
tp810
Rp811
sS'elementa00rondgoog_0337'
p812
g2
(g6
S'\xda\xa6R0\x95W)?'
p813
tp814
Rp815
sS'elementa00rondgoog_0330'
p816
g2
(g6
S'tt6\x08\xef[7?'
p817
tp818
Rp819
sS'elementa00rondgoog_0331'
p820
g2
(g6
S'\xbb\xbd\t?\xc9B??'
p821
tp822
Rp823
sS'elementa00rondgoog_0332'
p824
g2
(g6
S'\xf4\x1ej\xb19\xec@?'
p825
tp826
Rp827
sS'elementa00rondgoog_0333'
p828
g2
(g6
S'4(J\x1b\xb3\x1dA?'
p829
tp830
Rp831
sS'elementa00rondgoog_0200'
p832
g2
(g6
S'_\\\xd9\x0f\x8du/?'
p833
tp834
Rp835
sS'elementa00rondgoog_0201'
p836
g2
(g6
S"\xcd'9(\\\xd9??"
p837
tp838
Rp839
sS'elementa00rondgoog_0202'
p840
g2
(g6
S'J\xfb_\xb0ME@?'
p841
tp842
Rp843
sS'elementa00rondgoog_0203'
p844
g2
(g6
S'\xeb\xaf\xe61@L??'
p845
tp846
Rp847
sS'elementa00rondgoog_0204'
p848
g2
(g6
S'\xa8^AY\x00A@?'
p849
tp850
Rp851
sS'elementa00rondgoog_0205'
p852
g2
(g6
S'\x8a2\xec\xe4q\x1f@?'
p853
tp854
Rp855
sS'elementa00rondgoog_0206'
p856
g2
(g6
S'\xcf\x04j\xfa\xecA??'
p857
tp858
Rp859
sS'elementa00rondgoog_0207'
p860
g2
(g6
S'\xf2\xc0`\xa2mlA?'
p861
tp862
Rp863
sS'elementa00rondgoog_0208'
p864
g2
(g6
S'\xb6\x85a6\x88|;?'
p865
tp866
Rp867
sS'elementa00rondgoog_0209'
p868
g2
(g6
S'\xd1\xb2\x97\t\xbc\x916?'
p869
tp870
Rp871
sS'elementa00rondgoog_0028'
p872
g2
(g6
S'F\xac\x1c\x0f\xf0h3?'
p873
tp874
Rp875
sS'elementa00rondgoog_0029'
p876
g2
(g6
S'!\nS\xd8\xa7v5?'
p877
tp878
Rp879
sS'elementa00rondgoog_0383'
p880
g2
(g6
S'\xed\x91ZVc\x05:?'
p881
tp882
Rp883
sS'elementa00rondgoog_0382'
p884
g2
(g6
S'Q\xa5\x1a\x88[\x7fA?'
p885
tp886
Rp887
sS'elementa00rondgoog_0385'
p888
g2
(g6
S'\x1f\xb1\x8c\x1bnGA?'
p889
tp890
Rp891
sS'elementa00rondgoog_0384'
p892
g2
(g6
S'\xcb\xdd8\xd9\x90M>?'
p893
tp894
Rp895
sS'elementa00rondgoog_0387'
p896
g2
(g6
S'\x10av\xd6\xf6\xe1??'
p897
tp898
Rp899
sS'elementa00rondgoog_0386'
p900
g2
(g6
S'\xb0\xec\x1dF_\x14=?'
p901
tp902
Rp903
sS'elementa00rondgoog_0020'
p904
g2
(g6
S'\xdbJ\xfa\x9a?\x06:?'
p905
tp906
Rp907
sS'elementa00rondgoog_0021'
p908
g2
(g6
S'JO\xe3\x1a\xf5#9?'
p909
tp910
Rp911
sS'elementa00rondgoog_0022'
p912
g2
(g6
S'\xdc\xdf\xdb\x97{\x118?'
p913
tp914
Rp915
sS'elementa00rondgoog_0023'
p916
g2
(g6
S'\x1a]\x06(~\x1a9?'
p917
tp918
Rp919
sS'elementa00rondgoog_0024'
p920
g2
(g6
S'\xf3\xdd\x0b\x1f\xa5\xbf;?'
p921
tp922
Rp923
sS'elementa00rondgoog_0025'
p924
g2
(g6
S'\x08/\xf2~\xed_2?'
p925
tp926
Rp927
sS'elementa00rondgoog_0026'
p928
g2
(g6
S'\x97\xe0\x08\xb0l\xb61?'
p929
tp930
Rp931
sS'elementa00rondgoog_0027'
p932
g2
(g6
S':\xb3\x1e\x96\x84R5?'
p933
tp934
Rp935
sS'elementa00rondgoog_0313'
p936
g2
(g6
S'\x8a\xc2\x8a\x8f\x1b\xdaB?'
p937
tp938
Rp939
sS'elementa00rondgoog_0154'
p940
g2
(g6
S'\xa6\xe4Y_\x85Z,?'
p941
tp942
Rp943
sS'elementa00rondgoog_0155'
p944
g2
(g6
S'\x11\xca\xe6\xe8\x8c\xf6@?'
p945
tp946
Rp947
sS'elementa00rondgoog_0156'
p948
g2
(g6
S'\xff\x9f1\xaa\xa0J\x1b?'
p949
tp950
Rp951
sS'elementa00rondgoog_0157'
p952
g2
(g6
S'\x8b\xb9^lV\xf7C?'
p953
tp954
Rp955
sS'elementa00rondgoog_0150'
p956
g2
(g6
S'^\x93\xb1\xfd\xfc\x00>?'
p957
tp958
Rp959
sS'elementa00rondgoog_0151'
p960
g2
(g6
S'q\xb4:\x19$\xcaD?'
p961
tp962
Rp963
sS'elementa00rondgoog_0152'
p964
g2
(g6
S'\x1e(\xdf\xb3\x84\xbd:?'
p965
tp966
Rp967
sS'elementa00rondgoog_0153'
p968
g2
(g6
S'\xa7\xb5V\x9c\xc3AD?'
p969
tp970
Rp971
sS'elementa00rondgoog_0158'
p972
g2
(g6
S'\xa7y;\\\xc1e:?'
p973
tp974
Rp975
sS'elementa00rondgoog_0159'
p976
g2
(g6
S'X\xce\xfc".\xa22?'
p977
tp978
Rp979
sS'elementa00rondgoog_0399'
p980
g2
(g6
S'\xda"\xe8\x1a>\x1e>?'
p981
tp982
Rp983
sS'elementa00rondgoog_0420'
p984
g2
(g6
S'\xc8\x938\x8a\xc5\xc1<?'
p985
tp986
Rp987
sS'elementa00rondgoog_0421'
p988
g2
(g6
S'CnPUw^9?'
p989
tp990
Rp991
sS'elementa00rondgoog_0279'
p992
g2
(g6
S'\xed\x91ZVc\x05:?'
p993
tp994
Rp995
sS'elementa00rondgoog_0278'
p996
g2
(g6
S'8\xb1m\x1c\x0e$5?'
p997
tp998
Rp999
sS'elementa00rondgoog_0271'
p1000
g2
(g6
S'\x19\x91L=\xd2\x83<?'
p1001
tp1002
Rp1003
sS'elementa00rondgoog_0270'
p1004
g2
(g6
S'\xad\xd6c\x0c\xe8\xf1>?'
p1005
tp1006
Rp1007
sS'elementa00rondgoog_0273'
p1008
g2
(g6
S'\xb6\xf2\xba\x19Q#@?'
p1009
tp1010
Rp1011
sS'elementa00rondgoog_0272'
p1012
g2
(g6
S'\x96\x8b\xa1]\xd7\x95>?'
p1013
tp1014
Rp1015
sS'elementa00rondgoog_0275'
p1016
g2
(g6
S'w\xaa-\x97\xb9\xf3:?'
p1017
tp1018
Rp1019
sS'elementa00rondgoog_0274'
p1020
g2
(g6
S'\x19L\x8f@\x99H6?'
p1021
tp1022
Rp1023
sS'elementa00rondgoog_0277'
p1024
g2
(g6
S'$\xad\x19\xe4\xac1;?'
p1025
tp1026
Rp1027
sS'elementa00rondgoog_0276'
p1028
g2
(g6
S'o%\xf3f\x91\x7f:?'
p1029
tp1030
Rp1031
sS'elementa00rondgoog_0218'
p1032
g2
(g6
S'\xadF\xc5a>7<?'
p1033
tp1034
Rp1035
sS'elementa00rondgoog_0370'
p1036
g2
(g6
S'\x81\x97\xf7z\xd2\x88A?'
p1037
tp1038
Rp1039
sS'elementa00rondgoog_0371'
p1040
g2
(g6
S"\x89> z\xc4\xa0'?"
p1041
tp1042
Rp1043
sS'elementa00rondgoog_0372'
p1044
g2
(g6
S'z}\xdbMn\t#?'
p1045
tp1046
Rp1047
sS'elementa00rondgoog_0373'
p1048
g2
(g6
S'O\xc3\xa6c8\xc66?'
p1049
tp1050
Rp1051
sS'elementa00rondgoog_0374'
p1052
g2
(g6
S'\xf7t\x9e\x95W\xf9\t?'
p1053
tp1054
Rp1055
sS'elementa00rondgoog_0375'
p1056
g2
(g6
S'\xe5>\xb5\xc1\x18\xcc\x0c?'
p1057
tp1058
Rp1059
sS'elementa00rondgoog_0376'
p1060
g2
(g6
S'\x08/\xf2~\xed_2?'
p1061
tp1062
Rp1063
sS'elementa00rondgoog_0377'
p1064
g2
(g6
S'\x9b\xbf\xea\xfbsM!?'
p1065
tp1066
Rp1067
sS'elementa00rondgoog_0378'
p1068
g2
(g6
S'\xf3\xdd\x0b\x1f\xa5\xbf\x1b?'
p1069
tp1070
Rp1071
sS'elementa00rondgoog_0379'
p1072
g2
(g6
S'\xb9\x9b\x1bp\xff\x9e9?'
p1073
tp1074
Rp1075
sS'elementa00rondgoog_0118'
p1076
g2
(g6
S'o\xfd\xe0\xe6\x8f\x97>?'
p1077
tp1078
Rp1079
sS'elementa00rondgoog_0119'
p1080
g2
(g6
S'\xa0{\xfd\x19\x0cM@?'
p1081
tp1082
Rp1083
sS'elementa00rondgoog_0053'
p1084
g2
(g6
S'\x81d\x08^\x95\x8fF?'
p1085
tp1086
Rp1087
sS'elementa00rondgoog_0052'
p1088
g2
(g6
S'\x8d:7\xa9\x91\x0eD?'
p1089
tp1090
Rp1091
sS'elementa00rondgoog_0055'
p1092
g2
(g6
S'\x14\xa4\x85\xe2\x01=5?'
p1093
tp1094
Rp1095
sS'elementa00rondgoog_0054'
p1096
g2
(g6
S'\xb0|\xbc\xf0\x08\xcf??'
p1097
tp1098
Rp1099
sS'elementa00rondgoog_0057'
p1100
g2
(g6
S'#\x85\x07d\xabI??'
p1101
tp1102
Rp1103
sS'elementa00rondgoog_0056'
p1104
g2
(g6
S"\xf9\x15\xb4'\xe6\x85??"
p1105
tp1106
Rp1107
sS'elementa00rondgoog_0110'
p1108
g2
(g6
S'j\xf0\xdc6l\xdbA?'
p1109
tp1110
Rp1111
sS'elementa00rondgoog_0111'
p1112
g2
(g6
S'\xd9\xa3J\xbe\x07\xb9@?'
p1113
tp1114
Rp1115
sS'elementa00rondgoog_0112'
p1116
g2
(g6
S'\x9d\xc1\x9bu\xea{!?'
p1117
tp1118
Rp1119
sS'elementa00rondgoog_0113'
p1120
g2
(g6
S'\xae\xaa\xf2!B\xfbA?'
p1121
tp1122
Rp1123
sS'elementa00rondgoog_0114'
p1124
g2
(g6
S'\xc3}\x08\xb7\xdc"A?'
p1125
tp1126
Rp1127
sS'elementa00rondgoog_0115'
p1128
g2
(g6
S'\xda\x19F^\x07\xbfA?'
p1129
tp1130
Rp1131
sS'elementa00rondgoog_0116'
p1132
g2
(g6
S'\xa5\xc7\xae\xe2M\x07B?'
p1133
tp1134
Rp1135
sS'elementa00rondgoog_0117'
p1136
g2
(g6
S"'\xe5KS|{A?"
p1137
tp1138
Rp1139
sS'elementa00rondgoog_0183'
p1140
g2
(g6
S'\xb8\xf20\xb3\xc2\x9f=?'
p1141
tp1142
Rp1143
sS'elementa00rondgoog_0182'
p1144
g2
(g6
S'\x07\xa6D\x17\x04\xd6;?'
p1145
tp1146
Rp1147
sS'elementa00rondgoog_0181'
p1148
g2
(g6
S'\x1aQ\xd2\x92+\x99A?'
p1149
tp1150
Rp1151
sS'elementa00rondgoog_0180'
p1152
g2
(g6
S'KLQB\xd9\x01>?'
p1153
tp1154
Rp1155
sS'elementa00rondgoog_0187'
p1156
g2
(g6
S'\xc2VM/\xf2\xaa=?'
p1157
tp1158
Rp1159
sS'elementa00rondgoog_0186'
p1160
g2
(g6
S'\xf8\xbc\xedj\xacV;?'
p1161
tp1162
Rp1163
sS'elementa00rondgoog_0185'
p1164
g2
(g6
S'\x9a\xc6\xdb>4~=?'
p1165
tp1166
Rp1167
sS'elementa00rondgoog_0184'
p1168
g2
(g6
S'\x94\xc2yKG!=?'
p1169
tp1170
Rp1171
sS'elementa00rondgoog_0189'
p1172
g2
(g6
S'\xbe\x1b\x13N\x95\xc2.?'
p1173
tp1174
Rp1175
sS'elementa00rondgoog_0188'
p1176
g2
(g6
S"#\x04/'p2??"
p1177
tp1178
Rp1179
sS'elementa00rondgoog_0309'
p1180
g2
(g6
S'sc\xbf \n\x8a4?'
p1181
tp1182
Rp1183
sS'elementa00rondgoog_0308'
p1184
g2
(g6
S'&\x92\x1f\xe1\xeb\x0cA?'
p1185
tp1186
Rp1187
sS'elementa00rondgoog_0301'
p1188
g2
(g6
S'\xcb\x1e\x97k%z3?'
p1189
tp1190
Rp1191
sS'elementa00rondgoog_0300'
p1192
g2
(g6
S'\x19L\x8f@\x99H6?'
p1193
tp1194
Rp1195
sS'elementa00rondgoog_0303'
p1196
g2
(g6
S'\x845{4E\xf3;?'
p1197
tp1198
Rp1199
sS'elementa00rondgoog_0302'
p1200
g2
(g6
S'!\x0f\x96*:\xc7\xf0>'
p1201
tp1202
Rp1203
sS'elementa00rondgoog_0305'
p1204
g2
(g6
S'\x15%^\x1f=TE?'
p1205
tp1206
Rp1207
sS'elementa00rondgoog_0304'
p1208
g2
(g6
S'\x01\xcd\x86|4\x83B?'
p1209
tp1210
Rp1211
sS'elementa00rondgoog_0307'
p1212
g2
(g6
S'\x13p?\xcd\xad\xd3A?'
p1213
tp1214
Rp1215
sS'elementa00rondgoog_0306'
p1216
g2
(g6
S'J\xfb_\xb0ME@?'
p1217
tp1218
Rp1219
sS'elementa00rondgoog_0239'
p1220
g2
(g6
S'\xc3\xc5W\x8c1\x80B?'
p1221
tp1222
Rp1223
sS'elementa00rondgoog_0238'
p1224
g2
(g6
S'\xf8\xbb\x96r\x95\xe6B?'
p1225
tp1226
Rp1227
sS'elementa00rondgoog_0235'
p1228
g2
(g6
S'\x83`\x1f\x8db\xfdB?'
p1229
tp1230
Rp1231
sS'elementa00rondgoog_0234'
p1232
g2
(g6
S'\xaf\xec\x1dF_\x14=?'
p1233
tp1234
Rp1235
sS'elementa00rondgoog_0237'
p1236
g2
(g6
S'}T\xe8n\xc7-<?'
p1237
tp1238
Rp1239
sS'elementa00rondgoog_0236'
p1240
g2
(g6
S'"\x04/\'p2??'
p1241
tp1242
Rp1243
sS'elementa00rondgoog_0231'
p1244
g2
(g6
S'{\x9c\xc1\xaa\xaa\x0e@?'
p1245
tp1246
Rp1247
sS'elementa00rondgoog_0230'
p1248
g2
(g6
S'\xfc\xae\x81~\x9dq@?'
p1249
tp1250
Rp1251
sS'elementa00rondgoog_0233'
p1252
g2
(g6
S'\x1a\xf5y\xfd\xd5GB?'
p1253
tp1254
Rp1255
sS'elementa00rondgoog_0232'
p1256
g2
(g6
S'\xab\r\xc6`\xe6\x00@?'
p1257
tp1258
Rp1259
sS'elementa00rondgoog_0051'
p1260
g2
(g6
S"'\x13\xf8\x1d'$A?"
p1261
tp1262
Rp1263
sS'elementa00rondgoog_0398'
p1264
g2
(g6
S'\x12\x0f\xa4\xe5\xc517?'
p1265
tp1266
Rp1267
sS'elementa00rondgoog_0050'
p1268
g2
(g6
S'\xe6\xb6\xebA\x1d\x84@?'
p1269
tp1270
Rp1271
sS'elementa00rondgoog_0396'
p1272
g2
(g6
S'FH\xefN\xec\xa4=?'
p1273
tp1274
Rp1275
sS'elementa00rondgoog_0397'
p1276
g2
(g6
S'\xf7N\xc7\xf5Z\xc3@?'
p1277
tp1278
Rp1279
sS'elementa00rondgoog_0394'
p1280
g2
(g6
S'|\xea\xaa\xca\xa8,E?'
p1281
tp1282
Rp1283
sS'elementa00rondgoog_0395'
p1284
g2
(g6
S'\x867,\xae\xbb!<?'
p1285
tp1286
Rp1287
sS'elementa00rondgoog_0392'
p1288
g2
(g6
S'\xff\xfb\x89?\xf6\x9b:?'
p1289
tp1290
Rp1291
sS'elementa00rondgoog_0393'
p1292
g2
(g6
S'\xf4\xba<\xf15(;?'
p1293
tp1294
Rp1295
sS'elementa00rondgoog_0390'
p1296
g2
(g6
S'\x99rX\xd4\x8c\x9fD?'
p1297
tp1298
Rp1299
sS'elementa00rondgoog_0391'
p1300
g2
(g6
S'.\x0b\x9c\x153|G?'
p1301
tp1302
Rp1303
sS'elementa00rondgoog_0059'
p1304
g2
(g6
S'\x07\xa6D\x17\x04\xd6;?'
p1305
tp1306
Rp1307
sS'elementa00rondgoog_0058'
p1308
g2
(g6
S'\xd7h\x86v\x1cM??'
p1309
tp1310
Rp1311
sS'elementa00rondgoog_0161'
p1312
g2
(g6
S':>z\xee\x9b\xbc<?'
p1313
tp1314
Rp1315
sS'elementa00rondgoog_0160'
p1316
g2
(g6
S'\xeb\xaf\xe61@L??'
p1317
tp1318
Rp1319
sS'elementa00rondgoog_0163'
p1320
g2
(g6
S'\xf2\xee\x0cm\x18\x15A?'
p1321
tp1322
Rp1323
sS'elementa00rondgoog_0162'
p1324
g2
(g6
S'^\x81\xe3\x1d\x01\xbfB?'
p1325
tp1326
Rp1327
sS'elementa00rondgoog_0165'
p1328
g2
(g6
S'5(J\x1b\xb3\x1dA?'
p1329
tp1330
Rp1331
sS'elementa00rondgoog_0164'
p1332
g2
(g6
S'\x08ol)\x94J=?'
p1333
tp1334
Rp1335
sS'elementa00rondgoog_0167'
p1336
g2
(g6
S'\xec;&rE\xf8@?'
p1337
tp1338
Rp1339
sS'elementa00rondgoog_0166'
p1340
g2
(g6
S'\xdfKT\x1c\x9f\xc4A?'
p1341
tp1342
Rp1343
sS'elementa00rondgoog_0169'
p1344
g2
(g6
S'\xfdI\xfd\xc5\x82=B?'
p1345
tp1346
Rp1347
sS'elementa00rondgoog_0168'
p1348
g2
(g6
S'W\xf7e\x9bF\xfaF?'
p1349
tp1350
Rp1351
sS'elementa00rondgoog_0381'
p1352
g2
(g6
S'I/\xa6\xc5\xa1\xae3?'
p1353
tp1354
Rp1355
sS'elementa00rondgoog_0380'
p1356
g2
(g6
S'q\xf6\xef\xa3\xcff2?'
p1357
tp1358
Rp1359
sS'elementa00rondgoog_0414'
p1360
g2
(g6
S'\xda\xa3J\xbe\x07\xb9@?'
p1361
tp1362
Rp1363
sS'elementa00rondgoog_0389'
p1364
g2
(g6
S'm#B\xed\x1aQ:?'
p1365
tp1366
Rp1367
sS'elementa00rondgoog_0388'
p1368
g2
(g6
S'\xeb\x1fH\x87\x96\x91<?'
p1369
tp1370
Rp1371
sS'elementa00rondgoog_0299'
p1372
g2
(g6
S'\x84)G\x9f\xf2q4?'
p1373
tp1374
Rp1375
sS'elementa00rondgoog_0298'
p1376
g2
(g6
S'\xca\xdd8\xd9\x90M>?'
p1377
tp1378
Rp1379
sS'elementa00rondgoog_0293'
p1380
g2
(g6
S'\x9bo\xc6\xfbp}9?'
p1381
tp1382
Rp1383
sS'elementa00rondgoog_0292'
p1384
g2
(g6
S"\xb0\x00'\x06`\x08;?"
p1385
tp1386
Rp1387
sS'elementa00rondgoog_0291'
p1388
g2
(g6
S'#\xb0\xab\xbc\xc8S6?'
p1389
tp1390
Rp1391
sS'elementa00rondgoog_0290'
p1392
g2
(g6
S'\x16XM<zM@?'
p1393
tp1394
Rp1395
sS'elementa00rondgoog_0297'
p1396
g2
(g6
S'\xa7e2\x9c\xc0q<?'
p1397
tp1398
Rp1399
sS'elementa00rondgoog_0296'
p1400
g2
(g6
S'O\xe3\xe3\xb8\x8b;<?'
p1401
tp1402
Rp1403
sS'elementa00rondgoog_0295'
p1404
g2
(g6
S'%\xbe\x90\xcb\x91\x03>?'
p1405
tp1406
Rp1407
sS'elementa00rondgoog_0294'
p1408
g2
(g6
S'i\x1f\xe0\xf9-\xf49?'
p1409
tp1410
Rp1411
sS'elementa00rondgoog_0266'
p1412
g2
(g6
S'{\x86}\n\xa5h??'
p1413
tp1414
Rp1415
sS'elementa00rondgoog_0267'
p1416
g2
(g6
S'\x9a\xbf\xea\xfbsMA?'
p1417
tp1418
Rp1419
sS'elementa00rondgoog_0264'
p1420
g2
(g6
S'\xc2*\xdcDL\xb40?'
p1421
tp1422
Rp1423
sS'elementa00rondgoog_0265'
p1424
g2
(g6
S'R]\xcb\xb2\x06"@?'
p1425
tp1426
Rp1427
sS'elementa00rondgoog_0349'
p1428
g2
(g6
S'Os\x82c5\xf6>?'
p1429
tp1430
Rp1431
sS'elementa00rondgoog_0348'
p1432
g2
(g6
S';\xfbmk\xd9\xaf6?'
p1433
tp1434
Rp1435
sS'elementa00rondgoog_0260'
p1436
g2
(g6
S'8>z\xee\x9b\xbc<?'
p1437
tp1438
Rp1439
sS'elementa00rondgoog_0261'
p1440
g2
(g6
S'!\x85\x91\xca9\xcdA?'
p1441
tp1442
Rp1443
sS'elementa00rondgoog_0345'
p1444
g2
(g6
S'r\x83\xfcu]\xff9?'
p1445
tp1446
Rp1447
sS'elementa00rondgoog_0344'
p1448
g2
(g6
S'\x9c\xbcX#X+6?'
p1449
tp1450
Rp1451
sS'elementa00rondgoog_0347'
p1452
g2
(g6
S'7\x8c\xedt(^4?'
p1453
tp1454
Rp1455
sS'elementa00rondgoog_0346'
p1456
g2
(g6
S'\xdbr\x0c\x1bA\xee5?'
p1457
tp1458
Rp1459
sS'elementa00rondgoog_0341'
p1460
g2
(g6
S'\xca\x19T\x19\x93)8?'
p1461
tp1462
Rp1463
sS'elementa00rondgoog_0340'
p1464
g2
(g6
S'\xc1"\x07\x1a\x9eA:?'
p1465
tp1466
Rp1467
sS'elementa00rondgoog_0343'
p1468
g2
(g6
S':z\x95.\x9e\x986?'
p1469
tp1470
Rp1471
sS'elementa00rondgoog_0269'
p1472
g2
(g6
S'\xa2\xf1nS}\xcf>?'
p1473
tp1474
Rp1475
sS'elementa00rondgoog_0048'
p1476
g2
(g6
S'FH\xefN\xec\xa4=?'
p1477
tp1478
Rp1479
sS'elementa00rondgoog_0049'
p1480
g2
(g6
S',hK\xa3\x9f=??'
p1481
tp1482
Rp1483
sS'elementa00rondgoog_0046'
p1484
g2
(g6
S'\xff\x0f\x93\xff\xf6\x8f8?'
p1485
tp1486
Rp1487
sS'elementa00rondgoog_0047'
p1488
g2
(g6
S'\x1a\xa5U\xfd\xd2w:?'
p1489
tp1490
Rp1491
sS'elementa00rondgoog_0044'
p1492
g2
(g6
S'\xec\x1e\xf1\x8e\x7f!D?'
p1493
tp1494
Rp1495
sS'elementa00rondgoog_0045'
p1496
g2
(g6
S'\x9dIe\xf5\xe5\xc3=?'
p1497
tp1498
Rp1499
sS'elementa00rondgoog_0042'
p1500
g2
(g6
S'E\xb8P\xa4B\xea:?'
p1501
tp1502
Rp1503
sS'elementa00rondgoog_0043'
p1504
g2
(g6
S'\x1b\xfe\x1b\xba\x0c\xa7>?'
p1505
tp1506
Rp1507
sS'elementa00rondgoog_0040'
p1508
g2
(g6
S'\x9a\xfc\\4\x8d\x99C?'
p1509
tp1510
Rp1511
sS'elementa00rondgoog_0041'
p1512
g2
(g6
S'"\x85\x91\xca9\xcdA?'
p1513
tp1514
Rp1515
sS'elementa00rondgoog_0125'
p1516
g2
(g6
S'\\Z(\x96\x16G??'
p1517
tp1518
Rp1519
sS'elementa00rondgoog_0124'
p1520
g2
(g6
S'T\x7f\xb9\x81\xd0\xc55?'
p1521
tp1522
Rp1523
sS'elementa00rondgoog_0127'
p1524
g2
(g6
S'\x9d\xefG@\x95$A?'
p1525
tp1526
Rp1527
sS'elementa00rondgoog_0126'
p1528
g2
(g6
S'b\xd6\xc0\t\x08\\C?'
p1529
tp1530
Rp1531
sS'elementa00rondgoog_0121'
p1532
g2
(g6
S'\x8b\xd6\x93O\x1c\xce@?'
p1533
tp1534
Rp1535
sS'elementa00rondgoog_0120'
p1536
g2
(g6
S'\xff\x7f\xf4TM\xd5\x15?'
p1537
tp1538
Rp1539
sS'elementa00rondgoog_0123'
p1540
g2
(g6
S'\xf6\xe4\xff\xea\xad>G?'
p1541
tp1542
Rp1543
sS'elementa00rondgoog_0122'
p1544
g2
(g6
S'Nu\xbdC:\xa8A?'
p1545
tp1546
Rp1547
sS'elementa00rondgoog_0066'
p1548
g2
(g6
S'\xc1\xb2\xa5\xc4G\xfc<?'
p1549
tp1550
Rp1551
sS'elementa00rondgoog_0129'
p1552
g2
(g6
S'\x0c\xde\xec\x1fE\x9c??'
p1553
tp1554
Rp1555
sS'elementa00rondgoog_0128'
p1556
g2
(g6
S'\xc9\x8cGG\x05\x91@?'
p1557
tp1558
Rp1559
sS'elementa00rondgoog_0190'
p1560
g2
(g6
S'\xe6#\xbb\xbeW\xa72?'
p1561
tp1562
Rp1563
sS'elementa00rondgoog_0191'
p1564
g2
(g6
S'\xd0\xc1]w*59?'
p1565
tp1566
Rp1567
sS'elementa00rondgoog_0192'
p1568
g2
(g6
S'\xa7\x11\xaf1\x19\x933?'
p1569
tp1570
Rp1571
sS'elementa00rondgoog_0193'
p1572
g2
(g6
S'\xee\x91ZVc\x05:?'
p1573
tp1574
Rp1575
sS'elementa00rondgoog_0194'
p1576
g2
(g6
S'4\xde\xbfeY\x0e=?'
p1577
tp1578
Rp1579
sS'elementa00rondgoog_0195'
p1580
g2
(g6
S'GM2\xa1~\xf58?'
p1581
tp1582
Rp1583
sS'elementa00rondgoog_0196'
p1584
g2
(g6
S'\xb0\x90\xc5\xb0\t\xc3=?'
p1585
tp1586
Rp1587
sS'elementa00rondgoog_0197'
p1588
g2
(g6
S'k\r\x88\xb3\xa3.<?'
p1589
tp1590
Rp1591
sS'elementa00rondgoog_0198'
p1592
g2
(g6
S',\x14\xc88\xf8^6?'
p1593
tp1594
Rp1595
sS'elementa00rondgoog_0199'
p1596
g2
(g6
S'41v>x\x000?'
p1597
tp1598
Rp1599
sS'elementa00rondgoog_0403'
p1600
g2
(g6
S'\x17\xa3\xa4\x83\\I:?'
p1601
tp1602
Rp1603
sS'elementa00rondgoog_0361'
p1604
g2
(g6
S'\xa5\xd3\xe2w\xa0\x889?'
p1605
tp1606
Rp1607
sS'elementa00rondgoog_0360'
p1608
g2
(g6
S'\x86\xb6Sq\x80\n<?'
p1609
tp1610
Rp1611
sS'elementa00rondgoog_0369'
p1612
g2
(g6
S'#,A\xa7q\x1a;?'
p1613
tp1614
Rp1615
s.