(lp0
I60
aI33
aI27
aI35
aI55
aI15
aI21
aI25
aI41
aI29
aI25
aI20
aI31
aI21
aI24
aI23
aI22
aI21
aI51
aI29
aI27
aI44
aI47
aI27
aI56
aI39
aI21
aI41
aI31
aI53
aI45
aI44
aI41
aI38
aI45
aI20
aI37
aI32
aI55
aI41
aI27
aI25
aI26
aI25
aI21
aI38
aI33
aI29
aI30
aI44
aI40
aI43
aI35
aI43
aI42
aI29
aI53
aI27
aI29
aI35
aI35
aI29
aI24
aI39
aI2
aI5
aI105
aI24
aI19
aI17
aI33
aI23
aI34
aI29
aI28
aI23
aI33
aI54
aI34
aI35
aI29
aI19
aI21
aI29
aI22
aI27
aI9
aI11
aI17
aI12
aI1
aI1
aI1
aI1
aI2
aI2
aI1
aI1
aI2
aI2
aI2
aI1
aI1
aI2
aI2
aI41
aI11
aI9
aI56
aI61
aI25
aI20
aI25
aI17
aI19
aI22
aI45
aI2
aI2
aI2
aI2
aI33
aI67
aI52
aI11
aI30
aI3
aI6
aI2
aI21
aI27
aI8
aI1
aI1
aI13
aI1
aI1
aI3
aI12
aI19
aI2
aI16
aI1
aI13
aI3
aI1
aI19
aI18
a.