(lp0
S'commandinus_1731_v1_1_0001.tif'
p1
aS'commandinus_1731_v1_1_0002.tif'
p2
aS'commandinus_1731_v1_1_0003.tif'
p3
aS'commandinus_1731_v1_1_0004.tif'
p4
aS'commandinus_1731_v1_1_0005.tif'
p5
aS'commandinus_1731_v1_1_0006.tif'
p6
aS'commandinus_1731_v1_1_0007.tif'
p7
aS'commandinus_1731_v1_1_0008.tif'
p8
aS'commandinus_1731_v1_1_0009.tif'
p9
aS'commandinus_1731_v1_1_0010.tif'
p10
aS'commandinus_1731_v1_1_0011.tif'
p11
aS'commandinus_1731_v1_1_0012.tif'
p12
aS'commandinus_1731_v1_1_0013.tif'
p13
aS'commandinus_1731_v1_1_0014.tif'
p14
aS'commandinus_1731_v1_1_0333.tif'
p15
aS'commandinus_1731_v1_1_0332.tif'
p16
aS'commandinus_1731_v1_1_0331.tif'
p17
aS'commandinus_1731_v1_1_0330.tif'
p18
aS'commandinus_1731_v1_1_0329.tif'
p19
aS'commandinus_1731_v1_1_0328.tif'
p20
aS'commandinus_1731_v1_1_0327.tif'
p21
aS'commandinus_1731_v1_1_0326.tif'
p22
aS'commandinus_1731_v1_1_0325.tif'
p23
a.