(dp0
S'elementorumlibr01euclgoog_0207'
p1
cnumpy.core.multiarray
scalar
p2
(cnumpy
dtype
p3
(S'f8'
p4
I0
I1
tp5
Rp6
(I3
S'<'
p7
NNNI-1
I-1
I0
tp8
bS'\xcf\x14\xfc9\xd4{8?'
p9
tp10
Rp11
sS'elementorumlibr01euclgoog_0282'
p12
g2
(g6
S'\xder\x14,h}F?'
p13
tp14
Rp15
sS'elementorumlibr01euclgoog_0206'
p16
g2
(g6
S'-l\xa2(W\xb29?'
p17
tp18
Rp19
sS'elementorumlibr01euclgoog_0146'
p20
g2
(g6
S'\xd4\xc8<\x89\xd0\x8b6?'
p21
tp22
Rp23
sS'elementorumlibr01euclgoog_0147'
p24
g2
(g6
S"'2\xc8\xec\x00\xf5@?"
p25
tp26
Rp27
sS'elementorumlibr01euclgoog_0144'
p28
g2
(g6
S'^3b\x86\xe7\xe77?'
p29
tp30
Rp31
sS'elementorumlibr01euclgoog_0145'
p32
g2
(g6
S'\xd0P\x19\xad\xb3\xf36?'
p33
tp34
Rp35
sS'elementorumlibr01euclgoog_0142'
p36
g2
(g6
S'\x07\xc2\xe0\x8f\x18\xa37?'
p37
tp38
Rp39
sS'elementorumlibr01euclgoog_0143'
p40
g2
(g6
S'\x83?b\x8c^\xb8:?'
p41
tp42
Rp43
sS'elementorumlibr01euclgoog_0140'
p44
g2
(g6
S'\xe7\x86\xfe\x1a\xac`:?'
p45
tp46
Rp47
sS'elementorumlibr01euclgoog_0141'
p48
g2
(g6
S'oFx\x99\x8069?'
p49
tp50
Rp51
sS'elementorumlibr01euclgoog_0256'
p52
g2
(g6
S"\xaaQ\x0c\x0c'\x05K?"
p53
tp54
Rp55
sS'elementorumlibr01euclgoog_0257'
p56
g2
(g6
S'\xf04\xfb\x9bs\xb6I?'
p57
tp58
Rp59
sS'elementorumlibr01euclgoog_0254'
p60
g2
(g6
S'\xdf\x9c\xdcu}\x13C?'
p61
tp62
Rp63
sS'elementorumlibr01euclgoog_0255'
p64
g2
(g6
S'Nl\xc7x\x07\x90K?'
p65
tp66
Rp67
sS'elementorumlibr01euclgoog_0203'
p68
g2
(g6
S'1\x8c\x80\xb5\x07p<?'
p69
tp70
Rp71
sS'elementorumlibr01euclgoog_0247'
p72
g2
(g6
S')E<\xc6\xfa;:?'
p73
tp74
Rp75
sS'elementorumlibr01euclgoog_0148'
p76
g2
(g6
S'\xa7\x10:1\xd3\xdb??'
p77
tp78
Rp79
sS'elementorumlibr01euclgoog_0149'
p80
g2
(g6
S'&?4Q \xf8;?'
p81
tp82
Rp83
sS'elementorumlibr01euclgoog_0133'
p84
g2
(g6
S':\xbb\x84\x96`\xba8?'
p85
tp86
Rp87
sS'elementorumlibr01euclgoog_0132'
p88
g2
(g6
S'\xd0P\x19\xad\xb3\xf36?'
p89
tp90
Rp91
sS'elementorumlibr01euclgoog_0038'
p92
g2
(g6
S'\x02g#\xec-x7?'
p93
tp94
Rp95
sS'elementorumlibr01euclgoog_0039'
p96
g2
(g6
S'\xb8\xb7>\n\x9aoA?'
p97
tp98
Rp99
sS'elementorumlibr01euclgoog_0137'
p100
g2
(g6
S'\x83\xad\x12\x90\x86S;?'
p101
tp102
Rp103
sS'elementorumlibr01euclgoog_0136'
p104
g2
(g6
S'F\x0cf\xc2d\x9f8?'
p105
tp106
Rp107
sS'elementorumlibr01euclgoog_0135'
p108
g2
(g6
S'\x07\xf7;LV\xcf>?'
p109
tp110
Rp111
sS'elementorumlibr01euclgoog_0134'
p112
g2
(g6
S'\xefvE\xd3\xe5\x909?'
p113
tp114
Rp115
sS'elementorumlibr01euclgoog_0032'
p116
g2
(g6
S"'\xf0\x953@\xdc:?"
p117
tp118
Rp119
sS'elementorumlibr01euclgoog_0033'
p120
g2
(g6
S'V\x11\xf5\xea\xd7iD?'
p121
tp122
Rp123
sS'elementorumlibr01euclgoog_0030'
p124
g2
(g6
S'\xdb\xf1k\xa6\xf3\x9d@?'
p125
tp126
Rp127
sS'elementorumlibr01euclgoog_0031'
p128
g2
(g6
S'\xf7\x93\xac\xd2\xc7\xa29?'
p129
tp130
Rp131
sS'elementorumlibr01euclgoog_0036'
p132
g2
(g6
S'\xa9\x00S8\xa1\x829?'
p133
tp134
Rp135
sS'elementorumlibr01euclgoog_0037'
p136
g2
(g6
S'\x080*\xf1\x9f\xab=?'
p137
tp138
Rp139
sS'elementorumlibr01euclgoog_0034'
p140
g2
(g6
S'K\xd9\x02}\x92K:?'
p141
tp142
Rp143
sS'elementorumlibr01euclgoog_0035'
p144
g2
(g6
S'\xa6GZ.\x0f3=?'
p145
tp146
Rp147
sS'elementorumlibr01euclgoog_0313'
p148
g2
(g6
S'a\xa3)\x82\xe9\xe9H?'
p149
tp150
Rp151
sS'elementorumlibr01euclgoog_0243'
p152
g2
(g6
S'$\x0eg\x1d\xc6f9?'
p153
tp154
Rp155
sS'elementorumlibr01euclgoog_0271'
p156
g2
(g6
S'\t\xfe\x8av\x0e<\x1a?'
p157
tp158
Rp159
sS'elementorumlibr01euclgoog_0248'
p160
g2
(g6
S'\xad,zO\xb7\xad;?'
p161
tp162
Rp163
sS'elementorumlibr01euclgoog_0311'
p164
g2
(g6
S'\x82s\xa5 \xea\xa7E?'
p165
tp166
Rp167
sS'elementorumlibr01euclgoog_0242'
p168
g2
(g6
S'\x0c\x9a\xd1\x1b\x99\x0b>?'
p169
tp170
Rp171
sS'elementorumlibr01euclgoog_0230'
p172
g2
(g6
S'q\x8ak\xba\xe7=8?'
p173
tp174
Rp175
sS'elementorumlibr01euclgoog_0205'
p176
g2
(g6
S'A\xd7\xb6\xc4Ao:?'
p177
tp178
Rp179
sS'elementorumlibr01euclgoog_0212'
p180
g2
(g6
S'HZ_\xa2\x98K<?'
p181
tp182
Rp183
sS'elementorumlibr01euclgoog_0155'
p184
g2
(g6
S'W\xb3\x9e\xeb\xed\x90=?'
p185
tp186
Rp187
sS'elementorumlibr01euclgoog_0130'
p188
g2
(g6
S'\x1a\xc8\xe0\x12T\x0b9?'
p189
tp190
Rp191
sS'elementorumlibr01euclgoog_0157'
p192
g2
(g6
S'>\x8a\xcf\rS\n:?'
p193
tp194
Rp195
sS'elementorumlibr01euclgoog_0156'
p196
g2
(g6
S'\\\xf89%\xe5::?'
p197
tp198
Rp199
sS'elementorumlibr01euclgoog_0098'
p200
g2
(g6
S'|\xb0_s- A?'
p201
tp202
Rp203
sS'elementorumlibr01euclgoog_0099'
p204
g2
(g6
S'S\x85\x8c\x1aI\xca??'
p205
tp206
Rp207
sS'elementorumlibr01euclgoog_0153'
p208
g2
(g6
S'\xaf\x1578G\xb19?'
p209
tp210
Rp211
sS'elementorumlibr01euclgoog_0152'
p212
g2
(g6
S'nj\x17\x920\x008?'
p213
tp214
Rp215
sS'elementorumlibr01euclgoog_0094'
p216
g2
(g6
S'q\xcf\x01ei\x14F?'
p217
tp218
Rp219
sS'elementorumlibr01euclgoog_0095'
p220
g2
(g6
S'\xa7\x10:1\xd3\xdb??'
p221
tp222
Rp223
sS'elementorumlibr01euclgoog_0096'
p224
g2
(g6
S'\xf4\xeeh\xaf\x02)9?'
p225
tp226
Rp227
sS'elementorumlibr01euclgoog_0097'
p228
g2
(g6
S'\x98\x05\xc4\xdc\x16L9?'
p229
tp230
Rp231
sS'elementorumlibr01euclgoog_0090'
p232
g2
(g6
S'\x8f\xb6\xb5\xca*\xa5=?'
p233
tp234
Rp235
sS'elementorumlibr01euclgoog_0091'
p236
g2
(g6
S'\x88\x95c\xb5!\xa8D?'
p237
tp238
Rp239
sS'elementorumlibr01euclgoog_0092'
p240
g2
(g6
S'^3b\x86\xe7\xe77?'
p241
tp242
Rp243
sS'elementorumlibr01euclgoog_0093'
p244
g2
(g6
S'\x9bBi\x83o\x1a@?'
p245
tp246
Rp247
sS'elementorumlibr01euclgoog_0029'
p248
g2
(g6
S'\x08\x98\xab\xf0\xcf\xa8>?'
p249
tp250
Rp251
sS'elementorumlibr01euclgoog_0028'
p252
g2
(g6
S'\x03\xfa \x9a^=F?'
p253
tp254
Rp255
sS'elementorumlibr01euclgoog_0270'
p256
g2
(g6
S'1F"8\x1c$\x00?'
p257
tp258
Rp259
sS'elementorumlibr01euclgoog_0213'
p260
g2
(g6
S'\x12\xac9\xf2\x07P=?'
p261
tp262
Rp263
sS'elementorumlibr01euclgoog_0021'
p264
g2
(g6
S'\xc8\xb87}Q\xc1A?'
p265
tp266
Rp267
sS'elementorumlibr01euclgoog_0020'
p268
g2
(g6
S'\x10=\xa0\xb0\xe4\x01:?'
p269
tp270
Rp271
sS'elementorumlibr01euclgoog_0023'
p272
g2
(g6
S'\x1aE\x95\x1d\x8a\x1a6?'
p273
tp274
Rp275
sS'elementorumlibr01euclgoog_0022'
p276
g2
(g6
S'FM\x01\xc9OM7?'
p277
tp278
Rp279
sS'elementorumlibr01euclgoog_0025'
p280
g2
(g6
S'\xa5GZ.\x0f3=?'
p281
tp282
Rp283
sS'elementorumlibr01euclgoog_0024'
p284
g2
(g6
S'\xab3V\xe4\x91<<?'
p285
tp286
Rp287
sS'elementorumlibr01euclgoog_0027'
p288
g2
(g6
S'\xbdx\xbe\x11\x1c\xb12?'
p289
tp290
Rp291
sS'elementorumlibr01euclgoog_0026'
p292
g2
(g6
S'\xf7\x93\xac\xd2\xc7\xa29?'
p293
tp294
Rp295
sS'elementorumlibr01euclgoog_0211'
p296
g2
(g6
S'\x1f\xf5vq\xabi=?'
p297
tp298
Rp299
sS'elementorumlibr01euclgoog_0204'
p300
g2
(g6
S'\x9d\xc3^Cc\xd68?'
p301
tp302
Rp303
sS'elementorumlibr01euclgoog_0216'
p304
g2
(g6
S'\\y\xa0\ta\x01<?'
p305
tp306
Rp307
sS'elementorumlibr01euclgoog_0217'
p308
g2
(g6
S'.\xb8u]y\xb9:?'
p309
tp310
Rp311
sS'elementorumlibr01euclgoog_0214'
p312
g2
(g6
S'l\x10DB\xd3\xff@?'
p313
tp314
Rp315
sS'elementorumlibr01euclgoog_0245'
p316
g2
(g6
S'(\x10`\xad\\L7?'
p317
tp318
Rp319
sS'elementorumlibr01euclgoog_0210'
p320
g2
(g6
S'\x0c)\x91\x14\xb1s;?'
p321
tp322
Rp323
sS'elementorumlibr01euclgoog_0215'
p324
g2
(g6
S'2P\x1c\xc7\xbd\xc7<?'
p325
tp326
Rp327
sS'elementorumlibr01euclgoog_0159'
p328
g2
(g6
S'\x07\xc2\xe0\x8f\x18\xa37?'
p329
tp330
Rp331
sS'elementorumlibr01euclgoog_0161'
p332
g2
(g6
S'\x0fS`\xee\x9f\\:?'
p333
tp334
Rp335
sS'elementorumlibr01euclgoog_0089'
p336
g2
(g6
S'\x98M\x02\xcev\xdf6?'
p337
tp338
Rp339
sS'elementorumlibr01euclgoog_0088'
p340
g2
(g6
S'4\x98\xb5;\x01\x9c6?'
p341
tp342
Rp343
sS'elementorumlibr01euclgoog_0164'
p344
g2
(g6
S'\xdf\xbaV["\xfa9?'
p345
tp346
Rp347
sS'elementorumlibr01euclgoog_0165'
p348
g2
(g6
S'\xc1\xd1%\xb0\nH9?'
p349
tp350
Rp351
sS'elementorumlibr01euclgoog_0166'
p352
g2
(g6
S'\xd7s\xe8\x07\x13\x129?'
p353
tp354
Rp355
sS'elementorumlibr01euclgoog_0167'
p356
g2
(g6
S'>\xf8\x7f\x11{\xa5:?'
p357
tp358
Rp359
sS'elementorumlibr01euclgoog_0083'
p360
g2
(g6
S'\x91\x91\x15\xb8\xbd7C?'
p361
tp362
Rp363
sS'elementorumlibr01euclgoog_0082'
p364
g2
(g6
S'5^\x91\xf8\xc6h<?'
p365
tp366
Rp367
sS'elementorumlibr01euclgoog_0081'
p368
g2
(g6
S'\x7fXv\xe3W\x8c9?'
p369
tp370
Rp371
sS'elementorumlibr01euclgoog_0080'
p372
g2
(g6
S'\xc2\xae\xc7h]\x1f:?'
p373
tp374
Rp375
sS'elementorumlibr01euclgoog_0087'
p376
g2
(g6
S'\x93x\xea\xb1\xbf\x0e??'
p377
tp378
Rp379
sS'elementorumlibr01euclgoog_0086'
p380
g2
(g6
S'\xe4o\x1f\xde\x97`@?'
p381
tp382
Rp383
sS'elementorumlibr01euclgoog_0085'
p384
g2
(g6
S'\x11\xc3\xe3\x0b\xe05??'
p385
tp386
Rp387
sS'elementorumlibr01euclgoog_0084'
p388
g2
(g6
S'n5\xbc\xd5\xf2\xd3@?'
p389
tp390
Rp391
sS'elementorumlibr01euclgoog_0015'
p392
g2
(g6
S'(\x83\x93\xe1p\xa19?'
p393
tp394
Rp395
sS'elementorumlibr01euclgoog_0016'
p396
g2
(g6
S'\x99\xba\xcdv\xca\tA?'
p397
tp398
Rp399
sS'elementorumlibr01euclgoog_0017'
p400
g2
(g6
S'\xe4\xa3h\xb6\x97&A?'
p401
tp402
Rp403
sS'elementorumlibr01euclgoog_0209'
p404
g2
(g6
S'\xac\x0e\x95R\x9d\xd56?'
p405
tp406
Rp407
sS'elementorumlibr01euclgoog_0244'
p408
g2
(g6
S'\x1f\xb2q\x9c\xd6\xfcA?'
p409
tp410
Rp411
sS'elementorumlibr01euclgoog_0252'
p412
g2
(g6
S'\xa5d\xec\x1d\xd4\x8a\xef>'
p413
tp414
Rp415
sS'elementorumlibr01euclgoog_0018'
p416
g2
(g6
S'\t+\xa9\x9e\x00n=?'
p417
tp418
Rp419
sS'elementorumlibr01euclgoog_0019'
p420
g2
(g6
S'\xf5m\xb1vf\x18<?'
p421
tp422
Rp423
sS'elementorumlibr01euclgoog_0158'
p424
g2
(g6
S'\xc7\x03\xde\xb4\xdf\x8a??'
p425
tp426
Rp427
sS'elementorumlibr01euclgoog_0253'
p428
g2
(g6
S'\xee\x05\xf8\x81\xd1\xeaE?'
p429
tp430
Rp431
sS'elementorumlibr01euclgoog_0275'
p432
g2
(g6
S'7\x89\x19\x8bgY\x15?'
p433
tp434
Rp435
sS'elementorumlibr01euclgoog_0299'
p436
g2
(g6
S'\xa5\xf00\x1eT\xc7@?'
p437
tp438
Rp439
sS'elementorumlibr01euclgoog_0250'
p440
g2
(g6
S'|-\xf2$\xef\xd7\xec>'
p441
tp442
Rp443
sS'elementorumlibr01euclgoog_0258'
p444
g2
(g6
S'Z\xb3\xa8\x82\xe1*C?'
p445
tp446
Rp447
sS'elementorumlibr01euclgoog_0251'
p448
g2
(g6
S'\x90?-\xbe\xfaFW?'
p449
tp450
Rp451
sS'elementorumlibr01euclgoog_0228'
p452
g2
(g6
S'\xe2\xff\x0c\xd2\r:<?'
p453
tp454
Rp455
sS'elementorumlibr01euclgoog_0309'
p456
g2
(g6
S'!\xde\xc8n\xdd&@?'
p457
tp458
Rp459
sS'elementorumlibr01euclgoog_0312'
p460
g2
(g6
S'(tBz\xc5\x81@?'
p461
tp462
Rp463
sS'elementorumlibr01euclgoog_0131'
p464
g2
(g6
S'\x15t\\/\xe7<8?'
p465
tp466
Rp467
sS'elementorumlibr01euclgoog_0076'
p468
g2
(g6
S'\xa0S\xd7z\x9c79?'
p469
tp470
Rp471
sS'elementorumlibr01euclgoog_0077'
p472
g2
(g6
S'\xd3\xb2\xc6\x86e%??'
p473
tp474
Rp475
sS'elementorumlibr01euclgoog_0074'
p476
g2
(g6
S'\xb5\xe0\xd1\xa1\x96\x87<?'
p477
tp478
Rp479
sS'elementorumlibr01euclgoog_0075'
p480
g2
(g6
S'\x82^\xed\xe4\xbc\xc3=?'
p481
tp482
Rp483
sS'elementorumlibr01euclgoog_0072'
p484
g2
(g6
S'e\xe2\xf0\\\xef\xb56?'
p485
tp486
Rp487
sS'elementorumlibr01euclgoog_0073'
p488
g2
(g6
S'\x06\x90$\xf3\xdf\xb69?'
p489
tp490
Rp491
sS'elementorumlibr01euclgoog_0070'
p492
g2
(g6
S'i\x18\xfa\xb30$>?'
p493
tp494
Rp495
sS'elementorumlibr01euclgoog_0071'
p496
g2
(g6
S'U\xee\xff9\xc7\x93;?'
p497
tp498
Rp499
sS'elementorumlibr01euclgoog_0259'
p500
g2
(g6
S'\xeb\xf1\x89\xfb\xd4XB?'
p501
tp502
Rp503
sS'elementorumlibr01euclgoog_0078'
p504
g2
(g6
S'\x9d\xc5Z\x1f\x0b\xb0:?'
p505
tp506
Rp507
sS'elementorumlibr01euclgoog_0079'
p508
g2
(g6
S'<}\x90Z:,>?'
p509
tp510
Rp511
sS'elementorumlibr01euclgoog_0267'
p512
g2
(g6
S'\xf6\xe8\x9b\x9b\xb9\x05\x1e?'
p513
tp514
Rp515
sS'elementorumlibr01euclgoog_0246'
p516
g2
(g6
S'K\x10\x85\xfd\x0c*9?'
p517
tp518
Rp519
sS'elementorumlibr01euclgoog_0225'
p520
g2
(g6
S'\xab\xee\x1c\xd1\xd6\x1f>?'
p521
tp522
Rp523
sS'elementorumlibr01euclgoog_0266'
p524
g2
(g6
S'\xdbT[ \x04\x02I?'
p525
tp526
Rp527
sS'elementorumlibr01euclgoog_0277'
p528
g2
(g6
S',\x115\\\xd7k??'
p529
tp530
Rp531
sS'elementorumlibr01euclgoog_0265'
p532
g2
(g6
S'\x8f\x81.\xea\x85}C?'
p533
tp534
Rp535
sS'elementorumlibr01euclgoog_0208'
p536
g2
(g6
S'\x8e#\xe5\xdf\xe2\xbd<?'
p537
tp538
Rp539
sS'elementorumlibr01euclgoog_0297'
p540
g2
(g6
S'\xb9\x9b>\xe1\x07\x0eG?'
p541
tp542
Rp543
sS'elementorumlibr01euclgoog_0223'
p544
g2
(g6
S'C\x12$\x9a\x00\xfb8?'
p545
tp546
Rp547
sS'elementorumlibr01euclgoog_0319'
p548
g2
(g6
S'\x1emJQ\x06\x9aH?'
p549
tp550
Rp551
sS'elementorumlibr01euclgoog_0264'
p552
g2
(g6
S'#t*\xb0\x12#I?'
p553
tp554
Rp555
sS'elementorumlibr01euclgoog_0278'
p556
g2
(g6
S'\xc3\x8b\xcbEi|H?'
p557
tp558
Rp559
sS'elementorumlibr01euclgoog_0162'
p560
g2
(g6
S'\xdb\xeb\x0b\xe4/\xaa8?'
p561
tp562
Rp563
sS'elementorumlibr01euclgoog_0222'
p564
g2
(g6
S'.\xf4\xd9K\xc3a:?'
p565
tp566
Rp567
sS'elementorumlibr01euclgoog_0263'
p568
g2
(g6
S'\xc9t\xfe\xfdj9G?'
p569
tp570
Rp571
sS'elementorumlibr01euclgoog_0139'
p572
g2
(g6
S'\xd9\xfa\x9e\xb9\xe3\xb1A?'
p573
tp574
Rp575
sS'elementorumlibr01euclgoog_0262'
p576
g2
(g6
S'\xa0a\x7f\xa7\xc5\x96I?'
p577
tp578
Rp579
sS'elementorumlibr01euclgoog_0182'
p580
g2
(g6
S'O\xd6\x19\x9fYg7?'
p581
tp582
Rp583
sS'elementorumlibr01euclgoog_0183'
p584
g2
(g6
S'>\x03\xacl\xb3\xb88?'
p585
tp586
Rp587
sS'elementorumlibr01euclgoog_0180'
p588
g2
(g6
S'A\x13\x1b\xb3\x8b\x17:?'
p589
tp590
Rp591
sS'elementorumlibr01euclgoog_0138'
p592
g2
(g6
S'l\x8c\xe3p\xc8\x8bB?'
p593
tp594
Rp595
sS'elementorumlibr01euclgoog_0186'
p596
g2
(g6
S'\x80\x11\x06\xb8k\xe55?'
p597
tp598
Rp599
sS'elementorumlibr01euclgoog_0187'
p600
g2
(g6
S'\xa6\xa9\xd1q`\xd19?'
p601
tp602
Rp603
sS'elementorumlibr01euclgoog_0184'
p604
g2
(g6
S'\xf2\xf7\xe7\xd6yy<?'
p605
tp606
Rp607
sS'elementorumlibr01euclgoog_0185'
p608
g2
(g6
S'\x81\xdc\x8f\xaa\xb7\xfd<?'
p609
tp610
Rp611
sS'elementorumlibr01euclgoog_0227'
p612
g2
(g6
S'U\xf6\xf7+\n%:?'
p613
tp614
Rp615
sS'elementorumlibr01euclgoog_0188'
p616
g2
(g6
S') \xcf\xf34\xab8?'
p617
tp618
Rp619
sS'elementorumlibr01euclgoog_0189'
p620
g2
(g6
S'$\x0eg\x1d\xc6f9?'
p621
tp622
Rp623
sS'elementorumlibr01euclgoog_0226'
p624
g2
(g6
S'F\xf7\x94Q\xf2,=?'
p625
tp626
Rp627
sS'elementorumlibr01euclgoog_0065'
p628
g2
(g6
S'\xf73\xb2\xd0\x87\x97=?'
p629
tp630
Rp631
sS'elementorumlibr01euclgoog_0064'
p632
g2
(g6
S'T\xf5\x88&\x1b\xc0:?'
p633
tp634
Rp635
sS'elementorumlibr01euclgoog_0067'
p636
g2
(g6
S'i\x18\xfa\xb30$>?'
p637
tp638
Rp639
sS'elementorumlibr01euclgoog_0066'
p640
g2
(g6
S'q%psuz:?'
p641
tp642
Rp643
sS'elementorumlibr01euclgoog_0061'
p644
g2
(g6
S')\xde\x0c\x91\x11o5?'
p645
tp646
Rp647
sS'elementorumlibr01euclgoog_0060'
p648
g2
(g6
S'\xfeu\xa6\xe3\x0b18?'
p649
tp650
Rp651
sS'elementorumlibr01euclgoog_0063'
p652
g2
(g6
S'\xc3\x11\xc8\x15\xee\xde:?'
p653
tp654
Rp655
sS'elementorumlibr01euclgoog_0062'
p656
g2
(g6
S'\x8f\xef\xddZT&8?'
p657
tp658
Rp659
sS'elementorumlibr01euclgoog_0218'
p660
g2
(g6
S'v\xc1@c\x1c\x139?'
p661
tp662
Rp663
sS'elementorumlibr01euclgoog_0219'
p664
g2
(g6
S'!D\xb6\xe4\xba\x85=?'
p665
tp666
Rp667
sS'elementorumlibr01euclgoog_0069'
p668
g2
(g6
S'\x1d\x96\x0c(\xecl1?'
p669
tp670
Rp671
sS'elementorumlibr01euclgoog_0068'
p672
g2
(g6
S'\xc2A\xc5\x16\x8e\xe48?'
p673
tp674
Rp675
sS'elementorumlibr01euclgoog_0240'
p676
g2
(g6
S'1\xc8\xe4\xa3Q\x18<?'
p677
tp678
Rp679
sS'elementorumlibr01euclgoog_0302'
p680
g2
(g6
S'O\x87;\x1e\xbeL@?'
p681
tp682
Rp683
sS'elementorumlibr01euclgoog_0179'
p684
g2
(g6
S'.\xf4\xd9K\xc3a:?'
p685
tp686
Rp687
sS'elementorumlibr01euclgoog_0178'
p688
g2
(g6
S'H\xad\xba\xacf\x0b:?'
p689
tp690
Rp691
sS'elementorumlibr01euclgoog_0177'
p692
g2
(g6
S'\xff\xc8\\y\x89B=?'
p693
tp694
Rp695
sS'elementorumlibr01euclgoog_0176'
p696
g2
(g6
S'\x1d\x0c\x08\x82EyA?'
p697
tp698
Rp699
sS'elementorumlibr01euclgoog_0175'
p700
g2
(g6
S'\xee*eT\x97{7?'
p701
tp702
Rp703
sS'elementorumlibr01euclgoog_0174'
p704
g2
(g6
S'\xd8\x8a\xda\xaa\xf8\xd6=?'
p705
tp706
Rp707
sS'elementorumlibr01euclgoog_0173'
p708
g2
(g6
S'dv\xa4H\xf8\x0bA?'
p709
tp710
Rp711
sS'elementorumlibr01euclgoog_0172'
p712
g2
(g6
S'\xc2\x90\xa0\n\x0c\xaaE?'
p713
tp714
Rp715
sS'elementorumlibr01euclgoog_0171'
p716
g2
(g6
S'\xb60lo\xe4x7?'
p717
tp718
Rp719
sS'elementorumlibr01euclgoog_0170'
p720
g2
(g6
S'@\x13\x1b\xb3\x8b\x17:?'
p721
tp722
Rp723
sS'elementorumlibr01euclgoog_0269'
p724
g2
(g6
S'\xe7b\xa1\x90\xc9\xebG?'
p725
tp726
Rp727
sS'elementorumlibr01euclgoog_0123'
p728
g2
(g6
S'\xc5\x14\x8ax\xb1\xe5=?'
p729
tp730
Rp731
sS'elementorumlibr01euclgoog_0268'
p732
g2
(g6
S'\xa7\xc2/\x06uG<?'
p733
tp734
Rp735
sS'elementorumlibr01euclgoog_0191'
p736
g2
(g6
S'q\xa8P\xb7\x01\x16=?'
p737
tp738
Rp739
sS'elementorumlibr01euclgoog_0190'
p740
g2
(g6
S'\xba\x1bn\xe3\xf6F7?'
p741
tp742
Rp743
sS'elementorumlibr01euclgoog_0193'
p744
g2
(g6
S'\x97\x8c\x89\x9a.\x018?'
p745
tp746
Rp747
sS'elementorumlibr01euclgoog_0192'
p748
g2
(g6
S')\x98\x97\xd0\xc8\xfb7?'
p749
tp750
Rp751
sS'elementorumlibr01euclgoog_0195'
p752
g2
(g6
S'\xde\xf6%a\xe1\x937?'
p753
tp754
Rp755
sS'elementorumlibr01euclgoog_0194'
p756
g2
(g6
S'\xe2Rh\xdc\xdb\xf99?'
p757
tp758
Rp759
sS'elementorumlibr01euclgoog_0154'
p760
g2
(g6
S'\x07\xc2\xe0\x8f\x18\xa37?'
p761
tp762
Rp763
sS'elementorumlibr01euclgoog_0196'
p764
g2
(g6
S'\x96\xb1\xf6l\xf4\x919?'
p765
tp766
Rp767
sS'elementorumlibr01euclgoog_0199'
p768
g2
(g6
S'_{\x99\x99\xf7\xe69?'
p769
tp770
Rp771
sS'elementorumlibr01euclgoog_0198'
p772
g2
(g6
S'\xfb\xf4Q!\xfb\x8b;?'
p773
tp774
Rp775
sS'elementorumlibr01euclgoog_0238'
p776
g2
(g6
S'\x1f\xd7\x91t\x91\x918?'
p777
tp778
Rp779
sS'elementorumlibr01euclgoog_0050'
p780
g2
(g6
S'g\xadr\t\xb0r8?'
p781
tp782
Rp783
sS'elementorumlibr01euclgoog_0051'
p784
g2
(g6
S'(K\x0f\xe3\xe0\xa96?'
p785
tp786
Rp787
sS'elementorumlibr01euclgoog_0052'
p788
g2
(g6
S'u\xdeh}\x07\xca6?'
p789
tp790
Rp791
sS'elementorumlibr01euclgoog_0053'
p792
g2
(g6
S'\x16\x99\xa4c\x87\xfa>?'
p793
tp794
Rp795
sS'elementorumlibr01euclgoog_0054'
p796
g2
(g6
S'[5u\x9f\xeaj6?'
p797
tp798
Rp799
sS'elementorumlibr01euclgoog_0055'
p800
g2
(g6
S'\xaf\xc4\xd8\xeasx??'
p801
tp802
Rp803
sS'elementorumlibr01euclgoog_0056'
p804
g2
(g6
S'\\8{J;\x1f;?'
p805
tp806
Rp807
sS'elementorumlibr01euclgoog_0057'
p808
g2
(g6
S'\x9f\xcd\xe1\x1c\xfb\xa1??'
p809
tp810
Rp811
sS'elementorumlibr01euclgoog_0058'
p812
g2
(g6
S'\x15a e\xf7\x02<?'
p813
tp814
Rp815
sS'elementorumlibr01euclgoog_0059'
p816
g2
(g6
S':\xaa\x87\xb0\x89}7?'
p817
tp818
Rp819
sS'elementorumlibr01euclgoog_0324'
p820
g2
(g6
S')\xceIn\xe5\xe5E?'
p821
tp822
Rp823
sS'elementorumlibr01euclgoog_0322'
p824
g2
(g6
S'\x00,1kdqH?'
p825
tp826
Rp827
sS'elementorumlibr01euclgoog_0323'
p828
g2
(g6
S'O\x87;\x1e\xbeL@?'
p829
tp830
Rp831
sS'elementorumlibr01euclgoog_0320'
p832
g2
(g6
S'\x07Q\x87|\xfe\x89G?'
p833
tp834
Rp835
sS'elementorumlibr01euclgoog_0239'
p836
g2
(g6
S'\xffn\x13\x8e%\xc28?'
p837
tp838
Rp839
sS'elementorumlibr01euclgoog_0160'
p840
g2
(g6
S'V\xd5j\xca\x85\x1c8?'
p841
tp842
Rp843
sS'elementorumlibr01euclgoog_0108'
p844
g2
(g6
S'\xde\x02\x95L\x82\x8d7?'
p845
tp846
Rp847
sS'elementorumlibr01euclgoog_0109'
p848
g2
(g6
S',\x16\x1f\x87\xef\x068?'
p849
tp850
Rp851
sS'elementorumlibr01euclgoog_0122'
p852
g2
(g6
S'x:}~SE8?'
p853
tp854
Rp855
sS'elementorumlibr01euclgoog_0279'
p856
g2
(g6
S'\x83z*\\m\xe6??'
p857
tp858
Rp859
sS'elementorumlibr01euclgoog_0102'
p860
g2
(g6
S'?\xe9\x96g\x05\x816?'
p861
tp862
Rp863
sS'elementorumlibr01euclgoog_0103'
p864
g2
(g6
S'\xd0\xf3$m\x19\xbb>?'
p865
tp866
Rp867
sS'elementorumlibr01euclgoog_0100'
p868
g2
(g6
S'm\xc1>-\x06\xb89?'
p869
tp870
Rp871
sS'elementorumlibr01euclgoog_0101'
p872
g2
(g6
S',QG\xe8\xf1\xb35?'
p873
tp874
Rp875
sS'elementorumlibr01euclgoog_0106'
p876
g2
(g6
S'=\x9d\xb2Buq@?'
p877
tp878
Rp879
sS'elementorumlibr01euclgoog_0107'
p880
g2
(g6
S'\x98\x05\xc4\xdc\x16L9?'
p881
tp882
Rp883
sS'elementorumlibr01euclgoog_0104'
p884
g2
(g6
S'?3\xa8r}R8?'
p885
tp886
Rp887
sS'elementorumlibr01euclgoog_0105'
p888
g2
(g6
S'\x82\xf5P\x81\xe6\xe68?'
p889
tp890
Rp891
sS'elementorumlibr01euclgoog_0261'
p892
g2
(g6
S'_\xc2\x98\xeaA)C?'
p893
tp894
Rp895
sS'elementorumlibr01euclgoog_0234'
p896
g2
(g6
S')\xd4\xfb\xbe\x12\xa47?'
p897
tp898
Rp899
sS'elementorumlibr01euclgoog_0298'
p900
g2
(g6
S'\x13_\xcd\xec\xc3sF?'
p901
tp902
Rp903
sS'elementorumlibr01euclgoog_0163'
p904
g2
(g6
S'\x99\x05\xc4\xdc\x16L9?'
p905
tp906
Rp907
sS'elementorumlibr01euclgoog_0235'
p908
g2
(g6
S'>\x03\xacl\xb3\xb88?'
p909
tp910
Rp911
sS'elementorumlibr01euclgoog_0292'
p912
g2
(g6
S' \xd5\xc0\xe70\x10\x1f?'
p913
tp914
Rp915
sS'elementorumlibr01euclgoog_0293'
p916
g2
(g6
S"\x88'\x0f,\xb3\xbaF?"
p917
tp918
Rp919
sS'elementorumlibr01euclgoog_0290'
p920
g2
(g6
S'5\x89\r&\x0e\xaa)?'
p921
tp922
Rp923
sS'elementorumlibr01euclgoog_0291'
p924
g2
(g6
S'v\xc7H*\xe9*\xf2>'
p925
tp926
Rp927
sS'elementorumlibr01euclgoog_0296'
p928
g2
(g6
S',\x115\\\xd7k??'
p929
tp930
Rp931
sS'elementorumlibr01euclgoog_0236'
p932
g2
(g6
S'\x96\xb1\xf6l\xf4\x919?'
p933
tp934
Rp935
sS'elementorumlibr01euclgoog_0294'
p936
g2
(g6
S'\xbf\xb9\x03R\xc58@?'
p937
tp938
Rp939
sS'elementorumlibr01euclgoog_0295'
p940
g2
(g6
S'n\xcf\x1c\x99\xb9\x9fI?'
p941
tp942
Rp943
sS'elementorumlibr01euclgoog_0231'
p944
g2
(g6
S'R"\xed\xd3{n8?'
p945
tp946
Rp947
sS'elementorumlibr01euclgoog_0237'
p948
g2
(g6
S'\x01\x0eB\xcd\x15\x897?'
p949
tp950
Rp951
sS'elementorumlibr01euclgoog_0317'
p952
g2
(g6
S'\x9ex\xde\x06\xca`D?'
p953
tp954
Rp955
sS'elementorumlibr01euclgoog_0288'
p956
g2
(g6
S'\xbf\x13\x0bF\xe5\x9cE?'
p957
tp958
Rp959
sS'elementorumlibr01euclgoog_0128'
p960
g2
(g6
S'\x1ffv\x019\xab;?'
p961
tp962
Rp963
sS'elementorumlibr01euclgoog_0260'
p964
g2
(g6
S'b2\x80\xd5\xee\xcfI?'
p965
tp966
Rp967
sS'elementorumlibr01euclgoog_0129'
p968
g2
(g6
S'\xcay.w\xe4\xe4:?'
p969
tp970
Rp971
sS'elementorumlibr01euclgoog_0168'
p972
g2
(g6
S';\x05\x96\xa1\xd8\x8b:?'
p973
tp974
Rp975
sS'elementorumlibr01euclgoog_0221'
p976
g2
(g6
S'\xa9\xb7\x11R\x0cc<?'
p977
tp978
Rp979
sS'elementorumlibr01euclgoog_0232'
p980
g2
(g6
S')\xd4\xfb\xbe\x12\xa47?'
p981
tp982
Rp983
sS'elementorumlibr01euclgoog_0169'
p984
g2
(g6
S'l\xe5\xdd%\xb6\x818?'
p985
tp986
Rp987
sS'elementorumlibr01euclgoog_0233'
p988
g2
(g6
S'\x06E\x17vJ^8?'
p989
tp990
Rp991
sS'elementorumlibr01euclgoog_0272'
p992
g2
(g6
S'C&\xb6N2)5?'
p993
tp994
Rp995
sS'elementorumlibr01euclgoog_0314'
p996
g2
(g6
S'\x96\x8f\x197\xc2\x1cL?'
p997
tp998
Rp999
sS'elementorumlibr01euclgoog_0119'
p1000
g2
(g6
S"\xd7pj\x03\x1c'>?"
p1001
tp1002
Rp1003
sS'elementorumlibr01euclgoog_0118'
p1004
g2
(g6
S'\xde\x96\xb7br0;?'
p1005
tp1006
Rp1007
sS'elementorumlibr01euclgoog_0249'
p1008
g2
(g6
S'}\x90Vj\xab\xeeA?'
p1009
tp1010
Rp1011
sS'elementorumlibr01euclgoog_0273'
p1012
g2
(g6
S'5\x89\r&\x0e\xaa)?'
p1013
tp1014
Rp1015
sS'elementorumlibr01euclgoog_0316'
p1016
g2
(g6
S'4\xbe\xe27\xa0\x03C?'
p1017
tp1018
Rp1019
sS'elementorumlibr01euclgoog_0197'
p1020
g2
(g6
S'Sn\xc0\x08\x9eu9?'
p1021
tp1022
Rp1023
sS'elementorumlibr01euclgoog_0321'
p1024
g2
(g6
S'\x11X<L\xe7\x85@?'
p1025
tp1026
Rp1027
sS'elementorumlibr01euclgoog_0111'
p1028
g2
(g6
S'\x8fl\xa4\xbf\xb2\xd3;?'
p1029
tp1030
Rp1031
sS'elementorumlibr01euclgoog_0110'
p1032
g2
(g6
S'\xc5%\xaa\x93w\x16:?'
p1033
tp1034
Rp1035
sS'elementorumlibr01euclgoog_0113'
p1036
g2
(g6
S'\x93v\x17\x98\xa7\xd0:?'
p1037
tp1038
Rp1039
sS'elementorumlibr01euclgoog_0112'
p1040
g2
(g6
S'\x98\xdfQ\xcaND6?'
p1041
tp1042
Rp1043
sS'elementorumlibr01euclgoog_0115'
p1044
g2
(g6
S'\x027\x84\xaa\x17\x87F?'
p1045
tp1046
Rp1047
sS'elementorumlibr01euclgoog_0114'
p1048
g2
(g6
S'\x9bBi\x83o\x1a@?'
p1049
tp1050
Rp1051
sS'elementorumlibr01euclgoog_0117'
p1052
g2
(g6
S'\x840y\xe2\xe8\x936?'
p1053
tp1054
Rp1055
sS'elementorumlibr01euclgoog_0116'
p1056
g2
(g6
S'{w\n,C\xb1G?'
p1057
tp1058
Rp1059
sS'elementorumlibr01euclgoog_0289'
p1060
g2
(g6
S'}73\t"\xb1J?'
p1061
tp1062
Rp1063
sS'elementorumlibr01euclgoog_0220'
p1064
g2
(g6
S'\x18\xc5)\x9e"M9?'
p1065
tp1066
Rp1067
sS'elementorumlibr01euclgoog_0276'
p1068
g2
(g6
S'\x98\xad\xd2B&\x989?'
p1069
tp1070
Rp1071
sS'elementorumlibr01euclgoog_0318'
p1072
g2
(g6
S'\xd5\x11d\xcd\xb8\xccC?'
p1073
tp1074
Rp1075
sS'elementorumlibr01euclgoog_0281'
p1076
g2
(g6
S'e\xe0\x91OFpD?'
p1077
tp1078
Rp1079
sS'elementorumlibr01euclgoog_0280'
p1080
g2
(g6
S'\xcf\n\xbbb)\x80&?'
p1081
tp1082
Rp1083
sS'elementorumlibr01euclgoog_0283'
p1084
g2
(g6
S'\xb4v7\x8e\x9d\x90B?'
p1085
tp1086
Rp1087
sS'elementorumlibr01euclgoog_0229'
p1088
g2
(g6
S'Sn\xc0\x08\x9eu9?'
p1089
tp1090
Rp1091
sS'elementorumlibr01euclgoog_0285'
p1092
g2
(g6
S'\xb7\xd0\xc44j\xccE?'
p1093
tp1094
Rp1095
sS'elementorumlibr01euclgoog_0284'
p1096
g2
(g6
S'H\x9e\xfc\x00c\xe0E?'
p1097
tp1098
Rp1099
sS'elementorumlibr01euclgoog_0287'
p1100
g2
(g6
S'~7\xb9\xbb\xce\x88H?'
p1101
tp1102
Rp1103
sS'elementorumlibr01euclgoog_0286'
p1104
g2
(g6
S'U$\xf7\x0bS\xfa\x1b?'
p1105
tp1106
Rp1107
sS'elementorumlibr01euclgoog_0315'
p1108
g2
(g6
S'f\xaa\xc6\x87\x1f\x87J?'
p1109
tp1110
Rp1111
sS'elementorumlibr01euclgoog_0181'
p1112
g2
(g6
S'&\xc4\x8cx:E6?'
p1113
tp1114
Rp1115
sS'elementorumlibr01euclgoog_0308'
p1116
g2
(g6
S'\xf7\x95%Hv\x8f>?'
p1117
tp1118
Rp1119
sS'elementorumlibr01euclgoog_0224'
p1120
g2
(g6
S'\x8aQ\xc2\xd1\xcc`;?'
p1121
tp1122
Rp1123
sS'elementorumlibr01euclgoog_0300'
p1124
g2
(g6
S'\xdbk\x83\x8b\x8b\x8f@?'
p1125
tp1126
Rp1127
sS'elementorumlibr01euclgoog_0301'
p1128
g2
(g6
S'\xee4u\xe9\xc6\xde;?'
p1129
tp1130
Rp1131
sS'elementorumlibr01euclgoog_0241'
p1132
g2
(g6
S'J\x8f;\xbb6;??'
p1133
tp1134
Rp1135
sS'elementorumlibr01euclgoog_0303'
p1136
g2
(g6
S'\xe6&\x04\xea\xddgE?'
p1137
tp1138
Rp1139
sS'elementorumlibr01euclgoog_0304'
p1140
g2
(g6
S'{\xdd+\x15\x02ME?'
p1141
tp1142
Rp1143
sS'elementorumlibr01euclgoog_0305'
p1144
g2
(g6
S'G\x9e\xfc\x00c\xe0E?'
p1145
tp1146
Rp1147
sS'elementorumlibr01euclgoog_0306'
p1148
g2
(g6
S'5\xdcL\x85\xd4\xe3E?'
p1149
tp1150
Rp1151
sS'elementorumlibr01euclgoog_0307'
p1152
g2
(g6
S'\xaa\x86$w\x8fJC?'
p1153
tp1154
Rp1155
sS'elementorumlibr01euclgoog_0124'
p1156
g2
(g6
S'\x9c\xd4\x0eT\t\x9c:?'
p1157
tp1158
Rp1159
sS'elementorumlibr01euclgoog_0125'
p1160
g2
(g6
S'\xf2\xcf\xb5wU\xb49?'
p1161
tp1162
Rp1163
sS'elementorumlibr01euclgoog_0126'
p1164
g2
(g6
S'7\xc0\xfag\xe1\xe1=?'
p1165
tp1166
Rp1167
sS'elementorumlibr01euclgoog_0127'
p1168
g2
(g6
S'\x1c\xe1\xe6\xc0\xfc\x0fA?'
p1169
tp1170
Rp1171
sS'elementorumlibr01euclgoog_0120'
p1172
g2
(g6
S'5;\xc1\xfbfc>?'
p1173
tp1174
Rp1175
sS'elementorumlibr01euclgoog_0121'
p1176
g2
(g6
S'c\x04\x80\x17\xf2u=?'
p1177
tp1178
Rp1179
sS'elementorumlibr01euclgoog_0049'
p1180
g2
(g6
S'o\x8a\xeb\xc7T\xc36?'
p1181
tp1182
Rp1183
sS'elementorumlibr01euclgoog_0048'
p1184
g2
(g6
S'\xb0\x12JJ\x85\x166?'
p1185
tp1186
Rp1187
sS'elementorumlibr01euclgoog_0047'
p1188
g2
(g6
S'\x84\xdfa\xf0\xbe\x1b7?'
p1189
tp1190
Rp1191
sS'elementorumlibr01euclgoog_0046'
p1192
g2
(g6
S'\x83Yl\x92\x1d\x86=?'
p1193
tp1194
Rp1195
sS'elementorumlibr01euclgoog_0045'
p1196
g2
(g6
S'\x94%\xe7\xb1\x95\x94??'
p1197
tp1198
Rp1199
sS'elementorumlibr01euclgoog_0044'
p1200
g2
(g6
S'F\x10\xfcw \x18D?'
p1201
tp1202
Rp1203
sS'elementorumlibr01euclgoog_0043'
p1204
g2
(g6
S'\xa5GZ.\x0f3=?'
p1205
tp1206
Rp1207
sS'elementorumlibr01euclgoog_0042'
p1208
g2
(g6
S'\x044\xd7\xf7\x97Q@?'
p1209
tp1210
Rp1211
sS'elementorumlibr01euclgoog_0041'
p1212
g2
(g6
S'\xc3\xc7\xbat/zB?'
p1213
tp1214
Rp1215
sS'elementorumlibr01euclgoog_0040'
p1216
g2
(g6
S'\xb0\x05B\xfa\xf5\xe6@?'
p1217
tp1218
Rp1219
sS'elementorumlibr01euclgoog_0202'
p1220
g2
(g6
S'\xad\x7f\xd5Y\x85m9?'
p1221
tp1222
Rp1223
sS'elementorumlibr01euclgoog_0201'
p1224
g2
(g6
S'%\xefz\xf5T\xb28?'
p1225
tp1226
Rp1227
sS'elementorumlibr01euclgoog_0310'
p1228
g2
(g6
S'7r\xf1\x1f\xe0\xcb=?'
p1229
tp1230
Rp1231
sS'elementorumlibr01euclgoog_0151'
p1232
g2
(g6
S"\x10\xb2'HR\xd36?"
p1233
tp1234
Rp1235
sS'elementorumlibr01euclgoog_0274'
p1236
g2
(g6
S'\xc6\xce<\xe6\x07\xda\x0f?'
p1237
tp1238
Rp1239
sS'elementorumlibr01euclgoog_0200'
p1240
g2
(g6
S'0\x04I\x92\x9b\xc0;?'
p1241
tp1242
Rp1243
sS'elementorumlibr01euclgoog_0150'
p1244
g2
(g6
S'\xcay.w\xe4\xe4:?'
p1245
tp1246
Rp1247
s.