(dp0
S'commandinus_1731_v1_1_0313'
p1
cnumpy.core.multiarray
scalar
p2
(cnumpy
dtype
p3
(S'f8'
p4
I0
I1
tp5
Rp6
(I3
S'<'
p7
NNNI-1
I-1
I0
tp8
bS'a\xa3)\x82\xe9\xe9H?'
p9
tp10
Rp11
sS'commandinus_1731_v1_1_0213'
p12
g2
(g6
S'\x12\xac9\xf2\x07P=?'
p13
tp14
Rp15
sS'commandinus_1731_v1_1_0287'
p16
g2
(g6
S'~7\xb9\xbb\xce\x88H?'
p17
tp18
Rp19
sS'commandinus_1731_v1_1_0240'
p20
g2
(g6
S'1\xc8\xe4\xa3Q\x18<?'
p21
tp22
Rp23
sS'commandinus_1731_v1_1_0212'
p24
g2
(g6
S'HZ_\xa2\x98K<?'
p25
tp26
Rp27
sS'commandinus_1731_v1_1_0312'
p28
g2
(g6
S'(tBz\xc5\x81@?'
p29
tp30
Rp31
sS'commandinus_1731_v1_1_0206'
p32
g2
(g6
S'\x96\xb1\xf6l\xf4\x919?'
p33
tp34
Rp35
sS'commandinus_1731_v1_1_0207'
p36
g2
(g6
S'\xcf\x14\xfc9\xd4{8?'
p37
tp38
Rp39
sS'commandinus_1731_v1_1_0204'
p40
g2
(g6
S'\x9d\xc3^Cc\xd68?'
p41
tp42
Rp43
sS'commandinus_1731_v1_1_0205'
p44
g2
(g6
S'A\xd7\xb6\xc4Ao:?'
p45
tp46
Rp47
sS'commandinus_1731_v1_1_0202'
p48
g2
(g6
S'\xad\x7f\xd5Y\x85m9?'
p49
tp50
Rp51
sS'commandinus_1731_v1_1_0203'
p52
g2
(g6
S'1\x8c\x80\xb5\x07p<?'
p53
tp54
Rp55
sS'commandinus_1731_v1_1_0200'
p56
g2
(g6
S'0\x04I\x92\x9b\xc0;?'
p57
tp58
Rp59
sS'commandinus_1731_v1_1_0201'
p60
g2
(g6
S'%\xefz\xf5T\xb28?'
p61
tp62
Rp63
sS'commandinus_1731_v1_1_0294'
p64
g2
(g6
S'\xbf\xb9\x03R\xc58@?'
p65
tp66
Rp67
sS'commandinus_1731_v1_1_0253'
p68
g2
(g6
S'\xee\x05\xf8\x81\xd1\xeaE?'
p69
tp70
Rp71
sS'commandinus_1731_v1_1_0208'
p72
g2
(g6
S'\x8e#\xe5\xdf\xe2\xbd<?'
p73
tp74
Rp75
sS'commandinus_1731_v1_1_0209'
p76
g2
(g6
S'\xac\x0e\x95R\x9d\xd56?'
p77
tp78
Rp79
sS'commandinus_1731_v1_1_0174'
p80
g2
(g6
S'\xd8\x8a\xda\xaa\xf8\xd6=?'
p81
tp82
Rp83
sS'commandinus_1731_v1_1_0175'
p84
g2
(g6
S'\xee*eT\x97{7?'
p85
tp86
Rp87
sS'commandinus_1731_v1_1_0176'
p88
g2
(g6
S'\x1d\x0c\x08\x82EyA?'
p89
tp90
Rp91
sS'commandinus_1731_v1_1_0177'
p92
g2
(g6
S'\xff\xc8\\y\x89B=?'
p93
tp94
Rp95
sS'commandinus_1731_v1_1_0170'
p96
g2
(g6
S'@\x13\x1b\xb3\x8b\x17:?'
p97
tp98
Rp99
sS'commandinus_1731_v1_1_0171'
p100
g2
(g6
S'\xb60lo\xe4x7?'
p101
tp102
Rp103
sS'commandinus_1731_v1_1_0172'
p104
g2
(g6
S'\xc2\x90\xa0\n\x0c\xaaE?'
p105
tp106
Rp107
sS'commandinus_1731_v1_1_0173'
p108
g2
(g6
S'dv\xa4H\xf8\x0bA?'
p109
tp110
Rp111
sS'commandinus_1731_v1_1_0178'
p112
g2
(g6
S'H\xad\xba\xacf\x0b:?'
p113
tp114
Rp115
sS'commandinus_1731_v1_1_0179'
p116
g2
(g6
S'.\xf4\xd9K\xc3a:?'
p117
tp118
Rp119
sS'commandinus_1731_v1_1_0293'
p120
g2
(g6
S"\x88'\x0f,\xb3\xbaF?"
p121
tp122
Rp123
sS'commandinus_1731_v1_1_0079'
p124
g2
(g6
S'<}\x90Z:,>?'
p125
tp126
Rp127
sS'commandinus_1731_v1_1_0078'
p128
g2
(g6
S'\x9d\xc5Z\x1f\x0b\xb0:?'
p129
tp130
Rp131
sS'commandinus_1731_v1_1_0075'
p132
g2
(g6
S'\x82^\xed\xe4\xbc\xc3=?'
p133
tp134
Rp135
sS'commandinus_1731_v1_1_0074'
p136
g2
(g6
S'\xb5\xe0\xd1\xa1\x96\x87<?'
p137
tp138
Rp139
sS'commandinus_1731_v1_1_0077'
p140
g2
(g6
S'\xd3\xb2\xc6\x86e%??'
p141
tp142
Rp143
sS'commandinus_1731_v1_1_0076'
p144
g2
(g6
S'\xa0S\xd7z\x9c79?'
p145
tp146
Rp147
sS'commandinus_1731_v1_1_0071'
p148
g2
(g6
S'U\xee\xff9\xc7\x93;?'
p149
tp150
Rp151
sS'commandinus_1731_v1_1_0070'
p152
g2
(g6
S'i\x18\xfa\xb30$>?'
p153
tp154
Rp155
sS'commandinus_1731_v1_1_0073'
p156
g2
(g6
S'\x06\x90$\xf3\xdf\xb69?'
p157
tp158
Rp159
sS'commandinus_1731_v1_1_0072'
p160
g2
(g6
S'e\xe2\xf0\\\xef\xb56?'
p161
tp162
Rp163
sS'commandinus_1731_v1_1_0285'
p164
g2
(g6
S'\xb7\xd0\xc44j\xccE?'
p165
tp166
Rp167
sS'commandinus_1731_v1_1_0118'
p168
g2
(g6
S'\xde\x96\xb7br0;?'
p169
tp170
Rp171
sS'commandinus_1731_v1_1_0246'
p172
g2
(g6
S'K\x10\x85\xfd\x0c*9?'
p173
tp174
Rp175
sS'commandinus_1731_v1_1_0119'
p176
g2
(g6
S"\xd7pj\x03\x1c'>?"
p177
tp178
Rp179
sS'commandinus_1731_v1_1_0280'
p180
g2
(g6
S'\xcf\n\xbbb)\x80&?'
p181
tp182
Rp183
sS'commandinus_1731_v1_1_0196'
p184
g2
(g6
S'\x96\xb1\xf6l\xf4\x919?'
p185
tp186
Rp187
sS'commandinus_1731_v1_1_0197'
p188
g2
(g6
S'Sn\xc0\x08\x9eu9?'
p189
tp190
Rp191
sS'commandinus_1731_v1_1_0194'
p192
g2
(g6
S'\xe2Rh\xdc\xdb\xf99?'
p193
tp194
Rp195
sS'commandinus_1731_v1_1_0160'
p196
g2
(g6
S'V\xd5j\xca\x85\x1c8?'
p197
tp198
Rp199
sS'commandinus_1731_v1_1_0192'
p200
g2
(g6
S')\x98\x97\xd0\xc8\xfb7?'
p201
tp202
Rp203
sS'commandinus_1731_v1_1_0193'
p204
g2
(g6
S'\x97\x8c\x89\x9a.\x018?'
p205
tp206
Rp207
sS'commandinus_1731_v1_1_0190'
p208
g2
(g6
S'\xd7\xfb\xb4\xa6\xf6f6?'
p209
tp210
Rp211
sS'commandinus_1731_v1_1_0191'
p212
g2
(g6
S'q\xa8P\xb7\x01\x16=?'
p213
tp214
Rp215
sS'commandinus_1731_v1_1_0219'
p216
g2
(g6
S'!D\xb6\xe4\xba\x85=?'
p217
tp218
Rp219
sS'commandinus_1731_v1_1_0218'
p220
g2
(g6
S'v\xc1@c\x1c\x139?'
p221
tp222
Rp223
sS'commandinus_1731_v1_1_0198'
p224
g2
(g6
S'\xfb\xf4Q!\xfb\x8b;?'
p225
tp226
Rp227
sS'commandinus_1731_v1_1_0199'
p228
g2
(g6
S'\xb6\xdd\x10e\x16\xb99?'
p229
tp230
Rp231
sS'commandinus_1731_v1_1_0282'
p232
g2
(g6
S'\xder\x14,h}F?'
p233
tp234
Rp235
sS'commandinus_1731_v1_1_0296'
p236
g2
(g6
S',\x115\\\xd7k??'
p237
tp238
Rp239
sS'commandinus_1731_v1_1_0321'
p240
g2
(g6
S'\x11X<L\xe7\x85@?'
p241
tp242
Rp243
sS'commandinus_1731_v1_1_0291'
p244
g2
(g6
S'v\xc7H*\xe9*\xf2>'
p245
tp246
Rp247
sS'commandinus_1731_v1_1_0248'
p248
g2
(g6
S'\xad,zO\xb7\xad;?'
p249
tp250
Rp251
sS'commandinus_1731_v1_1_0290'
p252
g2
(g6
S'5\x89\r&\x0e\xaa)?'
p253
tp254
Rp255
sS'commandinus_1731_v1_1_0040'
p256
g2
(g6
S'n\x1a\xe3\xca4\xd4@?'
p257
tp258
Rp259
sS'commandinus_1731_v1_1_0041'
p260
g2
(g6
S'\xc3\xc7\xbat/zB?'
p261
tp262
Rp263
sS'commandinus_1731_v1_1_0042'
p264
g2
(g6
S'\x044\xd7\xf7\x97Q@?'
p265
tp266
Rp267
sS'commandinus_1731_v1_1_0043'
p268
g2
(g6
S'\xa5GZ.\x0f3=?'
p269
tp270
Rp271
sS'commandinus_1731_v1_1_0044'
p272
g2
(g6
S'F\x10\xfcw \x18D?'
p273
tp274
Rp275
sS'commandinus_1731_v1_1_0045'
p276
g2
(g6
S'\x94%\xe7\xb1\x95\x94??'
p277
tp278
Rp279
sS'commandinus_1731_v1_1_0046'
p280
g2
(g6
S'\x83Yl\x92\x1d\x86=?'
p281
tp282
Rp283
sS'commandinus_1731_v1_1_0047'
p284
g2
(g6
S'HC\xff#\x11\xd26?'
p285
tp286
Rp287
sS'commandinus_1731_v1_1_0048'
p288
g2
(g6
S'\xb0\x12JJ\x85\x166?'
p289
tp290
Rp291
sS'commandinus_1731_v1_1_0049'
p292
g2
(g6
S'o\x8a\xeb\xc7T\xc36?'
p293
tp294
Rp295
sS'commandinus_1731_v1_1_0161'
p296
g2
(g6
S'\x0fS`\xee\x9f\\:?'
p297
tp298
Rp299
sS'commandinus_1731_v1_1_0111'
p300
g2
(g6
S'\x8fl\xa4\xbf\xb2\xd3;?'
p301
tp302
Rp303
sS'commandinus_1731_v1_1_0167'
p304
g2
(g6
S'>\xf8\x7f\x11{\xa5:?'
p305
tp306
Rp307
sS'commandinus_1731_v1_1_0166'
p308
g2
(g6
S'\xd7s\xe8\x07\x13\x129?'
p309
tp310
Rp311
sS'commandinus_1731_v1_1_0165'
p312
g2
(g6
S'\xc1\xd1%\xb0\nH9?'
p313
tp314
Rp315
sS'commandinus_1731_v1_1_0164'
p316
g2
(g6
S'\xdf\xbaV["\xfa9?'
p317
tp318
Rp319
sS'commandinus_1731_v1_1_0244'
p320
g2
(g6
S'\x1f\xb2q\x9c\xd6\xfcA?'
p321
tp322
Rp323
sS'commandinus_1731_v1_1_0320'
p324
g2
(g6
S'\x07Q\x87|\xfe\x89G?'
p325
tp326
Rp327
sS'commandinus_1731_v1_1_0258'
p328
g2
(g6
S'4\xbe\xe27\xa0\x03C?'
p329
tp330
Rp331
sS'commandinus_1731_v1_1_0185'
p332
g2
(g6
S'\x81\xdc\x8f\xaa\xb7\xfd<?'
p333
tp334
Rp335
sS'commandinus_1731_v1_1_0184'
p336
g2
(g6
S'\xf2\xf7\xe7\xd6yy<?'
p337
tp338
Rp339
sS'commandinus_1731_v1_1_0187'
p340
g2
(g6
S'\xa6\xa9\xd1q`\xd19?'
p341
tp342
Rp343
sS'commandinus_1731_v1_1_0186'
p344
g2
(g6
S'\x80\x11\x06\xb8k\xe55?'
p345
tp346
Rp347
sS'commandinus_1731_v1_1_0181'
p348
g2
(g6
S'&\xc4\x8cx:E6?'
p349
tp350
Rp351
sS'commandinus_1731_v1_1_0180'
p352
g2
(g6
S'A\x13\x1b\xb3\x8b\x17:?'
p353
tp354
Rp355
sS'commandinus_1731_v1_1_0183'
p356
g2
(g6
S'>\x03\xacl\xb3\xb88?'
p357
tp358
Rp359
sS'commandinus_1731_v1_1_0182'
p360
g2
(g6
S"'\x10`\xad\\L7?"
p361
tp362
Rp363
sS'commandinus_1731_v1_1_0189'
p364
g2
(g6
S'K\x10\x85\xfd\x0c*9?'
p365
tp366
Rp367
sS'commandinus_1731_v1_1_0188'
p368
g2
(g6
S') \xcf\xf34\xab8?'
p369
tp370
Rp371
sS'commandinus_1731_v1_1_0245'
p372
g2
(g6
S'(\x10`\xad\\L7?'
p373
tp374
Rp375
sS'commandinus_1731_v1_1_0241'
p376
g2
(g6
S'J\x8f;\xbb6;??'
p377
tp378
Rp379
sS'commandinus_1731_v1_1_0238'
p380
g2
(g6
S'\x1f\xd7\x91t\x91\x918?'
p381
tp382
Rp383
sS'commandinus_1731_v1_1_0292'
p384
g2
(g6
S' \xd5\xc0\xe70\x10\x1f?'
p385
tp386
Rp387
sS'commandinus_1731_v1_1_0169'
p388
g2
(g6
S'l\xe5\xdd%\xb6\x818?'
p389
tp390
Rp391
sS'commandinus_1731_v1_1_0247'
p392
g2
(g6
S')E<\xc6\xfa;:?'
p393
tp394
Rp395
sS'commandinus_1731_v1_1_0057'
p396
g2
(g6
S'\x9f\xcd\xe1\x1c\xfb\xa1??'
p397
tp398
Rp399
sS'commandinus_1731_v1_1_0056'
p400
g2
(g6
S'\\8{J;\x1f;?'
p401
tp402
Rp403
sS'commandinus_1731_v1_1_0055'
p404
g2
(g6
S'\xaf\xc4\xd8\xeasx??'
p405
tp406
Rp407
sS'commandinus_1731_v1_1_0054'
p408
g2
(g6
S'[5u\x9f\xeaj6?'
p409
tp410
Rp411
sS'commandinus_1731_v1_1_0053'
p412
g2
(g6
S'\x16\x99\xa4c\x87\xfa>?'
p413
tp414
Rp415
sS'commandinus_1731_v1_1_0052'
p416
g2
(g6
S'u\xdeh}\x07\xca6?'
p417
tp418
Rp419
sS'commandinus_1731_v1_1_0051'
p420
g2
(g6
S'\xca\xbb=(\xa2u6?'
p421
tp422
Rp423
sS'commandinus_1731_v1_1_0050'
p424
g2
(g6
S'g\xadr\t\xb0r8?'
p425
tp426
Rp427
sS'commandinus_1731_v1_1_0116'
p428
g2
(g6
S'{w\n,C\xb1G?'
p429
tp430
Rp431
sS'commandinus_1731_v1_1_0117'
p432
g2
(g6
S'\xa5#\x1df\xf5B6?'
p433
tp434
Rp435
sS'commandinus_1731_v1_1_0114'
p436
g2
(g6
S'\x9bBi\x83o\x1a@?'
p437
tp438
Rp439
sS'commandinus_1731_v1_1_0115'
p440
g2
(g6
S'\x8e\x81Z\x0e\xedxF?'
p441
tp442
Rp443
sS'commandinus_1731_v1_1_0112'
p444
g2
(g6
S'\x98\xdfQ\xcaND6?'
p445
tp446
Rp447
sS'commandinus_1731_v1_1_0113'
p448
g2
(g6
S'\x93v\x17\x98\xa7\xd0:?'
p449
tp450
Rp451
sS'commandinus_1731_v1_1_0059'
p452
g2
(g6
S':\xaa\x87\xb0\x89}7?'
p453
tp454
Rp455
sS'commandinus_1731_v1_1_0058'
p456
g2
(g6
S'\x15a e\xf7\x02<?'
p457
tp458
Rp459
sS'commandinus_1731_v1_1_0306'
p460
g2
(g6
S'5\xdcL\x85\xd4\xe3E?'
p461
tp462
Rp463
sS'commandinus_1731_v1_1_0288'
p464
g2
(g6
S'\xbf\x13\x0bF\xe5\x9cE?'
p465
tp466
Rp467
sS'commandinus_1731_v1_1_0211'
p468
g2
(g6
S'\x1f\xf5vq\xabi=?'
p469
tp470
Rp471
sS'commandinus_1731_v1_1_0163'
p472
g2
(g6
S'\x99\x05\xc4\xdc\x16L9?'
p473
tp474
Rp475
sS'commandinus_1731_v1_1_0214'
p476
g2
(g6
S'l\x10DB\xd3\xff@?'
p477
tp478
Rp479
sS'commandinus_1731_v1_1_0162'
p480
g2
(g6
S'\xdb\xeb\x0b\xe4/\xaa8?'
p481
tp482
Rp483
sS'commandinus_1731_v1_1_0284'
p484
g2
(g6
S'H\x9e\xfc\x00c\xe0E?'
p485
tp486
Rp487
sS'commandinus_1731_v1_1_0022'
p488
g2
(g6
S'\xbc"\xc6\xb4\x1a!7?'
p489
tp490
Rp491
sS'commandinus_1731_v1_1_0023'
p492
g2
(g6
S'\x1aE\x95\x1d\x8a\x1a6?'
p493
tp494
Rp495
sS'commandinus_1731_v1_1_0020'
p496
g2
(g6
S'\xc4\xa4\xc5\xc3\x1e\xa49?'
p497
tp498
Rp499
sS'commandinus_1731_v1_1_0021'
p500
g2
(g6
S'\xc8\xb87}Q\xc1A?'
p501
tp502
Rp503
sS'commandinus_1731_v1_1_0026'
p504
g2
(g6
S'\xf7\x93\xac\xd2\xc7\xa29?'
p505
tp506
Rp507
sS'commandinus_1731_v1_1_0027'
p508
g2
(g6
S'\xbdx\xbe\x11\x1c\xb12?'
p509
tp510
Rp511
sS'commandinus_1731_v1_1_0024'
p512
g2
(g6
S'\xab3V\xe4\x91<<?'
p513
tp514
Rp515
sS'commandinus_1731_v1_1_0025'
p516
g2
(g6
S'$g\x9a*N\x92<?'
p517
tp518
Rp519
sS'commandinus_1731_v1_1_0220'
p520
g2
(g6
S'\x18\xc5)\x9e"M9?'
p521
tp522
Rp523
sS'commandinus_1731_v1_1_0221'
p524
g2
(g6
S'\xa9\xb7\x11R\x0cc<?'
p525
tp526
Rp527
sS'commandinus_1731_v1_1_0028'
p528
g2
(g6
S'\x03\xfa \x9a^=F?'
p529
tp530
Rp531
sS'commandinus_1731_v1_1_0029'
p532
g2
(g6
S'\xcf\xf1F\x7f\xe3\xe3=?'
p533
tp534
Rp535
sS'commandinus_1731_v1_1_0224'
p536
g2
(g6
S'\x8aQ\xc2\xd1\xcc`;?'
p537
tp538
Rp539
sS'commandinus_1731_v1_1_0225'
p540
g2
(g6
S'\xab\xee\x1c\xd1\xd6\x1f>?'
p541
tp542
Rp543
sS'commandinus_1731_v1_1_0226'
p544
g2
(g6
S'F\xf7\x94Q\xf2,=?'
p545
tp546
Rp547
sS'commandinus_1731_v1_1_0227'
p548
g2
(g6
S'U\xf6\xf7+\n%:?'
p549
tp550
Rp551
sS'commandinus_1731_v1_1_0237'
p552
g2
(g6
S'\x01\x0eB\xcd\x15\x897?'
p553
tp554
Rp555
sS'commandinus_1731_v1_1_0109'
p556
g2
(g6
S',\x16\x1f\x87\xef\x068?'
p557
tp558
Rp559
sS'commandinus_1731_v1_1_0108'
p560
g2
(g6
S'\xde\x02\x95L\x82\x8d7?'
p561
tp562
Rp563
sS'commandinus_1731_v1_1_0236'
p564
g2
(g6
S'\x96\xb1\xf6l\xf4\x919?'
p565
tp566
Rp567
sS'commandinus_1731_v1_1_0105'
p568
g2
(g6
S'\x82\xf5P\x81\xe6\xe68?'
p569
tp570
Rp571
sS'commandinus_1731_v1_1_0104'
p572
g2
(g6
S'?3\xa8r}R8?'
p573
tp574
Rp575
sS'commandinus_1731_v1_1_0107'
p576
g2
(g6
S'\x98\x05\xc4\xdc\x16L9?'
p577
tp578
Rp579
sS'commandinus_1731_v1_1_0106'
p580
g2
(g6
S'=\x9d\xb2Buq@?'
p581
tp582
Rp583
sS'commandinus_1731_v1_1_0101'
p584
g2
(g6
S'`n\x8a\xe7\xe9\x945?'
p585
tp586
Rp587
sS'commandinus_1731_v1_1_0100'
p588
g2
(g6
S'm\xc1>-\x06\xb89?'
p589
tp590
Rp591
sS'commandinus_1731_v1_1_0103'
p592
g2
(g6
S'\xd0\xf3$m\x19\xbb>?'
p593
tp594
Rp595
sS'commandinus_1731_v1_1_0102'
p596
g2
(g6
S'e\xc2\x0e\xcbVc6?'
p597
tp598
Rp599
sS'commandinus_1731_v1_1_0299'
p600
g2
(g6
S'\xa5\xf00\x1eT\xc7@?'
p601
tp602
Rp603
sS'commandinus_1731_v1_1_0298'
p604
g2
(g6
S'\x13_\xcd\xec\xc3sF?'
p605
tp606
Rp607
sS'commandinus_1731_v1_1_0324'
p608
g2
(g6
S')\xceIn\xe5\xe5E?'
p609
tp610
Rp611
sS'commandinus_1731_v1_1_0216'
p612
g2
(g6
S'\\y\xa0\ta\x01<?'
p613
tp614
Rp615
sS'commandinus_1731_v1_1_0249'
p616
g2
(g6
S'}\x90Vj\xab\xeeA?'
p617
tp618
Rp619
sS'commandinus_1731_v1_1_0088'
p620
g2
(g6
S'4\x98\xb5;\x01\x9c6?'
p621
tp622
Rp623
sS'commandinus_1731_v1_1_0089'
p624
g2
(g6
S'\x98M\x02\xcev\xdf6?'
p625
tp626
Rp627
sS'commandinus_1731_v1_1_0323'
p628
g2
(g6
S'O\x87;\x1e\xbeL@?'
p629
tp630
Rp631
sS'commandinus_1731_v1_1_0322'
p632
g2
(g6
S'\x00,1kdqH?'
p633
tp634
Rp635
sS'commandinus_1731_v1_1_0084'
p636
g2
(g6
S'n5\xbc\xd5\xf2\xd3@?'
p637
tp638
Rp639
sS'commandinus_1731_v1_1_0085'
p640
g2
(g6
S'\x11\xc3\xe3\x0b\xe05??'
p641
tp642
Rp643
sS'commandinus_1731_v1_1_0086'
p644
g2
(g6
S'\xe4o\x1f\xde\x97`@?'
p645
tp646
Rp647
sS'commandinus_1731_v1_1_0087'
p648
g2
(g6
S'\x82NK6\xd4\xdc>?'
p649
tp650
Rp651
sS'commandinus_1731_v1_1_0080'
p652
g2
(g6
S'\xc2\xae\xc7h]\x1f:?'
p653
tp654
Rp655
sS'commandinus_1731_v1_1_0081'
p656
g2
(g6
S'\x7fXv\xe3W\x8c9?'
p657
tp658
Rp659
sS'commandinus_1731_v1_1_0082'
p660
g2
(g6
S'5^\x91\xf8\xc6h<?'
p661
tp662
Rp663
sS'commandinus_1731_v1_1_0083'
p664
g2
(g6
S'\x91\x91\x15\xb8\xbd7C?'
p665
tp666
Rp667
sS'commandinus_1731_v1_1_0031'
p668
g2
(g6
S'\xe6\x974\xb2\xaf\x8e9?'
p669
tp670
Rp671
sS'commandinus_1731_v1_1_0030'
p672
g2
(g6
S'\xdb\xf1k\xa6\xf3\x9d@?'
p673
tp674
Rp675
sS'commandinus_1731_v1_1_0033'
p676
g2
(g6
S'V\x11\xf5\xea\xd7iD?'
p677
tp678
Rp679
sS'commandinus_1731_v1_1_0032'
p680
g2
(g6
S'K\xd9\x02}\x92K:?'
p681
tp682
Rp683
sS'commandinus_1731_v1_1_0035'
p684
g2
(g6
S'\xa6GZ.\x0f3=?'
p685
tp686
Rp687
sS'commandinus_1731_v1_1_0034'
p688
g2
(g6
S'K\xd9\x02}\x92K:?'
p689
tp690
Rp691
sS'commandinus_1731_v1_1_0037'
p692
g2
(g6
S'\x080*\xf1\x9f\xab=?'
p693
tp694
Rp695
sS'commandinus_1731_v1_1_0036'
p696
g2
(g6
S'\xa9\x00S8\xa1\x829?'
p697
tp698
Rp699
sS'commandinus_1731_v1_1_0039'
p700
g2
(g6
S'\xb8\xb7>\n\x9aoA?'
p701
tp702
Rp703
sS'commandinus_1731_v1_1_0038'
p704
g2
(g6
S'\x02g#\xec-x7?'
p705
tp706
Rp707
sS'commandinus_1731_v1_1_0235'
p708
g2
(g6
S'\x1e\xd7\x91t\x91\x918?'
p709
tp710
Rp711
sS'commandinus_1731_v1_1_0234'
p712
g2
(g6
S')\xd4\xfb\xbe\x12\xa47?'
p713
tp714
Rp715
sS'commandinus_1731_v1_1_0233'
p716
g2
(g6
S'\x06E\x17vJ^8?'
p717
tp718
Rp719
sS'commandinus_1731_v1_1_0232'
p720
g2
(g6
S')\xd4\xfb\xbe\x12\xa47?'
p721
tp722
Rp723
sS'commandinus_1731_v1_1_0231'
p724
g2
(g6
S'R"\xed\xd3{n8?'
p725
tp726
Rp727
sS'commandinus_1731_v1_1_0230'
p728
g2
(g6
S'q\x8ak\xba\xe7=8?'
p729
tp730
Rp731
sS'commandinus_1731_v1_1_0130'
p732
g2
(g6
S'\xf9f\x8c\x8b\x1f\xc18?'
p733
tp734
Rp735
sS'commandinus_1731_v1_1_0131'
p736
g2
(g6
S'\x15t\\/\xe7<8?'
p737
tp738
Rp739
sS'commandinus_1731_v1_1_0132'
p740
g2
(g6
S'\xd0P\x19\xad\xb3\xf36?'
p741
tp742
Rp743
sS'commandinus_1731_v1_1_0133'
p744
g2
(g6
S':\xbb\x84\x96`\xba8?'
p745
tp746
Rp747
sS'commandinus_1731_v1_1_0134'
p748
g2
(g6
S'\x08\x0c\xf2\x9a\x90t9?'
p749
tp750
Rp751
sS'commandinus_1731_v1_1_0135'
p752
g2
(g6
S'\x07\xf7;LV\xcf>?'
p753
tp754
Rp755
sS'commandinus_1731_v1_1_0136'
p756
g2
(g6
S'F\x0cf\xc2d\x9f8?'
p757
tp758
Rp759
sS'commandinus_1731_v1_1_0137'
p760
g2
(g6
S'\x83\xad\x12\x90\x86S;?'
p761
tp762
Rp763
sS'commandinus_1731_v1_1_0138'
p764
g2
(g6
S'l\x8c\xe3p\xc8\x8bB?'
p765
tp766
Rp767
sS'commandinus_1731_v1_1_0139'
p768
g2
(g6
S'\xcer\xe5\x8bK\x7fA?'
p769
tp770
Rp771
sS'commandinus_1731_v1_1_0281'
p772
g2
(g6
S'e\xe0\x91OFpD?'
p773
tp774
Rp775
sS'commandinus_1731_v1_1_0228'
p776
g2
(g6
S'\xe2\xff\x0c\xd2\r:<?'
p777
tp778
Rp779
sS'commandinus_1731_v1_1_0229'
p780
g2
(g6
S'Sn\xc0\x08\x9eu9?'
p781
tp782
Rp783
sS'commandinus_1731_v1_1_0283'
p784
g2
(g6
S'\xb4v7\x8e\x9d\x90B?'
p785
tp786
Rp787
sS'commandinus_1731_v1_1_0210'
p788
g2
(g6
S'\x0c)\x91\x14\xb1s;?'
p789
tp790
Rp791
sS'commandinus_1731_v1_1_0093'
p792
g2
(g6
S'\x9bBi\x83o\x1a@?'
p793
tp794
Rp795
sS'commandinus_1731_v1_1_0092'
p796
g2
(g6
S'^3b\x86\xe7\xe77?'
p797
tp798
Rp799
sS'commandinus_1731_v1_1_0091'
p800
g2
(g6
S'\x88\x95c\xb5!\xa8D?'
p801
tp802
Rp803
sS'commandinus_1731_v1_1_0090'
p804
g2
(g6
S'\x8f\xb6\xb5\xca*\xa5=?'
p805
tp806
Rp807
sS'commandinus_1731_v1_1_0097'
p808
g2
(g6
S'\x98\x05\xc4\xdc\x16L9?'
p809
tp810
Rp811
sS'commandinus_1731_v1_1_0096'
p812
g2
(g6
S'\xf4\xeeh\xaf\x02)9?'
p813
tp814
Rp815
sS'commandinus_1731_v1_1_0095'
p816
g2
(g6
S'\xa7\x10:1\xd3\xdb??'
p817
tp818
Rp819
sS'commandinus_1731_v1_1_0094'
p820
g2
(g6
S'q\xcf\x01ei\x14F?'
p821
tp822
Rp823
sS'commandinus_1731_v1_1_0251'
p824
g2
(g6
S'\x90?-\xbe\xfaFW?'
p825
tp826
Rp827
sS'commandinus_1731_v1_1_0250'
p828
g2
(g6
S'|-\xf2$\xef\xd7\xec>'
p829
tp830
Rp831
sS'commandinus_1731_v1_1_0099'
p832
g2
(g6
S'S\x85\x8c\x1aI\xca??'
p833
tp834
Rp835
sS'commandinus_1731_v1_1_0098'
p836
g2
(g6
S'|\xb0_s- A?'
p837
tp838
Rp839
sS'commandinus_1731_v1_1_0255'
p840
g2
(g6
S'Nl\xc7x\x07\x90K?'
p841
tp842
Rp843
sS'commandinus_1731_v1_1_0254'
p844
g2
(g6
S'\xdf\x9c\xdcu}\x13C?'
p845
tp846
Rp847
sS'commandinus_1731_v1_1_0257'
p848
g2
(g6
S'\xf04\xfb\x9bs\xb6I?'
p849
tp850
Rp851
sS'commandinus_1731_v1_1_0256'
p852
g2
(g6
S"\xaaQ\x0c\x0c'\x05K?"
p853
tp854
Rp855
sS'commandinus_1731_v1_1_0168'
p856
g2
(g6
S';\x05\x96\xa1\xd8\x8b:?'
p857
tp858
Rp859
sS'commandinus_1731_v1_1_0307'
p860
g2
(g6
S'\xaa\x86$w\x8fJC?'
p861
tp862
Rp863
sS'commandinus_1731_v1_1_0308'
p864
g2
(g6
S'\xf7\x95%Hv\x8f>?'
p865
tp866
Rp867
sS'commandinus_1731_v1_1_0127'
p868
g2
(g6
S'\x1c\xe1\xe6\xc0\xfc\x0fA?'
p869
tp870
Rp871
sS'commandinus_1731_v1_1_0126'
p872
g2
(g6
S'7\xc0\xfag\xe1\xe1=?'
p873
tp874
Rp875
sS'commandinus_1731_v1_1_0125'
p876
g2
(g6
S'\xf2\xcf\xb5wU\xb49?'
p877
tp878
Rp879
sS'commandinus_1731_v1_1_0124'
p880
g2
(g6
S'\x9c\xd4\x0eT\t\x9c:?'
p881
tp882
Rp883
sS'commandinus_1731_v1_1_0123'
p884
g2
(g6
S'\xc5\x14\x8ax\xb1\xe5=?'
p885
tp886
Rp887
sS'commandinus_1731_v1_1_0122'
p888
g2
(g6
S'x:}~SE8?'
p889
tp890
Rp891
sS'commandinus_1731_v1_1_0121'
p892
g2
(g6
S'c\x04\x80\x17\xf2u=?'
p893
tp894
Rp895
sS'commandinus_1731_v1_1_0120'
p896
g2
(g6
S'5;\xc1\xfbfc>?'
p897
tp898
Rp899
sS'commandinus_1731_v1_1_0295'
p900
g2
(g6
S'n\xcf\x1c\x99\xb9\x9fI?'
p901
tp902
Rp903
sS'commandinus_1731_v1_1_0222'
p904
g2
(g6
S'.\xf4\xd9K\xc3a:?'
p905
tp906
Rp907
sS'commandinus_1731_v1_1_0129'
p908
g2
(g6
S'\xcay.w\xe4\xe4:?'
p909
tp910
Rp911
sS'commandinus_1731_v1_1_0128'
p912
g2
(g6
S'\x1ffv\x019\xab;?'
p913
tp914
Rp915
sS'commandinus_1731_v1_1_0223'
p916
g2
(g6
S'C\x12$\x9a\x00\xfb8?'
p917
tp918
Rp919
sS'commandinus_1731_v1_1_0286'
p920
g2
(g6
S'U$\xf7\x0bS\xfa\x1b?'
p921
tp922
Rp923
sS'commandinus_1731_v1_1_0309'
p924
g2
(g6
S'!\xde\xc8n\xdd&@?'
p925
tp926
Rp927
sS'commandinus_1731_v1_1_0302'
p928
g2
(g6
S'O\x87;\x1e\xbeL@?'
p929
tp930
Rp931
sS'commandinus_1731_v1_1_0268'
p932
g2
(g6
S'\xa7\xc2/\x06uG<?'
p933
tp934
Rp935
sS'commandinus_1731_v1_1_0269'
p936
g2
(g6
S'\xe7b\xa1\x90\xc9\xebG?'
p937
tp938
Rp939
sS'commandinus_1731_v1_1_0264'
p940
g2
(g6
S'#t*\xb0\x12#I?'
p941
tp942
Rp943
sS'commandinus_1731_v1_1_0265'
p944
g2
(g6
S'\x8f\x81.\xea\x85}C?'
p945
tp946
Rp947
sS'commandinus_1731_v1_1_0266'
p948
g2
(g6
S'\xdbT[ \x04\x02I?'
p949
tp950
Rp951
sS'commandinus_1731_v1_1_0267'
p952
g2
(g6
S'i\xb1\x9a\x81\xd2`\x1f?'
p953
tp954
Rp955
sS'commandinus_1731_v1_1_0260'
p956
g2
(g6
S'b2\x80\xd5\xee\xcfI?'
p957
tp958
Rp959
sS'commandinus_1731_v1_1_0261'
p960
g2
(g6
S'_\xc2\x98\xeaA)C?'
p961
tp962
Rp963
sS'commandinus_1731_v1_1_0262'
p964
g2
(g6
S'\xa0a\x7f\xa7\xc5\x96I?'
p965
tp966
Rp967
sS'commandinus_1731_v1_1_0158'
p968
g2
(g6
S'\xc7\x03\xde\xb4\xdf\x8a??'
p969
tp970
Rp971
sS'commandinus_1731_v1_1_0152'
p972
g2
(g6
S'nj\x17\x920\x008?'
p973
tp974
Rp975
sS'commandinus_1731_v1_1_0153'
p976
g2
(g6
S'\xaf\x1578G\xb19?'
p977
tp978
Rp979
sS'commandinus_1731_v1_1_0150'
p980
g2
(g6
S'\xcay.w\xe4\xe4:?'
p981
tp982
Rp983
sS'commandinus_1731_v1_1_0151'
p984
g2
(g6
S"\x10\xb2'HR\xd36?"
p985
tp986
Rp987
sS'commandinus_1731_v1_1_0156'
p988
g2
(g6
S'\\\xf89%\xe5::?'
p989
tp990
Rp991
sS'commandinus_1731_v1_1_0157'
p992
g2
(g6
S'>\x8a\xcf\rS\n:?'
p993
tp994
Rp995
sS'commandinus_1731_v1_1_0154'
p996
g2
(g6
S'\xa8\xf2g\xdd\xe7\x927?'
p997
tp998
Rp999
sS'commandinus_1731_v1_1_0155'
p1000
g2
(g6
S'W\xb3\x9e\xeb\xed\x90=?'
p1001
tp1002
Rp1003
sS'commandinus_1731_v1_1_0310'
p1004
g2
(g6
S'7r\xf1\x1f\xe0\xcb=?'
p1005
tp1006
Rp1007
sS'commandinus_1731_v1_1_0311'
p1008
g2
(g6
S'\x82s\xa5 \xea\xa7E?'
p1009
tp1010
Rp1011
sS'commandinus_1731_v1_1_0110'
p1012
g2
(g6
S'>\x8a\xcf\rS\n:?'
p1013
tp1014
Rp1015
sS'commandinus_1731_v1_1_0159'
p1016
g2
(g6
S'\x07\xc2\xe0\x8f\x18\xa37?'
p1017
tp1018
Rp1019
sS'commandinus_1731_v1_1_0314'
p1020
g2
(g6
S'\x96\x8f\x197\xc2\x1cL?'
p1021
tp1022
Rp1023
sS'commandinus_1731_v1_1_0315'
p1024
g2
(g6
S'f\xaa\xc6\x87\x1f\x87J?'
p1025
tp1026
Rp1027
sS'commandinus_1731_v1_1_0316'
p1028
g2
(g6
S'4\xbe\xe27\xa0\x03C?'
p1029
tp1030
Rp1031
sS'commandinus_1731_v1_1_0317'
p1032
g2
(g6
S'X\x06\xdc|N\xb5C?'
p1033
tp1034
Rp1035
sS'commandinus_1731_v1_1_0215'
p1036
g2
(g6
S'2P\x1c\xc7\xbd\xc7<?'
p1037
tp1038
Rp1039
sS'commandinus_1731_v1_1_0019'
p1040
g2
(g6
S'\xf5m\xb1vf\x18<?'
p1041
tp1042
Rp1043
sS'commandinus_1731_v1_1_0018'
p1044
g2
(g6
S'\t+\xa9\x9e\x00n=?'
p1045
tp1046
Rp1047
sS'commandinus_1731_v1_1_0297'
p1048
g2
(g6
S'\x1d\xc0\x03\xfe\x1f\xfcF?'
p1049
tp1050
Rp1051
sS'commandinus_1731_v1_1_0252'
p1052
g2
(g6
S'g3\x1e\x90\xec\xb2\xee>'
p1053
tp1054
Rp1055
sS'commandinus_1731_v1_1_0239'
p1056
g2
(g6
S'\xffn\x13\x8e%\xc28?'
p1057
tp1058
Rp1059
sS'commandinus_1731_v1_1_0017'
p1060
g2
(g6
S'\xe4\xa3h\xb6\x97&A?'
p1061
tp1062
Rp1063
sS'commandinus_1731_v1_1_0016'
p1064
g2
(g6
S'\x99\xba\xcdv\xca\tA?'
p1065
tp1066
Rp1067
sS'commandinus_1731_v1_1_0015'
p1068
g2
(g6
S'(\x83\x93\xe1p\xa19?'
p1069
tp1070
Rp1071
sS'commandinus_1731_v1_1_0318'
p1072
g2
(g6
S'\xd5\x11d\xcd\xb8\xccC?'
p1073
tp1074
Rp1075
sS'commandinus_1731_v1_1_0263'
p1076
g2
(g6
S'\xc9t\xfe\xfdj9G?'
p1077
tp1078
Rp1079
sS'commandinus_1731_v1_1_0319'
p1080
g2
(g6
S'\x1emJQ\x06\x9aH?'
p1081
tp1082
Rp1083
sS'commandinus_1731_v1_1_0259'
p1084
g2
(g6
S'\xeb\xf1\x89\xfb\xd4XB?'
p1085
tp1086
Rp1087
sS'commandinus_1731_v1_1_0289'
p1088
g2
(g6
S'}73\t"\xb1J?'
p1089
tp1090
Rp1091
sS'commandinus_1731_v1_1_0242'
p1092
g2
(g6
S'#h\xb0\x08*\xe7=?'
p1093
tp1094
Rp1095
sS'commandinus_1731_v1_1_0273'
p1096
g2
(g6
S'>\x08w\x90!\xd6)?'
p1097
tp1098
Rp1099
sS'commandinus_1731_v1_1_0272'
p1100
g2
(g6
S'\xfe\xd1\xa3\xc4\x9755?'
p1101
tp1102
Rp1103
sS'commandinus_1731_v1_1_0271'
p1104
g2
(g6
S'\t\xfe\x8av\x0e<\x1a?'
p1105
tp1106
Rp1107
sS'commandinus_1731_v1_1_0270'
p1108
g2
(g6
S'1F"8\x1c$\x00?'
p1109
tp1110
Rp1111
sS'commandinus_1731_v1_1_0277'
p1112
g2
(g6
S',\x115\\\xd7k??'
p1113
tp1114
Rp1115
sS'commandinus_1731_v1_1_0276'
p1116
g2
(g6
S'\x98\xad\xd2B&\x989?'
p1117
tp1118
Rp1119
sS'commandinus_1731_v1_1_0275'
p1120
g2
(g6
S'7\x89\x19\x8bgY\x15?'
p1121
tp1122
Rp1123
sS'commandinus_1731_v1_1_0274'
p1124
g2
(g6
S'\xc6\xce<\xe6\x07\xda\x0f?'
p1125
tp1126
Rp1127
sS'commandinus_1731_v1_1_0279'
p1128
g2
(g6
S'\x83z*\\m\xe6??'
p1129
tp1130
Rp1131
sS'commandinus_1731_v1_1_0278'
p1132
g2
(g6
S'\xc3\x8b\xcbEi|H?'
p1133
tp1134
Rp1135
sS'commandinus_1731_v1_1_0303'
p1136
g2
(g6
S'\xe6&\x04\xea\xddgE?'
p1137
tp1138
Rp1139
sS'commandinus_1731_v1_1_0141'
p1140
g2
(g6
S'\r\x84\x15w\xad\x0c9?'
p1141
tp1142
Rp1143
sS'commandinus_1731_v1_1_0140'
p1144
g2
(g6
S'\x95\xfbP\x04"O:?'
p1145
tp1146
Rp1147
sS'commandinus_1731_v1_1_0143'
p1148
g2
(g6
S'>\xf8\x7f\x11{\xa5:?'
p1149
tp1150
Rp1151
sS'commandinus_1731_v1_1_0142'
p1152
g2
(g6
S'\x07\xc2\xe0\x8f\x18\xa37?'
p1153
tp1154
Rp1155
sS'commandinus_1731_v1_1_0145'
p1156
g2
(g6
S'\xd0P\x19\xad\xb3\xf36?'
p1157
tp1158
Rp1159
sS'commandinus_1731_v1_1_0144'
p1160
g2
(g6
S'^3b\x86\xe7\xe77?'
p1161
tp1162
Rp1163
sS'commandinus_1731_v1_1_0147'
p1164
g2
(g6
S"'2\xc8\xec\x00\xf5@?"
p1165
tp1166
Rp1167
sS'commandinus_1731_v1_1_0146'
p1168
g2
(g6
S'\xd4\xc8<\x89\xd0\x8b6?'
p1169
tp1170
Rp1171
sS'commandinus_1731_v1_1_0149'
p1172
g2
(g6
S'\xe1\xf7Q\xd6<\xe5;?'
p1173
tp1174
Rp1175
sS'commandinus_1731_v1_1_0148'
p1176
g2
(g6
S'\xa7\x10:1\xd3\xdb??'
p1177
tp1178
Rp1179
sS'commandinus_1731_v1_1_0305'
p1180
g2
(g6
S'G\x9e\xfc\x00c\xe0E?'
p1181
tp1182
Rp1183
sS'commandinus_1731_v1_1_0304'
p1184
g2
(g6
S'[\xd1\x98\x82\xc2\xe2C?'
p1185
tp1186
Rp1187
sS'commandinus_1731_v1_1_0243'
p1188
g2
(g6
S'$\x0eg\x1d\xc6f9?'
p1189
tp1190
Rp1191
sS'commandinus_1731_v1_1_0217'
p1192
g2
(g6
S'\x0e\x8c[eW\x92:?'
p1193
tp1194
Rp1195
sS'commandinus_1731_v1_1_0301'
p1196
g2
(g6
S'\xe1\xeaNy?\x85;?'
p1197
tp1198
Rp1199
sS'commandinus_1731_v1_1_0300'
p1200
g2
(g6
S'\xdbk\x83\x8b\x8b\x8f@?'
p1201
tp1202
Rp1203
sS'commandinus_1731_v1_1_0195'
p1204
g2
(g6
S'\xb60lo\xe4x7?'
p1205
tp1206
Rp1207
sS'commandinus_1731_v1_1_0068'
p1208
g2
(g6
S'\xc2A\xc5\x16\x8e\xe48?'
p1209
tp1210
Rp1211
sS'commandinus_1731_v1_1_0069'
p1212
g2
(g6
S'\x1d\x96\x0c(\xecl1?'
p1213
tp1214
Rp1215
sS'commandinus_1731_v1_1_0066'
p1216
g2
(g6
S'q%psuz:?'
p1217
tp1218
Rp1219
sS'commandinus_1731_v1_1_0067'
p1220
g2
(g6
S'i\x18\xfa\xb30$>?'
p1221
tp1222
Rp1223
sS'commandinus_1731_v1_1_0064'
p1224
g2
(g6
S'\xba\xa9\x91\x17\xd0\xae:?'
p1225
tp1226
Rp1227
sS'commandinus_1731_v1_1_0065'
p1228
g2
(g6
S'\xe1\xe3\xbc\xfa\xbc|=?'
p1229
tp1230
Rp1231
sS'commandinus_1731_v1_1_0062'
p1232
g2
(g6
S'\x8f\xef\xddZT&8?'
p1233
tp1234
Rp1235
sS'commandinus_1731_v1_1_0063'
p1236
g2
(g6
S'\xc3\x11\xc8\x15\xee\xde:?'
p1237
tp1238
Rp1239
sS'commandinus_1731_v1_1_0060'
p1240
g2
(g6
S'\xfeu\xa6\xe3\x0b18?'
p1241
tp1242
Rp1243
sS'commandinus_1731_v1_1_0061'
p1244
g2
(g6
S')\xde\x0c\x91\x11o5?'
p1245
tp1246
Rp1247
s.