(dp0
S'commandinus_1731_v1_1_0259.tif'
p1
(I2702
I4508
tp2
sS'commandinus_1731_v1_1_0255.tif'
p3
(I2758
I4508
tp4
sS'commandinus_1731_v1_1_0146.tif'
p5
(I2756
I4512
tp6
sS'commandinus_1731_v1_1_0129.tif'
p7
(I2756
I4512
tp8
sS'commandinus_1731_v1_1_0265.tif'
p9
(I2702
I4508
tp10
sS'commandinus_1731_v1_1_0240.tif'
p11
(I2758
I4508
tp12
sS'commandinus_1731_v1_1_0160.tif'
p13
(I2756
I4512
tp14
sS'commandinus_1731_v1_1_0236.tif'
p15
(I2758
I4508
tp16
sS'commandinus_1731_v1_1_0254.tif'
p17
(I2758
I4508
tp18
sS'commandinus_1731_v1_1_0298.tif'
p19
(I2702
I4508
tp20
sS'commandinus_1731_v1_1_0175.tif'
p21
(I2758
I4508
tp22
sS'commandinus_1731_v1_1_0313.tif'
p23
(I2702
I4508
tp24
sS'commandinus_1731_v1_1_0216.tif'
p25
(I2758
I4508
tp26
sS'commandinus_1731_v1_1_0094.tif'
p27
(I2756
I4512
tp28
sS'commandinus_1731_v1_1_0301.tif'
p29
(I2702
I4508
tp30
sS'commandinus_1731_v1_1_0130.tif'
p31
(I2756
I4512
tp32
sS'commandinus_1731_v1_1_0029.tif'
p33
(I2772
I4518
tp34
sS'commandinus_1731_v1_1_0019.tif'
p35
(I2772
I4518
tp36
sS'commandinus_1731_v1_1_0109.tif'
p37
(I2756
I4512
tp38
sS'commandinus_1731_v1_1_0102.tif'
p39
(I2756
I4512
tp40
sS'commandinus_1731_v1_1_0068.tif'
p41
(I2772
I4518
tp42
sS'commandinus_1731_v1_1_0184.tif'
p43
(I2758
I4508
tp44
sS'commandinus_1731_v1_1_0228.tif'
p45
(I2758
I4508
tp46
sS'commandinus_1731_v1_1_0043.tif'
p47
(I2772
I4518
tp48
sS'commandinus_1731_v1_1_0114.tif'
p49
(I2756
I4512
tp50
sS'commandinus_1731_v1_1_0193.tif'
p51
(I2758
I4508
tp52
sS'commandinus_1731_v1_1_0062.tif'
p53
(I2772
I4518
tp54
sS'commandinus_1731_v1_1_0289.tif'
p55
(I2702
I4508
tp56
sS'commandinus_1731_v1_1_0139.tif'
p57
(I2756
I4512
tp58
sS'commandinus_1731_v1_1_0152.tif'
p59
(I2756
I4512
tp60
sS'commandinus_1731_v1_1_0111.tif'
p61
(I2756
I4512
tp62
sS'commandinus_1731_v1_1_0100.tif'
p63
(I2756
I4512
tp64
sS'commandinus_1731_v1_1_0035.tif'
p65
(I2772
I4518
tp66
sS'commandinus_1731_v1_1_0287.tif'
p67
(I2702
I4508
tp68
sS'commandinus_1731_v1_1_0024.tif'
p69
(I2772
I4518
tp70
sS'commandinus_1731_v1_1_0118.tif'
p71
(I2756
I4512
tp72
sS'commandinus_1731_v1_1_0142.tif'
p73
(I2756
I4512
tp74
sS'commandinus_1731_v1_1_0285.tif'
p75
(I2702
I4508
tp76
sS'commandinus_1731_v1_1_0120.tif'
p77
(I2756
I4512
tp78
sS'commandinus_1731_v1_1_0214.tif'
p79
(I2758
I4508
tp80
sS'commandinus_1731_v1_1_0148.tif'
p81
(I2756
I4512
tp82
sS'commandinus_1731_v1_1_0196.tif'
p83
(I2758
I4508
tp84
sS'commandinus_1731_v1_1_0321.tif'
p85
(I2702
I4508
tp86
sS'commandinus_1731_v1_1_0264.tif'
p87
(I2702
I4508
tp88
sS'commandinus_1731_v1_1_0209.tif'
p89
(I2758
I4508
tp90
sS'commandinus_1731_v1_1_0056.tif'
p91
(I2772
I4518
tp92
sS'commandinus_1731_v1_1_0048.tif'
p93
(I2772
I4518
tp94
sS'commandinus_1731_v1_1_0186.tif'
p95
(I2758
I4508
tp96
sS'commandinus_1731_v1_1_0312.tif'
p97
(I2702
I4508
tp98
sS'commandinus_1731_v1_1_0045.tif'
p99
(I2772
I4518
tp100
sS'commandinus_1731_v1_1_0155.tif'
p101
(I2756
I4512
tp102
sS'commandinus_1731_v1_1_0073.tif'
p103
(I2772
I4518
tp104
sS'commandinus_1731_v1_1_0250.tif'
p105
(I2758
I4508
tp106
sS'commandinus_1731_v1_1_0284.tif'
p107
(I2702
I4508
tp108
sS'commandinus_1731_v1_1_0076.tif'
p109
(I2772
I4518
tp110
sS'commandinus_1731_v1_1_0163.tif'
p111
(I2756
I4512
tp112
sS'commandinus_1731_v1_1_0081.tif'
p113
(I767
I1204
tp114
sS'commandinus_1731_v1_1_0295.tif'
p115
(I2702
I4508
tp116
sS'commandinus_1731_v1_1_0320.tif'
p117
(I2702
I4508
tp118
sS'commandinus_1731_v1_1_0023.tif'
p119
(I2772
I4518
tp120
sS'commandinus_1731_v1_1_0268.tif'
p121
(I2702
I4508
tp122
sS'commandinus_1731_v1_1_0291.tif'
p123
(I767
I1204
tp124
sS'commandinus_1731_v1_1_0322.tif'
p125
(I2702
I4508
tp126
sS'commandinus_1731_v1_1_0316.tif'
p127
(I2702
I4508
tp128
sS'commandinus_1731_v1_1_0245.tif'
p129
(I2758
I4508
tp130
sS'commandinus_1731_v1_1_0194.tif'
p131
(I2758
I4508
tp132
sS'commandinus_1731_v1_1_0042.tif'
p133
(I2772
I4518
tp134
sS'commandinus_1731_v1_1_0053.tif'
p135
(I2772
I4518
tp136
sS'commandinus_1731_v1_1_0058.tif'
p137
(I2772
I4518
tp138
sS'commandinus_1731_v1_1_0051.tif'
p139
(I2772
I4518
tp140
sS'commandinus_1731_v1_1_0092.tif'
p141
(I2756
I4512
tp142
sS'commandinus_1731_v1_1_0198.tif'
p143
(I2758
I4508
tp144
sS'commandinus_1731_v1_1_0161.tif'
p145
(I2756
I4512
tp146
sS'commandinus_1731_v1_1_0203.tif'
p147
(I2758
I4508
tp148
sS'commandinus_1731_v1_1_0017.tif'
p149
(I2772
I4518
tp150
sS'commandinus_1731_v1_1_0257.tif'
p151
(I2702
I4508
tp152
sS'commandinus_1731_v1_1_0067.tif'
p153
(I2772
I4518
tp154
sS'commandinus_1731_v1_1_0143.tif'
p155
(I2756
I4512
tp156
sS'commandinus_1731_v1_1_0016.tif'
p157
(I2772
I4518
tp158
sS'commandinus_1731_v1_1_0145.tif'
p159
(I2756
I4512
tp160
sS'commandinus_1731_v1_1_0154.tif'
p161
(I2756
I4512
tp162
sS'commandinus_1731_v1_1_0323.tif'
p163
(I2702
I4508
tp164
sS'commandinus_1731_v1_1_0151.tif'
p165
(I2756
I4512
tp166
sS'commandinus_1731_v1_1_0028.tif'
p167
(I2772
I4518
tp168
sS'commandinus_1731_v1_1_0233.tif'
p169
(I2758
I4508
tp170
sS'commandinus_1731_v1_1_0137.tif'
p171
(I2756
I4512
tp172
sS'commandinus_1731_v1_1_0311.tif'
p173
(I2702
I4508
tp174
sS'commandinus_1731_v1_1_0206.tif'
p175
(I2758
I4508
tp176
sS'commandinus_1731_v1_1_0187.tif'
p177
(I2758
I4508
tp178
sS'commandinus_1731_v1_1_0179.tif'
p179
(I2758
I4508
tp180
sS'commandinus_1731_v1_1_0192.tif'
p181
(I2758
I4508
tp182
sS'commandinus_1731_v1_1_0095.tif'
p183
(I2756
I4512
tp184
sS'commandinus_1731_v1_1_0041.tif'
p185
(I2772
I4518
tp186
sS'commandinus_1731_v1_1_0138.tif'
p187
(I2756
I4512
tp188
sS'commandinus_1731_v1_1_0090.tif'
p189
(I2756
I4512
tp190
sS'commandinus_1731_v1_1_0252.tif'
p191
(I2758
I4508
tp192
sS'commandinus_1731_v1_1_0078.tif'
p193
(I2772
I4518
tp194
sS'commandinus_1731_v1_1_0060.tif'
p195
(I2772
I4518
tp196
sS'commandinus_1731_v1_1_0253.tif'
p197
(I2758
I4508
tp198
sS'commandinus_1731_v1_1_0106.tif'
p199
(I2756
I4512
tp200
sS'commandinus_1731_v1_1_0220.tif'
p201
(I2758
I4508
tp202
sS'commandinus_1731_v1_1_0223.tif'
p203
(I767
I1204
tp204
sS'commandinus_1731_v1_1_0034.tif'
p205
(I2772
I4518
tp206
sS'commandinus_1731_v1_1_0274.tif'
p207
(I2702
I4508
tp208
sS'commandinus_1731_v1_1_0308.tif'
p209
(I2702
I4508
tp210
sS'commandinus_1731_v1_1_0238.tif'
p211
(I2758
I4508
tp212
sS'commandinus_1731_v1_1_0123.tif'
p213
(I2784
I4514
tp214
sS'commandinus_1731_v1_1_0128.tif'
p215
(I2756
I4512
tp216
sS'commandinus_1731_v1_1_0046.tif'
p217
(I2772
I4518
tp218
sS'commandinus_1731_v1_1_0324.tif'
p219
(I2702
I4508
tp220
sS'commandinus_1731_v1_1_0110.tif'
p221
(I2756
I4512
tp222
sS'commandinus_1731_v1_1_0167.tif'
p223
(I2756
I4512
tp224
sS'commandinus_1731_v1_1_0082.tif'
p225
(I2772
I4518
tp226
sS'commandinus_1731_v1_1_0174.tif'
p227
(I2758
I4508
tp228
sS'commandinus_1731_v1_1_0087.tif'
p229
(I2756
I4512
tp230
sS'commandinus_1731_v1_1_0156.tif'
p231
(I2756
I4512
tp232
sS'commandinus_1731_v1_1_0296.tif'
p233
(I2702
I4508
tp234
sS'commandinus_1731_v1_1_0224.tif'
p235
(I2758
I4508
tp236
sS'commandinus_1731_v1_1_0069.tif'
p237
(I2772
I4518
tp238
sS'commandinus_1731_v1_1_0242.tif'
p239
(I2758
I4508
tp240
sS'commandinus_1731_v1_1_0091.tif'
p241
(I2756
I4512
tp242
sS'commandinus_1731_v1_1_0225.tif'
p243
(I2758
I4508
tp244
sS'commandinus_1731_v1_1_0202.tif'
p245
(I2758
I4508
tp246
sS'commandinus_1731_v1_1_0200.tif'
p247
(I2758
I4508
tp248
sS'commandinus_1731_v1_1_0131.tif'
p249
(I2756
I4512
tp250
sS'commandinus_1731_v1_1_0105.tif'
p251
(I2756
I4512
tp252
sS'commandinus_1731_v1_1_0249.tif'
p253
(I2758
I4508
tp254
sS'commandinus_1731_v1_1_0099.tif'
p255
(I2756
I4512
tp256
sS'commandinus_1731_v1_1_0108.tif'
p257
(I2756
I4512
tp258
sS'commandinus_1731_v1_1_0189.tif'
p259
(I2758
I4508
tp260
sS'commandinus_1731_v1_1_0173.tif'
p261
(I2758
I4508
tp262
sS'commandinus_1731_v1_1_0059.tif'
p263
(I2772
I4518
tp264
sS'commandinus_1731_v1_1_0297.tif'
p265
(I2702
I4508
tp266
sS'commandinus_1731_v1_1_0115.tif'
p267
(I2756
I4512
tp268
sS'commandinus_1731_v1_1_0261.tif'
p269
(I767
I1204
tp270
sS'commandinus_1731_v1_1_0210.tif'
p271
(I2758
I4508
tp272
sS'commandinus_1731_v1_1_0027.tif'
p273
(I2772
I4518
tp274
sS'commandinus_1731_v1_1_0040.tif'
p275
(I2772
I4518
tp276
sS'commandinus_1731_v1_1_0234.tif'
p277
(I2758
I4508
tp278
sS'commandinus_1731_v1_1_0134.tif'
p279
(I2756
I4512
tp280
sS'commandinus_1731_v1_1_0136.tif'
p281
(I2756
I4512
tp282
sS'commandinus_1731_v1_1_0272.tif'
p283
(I2702
I4508
tp284
sS'commandinus_1731_v1_1_0262.tif'
p285
(I2702
I4508
tp286
sS'commandinus_1731_v1_1_0054.tif'
p287
(I2772
I4518
tp288
sS'commandinus_1731_v1_1_0107.tif'
p289
(I2756
I4512
tp290
sS'commandinus_1731_v1_1_0180.tif'
p291
(I2758
I4508
tp292
sS'commandinus_1731_v1_1_0071.tif'
p293
(I2772
I4518
tp294
sS'commandinus_1731_v1_1_0049.tif'
p295
(I2772
I4518
tp296
sS'commandinus_1731_v1_1_0022.tif'
p297
(I2772
I4518
tp298
sS'commandinus_1731_v1_1_0070.tif'
p299
(I2772
I4518
tp300
sS'commandinus_1731_v1_1_0281.tif'
p301
(I767
I1204
tp302
sS'commandinus_1731_v1_1_0227.tif'
p303
(I2758
I4508
tp304
sS'commandinus_1731_v1_1_0172.tif'
p305
(I2758
I4508
tp306
sS'commandinus_1731_v1_1_0258.tif'
p307
(I2702
I4508
tp308
sS'commandinus_1731_v1_1_0213.tif'
p309
(I2758
I4508
tp310
sS'commandinus_1731_v1_1_0177.tif'
p311
(I2758
I4508
tp312
sS'commandinus_1731_v1_1_0314.tif'
p313
(I2702
I4508
tp314
sS'commandinus_1731_v1_1_0280.tif'
p315
(I2702
I4508
tp316
sS'commandinus_1731_v1_1_0251.tif'
p317
(I767
I1204
tp318
sS'commandinus_1731_v1_1_0176.tif'
p319
(I2758
I4508
tp320
sS'commandinus_1731_v1_1_0248.tif'
p321
(I2758
I4508
tp322
sS'commandinus_1731_v1_1_0256.tif'
p323
(I2702
I4508
tp324
sS'commandinus_1731_v1_1_0275.tif'
p325
(I2702
I4508
tp326
sS'commandinus_1731_v1_1_0244.tif'
p327
(I2758
I4508
tp328
sS'commandinus_1731_v1_1_0231.tif'
p329
(I2758
I4508
tp330
sS'commandinus_1731_v1_1_0270.tif'
p331
(I2702
I4508
tp332
sS'commandinus_1731_v1_1_0086.tif'
p333
(I2756
I4512
tp334
sS'commandinus_1731_v1_1_0052.tif'
p335
(I2772
I4518
tp336
sS'commandinus_1731_v1_1_0219.tif'
p337
(I767
I1204
tp338
sS'commandinus_1731_v1_1_0025.tif'
p339
(I2772
I4518
tp340
sS'commandinus_1731_v1_1_0165.tif'
p341
(I2756
I4512
tp342
sS'commandinus_1731_v1_1_0317.tif'
p343
(I2702
I4508
tp344
sS'commandinus_1731_v1_1_0218.tif'
p345
(I2758
I4508
tp346
sS'commandinus_1731_v1_1_0318.tif'
p347
(I2702
I4508
tp348
sS'commandinus_1731_v1_1_0030.tif'
p349
(I2772
I4518
tp350
sS'commandinus_1731_v1_1_0309.tif'
p351
(I2702
I4508
tp352
sS'commandinus_1731_v1_1_0157.tif'
p353
(I2756
I4512
tp354
sS'commandinus_1731_v1_1_0191.tif'
p355
(I2758
I4508
tp356
sS'commandinus_1731_v1_1_0226.tif'
p357
(I2758
I4508
tp358
sS'commandinus_1731_v1_1_0304.tif'
p359
(I2702
I4508
tp360
sS'commandinus_1731_v1_1_0055.tif'
p361
(I2772
I4518
tp362
sS'commandinus_1731_v1_1_0061.tif'
p363
(I2772
I4518
tp364
sS'commandinus_1731_v1_1_0124.tif'
p365
(I2756
I4512
tp366
sS'commandinus_1731_v1_1_0096.tif'
p367
(I2756
I4512
tp368
sS'commandinus_1731_v1_1_0101.tif'
p369
(I2756
I4512
tp370
sS'commandinus_1731_v1_1_0243.tif'
p371
(I2758
I4508
tp372
sS'commandinus_1731_v1_1_0074.tif'
p373
(I2772
I4518
tp374
sS'commandinus_1731_v1_1_0267.tif'
p375
(I2702
I4508
tp376
sS'commandinus_1731_v1_1_0033.tif'
p377
(I2772
I4518
tp378
sS'commandinus_1731_v1_1_0063.tif'
p379
(I2772
I4518
tp380
sS'commandinus_1731_v1_1_0170.tif'
p381
(I2758
I4508
tp382
sS'commandinus_1731_v1_1_0147.tif'
p383
(I2756
I4512
tp384
sS'commandinus_1731_v1_1_0021.tif'
p385
(I2772
I4518
tp386
sS'commandinus_1731_v1_1_0235.tif'
p387
(I2758
I4508
tp388
sS'commandinus_1731_v1_1_0168.tif'
p389
(I2756
I4512
tp390
sS'commandinus_1731_v1_1_0047.tif'
p391
(I2772
I4518
tp392
sS'commandinus_1731_v1_1_0221.tif'
p393
(I767
I1204
tp394
sS'commandinus_1731_v1_1_0093.tif'
p395
(I2756
I4512
tp396
sS'commandinus_1731_v1_1_0271.tif'
p397
(I2702
I4508
tp398
sS'commandinus_1731_v1_1_0181.tif'
p399
(I2758
I4508
tp400
sS'commandinus_1731_v1_1_0083.tif'
p401
(I2772
I4518
tp402
sS'commandinus_1731_v1_1_0183.tif'
p403
(I2758
I4508
tp404
sS'commandinus_1731_v1_1_0279.tif'
p405
(I2702
I4508
tp406
sS'commandinus_1731_v1_1_0122.tif'
p407
(I767
I1204
tp408
sS'commandinus_1731_v1_1_0080.tif'
p409
(I2772
I4518
tp410
sS'commandinus_1731_v1_1_0306.tif'
p411
(I2702
I4508
tp412
sS'commandinus_1731_v1_1_0169.tif'
p413
(I2756
I4512
tp414
sS'commandinus_1731_v1_1_0215.tif'
p415
(I2758
I4508
tp416
sS'commandinus_1731_v1_1_0140.tif'
p417
(I2756
I4512
tp418
sS'commandinus_1731_v1_1_0039.tif'
p419
(I2772
I4518
tp420
sS'commandinus_1731_v1_1_0201.tif'
p421
(I767
I1204
tp422
sS'commandinus_1731_v1_1_0319.tif'
p423
(I2702
I4508
tp424
sS'commandinus_1731_v1_1_0159.tif'
p425
(I2756
I4512
tp426
sS'commandinus_1731_v1_1_0125.tif'
p427
(I2784
I4514
tp428
sS'commandinus_1731_v1_1_0307.tif'
p429
(I2702
I4508
tp430
sS'commandinus_1731_v1_1_0197.tif'
p431
(I2758
I4508
tp432
sS'commandinus_1731_v1_1_0133.tif'
p433
(I2756
I4512
tp434
sS'commandinus_1731_v1_1_0089.tif'
p435
(I2756
I4512
tp436
sS'commandinus_1731_v1_1_0112.tif'
p437
(I2756
I4512
tp438
sS'commandinus_1731_v1_1_0162.tif'
p439
(I2756
I4512
tp440
sS'commandinus_1731_v1_1_0104.tif'
p441
(I2756
I4512
tp442
sS'commandinus_1731_v1_1_0098.tif'
p443
(I2756
I4512
tp444
sS'commandinus_1731_v1_1_0020.tif'
p445
(I2772
I4518
tp446
sS'commandinus_1731_v1_1_0113.tif'
p447
(I2756
I4512
tp448
sS'commandinus_1731_v1_1_0026.tif'
p449
(I2772
I4518
tp450
sS'commandinus_1731_v1_1_0305.tif'
p451
(I2702
I4508
tp452
sS'commandinus_1731_v1_1_0178.tif'
p453
(I2758
I4508
tp454
sS'commandinus_1731_v1_1_0232.tif'
p455
(I2758
I4508
tp456
sS'commandinus_1731_v1_1_0097.tif'
p457
(I2756
I4512
tp458
sS'commandinus_1731_v1_1_0190.tif'
p459
(I2758
I4508
tp460
sS'commandinus_1731_v1_1_0126.tif'
p461
(I2756
I4512
tp462
sS'commandinus_1731_v1_1_0075.tif'
p463
(I2772
I4518
tp464
sS'commandinus_1731_v1_1_0195.tif'
p465
(I2758
I4508
tp466
sS'commandinus_1731_v1_1_0266.tif'
p467
(I2702
I4508
tp468
sS'commandinus_1731_v1_1_0135.tif'
p469
(I2756
I4512
tp470
sS'commandinus_1731_v1_1_0103.tif'
p471
(I2756
I4512
tp472
sS'commandinus_1731_v1_1_0085.tif'
p473
(I2756
I4512
tp474
sS'commandinus_1731_v1_1_0065.tif'
p475
(I2772
I4518
tp476
sS'commandinus_1731_v1_1_0153.tif'
p477
(I2756
I4512
tp478
sS'commandinus_1731_v1_1_0149.tif'
p479
(I2756
I4512
tp480
sS'commandinus_1731_v1_1_0171.tif'
p481
(I2758
I4508
tp482
sS'commandinus_1731_v1_1_0246.tif'
p483
(I2758
I4508
tp484
sS'commandinus_1731_v1_1_0212.tif'
p485
(I2758
I4508
tp486
sS'commandinus_1731_v1_1_0057.tif'
p487
(I2772
I4518
tp488
sS'commandinus_1731_v1_1_0132.tif'
p489
(I2756
I4512
tp490
sS'commandinus_1731_v1_1_0044.tif'
p491
(I2772
I4518
tp492
sS'commandinus_1731_v1_1_0164.tif'
p493
(I2756
I4512
tp494
sS'commandinus_1731_v1_1_0121.tif'
p495
(I2756
I4512
tp496
sS'commandinus_1731_v1_1_0207.tif'
p497
(I767
I1204
tp498
sS'commandinus_1731_v1_1_0077.tif'
p499
(I2772
I4518
tp500
sS'commandinus_1731_v1_1_0276.tif'
p501
(I2702
I4508
tp502
sS'commandinus_1731_v1_1_0208.tif'
p503
(I767
I1204
tp504
sS'commandinus_1731_v1_1_0117.tif'
p505
(I2756
I4512
tp506
sS'commandinus_1731_v1_1_0031.tif'
p507
(I2772
I4518
tp508
sS'commandinus_1731_v1_1_0150.tif'
p509
(I2756
I4512
tp510
sS'commandinus_1731_v1_1_0166.tif'
p511
(I2756
I4512
tp512
sS'commandinus_1731_v1_1_0230.tif'
p513
(I2758
I4508
tp514
sS'commandinus_1731_v1_1_0288.tif'
p515
(I2702
I4508
tp516
sS'commandinus_1731_v1_1_0158.tif'
p517
(I2756
I4512
tp518
sS'commandinus_1731_v1_1_0303.tif'
p519
(I2702
I4508
tp520
sS'commandinus_1731_v1_1_0290.tif'
p521
(I2702
I4508
tp522
sS'commandinus_1731_v1_1_0273.tif'
p523
(I2702
I4508
tp524
sS'commandinus_1731_v1_1_0119.tif'
p525
(I2784
I4514
tp526
sS'commandinus_1731_v1_1_0302.tif'
p527
(I2702
I4508
tp528
sS'commandinus_1731_v1_1_0088.tif'
p529
(I2756
I4512
tp530
sS'commandinus_1731_v1_1_0263.tif'
p531
(I2702
I4508
tp532
sS'commandinus_1731_v1_1_0247.tif'
p533
(I2758
I4508
tp534
sS'commandinus_1731_v1_1_0292.tif'
p535
(I2786
I4686
tp536
sS'commandinus_1731_v1_1_0066.tif'
p537
(I2772
I4518
tp538
sS'commandinus_1731_v1_1_0205.tif'
p539
(I2758
I4508
tp540
sS'commandinus_1731_v1_1_0217.tif'
p541
(I2758
I4508
tp542
sS'commandinus_1731_v1_1_0299.tif'
p543
(I2702
I4508
tp544
sS'commandinus_1731_v1_1_0260.tif'
p545
(I2702
I4508
tp546
sS'commandinus_1731_v1_1_0036.tif'
p547
(I2772
I4518
tp548
sS'commandinus_1731_v1_1_0015.tif'
p549
(I2772
I4518
tp550
sS'commandinus_1731_v1_1_0237.tif'
p551
(I2758
I4508
tp552
sS'commandinus_1731_v1_1_0239.tif'
p553
(I2758
I4508
tp554
sS'commandinus_1731_v1_1_0188.tif'
p555
(I2758
I4508
tp556
sS'commandinus_1731_v1_1_0185.tif'
p557
(I2758
I4508
tp558
sS'commandinus_1731_v1_1_0222.tif'
p559
(I2758
I4508
tp560
sS'commandinus_1731_v1_1_0310.tif'
p561
(I2702
I4508
tp562
sS'commandinus_1731_v1_1_0144.tif'
p563
(I2756
I4512
tp564
sS'commandinus_1731_v1_1_0282.tif'
p565
(I2702
I4508
tp566
sS'commandinus_1731_v1_1_0182.tif'
p567
(I2758
I4508
tp568
sS'commandinus_1731_v1_1_0229.tif'
p569
(I2758
I4508
tp570
sS'commandinus_1731_v1_1_0127.tif'
p571
(I2756
I4512
tp572
sS'commandinus_1731_v1_1_0079.tif'
p573
(I2772
I4518
tp574
sS'commandinus_1731_v1_1_0072.tif'
p575
(I2772
I4518
tp576
sS'commandinus_1731_v1_1_0286.tif'
p577
(I2702
I4508
tp578
sS'commandinus_1731_v1_1_0084.tif'
p579
(I2756
I4512
tp580
sS'commandinus_1731_v1_1_0018.tif'
p581
(I2772
I4518
tp582
sS'commandinus_1731_v1_1_0064.tif'
p583
(I2794
I4514
tp584
sS'commandinus_1731_v1_1_0269.tif'
p585
(I2702
I4508
tp586
sS'commandinus_1731_v1_1_0211.tif'
p587
(I2758
I4508
tp588
sS'commandinus_1731_v1_1_0294.tif'
p589
(I2702
I4508
tp590
sS'commandinus_1731_v1_1_0141.tif'
p591
(I2756
I4512
tp592
sS'commandinus_1731_v1_1_0278.tif'
p593
(I2702
I4508
tp594
sS'commandinus_1731_v1_1_0300.tif'
p595
(I2702
I4508
tp596
sS'commandinus_1731_v1_1_0037.tif'
p597
(I2772
I4518
tp598
sS'commandinus_1731_v1_1_0032.tif'
p599
(I2772
I4518
tp600
sS'commandinus_1731_v1_1_0241.tif'
p601
(I2758
I4508
tp602
sS'commandinus_1731_v1_1_0293.tif'
p603
(I2702
I4508
tp604
sS'commandinus_1731_v1_1_0050.tif'
p605
(I2772
I4518
tp606
sS'commandinus_1731_v1_1_0038.tif'
p607
(I2772
I4518
tp608
sS'commandinus_1731_v1_1_0204.tif'
p609
(I2758
I4508
tp610
sS'commandinus_1731_v1_1_0315.tif'
p611
(I2702
I4508
tp612
sS'commandinus_1731_v1_1_0277.tif'
p613
(I2702
I4508
tp614
sS'commandinus_1731_v1_1_0199.tif'
p615
(I2758
I4508
tp616
sS'commandinus_1731_v1_1_0283.tif'
p617
(I2702
I4508
tp618
sS'commandinus_1731_v1_1_0116.tif'
p619
(I2756
I4512
tp620
s.