(dp0
S'coets_1691_v1_1_0159'
p1
cnumpy.core.multiarray
scalar
p2
(cnumpy
dtype
p3
(S'f8'
p4
I0
I1
tp5
Rp6
(I3
S'<'
p7
NNNI-1
I-1
I0
tp8
bS'\x83\xbf-\x0fQ9J?'
p9
tp10
Rp11
sS'coets_1691_v1_1_0158'
p12
g2
(g6
S'\x14i}\xc5A\xa2N?'
p13
tp14
Rp15
sS'coets_1691_v1_1_0169'
p16
g2
(g6
S'E\xa0Z\xa9\xa5\xb5N?'
p17
tp18
Rp19
sS'coets_1691_v1_1_0151'
p20
g2
(g6
S'\xf2/7\xdd\xe3cC?'
p21
tp22
Rp23
sS'coets_1691_v1_1_0019'
p24
g2
(g6
S'\xea{\x15%\x1bnW?'
p25
tp26
Rp27
sS'coets_1691_v1_1_0153'
p28
g2
(g6
S'q\\\xf49A5\x05?'
p29
tp30
Rp31
sS'coets_1691_v1_1_0152'
p32
g2
(g6
S'\xed\x10\x90;\xefAJ?'
p33
tp34
Rp35
sS'coets_1691_v1_1_0155'
p36
g2
(g6
S'\xf3w^:Q0I?'
p37
tp38
Rp39
sS'coets_1691_v1_1_0154'
p40
g2
(g6
S'\x89\xca\x8f\xbc\xe9\rL?'
p41
tp42
Rp43
sS'coets_1691_v1_1_0157'
p44
g2
(g6
S'\xaeK\xcd\xa1\xaa\xc0I?'
p45
tp46
Rp47
sS'coets_1691_v1_1_0156'
p48
g2
(g6
S'\xbbv\x9cc\xeenO?'
p49
tp50
Rp51
sS'coets_1691_v1_1_0128'
p52
g2
(g6
S'\xc1\xdf\xae\xb7\xad\xc8V?'
p53
tp54
Rp55
sS'coets_1691_v1_1_0129'
p56
g2
(g6
S'|mjw\x01PM?'
p57
tp58
Rp59
sS'coets_1691_v1_1_0124'
p60
g2
(g6
S'\xb2\xae\xe3\x95G\x80D?'
p61
tp62
Rp63
sS'coets_1691_v1_1_0125'
p64
g2
(g6
S'\x90\xbc.\xf8\xaa\xaeG?'
p65
tp66
Rp67
sS'coets_1691_v1_1_0126'
p68
g2
(g6
S'\xc7\xd1e#t\x15L?'
p69
tp70
Rp71
sS'coets_1691_v1_1_0127'
p72
g2
(g6
S'H\x8d\x93\x97\xf0\x1bU?'
p73
tp74
Rp75
sS'coets_1691_v1_1_0120'
p76
g2
(g6
S"7Zl\xf0'\xbcP?"
p77
tp78
Rp79
sS'coets_1691_v1_1_0121'
p80
g2
(g6
S'|\xf9\xd0\xc6\x0cbA?'
p81
tp82
Rp83
sS'coets_1691_v1_1_0122'
p84
g2
(g6
S'B=,\x85\x03JZ?'
p85
tp86
Rp87
sS'coets_1691_v1_1_0123'
p88
g2
(g6
S'Y\x08\xe2\x9b&H??'
p89
tp90
Rp91
sS'coets_1691_v1_1_0089'
p92
g2
(g6
S'/\x95\x86P\xbb\xdfS?'
p93
tp94
Rp95
sS'coets_1691_v1_1_0088'
p96
g2
(g6
S'd\xc3"\xeb\xdc\xcbJ?'
p97
tp98
Rp99
sS'coets_1691_v1_1_0083'
p100
g2
(g6
S'\xb4\xfb\xd9\x96_\x7f+?'
p101
tp102
Rp103
sS'coets_1691_v1_1_0082'
p104
g2
(g6
S'\x16\xaee\x04\x86bK?'
p105
tp106
Rp107
sS'coets_1691_v1_1_0081'
p108
g2
(g6
S'U\xcc\x0cA\xe4QP?'
p109
tp110
Rp111
sS'coets_1691_v1_1_0080'
p112
g2
(g6
S'\xad>\xd2^\x9f\xa3F?'
p113
tp114
Rp115
sS'coets_1691_v1_1_0087'
p116
g2
(g6
S'HLE\xf30\xa7R?'
p117
tp118
Rp119
sS'coets_1691_v1_1_0086'
p120
g2
(g6
S'd\x99x\x1fP\t%?'
p121
tp122
Rp123
sS'coets_1691_v1_1_0085'
p124
g2
(g6
S'\x01\\\xbf\x9b\x9fl(?'
p125
tp126
Rp127
sS'coets_1691_v1_1_0084'
p128
g2
(g6
S'\xa7\xabt\xf2k\x8a7?'
p129
tp130
Rp131
sS'coets_1691_v1_1_0331'
p132
g2
(g6
S'\xb4\x1c_\x94\xc9Q0?'
p133
tp134
Rp135
sS'coets_1691_v1_1_0330'
p136
g2
(g6
S'\x9d\xd2\xc3i@\xc31?'
p137
tp138
Rp139
sS'coets_1691_v1_1_0333'
p140
g2
(g6
S'\xfc"\xdbp\xcbJR?'
p141
tp142
Rp143
sS'coets_1691_v1_1_0332'
p144
g2
(g6
S'\x07\xe7\x05\xaf\xa1\xc7F?'
p145
tp146
Rp147
sS'coets_1691_v1_1_0335'
p148
g2
(g6
S'\x9eJ:EM\x84I?'
p149
tp150
Rp151
sS'coets_1691_v1_1_0334'
p152
g2
(g6
S'U\xa6\xe01\x08\x9b5?'
p153
tp154
Rp155
sS'coets_1691_v1_1_0337'
p156
g2
(g6
S'\xe7:\xb3\xd6\xe30S?'
p157
tp158
Rp159
sS'coets_1691_v1_1_0336'
p160
g2
(g6
S'\xc7\x85\x86\xa0\xff\xb0R?'
p161
tp162
Rp163
sS'coets_1691_v1_1_0339'
p164
g2
(g6
S'l7a\xd3\xbf\xe2L?'
p165
tp166
Rp167
sS'coets_1691_v1_1_0338'
p168
g2
(g6
S'\xb6O\x91k\x0e\xaeH?'
p169
tp170
Rp171
sS'coets_1691_v1_1_0150'
p172
g2
(g6
S'\xf4\x1b\xf2\xe8\x87\x16L?'
p173
tp174
Rp175
sS'coets_1691_v1_1_0449'
p176
g2
(g6
S'(]*\xb2\xa8\xb0R?'
p177
tp178
Rp179
sS'coets_1691_v1_1_0238'
p180
g2
(g6
S'a\x05x\x10\x1b\x11I?'
p181
tp182
Rp183
sS'coets_1691_v1_1_0239'
p184
g2
(g6
S'\xaa\xa0R\xda\xfbVP?'
p185
tp186
Rp187
sS'coets_1691_v1_1_0448'
p188
g2
(g6
S'o\x19\x9b\x9c2\x1dR?'
p189
tp190
Rp191
sS'coets_1691_v1_1_0230'
p192
g2
(g6
S'!\x81\ta\x99\x9c:?'
p193
tp194
Rp195
sS'coets_1691_v1_1_0231'
p196
g2
(g6
S'\xec\xbf\xec\x1f\xa9kR?'
p197
tp198
Rp199
sS'coets_1691_v1_1_0232'
p200
g2
(g6
S'\xb7\xbe\xc23jDU?'
p201
tp202
Rp203
sS'coets_1691_v1_1_0233'
p204
g2
(g6
S'mr\x9d\xfc3\x975?'
p205
tp206
Rp207
sS'coets_1691_v1_1_0234'
p208
g2
(g6
S'd\xa5q;\xeb\x06P?'
p209
tp210
Rp211
sS'coets_1691_v1_1_0235'
p212
g2
(g6
S'\xa7O\x0eB\xd6\xf9P?'
p213
tp214
Rp215
sS'coets_1691_v1_1_0236'
p216
g2
(g6
S'),\xe1\xc1\xcc\xdbX?'
p217
tp218
Rp219
sS'coets_1691_v1_1_0237'
p220
g2
(g6
S'Z\x01\x01\xaa\x14\x8aJ?'
p221
tp222
Rp223
sS'coets_1691_v1_1_0441'
p224
g2
(g6
S'\xb4;\xd6\x827\xebI?'
p225
tp226
Rp227
sS'coets_1691_v1_1_0440'
p228
g2
(g6
S'\xada\xdbz]\xf0Q?'
p229
tp230
Rp231
sS'coets_1691_v1_1_0344'
p232
g2
(g6
S'\x1a\xa9u&nMJ?'
p233
tp234
Rp235
sS'coets_1691_v1_1_0345'
p236
g2
(g6
S'\xb2\x80\x80A#\xec4?'
p237
tp238
Rp239
sS'coets_1691_v1_1_0346'
p240
g2
(g6
S'~\xc6\x9esG\x0c(?'
p241
tp242
Rp243
sS'coets_1691_v1_1_0347'
p244
g2
(g6
S'\x00\xb60-0,\x12?'
p245
tp246
Rp247
sS'coets_1691_v1_1_0340'
p248
g2
(g6
S'\x07\xf9\xb9j\xee\x99@?'
p249
tp250
Rp251
sS'coets_1691_v1_1_0341'
p252
g2
(g6
S'.t\x10\xc3E!<?'
p253
tp254
Rp255
sS'coets_1691_v1_1_0342'
p256
g2
(g6
S'M\x9f\x12b\xd0\r;?'
p257
tp258
Rp259
sS'coets_1691_v1_1_0343'
p260
g2
(g6
S'\xadn*\xf7\x0cPH?'
p261
tp262
Rp263
sS'coets_1691_v1_1_0425'
p264
g2
(g6
S'E~\xfc]\x00rR?'
p265
tp266
Rp267
sS'coets_1691_v1_1_0424'
p268
g2
(g6
S'o\x19\x9b\x9c2\x1dR?'
p269
tp270
Rp271
sS'coets_1691_v1_1_0427'
p272
g2
(g6
S"\xf2\x94b^s\n'?"
p273
tp274
Rp275
sS'coets_1691_v1_1_0426'
p276
g2
(g6
S'\xed\xc2B\xd7+6V?'
p277
tp278
Rp279
sS'coets_1691_v1_1_0348'
p280
g2
(g6
S'\xe4\x1d\x84J\n!\x13?'
p281
tp282
Rp283
sS'coets_1691_v1_1_0349'
p284
g2
(g6
S'\x9a\xd6\xc11z\xd8>?'
p285
tp286
Rp287
sS'coets_1691_v1_1_0423'
p288
g2
(g6
S'9\x82y\xcc\xa3\xd1S?'
p289
tp290
Rp291
sS'coets_1691_v1_1_0422'
p292
g2
(g6
S'B\xceuWe\x82H?'
p293
tp294
Rp295
sS'coets_1691_v1_1_0319'
p296
g2
(g6
S'Jl\x8f\xc3\xa6LQ?'
p297
tp298
Rp299
sS'coets_1691_v1_1_0318'
p300
g2
(g6
S'TMG\xff\x8c\x0fS?'
p301
tp302
Rp303
sS'coets_1691_v1_1_0049'
p304
g2
(g6
S'\x17[\xce\xe7\xbd\xdaE?'
p305
tp306
Rp307
sS'coets_1691_v1_1_0048'
p308
g2
(g6
S'=\xf6\xec\xc2-7P?'
p309
tp310
Rp311
sS'coets_1691_v1_1_0047'
p312
g2
(g6
S'@\xa4\x12!\xb7\xacP?'
p313
tp314
Rp315
sS'coets_1691_v1_1_0046'
p316
g2
(g6
S'\xe4\xcc2L@\xfbP?'
p317
tp318
Rp319
sS'coets_1691_v1_1_0045'
p320
g2
(g6
S'\xd4\x9c&\xac\xbb\xdeN?'
p321
tp322
Rp323
sS'coets_1691_v1_1_0044'
p324
g2
(g6
S'\xc0\xc7\x88\xfay9J?'
p325
tp326
Rp327
sS'coets_1691_v1_1_0043'
p328
g2
(g6
S'\xab\xea\xb8ub\xa6E?'
p329
tp330
Rp331
sS'coets_1691_v1_1_0042'
p332
g2
(g6
S'U\xcc\x0cA\xe4QP?'
p333
tp334
Rp335
sS'coets_1691_v1_1_0041'
p336
g2
(g6
S'\xad\xebu\xf0\xb3\xa3K?'
p337
tp338
Rp339
sS'coets_1691_v1_1_0040'
p340
g2
(g6
S'\xcc\xc9\x8c\x93c$Q?'
p341
tp342
Rp343
sS'coets_1691_v1_1_0160'
p344
g2
(g6
S'y\xaf}DG\xd6L?'
p345
tp346
Rp347
sS'coets_1691_v1_1_0161'
p348
g2
(g6
S'B>\xda\xc7\xb4U+?'
p349
tp350
Rp351
sS'coets_1691_v1_1_0162'
p352
g2
(g6
S'\x07h\xc4\xd1"\xfeL?'
p353
tp354
Rp355
sS'coets_1691_v1_1_0163'
p356
g2
(g6
S'-c\x7f\x97\xf5\x8cI?'
p357
tp358
Rp359
sS'coets_1691_v1_1_0164'
p360
g2
(g6
S'\x1e\x8e8\xf7]\nN?'
p361
tp362
Rp363
sS'coets_1691_v1_1_0165'
p364
g2
(g6
S'Y\xf0\xb4<\xfbs@?'
p365
tp366
Rp367
sS'coets_1691_v1_1_0166'
p368
g2
(g6
S'3S\xc2MT\x16C?'
p369
tp370
Rp371
sS'coets_1691_v1_1_0167'
p372
g2
(g6
S'YM\xe7\x00{EX?'
p373
tp374
Rp375
sS'coets_1691_v1_1_0281'
p376
g2
(g6
S'\x8f\x02+\x96S\xb1G?'
p377
tp378
Rp379
sS'coets_1691_v1_1_0280'
p380
g2
(g6
S'\x1a\xd2\xca\xde\xba\xaaM?'
p381
tp382
Rp383
sS'coets_1691_v1_1_0283'
p384
g2
(g6
S'K\x9e\x9b\x96\x1a\xd4O?'
p385
tp386
Rp387
sS'coets_1691_v1_1_0282'
p388
g2
(g6
S'\xa4\xcbrP\xf5\xddJ?'
p389
tp390
Rp391
sS'coets_1691_v1_1_0285'
p392
g2
(g6
S'\xb9\x1f\xbd\xcb\xd4\xe8L?'
p393
tp394
Rp395
sS'coets_1691_v1_1_0284'
p396
g2
(g6
S'\x85\xb2\xe4\xd0\xbb$N?'
p397
tp398
Rp399
sS'coets_1691_v1_1_0287'
p400
g2
(g6
S'\xe0\nE\xa1\xfb\x87B?'
p401
tp402
Rp403
sS'coets_1691_v1_1_0286'
p404
g2
(g6
S'\xd1\xc9\x19t~\xa6!?'
p405
tp406
Rp407
sS'coets_1691_v1_1_0259'
p408
g2
(g6
S'-\xb8dp\x9c\xd9I?'
p409
tp410
Rp411
sS'coets_1691_v1_1_0229'
p412
g2
(g6
S'\xa48\xa2La\x9a\x1e?'
p413
tp414
Rp415
sS'coets_1691_v1_1_0228'
p416
g2
(g6
S'\xd6\xcf\x82pM\x98T?'
p417
tp418
Rp419
sS'coets_1691_v1_1_0461'
p420
g2
(g6
S't7\xc7\x1f\xdb\x94K?'
p421
tp422
Rp423
sS'coets_1691_v1_1_0460'
p424
g2
(g6
S'\xe8\xa0\xbaM\xa9\x90O?'
p425
tp426
Rp427
sS'coets_1691_v1_1_0463'
p428
g2
(g6
S'&\x13]\xb0^\xe3P?'
p429
tp430
Rp431
sS'coets_1691_v1_1_0462'
p432
g2
(g6
S'0j\n8@\xdcN?'
p433
tp434
Rp435
sS'coets_1691_v1_1_0465'
p436
g2
(g6
S'i\xe2X\x92\x10rD?'
p437
tp438
Rp439
sS'coets_1691_v1_1_0464'
p440
g2
(g6
S'\xb40%\x86\x17\xa3P?'
p441
tp442
Rp443
sS'coets_1691_v1_1_0467'
p444
g2
(g6
S'=#\xf3\xcfDK\x17?'
p445
tp446
Rp447
sS'coets_1691_v1_1_0466'
p448
g2
(g6
S']@X~\x98\x9f\x19?'
p449
tp450
Rp451
sS'coets_1691_v1_1_0469'
p452
g2
(g6
S'\xc9\x04d%7h0?'
p453
tp454
Rp455
sS'coets_1691_v1_1_0468'
p456
g2
(g6
S'7\x93\xc5\xc9\xb4\x1dQ?'
p457
tp458
Rp459
sS'coets_1691_v1_1_0188'
p460
g2
(g6
S';yC\xf2&6M?'
p461
tp462
Rp463
sS'coets_1691_v1_1_0220'
p464
g2
(g6
S'\xd8\xa6\xe1\xbas\x01R?'
p465
tp466
Rp467
sS'coets_1691_v1_1_0308'
p468
g2
(g6
S'\xea\x9e\xc7\xd9\xeb\xf9K?'
p469
tp470
Rp471
sS'coets_1691_v1_1_0309'
p472
g2
(g6
S'\xb4\x1c_\x94\xc9QP?'
p473
tp474
Rp475
sS'coets_1691_v1_1_0265'
p476
g2
(g6
S'\x83o\xbd\xfd"\xa21?'
p477
tp478
Rp479
sS'coets_1691_v1_1_0264'
p480
g2
(g6
S'\xe4F\xec\xd9\x87 S?'
p481
tp482
Rp483
sS'coets_1691_v1_1_0263'
p484
g2
(g6
S'\x1b\x7f\x07\x86u]F?'
p485
tp486
Rp487
sS'coets_1691_v1_1_0262'
p488
g2
(g6
S'\xb6]~F$\xbeE?'
p489
tp490
Rp491
sS'coets_1691_v1_1_0261'
p492
g2
(g6
S'\xb6\x9c\x88M\xedo+?'
p493
tp494
Rp495
sS'coets_1691_v1_1_0260'
p496
g2
(g6
S"'V\xe9\xea\x9f\x15@?"
p497
tp498
Rp499
sS'coets_1691_v1_1_0300'
p500
g2
(g6
S'\xaf\xa8\xe6\x80\xf6\xa5E?'
p501
tp502
Rp503
sS'coets_1691_v1_1_0301'
p504
g2
(g6
S'\xcb\x87x\xdaJjM?'
p505
tp506
Rp507
sS'coets_1691_v1_1_0302'
p508
g2
(g6
S'^\xce,\x1d8\xb2N?'
p509
tp510
Rp511
sS'coets_1691_v1_1_0303'
p512
g2
(g6
S'\xcd!\x07\x82o\xe0P?'
p513
tp514
Rp515
sS'coets_1691_v1_1_0304'
p516
g2
(g6
S'\xf96=I\xd0BQ?'
p517
tp518
Rp519
sS'coets_1691_v1_1_0305'
p520
g2
(g6
S'\xcb\x87x\xdaJjM?'
p521
tp522
Rp523
sS'coets_1691_v1_1_0306'
p524
g2
(g6
S'Sl$\xa8\x1eEH?'
p525
tp526
Rp527
sS'coets_1691_v1_1_0307'
p528
g2
(g6
S'\x18\xf7B\xc1w6%?'
p529
tp530
Rp531
sS'coets_1691_v1_1_0414'
p532
g2
(g6
S'\x18B\xf5\x12W\x8cO?'
p533
tp534
Rp535
sS'coets_1691_v1_1_0415'
p536
g2
(g6
S'\xf1\x95\xf9\xdf\xe9UR?'
p537
tp538
Rp539
sS'coets_1691_v1_1_0416'
p540
g2
(g6
S'\x8c\x13\xd0HcAR?'
p541
tp542
Rp543
sS'coets_1691_v1_1_0417'
p544
g2
(g6
S']t\xd4}\xcc\x1bI?'
p545
tp546
Rp547
sS'coets_1691_v1_1_0410'
p548
g2
(g6
S'\xcb\x8f\x8c&\xc2\x90Q?'
p549
tp550
Rp551
sS'coets_1691_v1_1_0411'
p552
g2
(g6
S'\xa7\xdd\xf5\xf2cVP?'
p553
tp554
Rp555
sS'coets_1691_v1_1_0412'
p556
g2
(g6
S'H\x06O\xe3\xfdxQ?'
p557
tp558
Rp559
sS'coets_1691_v1_1_0413'
p560
g2
(g6
S'\xdf\xc8\xfe?\xe6kN?'
p561
tp562
Rp563
sS'coets_1691_v1_1_0418'
p564
g2
(g6
S'y/\xdc-\xa9{P?'
p565
tp566
Rp567
sS'coets_1691_v1_1_0419'
p568
g2
(g6
S'iy\xc9\x112.J?'
p569
tp570
Rp571
sS'coets_1691_v1_1_0113'
p572
g2
(g6
S'\x13\tYi\xb3YM?'
p573
tp574
Rp575
sS'coets_1691_v1_1_0139'
p576
g2
(g6
S'\x9f\x05\x0fI7\x1f/?'
p577
tp578
Rp579
sS'coets_1691_v1_1_0138'
p580
g2
(g6
S'4\x9c\x7f\xbdmB\x10?'
p581
tp582
Rp583
sS'coets_1691_v1_1_0137'
p584
g2
(g6
S'?\x97T\x81o\xf8\x0e?'
p585
tp586
Rp587
sS'coets_1691_v1_1_0136'
p588
g2
(g6
S'u\x06\x9cx\x9fa>?'
p589
tp590
Rp591
sS'coets_1691_v1_1_0135'
p592
g2
(g6
S'\xc9\xecT\xba\xa3\x08\x11?'
p593
tp594
Rp595
sS'coets_1691_v1_1_0134'
p596
g2
(g6
S'\xafe&&.T\x17?'
p597
tp598
Rp599
sS'coets_1691_v1_1_0133'
p600
g2
(g6
S'\x06\x97(\xbd\xb8\x96L?'
p601
tp602
Rp603
sS'coets_1691_v1_1_0132'
p604
g2
(g6
S'\xec\x83cy-x+?'
p605
tp606
Rp607
sS'coets_1691_v1_1_0131'
p608
g2
(g6
S'\x85M\xf0\xe3\xbeb0?'
p609
tp610
Rp611
sS'coets_1691_v1_1_0130'
p612
g2
(g6
S'\x8f\xa6\x8d~\xecI>?'
p613
tp614
Rp615
sS'coets_1691_v1_1_0119'
p616
g2
(g6
S'\xea:\xa6\t\x14L\x0e?'
p617
tp618
Rp619
sS'coets_1691_v1_1_0118'
p620
g2
(g6
S'\xf1C\xac1J\t>?'
p621
tp622
Rp623
sS'coets_1691_v1_1_0182'
p624
g2
(g6
S'm\xf9\xc5\x15\x9f\xc9P?'
p625
tp626
Rp627
sS'coets_1691_v1_1_0183'
p628
g2
(g6
S'\x9b\x16Ju\x7fIS?'
p629
tp630
Rp631
sS'coets_1691_v1_1_0180'
p632
g2
(g6
S'\xb1\nP\xe7\x10\x9aQ?'
p633
tp634
Rp635
sS'coets_1691_v1_1_0181'
p636
g2
(g6
S't\x04@\xf3<JL?'
p637
tp638
Rp639
sS'coets_1691_v1_1_0186'
p640
g2
(g6
S'\xfa%\x8e#j3S?'
p641
tp642
Rp643
sS'coets_1691_v1_1_0187'
p644
g2
(g6
S'\x9b\xe8\x93\xcc\x9a\xbcT?'
p645
tp646
Rp647
sS'coets_1691_v1_1_0184'
p648
g2
(g6
S'\x81Ih9\x04\x8cO?'
p649
tp650
Rp651
sS'coets_1691_v1_1_0185'
p652
g2
(g6
S'\xd9L\x84\xc7\x9f\xe9R?'
p653
tp654
Rp655
sS'coets_1691_v1_1_0223'
p656
g2
(g6
S'\xdbdUO\x05\x1bE?'
p657
tp658
Rp659
sS'coets_1691_v1_1_0222'
p660
g2
(g6
S'\xf5\xc6\xd6\t\n}7?'
p661
tp662
Rp663
sS'coets_1691_v1_1_0221'
p664
g2
(g6
S'\x08\x1f\x88\xa6\x94:H?'
p665
tp666
Rp667
sS'coets_1691_v1_1_0189'
p668
g2
(g6
S'\xa4\xc7\x83&\xaco0?'
p669
tp670
Rp671
sS'coets_1691_v1_1_0227'
p672
g2
(g6
S'G\xb6\x05_\x1d\x04H?'
p673
tp674
Rp675
sS'coets_1691_v1_1_0226'
p676
g2
(g6
S'Z\x7fM\x19\xbf0;?'
p677
tp678
Rp679
sS'coets_1691_v1_1_0225'
p680
g2
(g6
S'\xb6\x8f\xd2\xfbY8M?'
p681
tp682
Rp683
sS'coets_1691_v1_1_0224'
p684
g2
(g6
S'\xb3C\\\xf8\xd80Q?'
p685
tp686
Rp687
sS'coets_1691_v1_1_0063'
p688
g2
(g6
S'3c\xca\x04\xd7\xa5\x0b?'
p689
tp690
Rp691
sS'coets_1691_v1_1_0062'
p692
g2
(g6
S'\x85\xcc\xa0\xd4j\x0c\x1c?'
p693
tp694
Rp695
sS'coets_1691_v1_1_0458'
p696
g2
(g6
S'#dm+:?R?'
p697
tp698
Rp699
sS'coets_1691_v1_1_0459'
p700
g2
(g6
S'@^\xa2\xd7jcR?'
p701
tp702
Rp703
sS'coets_1691_v1_1_0069'
p704
g2
(g6
S'wDl\x05\x05\xecS?'
p705
tp706
Rp707
sS'coets_1691_v1_1_0068'
p708
g2
(g6
S'\xe8[\xf7\xce\x88\x1dP?'
p709
tp710
Rp711
sS'coets_1691_v1_1_0357'
p712
g2
(g6
S'\x0cG\xcb"\x8b\x16A?'
p713
tp714
Rp715
sS'coets_1691_v1_1_0356'
p716
g2
(g6
S'\x89\x9c}mj[F?'
p717
tp718
Rp719
sS'coets_1691_v1_1_0355'
p720
g2
(g6
S'\xd9\x0b\xea\xe2`\xf1@?'
p721
tp722
Rp723
sS'coets_1691_v1_1_0354'
p724
g2
(g6
S'\xfd\xf3\xea~S\x97L?'
p725
tp726
Rp727
sS'coets_1691_v1_1_0353'
p728
g2
(g6
S'#\xfe\xb2\x1fy\x8dB?'
p729
tp730
Rp731
sS'coets_1691_v1_1_0352'
p732
g2
(g6
S'+\xabG.\x15\x9e3?'
p733
tp734
Rp735
sS'coets_1691_v1_1_0351'
p736
g2
(g6
S'\x91\xea0\xb4\xd0\xa1I?'
p737
tp738
Rp739
sS'coets_1691_v1_1_0350'
p740
g2
(g6
S'\xe8G-\x8b\r\xf9\x0f?'
p741
tp742
Rp743
sS'coets_1691_v1_1_0450'
p744
g2
(g6
S'\xabK\x9boq\xde??'
p745
tp746
Rp747
sS'coets_1691_v1_1_0451'
p748
g2
(g6
S'9\x80\x86\xd1hrJ?'
p749
tp750
Rp751
sS'coets_1691_v1_1_0452'
p752
g2
(g6
S'\xd4\xbf\x9c\xae|\xecO?'
p753
tp754
Rp755
sS'coets_1691_v1_1_0453'
p756
g2
(g6
S'\x89d\xe0\xc3>\x9dS?'
p757
tp758
Rp759
sS'coets_1691_v1_1_0454'
p760
g2
(g6
S"'D\x14+/}N?"
p761
tp762
Rp763
sS'coets_1691_v1_1_0455'
p764
g2
(g6
S'\xb4\xbc\xf5\xffBVM?'
p765
tp766
Rp767
sS'coets_1691_v1_1_0359'
p768
g2
(g6
S'4\x98\x1a\xc9\xa8\x8fB?'
p769
tp770
Rp771
sS'coets_1691_v1_1_0358'
p772
g2
(g6
S'=4=9\xe2\x88C?'
p773
tp774
Rp775
sS'coets_1691_v1_1_0379'
p776
g2
(g6
S'\xec\x91\x9e\xec\xa6\x96P?'
p777
tp778
Rp779
sS'coets_1691_v1_1_0481'
p780
g2
(g6
S'\xa8\xce\xe8\xefi\xe0I?'
p781
tp782
Rp783
sS'coets_1691_v1_1_0456'
p784
g2
(g6
S'a \xee\x86c\x9eU?'
p785
tp786
Rp787
sS'coets_1691_v1_1_0378'
p788
g2
(g6
S'\xa0\xdb\xee\x8eK\x11P?'
p789
tp790
Rp791
sS'coets_1691_v1_1_0457'
p792
g2
(g6
S'\x1dS1\x9f\xc8\xe5(?'
p793
tp794
Rp795
sS'coets_1691_v1_1_0078'
p796
g2
(g6
S'\xaaY\x9aP\xf5\xffW?'
p797
tp798
Rp799
sS'coets_1691_v1_1_0079'
p800
g2
(g6
S'HLE\xf30\xa7R?'
p801
tp802
Rp803
sS'coets_1691_v1_1_0072'
p804
g2
(g6
S'\xc5\xbd\xc1\xd6\xa2?Q?'
p805
tp806
Rp807
sS'coets_1691_v1_1_0073'
p808
g2
(g6
S'\x98\xc6W? \xf8U?'
p809
tp810
Rp811
sS'coets_1691_v1_1_0070'
p812
g2
(g6
S'L~!\x92\x93WH?'
p813
tp814
Rp815
sS'coets_1691_v1_1_0071'
p816
g2
(g6
S'=\xfeYD\xe0\xacJ?'
p817
tp818
Rp819
sS'coets_1691_v1_1_0076'
p820
g2
(g6
S'\tzJ\x1e]?T?'
p821
tp822
Rp823
sS'coets_1691_v1_1_0077'
p824
g2
(g6
S'UB\x9e"\xd8#\x17?'
p825
tp826
Rp827
sS'coets_1691_v1_1_0074'
p828
g2
(g6
S'\xc4(\n\xc8J\xa2S?'
p829
tp830
Rp831
sS'coets_1691_v1_1_0075'
p832
g2
(g6
S'\xb1M\xb48\xd6\tK?'
p833
tp834
Rp835
sS'coets_1691_v1_1_0173'
p836
g2
(g6
S'\xaf\xa9\x95x\xd6\xf1H?'
p837
tp838
Rp839
sS'coets_1691_v1_1_0172'
p840
g2
(g6
S'\x0f\x18P@\x9e\x18I?'
p841
tp842
Rp843
sS'coets_1691_v1_1_0171'
p844
g2
(g6
S'\x98\xe3E\xaf).\x19?'
p845
tp846
Rp847
sS'coets_1691_v1_1_0170'
p848
g2
(g6
S'\x8c*\xb4\x18xVM?'
p849
tp850
Rp851
sS'coets_1691_v1_1_0177'
p852
g2
(g6
S'\xc7-\xd2t=/Y?'
p853
tp854
Rp855
sS'coets_1691_v1_1_0176'
p856
g2
(g6
S'\xd1\xca\xae\x01\t\\U?'
p857
tp858
Rp859
sS'coets_1691_v1_1_0175'
p860
g2
(g6
S"7Zl\xf0'\xbcP?"
p861
tp862
Rp863
sS'coets_1691_v1_1_0174'
p864
g2
(g6
S'f\x90\xb3\xc1\xdfoI?'
p865
tp866
Rp867
sS'coets_1691_v1_1_0179'
p868
g2
(g6
S'\xbc\x90\xdd\xb7lVS?'
p869
tp870
Rp871
sS'coets_1691_v1_1_0178'
p872
g2
(g6
S'%&\xaf6\xb3\xfcT?'
p873
tp874
Rp875
sS'coets_1691_v1_1_0267'
p876
g2
(g6
S'\xc9\x82"\xdf\xce\x9eG?'
p877
tp878
Rp879
sS'coets_1691_v1_1_0266'
p880
g2
(g6
S'/\xdb\x1fD\xab\xcdE?'
p881
tp882
Rp883
sS'coets_1691_v1_1_0380'
p884
g2
(g6
S'\xf2i\xda;\x9d\xa6B?'
p885
tp886
Rp887
sS'coets_1691_v1_1_0381'
p888
g2
(g6
S'W\x11. \xd0\xf8A?'
p889
tp890
Rp891
sS'coets_1691_v1_1_0382'
p892
g2
(g6
S'nq\x1d]\xa98J?'
p893
tp894
Rp895
sS'coets_1691_v1_1_0383'
p896
g2
(g6
S'\x1b\x95\xc2\x86\x84\xf0I?'
p897
tp898
Rp899
sS'coets_1691_v1_1_0384'
p900
g2
(g6
S'\xb4\xf6\xf78\x93"F?'
p901
tp902
Rp903
sS'coets_1691_v1_1_0385'
p904
g2
(g6
S'\x8a\x14\xf4Hw\x1cN?'
p905
tp906
Rp907
sS'coets_1691_v1_1_0386'
p908
g2
(g6
S'\xeb\x9e\xc7\xd9\xeb\xf9K?'
p909
tp910
Rp911
sS'coets_1691_v1_1_0387'
p912
g2
(g6
S'Tc\x9b\x11\xdd\xc0L?'
p913
tp914
Rp915
sS'coets_1691_v1_1_0388'
p916
g2
(g6
S'\x86:\xb9\x15\xe4\x81E?'
p917
tp918
Rp919
sS'coets_1691_v1_1_0389'
p920
g2
(g6
S'\xa1\xcb\xdbEe\x93O?'
p921
tp922
Rp923
sS'coets_1691_v1_1_0269'
p924
g2
(g6
S'+>\x7f"\x9d\xe5\'?'
p925
tp926
Rp927
sS'coets_1691_v1_1_0268'
p928
g2
(g6
S'\xb7\xdc\x95\xf8;fP?'
p929
tp930
Rp931
sS'coets_1691_v1_1_0498'
p932
g2
(g6
S'\xf8\x8aIiTZU?'
p933
tp934
Rp935
sS'coets_1691_v1_1_0499'
p936
g2
(g6
S'\xc7\xd3\xbd\xa1\x90\rS?'
p937
tp938
Rp939
sS'coets_1691_v1_1_0494'
p940
g2
(g6
S'\xcc\xccz(\xff~S?'
p941
tp942
Rp943
sS'coets_1691_v1_1_0495'
p944
g2
(g6
S'\xeaRoW1\x17P?'
p945
tp946
Rp947
sS'coets_1691_v1_1_0496'
p948
g2
(g6
S'\x9e\x1eacD\xa4S?'
p949
tp950
Rp951
sS'coets_1691_v1_1_0497'
p952
g2
(g6
S'q\xd6\x11\x9a\x04+L?'
p953
tp954
Rp955
sS'coets_1691_v1_1_0490'
p956
g2
(g6
S'\x9c\xd4\x93a\xfa\xd6Q?'
p957
tp958
Rp959
sS'coets_1691_v1_1_0491'
p960
g2
(g6
S'"\xcce*\xa27Q?'
p961
tp962
Rp963
sS'coets_1691_v1_1_0492'
p964
g2
(g6
S'\x94\xd3\x0cQ#~J?'
p965
tp966
Rp967
sS'coets_1691_v1_1_0493'
p968
g2
(g6
S'\xb40%\x86\x17\xa3P?'
p969
tp970
Rp971
sS'coets_1691_v1_1_0252'
p972
g2
(g6
S'M\xce\x0c\xbc\xbc\xffI?'
p973
tp974
Rp975
sS'coets_1691_v1_1_0253'
p976
g2
(g6
S']\x80\xce\x06QPM?'
p977
tp978
Rp979
sS'coets_1691_v1_1_0250'
p980
g2
(g6
S'\xcc\xb2\x93\x04q\xcaQ?'
p981
tp982
Rp983
sS'coets_1691_v1_1_0251'
p984
g2
(g6
S'\x0fPz\xb9\xc8\x85T?'
p985
tp986
Rp987
sS'coets_1691_v1_1_0256'
p988
g2
(g6
S'P\xc7\xa5\xec_=Q?'
p989
tp990
Rp991
sS'coets_1691_v1_1_0257'
p992
g2
(g6
S'\x9f!\x1c\xddS\xbeN?'
p993
tp994
Rp995
sS'coets_1691_v1_1_0254'
p996
g2
(g6
S'\xd3\x1d^\xbaU\x13K?'
p997
tp998
Rp999
sS'coets_1691_v1_1_0255'
p1000
g2
(g6
S'\xda\xd9R\x8e\xc7<F?'
p1001
tp1002
Rp1003
sS'coets_1691_v1_1_0313'
p1004
g2
(g6
S'\xd7\xdcWb\x1ftH?'
p1005
tp1006
Rp1007
sS'coets_1691_v1_1_0312'
p1008
g2
(g6
S'V\x9dW\x9b\xc6\x16J?'
p1009
tp1010
Rp1011
sS'coets_1691_v1_1_0311'
p1012
g2
(g6
S'o\x8e\xfb!\x9e\xe3H?'
p1013
tp1014
Rp1015
sS'coets_1691_v1_1_0310'
p1016
g2
(g6
S'\xb9\x9f\xa1\x07H\xb5O?'
p1017
tp1018
Rp1019
sS'coets_1691_v1_1_0317'
p1020
g2
(g6
S'+\x88!\xd4e\xb4I?'
p1021
tp1022
Rp1023
sS'coets_1691_v1_1_0316'
p1024
g2
(g6
S'L\x13\x98\x1f\xf5\x8aQ?'
p1025
tp1026
Rp1027
sS'coets_1691_v1_1_0315'
p1028
g2
(g6
S')\xd6\xeeno\x9dD?'
p1029
tp1030
Rp1031
sS'coets_1691_v1_1_0314'
p1032
g2
(g6
S'\x01@[\xc4\x89\xbfC?'
p1033
tp1034
Rp1035
sS'coets_1691_v1_1_0407'
p1036
g2
(g6
S'\xa7\x83\x84l\xa9\xc7<?'
p1037
tp1038
Rp1039
sS'coets_1691_v1_1_0406'
p1040
g2
(g6
S'\xe0/O\xc6\xad\xd9Q?'
p1041
tp1042
Rp1043
sS'coets_1691_v1_1_0405'
p1044
g2
(g6
S'\x9c\xd4\x93a\xfa\xd6Q?'
p1045
tp1046
Rp1047
sS'coets_1691_v1_1_0404'
p1048
g2
(g6
S'\xa3\xfbx\x06\x88\x8c2?'
p1049
tp1050
Rp1051
sS'coets_1691_v1_1_0403'
p1052
g2
(g6
S'x1\x1b(\xc0QG?'
p1053
tp1054
Rp1055
sS'coets_1691_v1_1_0402'
p1056
g2
(g6
S'Z8}\xfd\x05yR?'
p1057
tp1058
Rp1059
sS'coets_1691_v1_1_0401'
p1060
g2
(g6
S'h\x04\xde4\x96!S?'
p1061
tp1062
Rp1063
sS'coets_1691_v1_1_0400'
p1064
g2
(g6
S'\xbd\xc3\xab\r\xab#F?'
p1065
tp1066
Rp1067
sS'coets_1691_v1_1_0409'
p1068
g2
(g6
S'\xdb6\x92??hQ?'
p1069
tp1070
Rp1071
sS'coets_1691_v1_1_0408'
p1072
g2
(g6
S'z\xc7\xe3.A\x831?'
p1073
tp1074
Rp1075
sS'coets_1691_v1_1_0038'
p1076
g2
(g6
S'\x15\xe64/\xf8\x8dO?'
p1077
tp1078
Rp1079
sS'coets_1691_v1_1_0039'
p1080
g2
(g6
S'\x87^|t)\xb0O?'
p1081
tp1082
Rp1083
sS'coets_1691_v1_1_0036'
p1084
g2
(g6
S'(\\5Y\xd4>T?'
p1085
tp1086
Rp1087
sS'coets_1691_v1_1_0037'
p1088
g2
(g6
S'\x85H\xea\x93\x91\xd1V?'
p1089
tp1090
Rp1091
sS'coets_1691_v1_1_0034'
p1092
g2
(g6
S'(%#\xa9\xb3\x10V?'
p1093
tp1094
Rp1095
sS'coets_1691_v1_1_0035'
p1096
g2
(g6
S'y\xfc\x1d\xd9\x88\xd3R?'
p1097
tp1098
Rp1099
sS'coets_1691_v1_1_0032'
p1100
g2
(g6
S'\xc6DT\x86\x15tP?'
p1101
tp1102
Rp1103
sS'coets_1691_v1_1_0033'
p1104
g2
(g6
S'C{%\xd0{\xe7P?'
p1105
tp1106
Rp1107
sS'coets_1691_v1_1_0030'
p1108
g2
(g6
S')\xf8\x9cn\x8dTV?'
p1109
tp1110
Rp1111
sS'coets_1691_v1_1_0031'
p1112
g2
(g6
S'\xc9\xc2\x17;\xdf3W?'
p1113
tp1114
Rp1115
sS'coets_1691_v1_1_0168'
p1116
g2
(g6
S'/\xc1Gn!\xbe8?'
p1117
tp1118
Rp1119
sS'coets_1691_v1_1_0108'
p1120
g2
(g6
S'F]\x81i\xa9w4?'
p1121
tp1122
Rp1123
sS'coets_1691_v1_1_0109'
p1124
g2
(g6
S'\xa2 \xfe\xdff\x124?'
p1125
tp1126
Rp1127
sS'coets_1691_v1_1_0102'
p1128
g2
(g6
S'\x1b\\\xb2\x13\xaf\xa2Q?'
p1129
tp1130
Rp1131
sS'coets_1691_v1_1_0103'
p1132
g2
(g6
S'\x88\x9ae^\x9d\xbdA?'
p1133
tp1134
Rp1135
sS'coets_1691_v1_1_0100'
p1136
g2
(g6
S'\xd4-\xc5\xf5\xa5\x1bP?'
p1137
tp1138
Rp1139
sS'coets_1691_v1_1_0101'
p1140
g2
(g6
S'\x87\xdd>\x9e\x99\xfbK?'
p1141
tp1142
Rp1143
sS'coets_1691_v1_1_0106'
p1144
g2
(g6
S'\x9d\x19T=\x93lV?'
p1145
tp1146
Rp1147
sS'coets_1691_v1_1_0107'
p1148
g2
(g6
S'\xb6Y!\xe7Q\x0c5?'
p1149
tp1150
Rp1151
sS'coets_1691_v1_1_0104'
p1152
g2
(g6
S'\xaa\xd1O\xc1\x98\xe4J?'
p1153
tp1154
Rp1155
sS'coets_1691_v1_1_0105'
p1156
g2
(g6
S'\x13\xac&\xa53\x88U?'
p1157
tp1158
Rp1159
sS'coets_1691_v1_1_0216'
p1160
g2
(g6
S'\xabH\xc1\xec\x11\xb4U?'
p1161
tp1162
Rp1163
sS'coets_1691_v1_1_0217'
p1164
g2
(g6
S'\x15\xae\x8e\x1d\x1a\x97\x1f?'
p1165
tp1166
Rp1167
sS'coets_1691_v1_1_0214'
p1168
g2
(g6
S'\xb0\xa2T\xb5\x1f\x96D?'
p1169
tp1170
Rp1171
sS'coets_1691_v1_1_0215'
p1172
g2
(g6
S'\x17\xf7\xea\xf8P\x12T?'
p1173
tp1174
Rp1175
sS'coets_1691_v1_1_0212'
p1176
g2
(g6
S'R\xfa\x16\xc0\xb3xU?'
p1177
tp1178
Rp1179
sS'coets_1691_v1_1_0213'
p1180
g2
(g6
S'\x03*<\x1d\x043R?'
p1181
tp1182
Rp1183
sS'coets_1691_v1_1_0210'
p1184
g2
(g6
S'\xde7Mx\x80\xd1S?'
p1185
tp1186
Rp1187
sS'coets_1691_v1_1_0211'
p1188
g2
(g6
S'\x17Wd\xa3)\x979?'
p1189
tp1190
Rp1191
sS'coets_1691_v1_1_0218'
p1192
g2
(g6
S'M\xb09\xf7\xea\xddN?'
p1193
tp1194
Rp1195
sS'coets_1691_v1_1_0219'
p1196
g2
(g6
S']\xa6o\x0ey\xd7E?'
p1197
tp1198
Rp1199
sS'coets_1691_v1_1_0199'
p1200
g2
(g6
S'Of\xc5\xce\x8d\x15G?'
p1201
tp1202
Rp1203
sS'coets_1691_v1_1_0198'
p1204
g2
(g6
S' \x1b\xf2\xacK\xab6?'
p1205
tp1206
Rp1207
sS'coets_1691_v1_1_0195'
p1208
g2
(g6
S':\x01^\xe0o H?'
p1209
tp1210
Rp1211
sS'coets_1691_v1_1_0194'
p1212
g2
(g6
S'G\x90dW\xf5|\x1f?'
p1213
tp1214
Rp1215
sS'coets_1691_v1_1_0197'
p1216
g2
(g6
S'\x19\xd61\x00f]L?'
p1217
tp1218
Rp1219
sS'coets_1691_v1_1_0196'
p1220
g2
(g6
S'S\xadw\xce\xec\xa4\x1d?'
p1221
tp1222
Rp1223
sS'coets_1691_v1_1_0191'
p1224
g2
(g6
S'\xb3jtC\x9f\xe2R?'
p1225
tp1226
Rp1227
sS'coets_1691_v1_1_0190'
p1228
g2
(g6
S'\xb1\xae\xe3\x95G\x80T?'
p1229
tp1230
Rp1231
sS'coets_1691_v1_1_0193'
p1232
g2
(g6
S'_\x85Q\x14G\x9b7?'
p1233
tp1234
Rp1235
sS'coets_1691_v1_1_0192'
p1236
g2
(g6
S'\xf7\xdat.\xee\xefS?'
p1237
tp1238
Rp1239
sS'coets_1691_v1_1_0362'
p1240
g2
(g6
S'r[k\xd9"QC?'
p1241
tp1242
Rp1243
sS'coets_1691_v1_1_0363'
p1244
g2
(g6
S'\xbb~\xc5z\x19\xf5C?'
p1245
tp1246
Rp1247
sS'coets_1691_v1_1_0360'
p1248
g2
(g6
S'\xa4\xc7\xdd}+~B?'
p1249
tp1250
Rp1251
sS'coets_1691_v1_1_0361'
p1252
g2
(g6
S'\x9f\xdb\xee\x8eK\x11@?'
p1253
tp1254
Rp1255
sS'coets_1691_v1_1_0366'
p1256
g2
(g6
S'\xd1\xab\x82\xe0\xad\xd8C?'
p1257
tp1258
Rp1259
sS'coets_1691_v1_1_0367'
p1260
g2
(g6
S'\xc0|h%F4@?'
p1261
tp1262
Rp1263
sS'coets_1691_v1_1_0364'
p1264
g2
(g6
S'f\xe7\xae\xa8\xbc\x11C?'
p1265
tp1266
Rp1267
sS'coets_1691_v1_1_0365'
p1268
g2
(g6
S'Z\xb86|\x1e7B?'
p1269
tp1270
Rp1271
sS'coets_1691_v1_1_0443'
p1272
g2
(g6
S'\xcd\x96\xd0%\xdekM?'
p1273
tp1274
Rp1275
sS'coets_1691_v1_1_0442'
p1276
g2
(g6
S'\xb1\xa8\xd2\x00\x1a\x9cQ?'
p1277
tp1278
Rp1279
sS'coets_1691_v1_1_0368'
p1280
g2
(g6
S'\x85kJz\xc2\x89D?'
p1281
tp1282
Rp1283
sS'coets_1691_v1_1_0369'
p1284
g2
(g6
S'b\x99\x9d\xf0\x1f\x95B?'
p1285
tp1286
Rp1287
sS'coets_1691_v1_1_0447'
p1288
g2
(g6
S'\xee\x7f\xa8\xdd\xd3\x04P?'
p1289
tp1290
Rp1291
sS'coets_1691_v1_1_0446'
p1292
g2
(g6
S'\x14!\xf3\x13!\xf3S?'
p1293
tp1294
Rp1295
sS'coets_1691_v1_1_0445'
p1296
g2
(g6
S'U\xe5N\xf0\xdcxN?'
p1297
tp1298
Rp1299
sS'coets_1691_v1_1_0444'
p1300
g2
(g6
S'\xc1\xb69\x97\x88 U?'
p1301
tp1302
Rp1303
sS'coets_1691_v1_1_0489'
p1304
g2
(g6
S'\xe3\x1e\x03\xc9\x9c\x8dT?'
p1305
tp1306
Rp1307
sS'coets_1691_v1_1_0488'
p1308
g2
(g6
S'\xd5\xbe\xf45\xdcaT?'
p1309
tp1310
Rp1311
sS'coets_1691_v1_1_0429'
p1312
g2
(g6
S'\x0e\xea\xb0\t\xffG6?'
p1313
tp1314
Rp1315
sS'coets_1691_v1_1_0428'
p1316
g2
(g6
S'l\xab\x06\x17O\xd4R?'
p1317
tp1318
Rp1319
sS'coets_1691_v1_1_0065'
p1320
g2
(g6
S'g,\x11:`\xaaN?'
p1321
tp1322
Rp1323
sS'coets_1691_v1_1_0064'
p1324
g2
(g6
S'\xc8\xb4\xf2\xdb\xf9\xca(?'
p1325
tp1326
Rp1327
sS'coets_1691_v1_1_0067'
p1328
g2
(g6
S'K\xb8\x0f\xb1M\x7fP?'
p1329
tp1330
Rp1331
sS'coets_1691_v1_1_0066'
p1332
g2
(g6
S'\xcc\x08\x0c\xc56\xc8I?'
p1333
tp1334
Rp1335
sS'coets_1691_v1_1_0061'
p1336
g2
(g6
S'\xb1\xc2M\xf1\x9bV1?'
p1337
tp1338
Rp1339
sS'coets_1691_v1_1_0060'
p1340
g2
(g6
S'\xa5zU\xceZ\xd7\x17?'
p1341
tp1342
Rp1343
sS'coets_1691_v1_1_0148'
p1344
g2
(g6
S'G\x00g\xd5.RV?'
p1345
tp1346
Rp1347
sS'coets_1691_v1_1_0149'
p1348
g2
(g6
S'\x13\x08\x93\xf6\xfc\xa12?'
p1349
tp1350
Rp1351
sS'coets_1691_v1_1_0146'
p1352
g2
(g6
S'0\xac<\x07\x0f\xb96?'
p1353
tp1354
Rp1355
sS'coets_1691_v1_1_0147'
p1356
g2
(g6
S's\xa5\xb1\xa9ZaR?'
p1357
tp1358
Rp1359
sS'coets_1691_v1_1_0144'
p1360
g2
(g6
S'\x16Tr^/\x9d\x0c?'
p1361
tp1362
Rp1363
sS'coets_1691_v1_1_0145'
p1364
g2
(g6
S'\xaaF\x7f\x8492>?'
p1365
tp1366
Rp1367
sS'coets_1691_v1_1_0142'
p1368
g2
(g6
S'\xdc\xc5Se\x00\xba@?'
p1369
tp1370
Rp1371
sS'coets_1691_v1_1_0143'
p1372
g2
(g6
S'\xec%\x9b\xa2\x01G\x0c?'
p1373
tp1374
Rp1375
sS'coets_1691_v1_1_0140'
p1376
g2
(g6
S'\xa8\xb60\xca^\x99B?'
p1377
tp1378
Rp1379
sS'coets_1691_v1_1_0141'
p1380
g2
(g6
S'\x0e\xa5|\x02`\xe2G?'
p1381
tp1382
Rp1383
sS'coets_1691_v1_1_0421'
p1384
g2
(g6
S'\x91X\x99\xcb2V;?'
p1385
tp1386
Rp1387
sS'coets_1691_v1_1_0420'
p1388
g2
(g6
S'?!\xb4\xd5-uP?'
p1389
tp1390
Rp1391
sS'coets_1691_v1_1_0393'
p1392
g2
(g6
S"\xa7g\\'\xd5\xc2M?"
p1393
tp1394
Rp1395
sS'coets_1691_v1_1_0392'
p1396
g2
(g6
S'\xb6\x8bL\xd9\x94\x8eL?'
p1397
tp1398
Rp1399
sS'coets_1691_v1_1_0391'
p1400
g2
(g6
S'(\xf5\xcb\x17\x01\xd3I?'
p1401
tp1402
Rp1403
sS'coets_1691_v1_1_0390'
p1404
g2
(g6
S'\xa4\xb3\xd9\x16]\xbcP?'
p1405
tp1406
Rp1407
sS'coets_1691_v1_1_0397'
p1408
g2
(g6
S'2\x88e\xf1\xf8GO?'
p1409
tp1410
Rp1411
sS'coets_1691_v1_1_0396'
p1412
g2
(g6
S'\xe1\x93\x08\xec\xcb(P?'
p1413
tp1414
Rp1415
sS'coets_1691_v1_1_0395'
p1416
g2
(g6
S'(\xcfd\xbc\xca\xa3O?'
p1417
tp1418
Rp1419
sS'coets_1691_v1_1_0394'
p1420
g2
(g6
S'A\xf8#Z%rR?'
p1421
tp1422
Rp1423
sS'coets_1691_v1_1_0399'
p1424
g2
(g6
S'tIY\xac\x9fHL?'
p1425
tp1426
Rp1427
sS'coets_1691_v1_1_0398'
p1428
g2
(g6
S'\xb4FfF\x03`J?'
p1429
tp1430
Rp1431
sS'coets_1691_v1_1_0098'
p1432
g2
(g6
S'\x14\xdd\xe6\x15,8W?'
p1433
tp1434
Rp1435
sS'coets_1691_v1_1_0099'
p1436
g2
(g6
S'\x95\n:\x855i@?'
p1437
tp1438
Rp1439
sS'coets_1691_v1_1_0090'
p1440
g2
(g6
S'\xdb\x1a\xaf\xb2\xa8\x16;?'
p1441
tp1442
Rp1443
sS'coets_1691_v1_1_0091'
p1444
g2
(g6
S'Z\x85{\x8f\xb96U?'
p1445
tp1446
Rp1447
sS'coets_1691_v1_1_0092'
p1448
g2
(g6
S'\xc0h#o\xaacQ?'
p1449
tp1450
Rp1451
sS'coets_1691_v1_1_0093'
p1452
g2
(g6
S'\xd2\xe3qs\xe0\x8fK?'
p1453
tp1454
Rp1455
sS'coets_1691_v1_1_0094'
p1456
g2
(g6
S"\xaf6\xc2:\x98\xbb'?"
p1457
tp1458
Rp1459
sS'coets_1691_v1_1_0095'
p1460
g2
(g6
S'\xd5.\x8bh\\\xd3J?'
p1461
tp1462
Rp1463
sS'coets_1691_v1_1_0096'
p1464
g2
(g6
S'Kd+\x0c}\x1dR?'
p1465
tp1466
Rp1467
sS'coets_1691_v1_1_0097'
p1468
g2
(g6
S'\x14\xf3\x87\x8f\xea\x9cP?'
p1469
tp1470
Rp1471
sS'coets_1691_v1_1_0326'
p1472
g2
(g6
S'\x9fg\x18\nB/8?'
p1473
tp1474
Rp1475
sS'coets_1691_v1_1_0327'
p1476
g2
(g6
S'^\xce,\x1d8\xb2N?'
p1477
tp1478
Rp1479
sS'coets_1691_v1_1_0324'
p1480
g2
(g6
S'3\x07f\x7f\xaa\x02L?'
p1481
tp1482
Rp1483
sS'coets_1691_v1_1_0325'
p1484
g2
(g6
S'\xaa\xfa\xb1\xe39\xa4M?'
p1485
tp1486
Rp1487
sS'coets_1691_v1_1_0322'
p1488
g2
(g6
S'\x87\x14R\xba\xadRK?'
p1489
tp1490
Rp1491
sS'coets_1691_v1_1_0323'
p1492
g2
(g6
S'\x12I\x0e$\xbb4-?'
p1493
tp1494
Rp1495
sS'coets_1691_v1_1_0320'
p1496
g2
(g6
S'\xa3\xb5)\xc2\xde\xabH?'
p1497
tp1498
Rp1499
sS'coets_1691_v1_1_0321'
p1500
g2
(g6
S'\xff-\xa7\x08=\xedI?'
p1501
tp1502
Rp1503
sS'coets_1691_v1_1_0487'
p1504
g2
(g6
S'O\x06Pi\x88\xc5M?'
p1505
tp1506
Rp1507
sS'coets_1691_v1_1_0486'
p1508
g2
(g6
S'q\xd6\x11\x9a\x04+L?'
p1509
tp1510
Rp1511
sS'coets_1691_v1_1_0485'
p1512
g2
(g6
S'\xf6\x0e?b\xed\xe6J?'
p1513
tp1514
Rp1515
sS'coets_1691_v1_1_0484'
p1516
g2
(g6
S'\x03m\x0e\xfb\x96<T?'
p1517
tp1518
Rp1519
sS'coets_1691_v1_1_0483'
p1520
g2
(g6
S'\xb4\xef\xc9\x86\xd6GQ?'
p1521
tp1522
Rp1523
sS'coets_1691_v1_1_0482'
p1524
g2
(g6
S'\xb2\xd9\x89{\xea5O?'
p1525
tp1526
Rp1527
sS'coets_1691_v1_1_0328'
p1528
g2
(g6
S'c\xfd`,C\xf9I?'
p1529
tp1530
Rp1531
sS'coets_1691_v1_1_0329'
p1532
g2
(g6
S'@\xb5\xde9\xfa\x97I?'
p1533
tp1534
Rp1535
sS'coets_1691_v1_1_0371'
p1536
g2
(g6
S']\xe9io\xc6\x08D?'
p1537
tp1538
Rp1539
sS'coets_1691_v1_1_0370'
p1540
g2
(g6
S'<g\xcd\x81]\x1bI?'
p1541
tp1542
Rp1543
sS'coets_1691_v1_1_0249'
p1544
g2
(g6
S"\x1aL'\x80\xfe\x85;?"
p1545
tp1546
Rp1547
sS'coets_1691_v1_1_0248'
p1548
g2
(g6
S'\n\xc4\xf6\n\xf9\x87C?'
p1549
tp1550
Rp1551
sS'coets_1691_v1_1_0245'
p1552
g2
(g6
S'\xa8\x19\xb7:i+P?'
p1553
tp1554
Rp1555
sS'coets_1691_v1_1_0244'
p1556
g2
(g6
S'\n\xc8],\xa4:R?'
p1557
tp1558
Rp1559
sS'coets_1691_v1_1_0247'
p1560
g2
(g6
S'G\xb6\x05_\x1d\x04H?'
p1561
tp1562
Rp1563
sS'coets_1691_v1_1_0246'
p1564
g2
(g6
S'_\x14 \xf8v\xb3K?'
p1565
tp1566
Rp1567
sS'coets_1691_v1_1_0241'
p1568
g2
(g6
S'\xc7S2\xa7\xbe\x92/?'
p1569
tp1570
Rp1571
sS'coets_1691_v1_1_0240'
p1572
g2
(g6
S'\xeeB!\x9e\x90\xe4S?'
p1573
tp1574
Rp1575
sS'coets_1691_v1_1_0243'
p1576
g2
(g6
S'\\|Mk\r!Q?'
p1577
tp1578
Rp1579
sS'coets_1691_v1_1_0242'
p1580
g2
(g6
S'\xdd\xb9\x00\t\xd6*S?'
p1581
tp1582
Rp1583
sS'coets_1691_v1_1_0432'
p1584
g2
(g6
S'\x1e\xd1z\xa0F/J?'
p1585
tp1586
Rp1587
sS'coets_1691_v1_1_0433'
p1588
g2
(g6
S'\nW\xbe~\x0b8N?'
p1589
tp1590
Rp1591
sS'coets_1691_v1_1_0430'
p1592
g2
(g6
S'\x01\xf2\x9au\xa6\x14U?'
p1593
tp1594
Rp1595
sS'coets_1691_v1_1_0431'
p1596
g2
(g6
S'ACMV\xdaYW?'
p1597
tp1598
Rp1599
sS'coets_1691_v1_1_0436'
p1600
g2
(g6
S'\x1fP[#;\xc4F?'
p1601
tp1602
Rp1603
sS'coets_1691_v1_1_0437'
p1604
g2
(g6
S'9\xf7P\xcb\x18\xa9B?'
p1605
tp1606
Rp1607
sS'coets_1691_v1_1_0434'
p1608
g2
(g6
S'\xc9\xb7\xd1\x9e\x89\xb8L?'
p1609
tp1610
Rp1611
sS'coets_1691_v1_1_0435'
p1612
g2
(g6
S'\xc5<^\x19\x99\x90M?'
p1613
tp1614
Rp1615
sS'coets_1691_v1_1_0438'
p1616
g2
(g6
S'\xbc\xe4\x19\x10ALD?'
p1617
tp1618
Rp1619
sS'coets_1691_v1_1_0439'
p1620
g2
(g6
S'\xcbL\x03$\x94\x9eK?'
p1621
tp1622
Rp1623
sS'coets_1691_v1_1_0029'
p1624
g2
(g6
S'w\xe0\xd3\x1a\xbe\x01V?'
p1625
tp1626
Rp1627
sS'coets_1691_v1_1_0028'
p1628
g2
(g6
S'\x98\xf3\xddyF\xb4U?'
p1629
tp1630
Rp1631
sS'coets_1691_v1_1_0021'
p1632
g2
(g6
S'\x0eKjA\x12\xffU?'
p1633
tp1634
Rp1635
sS'coets_1691_v1_1_0023'
p1636
g2
(g6
S'\xb1\x92\xebG\xdc\xa0W?'
p1637
tp1638
Rp1639
sS'coets_1691_v1_1_0022'
p1640
g2
(g6
S']\xeei\xde<\x15Y?'
p1641
tp1642
Rp1643
sS'coets_1691_v1_1_0025'
p1644
g2
(g6
S'\x1eP\xa5J\xf0\xe1^?'
p1645
tp1646
Rp1647
sS'coets_1691_v1_1_0024'
p1648
g2
(g6
S'+\xda\xf8\r\x9e\xfeZ?'
p1649
tp1650
Rp1651
sS'coets_1691_v1_1_0027'
p1652
g2
(g6
S'\x81\x82\x13a(\x81Y?'
p1653
tp1654
Rp1655
sS'coets_1691_v1_1_0026'
p1656
g2
(g6
S'\xe4\x95 \x9c\x1f\xcdR?'
p1657
tp1658
Rp1659
sS'coets_1691_v1_1_0112'
p1660
g2
(g6
S'\xcd\xc5`\xe4\x97\xcdI?'
p1661
tp1662
Rp1663
sS'coets_1691_v1_1_0058'
p1664
g2
(g6
S'lO\xd0P\xaflE?'
p1665
tp1666
Rp1667
sS'coets_1691_v1_1_0059'
p1668
g2
(g6
S'\xec\xd9\xba\x83R\xddF?'
p1669
tp1670
Rp1671
sS'coets_1691_v1_1_0054'
p1672
g2
(g6
S'\xa2^\x0b\x10\x90\x05K?'
p1673
tp1674
Rp1675
sS'coets_1691_v1_1_0055'
p1676
g2
(g6
S'\xe2\x9b\x13(/HQ?'
p1677
tp1678
Rp1679
sS'coets_1691_v1_1_0056'
p1680
g2
(g6
S'3\x0fvm\xbd \x10?'
p1681
tp1682
Rp1683
sS'coets_1691_v1_1_0057'
p1684
g2
(g6
S'\xea\x93\xc6\xf9\xfaH$?'
p1685
tp1686
Rp1687
sS'coets_1691_v1_1_0050'
p1688
g2
(g6
S'\x8dz\x8b\x84\x17\xfaQ?'
p1689
tp1690
Rp1691
sS'coets_1691_v1_1_0051'
p1692
g2
(g6
S'\xd4\x06wt5\xbcP?'
p1693
tp1694
Rp1695
sS'coets_1691_v1_1_0052'
p1696
g2
(g6
S'Y\xa4\xdcj\xfa\x89F?'
p1697
tp1698
Rp1699
sS'coets_1691_v1_1_0053'
p1700
g2
(g6
S'\xcd\xec\x86X\x8fn\x12?'
p1701
tp1702
Rp1703
sS'coets_1691_v1_1_0115'
p1704
g2
(g6
S'\xc3\xe2\xb8\x7f\xc1\xeb)?'
p1705
tp1706
Rp1707
sS'coets_1691_v1_1_0114'
p1708
g2
(g6
S'\xf9\xaf\xc8M\x1d\x86H?'
p1709
tp1710
Rp1711
sS'coets_1691_v1_1_0117'
p1712
g2
(g6
S'eaO\xd6I\xd7I?'
p1713
tp1714
Rp1715
sS'coets_1691_v1_1_0116'
p1716
g2
(g6
S'\xfcVN\x94b\xe3D?'
p1717
tp1718
Rp1719
sS'coets_1691_v1_1_0111'
p1720
g2
(g6
S'P\xf7k^f-7?'
p1721
tp1722
Rp1723
sS'coets_1691_v1_1_0110'
p1724
g2
(g6
S'hN\x88\xc4\x94=P?'
p1725
tp1726
Rp1727
sS'coets_1691_v1_1_0298'
p1728
g2
(g6
S'm\x06\xd0n\xe1\xdaM?'
p1729
tp1730
Rp1731
sS'coets_1691_v1_1_0299'
p1732
g2
(g6
S'\xb8\x9f\xa1\x07H\xb5O?'
p1733
tp1734
Rp1735
sS'coets_1691_v1_1_0296'
p1736
g2
(g6
S'\xd6\x93\xdc\xe6\xa9TN?'
p1737
tp1738
Rp1739
sS'coets_1691_v1_1_0297'
p1740
g2
(g6
S';\xdf#\xfa\xf2KN?'
p1741
tp1742
Rp1743
sS'coets_1691_v1_1_0294'
p1744
g2
(g6
S'\xd2\xc1K1(AD?'
p1745
tp1746
Rp1747
sS'coets_1691_v1_1_0295'
p1748
g2
(g6
S'\x9f!\x1c\xddS\xbeN?'
p1749
tp1750
Rp1751
sS'coets_1691_v1_1_0292'
p1752
g2
(g6
S'\r\x1a\xda\xdc\xdf\xa7A?'
p1753
tp1754
Rp1755
sS'coets_1691_v1_1_0293'
p1756
g2
(g6
S'\xab\xe7\xe0\xce?\x8cK?'
p1757
tp1758
Rp1759
sS'coets_1691_v1_1_0290'
p1760
g2
(g6
S'\xe9\x0e\x97\x9a\xec\x99A?'
p1761
tp1762
Rp1763
sS'coets_1691_v1_1_0291'
p1764
g2
(g6
S'\xab\x1b\xfe\x94\x01-I?'
p1765
tp1766
Rp1767
sS'coets_1691_v1_1_0480'
p1768
g2
(g6
S'\xd5\xbe\xf45\xdcaD?'
p1769
tp1770
Rp1771
sS'coets_1691_v1_1_0201'
p1772
g2
(g6
S'\x107\x8f\x0346J?'
p1773
tp1774
Rp1775
sS'coets_1691_v1_1_0200'
p1776
g2
(g6
S'\x14_2\xe6\x7f\xfcF?'
p1777
tp1778
Rp1779
sS'coets_1691_v1_1_0203'
p1780
g2
(g6
S'<\xfd\xf6\xbe\xc4mI?'
p1781
tp1782
Rp1783
sS'coets_1691_v1_1_0202'
p1784
g2
(g6
S'\x107\x8f\x0346J?'
p1785
tp1786
Rp1787
sS'coets_1691_v1_1_0205'
p1788
g2
(g6
S'DQ\xa4\xa5\x07\xadA?'
p1789
tp1790
Rp1791
sS'coets_1691_v1_1_0204'
p1792
g2
(g6
S'l\xf8\xb7\xae4\xa3C?'
p1793
tp1794
Rp1795
sS'coets_1691_v1_1_0207'
p1796
g2
(g6
S'\x0cBCz\xa3.D?'
p1797
tp1798
Rp1799
sS'coets_1691_v1_1_0206'
p1800
g2
(g6
S'\xfa\xfb/>\xe9zB?'
p1801
tp1802
Rp1803
sS'coets_1691_v1_1_0209'
p1804
g2
(g6
S'\x1b\x7f\x07\x86u]F?'
p1805
tp1806
Rp1807
sS'coets_1691_v1_1_0208'
p1808
g2
(g6
S'A\xfb\x91x=\xfaN?'
p1809
tp1810
Rp1811
sS'coets_1691_v1_1_0476'
p1812
g2
(g6
S'\x00\x00\x11\xf7)?0?'
p1813
tp1814
Rp1815
sS'coets_1691_v1_1_0477'
p1816
g2
(g6
S'"\x9a(%\x85\x91H?'
p1817
tp1818
Rp1819
sS'coets_1691_v1_1_0474'
p1820
g2
(g6
S'Bh\xab[\xea P?'
p1821
tp1822
Rp1823
sS'coets_1691_v1_1_0475'
p1824
g2
(g6
S'\xfc\xab:q`\xb4P?'
p1825
tp1826
Rp1827
sS'coets_1691_v1_1_0472'
p1828
g2
(g6
S"\xa4!'n2\xd3Q?"
p1829
tp1830
Rp1831
sS'coets_1691_v1_1_0473'
p1832
g2
(g6
S'Red\x02\x17\xf2!?'
p1833
tp1834
Rp1835
sS'coets_1691_v1_1_0470'
p1836
g2
(g6
S'\x14\xe0\x97\x14\xe0\x97T?'
p1837
tp1838
Rp1839
sS'coets_1691_v1_1_0471'
p1840
g2
(g6
S'\xdf\x95\x19\xc2(;J?'
p1841
tp1842
Rp1843
sS'coets_1691_v1_1_0478'
p1844
g2
(g6
S'\xe1\xdf\xe6\xc3r\x08L?'
p1845
tp1846
Rp1847
sS'coets_1691_v1_1_0479'
p1848
g2
(g6
S'\xd7\xa3\x9f\xb4KXI?'
p1849
tp1850
Rp1851
sS'coets_1691_v1_1_0274'
p1852
g2
(g6
S'\xa3b\xaau4\xd45?'
p1853
tp1854
Rp1855
sS'coets_1691_v1_1_0275'
p1856
g2
(g6
S'\xb7\xba[\x12\xbf\x916?'
p1857
tp1858
Rp1859
sS'coets_1691_v1_1_0276'
p1860
g2
(g6
S'\x94\x9bd\x96\xb6\xe6F?'
p1861
tp1862
Rp1863
sS'coets_1691_v1_1_0277'
p1864
g2
(g6
S'\x1e\xe0\x01\x1e\xe0\x01N?'
p1865
tp1866
Rp1867
sS'coets_1691_v1_1_0270'
p1868
g2
(g6
S'L\xb8\x07:ACL?'
p1869
tp1870
Rp1871
sS'coets_1691_v1_1_0271'
p1872
g2
(g6
S'\xe1\xd8T\xbb9lP?'
p1873
tp1874
Rp1875
sS'coets_1691_v1_1_0272'
p1876
g2
(g6
S'\x99\x01G=^]O?'
p1877
tp1878
Rp1879
sS'coets_1691_v1_1_0273'
p1880
g2
(g6
S'\xae\xdb\xabj>t/?'
p1881
tp1882
Rp1883
sS'coets_1691_v1_1_0375'
p1884
g2
(g6
S'\xd2qh\xe5\x8dLI?'
p1885
tp1886
Rp1887
sS'coets_1691_v1_1_0374'
p1888
g2
(g6
S'\xea\x81\xe9\x14\xf7NM?'
p1889
tp1890
Rp1891
sS'coets_1691_v1_1_0377'
p1892
g2
(g6
S'\x9d\x9a\xa8R\xbd\xc1M?'
p1893
tp1894
Rp1895
sS'coets_1691_v1_1_0376'
p1896
g2
(g6
S'\xe9\x81\xe9\x14\xf7NM?'
p1897
tp1898
Rp1899
sS'coets_1691_v1_1_0278'
p1900
g2
(g6
S'\xb8\xb6\xf4\xf0\x13\xdfG?'
p1901
tp1902
Rp1903
sS'coets_1691_v1_1_0279'
p1904
g2
(g6
S'w\x11@\xf9e\xbe7?'
p1905
tp1906
Rp1907
sS'coets_1691_v1_1_0373'
p1908
g2
(g6
S'-`\xbb\x94\x92\xfaH?'
p1909
tp1910
Rp1911
sS'coets_1691_v1_1_0372'
p1912
g2
(g6
S'\xc7\x0f`pt\xdfB?'
p1913
tp1914
Rp1915
sS'coets_1691_v1_1_0258'
p1916
g2
(g6
S'\x94\x9bd\x96\xb6\xe6F?'
p1917
tp1918
Rp1919
sS'coets_1691_v1_1_0289'
p1920
g2
(g6
S'\xf6\x95\xd9y\x9a\x85H?'
p1921
tp1922
Rp1923
sS'coets_1691_v1_1_0288'
p1924
g2
(g6
S'\t\x1b!\x85\xe9\x87)?'
p1925
tp1926
Rp1927
s.