(dp0
S'euclidiselement03euclgoog_0364'
p1
cnumpy.core.multiarray
scalar
p2
(cnumpy
dtype
p3
(S'f8'
p4
I0
I1
tp5
Rp6
(I3
S'<'
p7
NNNI-1
I-1
I0
tp8
bS'f\xe7\xae\xa8\xbc\x11C?'
p9
tp10
Rp11
sS'euclidiselement03euclgoog_0365'
p12
g2
(g6
S'\xa2Qf\x86\xbbGA?'
p13
tp14
Rp15
sS'euclidiselement03euclgoog_0366'
p16
g2
(g6
S'\xd1\xab\x82\xe0\xad\xd8C?'
p17
tp18
Rp19
sS'euclidiselement03euclgoog_0367'
p20
g2
(g6
S'\xc0|h%F4@?'
p21
tp22
Rp23
sS'euclidiselement03euclgoog_0360'
p24
g2
(g6
S'\xa2\xdb\x90\x1d\x15\xdbB?'
p25
tp26
Rp27
sS'euclidiselement03euclgoog_0361'
p28
g2
(g6
S'\x9f\xdb\xee\x8eK\x11@?'
p29
tp30
Rp31
sS'euclidiselement03euclgoog_0209'
p32
g2
(g6
S'E< \x11\x1e\x10F?'
p33
tp34
Rp35
sS'euclidiselement03euclgoog_0208'
p36
g2
(g6
S'A\xfb\x91x=\xfaN?'
p37
tp38
Rp39
sS'euclidiselement03euclgoog_0207'
p40
g2
(g6
S'\xa2f\x11\x97\xdf\x86D?'
p41
tp42
Rp43
sS'euclidiselement03euclgoog_0206'
p44
g2
(g6
S'\xfa\xfb/>\xe9zB?'
p45
tp46
Rp47
sS'euclidiselement03euclgoog_0205'
p48
g2
(g6
S'DQ\xa4\xa5\x07\xadA?'
p49
tp50
Rp51
sS'euclidiselement03euclgoog_0204'
p52
g2
(g6
S'u\x19\x0e<\xbc#E?'
p53
tp54
Rp55
sS'euclidiselement03euclgoog_0203'
p56
g2
(g6
S'<\xfd\xf6\xbe\xc4mI?'
p57
tp58
Rp59
sS'euclidiselement03euclgoog_0202'
p60
g2
(g6
S'\x107\x8f\x0346J?'
p61
tp62
Rp63
sS'euclidiselement03euclgoog_0201'
p64
g2
(g6
S'\x107\x8f\x0346J?'
p65
tp66
Rp67
sS'euclidiselement03euclgoog_0200'
p68
g2
(g6
S'\x14_2\xe6\x7f\xfcF?'
p69
tp70
Rp71
sS'euclidiselement03euclgoog_0418'
p72
g2
(g6
S'y/\xdc-\xa9{P?'
p73
tp74
Rp75
sS'euclidiselement03euclgoog_0419'
p76
g2
(g6
S'9\xf7P\xcb\x18\xa9B?'
p77
tp78
Rp79
sS'euclidiselement03euclgoog_0371'
p80
g2
(g6
S'+iD+\xd4~D?'
p81
tp82
Rp83
sS'euclidiselement03euclgoog_0412'
p84
g2
(g6
S'H\x06O\xe3\xfdxQ?'
p85
tp86
Rp87
sS'euclidiselement03euclgoog_0413'
p88
g2
(g6
S'Xz\x80u\xe7^M?'
p89
tp90
Rp91
sS'euclidiselement03euclgoog_0410'
p92
g2
(g6
S'\xcb\x8f\x8c&\xc2\x90Q?'
p93
tp94
Rp95
sS'euclidiselement03euclgoog_0411'
p96
g2
(g6
S'\xa7\xdd\xf5\xf2cVP?'
p97
tp98
Rp99
sS'euclidiselement03euclgoog_0416'
p100
g2
(g6
S'\x8c\x13\xd0HcAR?'
p101
tp102
Rp103
sS'euclidiselement03euclgoog_0417'
p104
g2
(g6
S']t\xd4}\xcc\x1bI?'
p105
tp106
Rp107
sS'euclidiselement03euclgoog_0414'
p108
g2
(g6
S'\x18B\xf5\x12W\x8cO?'
p109
tp110
Rp111
sS'euclidiselement03euclgoog_0415'
p112
g2
(g6
S'\xf1\x95\xf9\xdf\xe9UR?'
p113
tp114
Rp115
sS'euclidiselement03euclgoog_0362'
p116
g2
(g6
S'\xb2\x80\x80A#\xecD?'
p117
tp118
Rp119
sS'euclidiselement03euclgoog_0363'
p120
g2
(g6
S'\xbb~\xc5z\x19\xf5C?'
p121
tp122
Rp123
sS'euclidiselement03euclgoog_0166'
p124
g2
(g6
S'\xc1\xc7\x99\x88\x87\xa0A?'
p125
tp126
Rp127
sS'euclidiselement03euclgoog_0167'
p128
g2
(g6
S'YM\xe7\x00{EX?'
p129
tp130
Rp131
sS'euclidiselement03euclgoog_0164'
p132
g2
(g6
S'\x87\xdd>\x9e\x99\xfbK?'
p133
tp134
Rp135
sS'euclidiselement03euclgoog_0165'
p136
g2
(g6
S'\x1d\xeb:[\xd3\x832?'
p137
tp138
Rp139
sS'euclidiselement03euclgoog_0162'
p140
g2
(g6
S'\x9f\x05\x0fI7\x1fO?'
p141
tp142
Rp143
sS'euclidiselement03euclgoog_0163'
p144
g2
(g6
S')\xe7\xa51\x81\x99H?'
p145
tp146
Rp147
sS'euclidiselement03euclgoog_0160'
p148
g2
(g6
S'y\xaf}DG\xd6L?'
p149
tp150
Rp151
sS'euclidiselement03euclgoog_0161'
p152
g2
(g6
S'B>\xda\xc7\xb4U+?'
p153
tp154
Rp155
sS'euclidiselement03euclgoog_0168'
p156
g2
(g6
S'\xb6\xfbX\x10&\xdb5?'
p157
tp158
Rp159
sS'euclidiselement03euclgoog_0169'
p160
g2
(g6
S'E\xa0Z\xa9\xa5\xb5N?'
p161
tp162
Rp163
sS'euclidiselement03euclgoog_0368'
p164
g2
(g6
S'\x85\x7f\xfd\x19\xac\xe6D?'
p165
tp166
Rp167
sS'euclidiselement03euclgoog_0369'
p168
g2
(g6
S'b\x99\x9d\xf0\x1f\x95B?'
p169
tp170
Rp171
sS'euclidiselement03euclgoog_0481'
p172
g2
(g6
S'\xa8\xce\xe8\xefi\xe0I?'
p173
tp174
Rp175
sS'euclidiselement03euclgoog_0480'
p176
g2
(g6
S'\xd5\xbe\xf45\xdcaD?'
p177
tp178
Rp179
sS'euclidiselement03euclgoog_0483'
p180
g2
(g6
S'\xc9\xb7\xd1\x9e\x89\xb8L?'
p181
tp182
Rp183
sS'euclidiselement03euclgoog_0482'
p184
g2
(g6
S'\xb2\xd9\x89{\xea5O?'
p185
tp186
Rp187
sS'euclidiselement03euclgoog_0485'
p188
g2
(g6
S'\xf6\x0e?b\xed\xe6J?'
p189
tp190
Rp191
sS'euclidiselement03euclgoog_0484'
p192
g2
(g6
S'\x03m\x0e\xfb\x96<T?'
p193
tp194
Rp195
sS'euclidiselement03euclgoog_0487'
p196
g2
(g6
S'O\x06Pi\x88\xc5M?'
p197
tp198
Rp199
sS'euclidiselement03euclgoog_0486'
p200
g2
(g6
S'q\xd6\x11\x9a\x04+L?'
p201
tp202
Rp203
sS'euclidiselement03euclgoog_0489'
p204
g2
(g6
S'\xe3\x1e\x03\xc9\x9c\x8dT?'
p205
tp206
Rp207
sS'euclidiselement03euclgoog_0488'
p208
g2
(g6
S'\xd5\xbe\xf45\xdcaT?'
p209
tp210
Rp211
sS'euclidiselement03euclgoog_0159'
p212
g2
(g6
S'\x83\xbf-\x0fQ9J?'
p213
tp214
Rp215
sS'euclidiselement03euclgoog_0388'
p216
g2
(g6
S'\x8f\xd6\xdb\x85\x1d{F?'
p217
tp218
Rp219
sS'euclidiselement03euclgoog_0389'
p220
g2
(g6
S'\xa1\xcb\xdbEe\x93O?'
p221
tp222
Rp223
sS'euclidiselement03euclgoog_0386'
p224
g2
(g6
S'\xeb\x9e\xc7\xd9\xeb\xf9K?'
p225
tp226
Rp227
sS'euclidiselement03euclgoog_0387'
p228
g2
(g6
S'Tc\x9b\x11\xdd\xc0L?'
p229
tp230
Rp231
sS'euclidiselement03euclgoog_0384'
p232
g2
(g6
S'\xb4\xf6\xf78\x93"F?'
p233
tp234
Rp235
sS'euclidiselement03euclgoog_0158'
p236
g2
(g6
S'\x14i}\xc5A\xa2N?'
p237
tp238
Rp239
sS'euclidiselement03euclgoog_0382'
p240
g2
(g6
S'nq\x1d]\xa98J?'
p241
tp242
Rp243
sS'euclidiselement03euclgoog_0383'
p244
g2
(g6
S'R2h\x1e5\xefJ?'
p245
tp246
Rp247
sS'euclidiselement03euclgoog_0380'
p248
g2
(g6
S'\xf2i\xda;\x9d\xa6B?'
p249
tp250
Rp251
sS'euclidiselement03euclgoog_0381'
p252
g2
(g6
S'W\x11. \xd0\xf8A?'
p253
tp254
Rp255
sS'euclidiselement03euclgoog_0258'
p256
g2
(g6
S'\x94\x9bd\x96\xb6\xe6F?'
p257
tp258
Rp259
sS'euclidiselement03euclgoog_0259'
p260
g2
(g6
S'-\xb8dp\x9c\xd9I?'
p261
tp262
Rp263
sS'euclidiselement03euclgoog_0027'
p264
g2
(g6
S'L$\x15\x1dG\xdfX?'
p265
tp266
Rp267
sS'euclidiselement03euclgoog_0026'
p268
g2
(g6
S'\xe4\x95 \x9c\x1f\xcdR?'
p269
tp270
Rp271
sS'euclidiselement03euclgoog_0025'
p272
g2
(g6
S'\x1eP\xa5J\xf0\xe1^?'
p273
tp274
Rp275
sS'euclidiselement03euclgoog_0024'
p276
g2
(g6
S'+\xda\xf8\r\x9e\xfeZ?'
p277
tp278
Rp279
sS'euclidiselement03euclgoog_0023'
p280
g2
(g6
S'\xb1\x92\xebG\xdc\xa0W?'
p281
tp282
Rp283
sS'euclidiselement03euclgoog_0022'
p284
g2
(g6
S']\xeei\xde<\x15Y?'
p285
tp286
Rp287
sS'euclidiselement03euclgoog_0021'
p288
g2
(g6
S'\x0eKjA\x12\xffU?'
p289
tp290
Rp291
sS'euclidiselement03euclgoog_0029'
p292
g2
(g6
S'w\xe0\xd3\x1a\xbe\x01V?'
p293
tp294
Rp295
sS'euclidiselement03euclgoog_0028'
p296
g2
(g6
S'\x98\xf3\xddyF\xb4U?'
p297
tp298
Rp299
sS'euclidiselement03euclgoog_0243'
p300
g2
(g6
S'\\|Mk\r!Q?'
p301
tp302
Rp303
sS'euclidiselement03euclgoog_0242'
p304
g2
(g6
S'\xdd\xb9\x00\t\xd6*S?'
p305
tp306
Rp307
sS'euclidiselement03euclgoog_0241'
p308
g2
(g6
S'\xc7S2\xa7\xbe\x92/?'
p309
tp310
Rp311
sS'euclidiselement03euclgoog_0240'
p312
g2
(g6
S'\xd4\xfc\x8aG\xd2\xe1U?'
p313
tp314
Rp315
sS'euclidiselement03euclgoog_0247'
p316
g2
(g6
S'\xf5\xc6\xd6\t\n}G?'
p317
tp318
Rp319
sS'euclidiselement03euclgoog_0246'
p320
g2
(g6
S'_\x14 \xf8v\xb3K?'
p321
tp322
Rp323
sS'euclidiselement03euclgoog_0245'
p324
g2
(g6
S"\xa6\x81\xfe'\x98\x15S?"
p325
tp326
Rp327
sS'euclidiselement03euclgoog_0244'
p328
g2
(g6
S'\n\xc8],\xa4:R?'
p329
tp330
Rp331
sS'euclidiselement03euclgoog_0122'
p332
g2
(g6
S'B=,\x85\x03JZ?'
p333
tp334
Rp335
sS'euclidiselement03euclgoog_0123'
p336
g2
(g6
S'Y\x08\xe2\x9b&H??'
p337
tp338
Rp339
sS'euclidiselement03euclgoog_0249'
p340
g2
(g6
S']\xfb\xec\x9c\x8d\x8e9?'
p341
tp342
Rp343
sS'euclidiselement03euclgoog_0248'
p344
g2
(g6
S'x\xbe|\xa0 q@?'
p345
tp346
Rp347
sS'euclidiselement03euclgoog_0126'
p348
g2
(g6
S'\x98\xb4\xe1\xc3\x93\x95I?'
p349
tp350
Rp351
sS'euclidiselement03euclgoog_0127'
p352
g2
(g6
S'H\x8d\x93\x97\xf0\x1bU?'
p353
tp354
Rp355
sS'euclidiselement03euclgoog_0124'
p356
g2
(g6
S'y\x81\xafk]\x9dD?'
p357
tp358
Rp359
sS'euclidiselement03euclgoog_0125'
p360
g2
(g6
S'\xef\xfb\x84\xd4\xdc<H?'
p361
tp362
Rp363
sS'euclidiselement03euclgoog_0445'
p364
g2
(g6
S'U\xe5N\xf0\xdcxN?'
p365
tp366
Rp367
sS'euclidiselement03euclgoog_0444'
p368
g2
(g6
S'\xc1\xb69\x97\x88 U?'
p369
tp370
Rp371
sS'euclidiselement03euclgoog_0447'
p372
g2
(g6
S'z\xc8\x8b\xa7\xe1\rM?'
p373
tp374
Rp375
sS'euclidiselement03euclgoog_0446'
p376
g2
(g6
S'\x14!\xf3\x13!\xf3S?'
p377
tp378
Rp379
sS'euclidiselement03euclgoog_0441'
p380
g2
(g6
S'\xb4;\xd6\x827\xebI?'
p381
tp382
Rp383
sS'euclidiselement03euclgoog_0440'
p384
g2
(g6
S'\xada\xdbz]\xf0Q?'
p385
tp386
Rp387
sS'euclidiselement03euclgoog_0339'
p388
g2
(g6
S'l7a\xd3\xbf\xe2L?'
p389
tp390
Rp391
sS'euclidiselement03euclgoog_0338'
p392
g2
(g6
S'-`\xbb\x94\x92\xfaH?'
p393
tp394
Rp395
sS'euclidiselement03euclgoog_0337'
p396
g2
(g6
S'\xc9\xe7\xf90\xa1%R?'
p397
tp398
Rp399
sS'euclidiselement03euclgoog_0336'
p400
g2
(g6
S'\xc7\x85\x86\xa0\xff\xb0R?'
p401
tp402
Rp403
sS'euclidiselement03euclgoog_0335'
p404
g2
(g6
S'\x1a(v\xb4\x1f\x08G?'
p405
tp406
Rp407
sS'euclidiselement03euclgoog_0334'
p408
g2
(g6
S'\x13\x83\xca\xad\xa4\x8a*?'
p409
tp410
Rp411
sS'euclidiselement03euclgoog_0333'
p412
g2
(g6
S'\x81\t5[WKR?'
p413
tp414
Rp415
sS'euclidiselement03euclgoog_0332'
p416
g2
(g6
S'\x03\x18\xf5\x84\xb6\x05C?'
p417
tp418
Rp419
sS'euclidiselement03euclgoog_0331'
p420
g2
(g6
S'\xe2\x02\xa5i\xb2\x00+?'
p421
tp422
Rp423
sS'euclidiselement03euclgoog_0330'
p424
g2
(g6
S'\x9d\xd2\xc3i@\xc31?'
p425
tp426
Rp427
sS'euclidiselement03euclgoog_0385'
p428
g2
(g6
S'\x8a\x14\xf4Hw\x1cN?'
p429
tp430
Rp431
sS'euclidiselement03euclgoog_0236'
p432
g2
(g6
S'),\xe1\xc1\xcc\xdbX?'
p433
tp434
Rp435
sS'euclidiselement03euclgoog_0237'
p436
g2
(g6
S'\x04\x86N\xa61\x05I?'
p437
tp438
Rp439
sS'euclidiselement03euclgoog_0234'
p440
g2
(g6
S'\xae\xdb\xabj>tO?'
p441
tp442
Rp443
sS'euclidiselement03euclgoog_0235'
p444
g2
(g6
S'\xa7O\x0eB\xd6\xf9P?'
p445
tp446
Rp447
sS'euclidiselement03euclgoog_0232'
p448
g2
(g6
S'\xe8&\xb3\x1fF6S?'
p449
tp450
Rp451
sS'euclidiselement03euclgoog_0233'
p452
g2
(g6
S'\x1a\x87\xd5\xc8\xcb\xc23?'
p453
tp454
Rp455
sS'euclidiselement03euclgoog_0230'
p456
g2
(g6
S'!\x81\ta\x99\x9c:?'
p457
tp458
Rp459
sS'euclidiselement03euclgoog_0231'
p460
g2
(g6
S'\xec\xbf\xec\x1f\xa9kR?'
p461
tp462
Rp463
sS'euclidiselement03euclgoog_0238'
p464
g2
(g6
S'a\x05x\x10\x1b\x11I?'
p465
tp466
Rp467
sS'euclidiselement03euclgoog_0239'
p468
g2
(g6
S'\xaa\xa0R\xda\xfbVP?'
p469
tp470
Rp471
sS'euclidiselement03euclgoog_0069'
p472
g2
(g6
S'wDl\x05\x05\xecS?'
p473
tp474
Rp475
sS'euclidiselement03euclgoog_0068'
p476
g2
(g6
S'\xe8[\xf7\xce\x88\x1dP?'
p477
tp478
Rp479
sS'euclidiselement03euclgoog_0063'
p480
g2
(g6
S'\xe6[2}e\xa5\n?'
p481
tp482
Rp483
sS'euclidiselement03euclgoog_0062'
p484
g2
(g6
S'\x85\xcc\xa0\xd4j\x0c\x1c?'
p485
tp486
Rp487
sS'euclidiselement03euclgoog_0061'
p488
g2
(g6
S'\xb1\xc2M\xf1\x9bV1?'
p489
tp490
Rp491
sS'euclidiselement03euclgoog_0060'
p492
g2
(g6
S'\x98\xf3\xddyF\xb4\x15?'
p493
tp494
Rp495
sS'euclidiselement03euclgoog_0067'
p496
g2
(g6
S'K\xb8\x0f\xb1M\x7fP?'
p497
tp498
Rp499
sS'euclidiselement03euclgoog_0066'
p500
g2
(g6
S'\xcc\x08\x0c\xc56\xc8I?'
p501
tp502
Rp503
sS'euclidiselement03euclgoog_0065'
p504
g2
(g6
S'\xff\xd1R\xfa\xbf\xccL?'
p505
tp506
Rp507
sS'euclidiselement03euclgoog_0064'
p508
g2
(g6
S"\x07\x04\xf4\xeaE\xf5'?"
p509
tp510
Rp511
sS'euclidiselement03euclgoog_0373'
p512
g2
(g6
S'-`\xbb\x94\x92\xfaH?'
p513
tp514
Rp515
sS'euclidiselement03euclgoog_0372'
p516
g2
(g6
S'\xc7\x0f`pt\xdfB?'
p517
tp518
Rp519
sS'euclidiselement03euclgoog_0278'
p520
g2
(g6
S'$/\xc7\xf5\xe5nE?'
p521
tp522
Rp523
sS'euclidiselement03euclgoog_0279'
p524
g2
(g6
S'\x8b\xfc\xc1\x99\x84\xbf4?'
p525
tp526
Rp527
sS'euclidiselement03euclgoog_0377'
p528
g2
(g6
S'\x9d\x9a\xa8R\xbd\xc1M?'
p529
tp530
Rp531
sS'euclidiselement03euclgoog_0376'
p532
g2
(g6
S'\xe9\x81\xe9\x14\xf7NM?'
p533
tp534
Rp535
sS'euclidiselement03euclgoog_0375'
p536
g2
(g6
S'\xd2qh\xe5\x8dLI?'
p537
tp538
Rp539
sS'euclidiselement03euclgoog_0374'
p540
g2
(g6
S'\xea\x81\xe9\x14\xf7NM?'
p541
tp542
Rp543
sS'euclidiselement03euclgoog_0272'
p544
g2
(g6
S'\x99\x01G=^]O?'
p545
tp546
Rp547
sS'euclidiselement03euclgoog_0273'
p548
g2
(g6
S'\xae\xdb\xabj>t/?'
p549
tp550
Rp551
sS'euclidiselement03euclgoog_0270'
p552
g2
(g6
S'"}\xa2?\xee\xe9K?'
p553
tp554
Rp555
sS'euclidiselement03euclgoog_0271'
p556
g2
(g6
S'\xe1\xd8T\xbb9lP?'
p557
tp558
Rp559
sS'euclidiselement03euclgoog_0276'
p560
g2
(g6
S'\x94\x9bd\x96\xb6\xe6F?'
p561
tp562
Rp563
sS'euclidiselement03euclgoog_0277'
p564
g2
(g6
S'\x1e\xe0\x01\x1e\xe0\x01N?'
p565
tp566
Rp567
sS'euclidiselement03euclgoog_0274'
p568
g2
(g6
S'fZ\x96\x9f\x94\x9b3?'
p569
tp570
Rp571
sS'euclidiselement03euclgoog_0275'
p572
g2
(g6
S'\xdd\xeb\xf0\xee\x97F5?'
p573
tp574
Rp575
sS'euclidiselement03euclgoog_0409'
p576
g2
(g6
S'\x97P\xae\xd9\x00=P?'
p577
tp578
Rp579
sS'euclidiselement03euclgoog_0408'
p580
g2
(g6
S'\xa0\x0e\xac\xe7\xa9\xa31?'
p581
tp582
Rp583
sS'euclidiselement03euclgoog_0401'
p584
g2
(g6
S'h\x04\xde4\x96!S?'
p585
tp586
Rp587
sS'euclidiselement03euclgoog_0400'
p588
g2
(g6
S'\x9b6\xe5\x16\x9a]F?'
p589
tp590
Rp591
sS'euclidiselement03euclgoog_0403'
p592
g2
(g6
S'\x11\x80y\x10\x80y@?'
p593
tp594
Rp595
sS'euclidiselement03euclgoog_0402'
p596
g2
(g6
S'Z8}\xfd\x05yR?'
p597
tp598
Rp599
sS'euclidiselement03euclgoog_0405'
p600
g2
(g6
S'u\x0f\x82\xa7\x13mP?'
p601
tp602
Rp603
sS'euclidiselement03euclgoog_0404'
p604
g2
(g6
S'\xa3\xfbx\x06\x88\x8c2?'
p605
tp606
Rp607
sS'euclidiselement03euclgoog_0407'
p608
g2
(g6
S'\x8d\xc4\xfe\xc7\x9e\xbb7?'
p609
tp610
Rp611
sS'euclidiselement03euclgoog_0406'
p612
g2
(g6
S'\xe0/O\xc6\xad\xd9Q?'
p613
tp614
Rp615
sS'euclidiselement03euclgoog_0175'
p616
g2
(g6
S'\xeb:\xa6\t\x14LN?'
p617
tp618
Rp619
sS'euclidiselement03euclgoog_0174'
p620
g2
(g6
S'f\x90\xb3\xc1\xdfoI?'
p621
tp622
Rp623
sS'euclidiselement03euclgoog_0177'
p624
g2
(g6
S'\xc7-\xd2t=/Y?'
p625
tp626
Rp627
sS'euclidiselement03euclgoog_0176'
p628
g2
(g6
S'\xd1\xca\xae\x01\t\\U?'
p629
tp630
Rp631
sS'euclidiselement03euclgoog_0171'
p632
g2
(g6
S'\xd7y\xa4]\xd8\x16\x1a?'
p633
tp634
Rp635
sS'euclidiselement03euclgoog_0170'
p636
g2
(g6
S'\x8c*\xb4\x18xVM?'
p637
tp638
Rp639
sS'euclidiselement03euclgoog_0173'
p640
g2
(g6
S'\xaf\xa9\x95x\xd6\xf1H?'
p641
tp642
Rp643
sS'euclidiselement03euclgoog_0172'
p644
g2
(g6
S'\xf2u\x02\xb5\xee\x18G?'
p645
tp646
Rp647
sS'euclidiselement03euclgoog_0179'
p648
g2
(g6
S'\xbc\x90\xdd\xb7lVS?'
p649
tp650
Rp651
sS'euclidiselement03euclgoog_0178'
p652
g2
(g6
S'%&\xaf6\xb3\xfcT?'
p653
tp654
Rp655
sS'euclidiselement03euclgoog_0306'
p656
g2
(g6
S'\xc8\x1a\x8ay\x1c\xb8G?'
p657
tp658
Rp659
sS'euclidiselement03euclgoog_0307'
p660
g2
(g6
S'\x1f\x95d\x15N\xba\x1c?'
p661
tp662
Rp663
sS'euclidiselement03euclgoog_0304'
p664
g2
(g6
S'\xea/+\\\x05"Q?'
p665
tp666
Rp667
sS'euclidiselement03euclgoog_0305'
p668
g2
(g6
S'\xcb\x87x\xdaJjM?'
p669
tp670
Rp671
sS'euclidiselement03euclgoog_0302'
p672
g2
(g6
S'^\xce,\x1d8\xb2N?'
p673
tp674
Rp675
sS'euclidiselement03euclgoog_0303'
p676
g2
(g6
S'\xcd!\x07\x82o\xe0P?'
p677
tp678
Rp679
sS'euclidiselement03euclgoog_0300'
p680
g2
(g6
S'\xaf\xa8\xe6\x80\xf6\xa5E?'
p681
tp682
Rp683
sS'euclidiselement03euclgoog_0301'
p684
g2
(g6
S'\xcb\x87x\xdaJjM?'
p685
tp686
Rp687
sS'euclidiselement03euclgoog_0308'
p688
g2
(g6
S'\xea\x9e\xc7\xd9\xeb\xf9K?'
p689
tp690
Rp691
sS'euclidiselement03euclgoog_0309'
p692
g2
(g6
S'\xb4\x1c_\x94\xc9QP?'
p693
tp694
Rp695
sS'euclidiselement03euclgoog_0121'
p696
g2
(g6
S'\xf3\x8ci\xa1c5;?'
p697
tp698
Rp699
sS'euclidiselement03euclgoog_0399'
p700
g2
(g6
S'tIY\xac\x9fHL?'
p701
tp702
Rp703
sS'euclidiselement03euclgoog_0398'
p704
g2
(g6
S'\xb4FfF\x03`J?'
p705
tp706
Rp707
sS'euclidiselement03euclgoog_0395'
p708
g2
(g6
S'(\xcfd\xbc\xca\xa3O?'
p709
tp710
Rp711
sS'euclidiselement03euclgoog_0394'
p712
g2
(g6
S'\xc5\xad\xec\xdf\xd2jS?'
p713
tp714
Rp715
sS'euclidiselement03euclgoog_0397'
p716
g2
(g6
S'2\x88e\xf1\xf8GO?'
p717
tp718
Rp719
sS'euclidiselement03euclgoog_0396'
p720
g2
(g6
S'\xe1\x93\x08\xec\xcb(P?'
p721
tp722
Rp723
sS'euclidiselement03euclgoog_0391'
p724
g2
(g6
S'\xc0\xa6o\xd7\x7fBJ?'
p725
tp726
Rp727
sS'euclidiselement03euclgoog_0390'
p728
g2
(g6
S'\xa4\xb3\xd9\x16]\xbcP?'
p729
tp730
Rp731
sS'euclidiselement03euclgoog_0393'
p732
g2
(g6
S"\xa7g\\'\xd5\xc2M?"
p733
tp734
Rp735
sS'euclidiselement03euclgoog_0392'
p736
g2
(g6
S'\xb6\x8bL\xd9\x94\x8eL?'
p737
tp738
Rp739
sS'euclidiselement03euclgoog_0052'
p740
g2
(g6
S',\x83\xc8\x07\xeb\x7fE?'
p741
tp742
Rp743
sS'euclidiselement03euclgoog_0053'
p744
g2
(g6
S'\xcd\xec\x86X\x8fn\x12?'
p745
tp746
Rp747
sS'euclidiselement03euclgoog_0050'
p748
g2
(g6
S'\xed,\x17\xf2=\xddQ?'
p749
tp750
Rp751
sS'euclidiselement03euclgoog_0051'
p752
g2
(g6
S'\xe5b\xe2\x83\xc6\x1dO?'
p753
tp754
Rp755
sS'euclidiselement03euclgoog_0056'
p756
g2
(g6
S'^\xf9\xb2\xce\x88\x84\r?'
p757
tp758
Rp759
sS'euclidiselement03euclgoog_0057'
p760
g2
(g6
S'\xea\x93\xc6\xf9\xfaH$?'
p761
tp762
Rp763
sS'euclidiselement03euclgoog_0054'
p764
g2
(g6
S'\xa2^\x0b\x10\x90\x05K?'
p765
tp766
Rp767
sS'euclidiselement03euclgoog_0055'
p768
g2
(g6
S'\xe2\x9b\x13(/HQ?'
p769
tp770
Rp771
sS'euclidiselement03euclgoog_0058'
p772
g2
(g6
S'lO\xd0P\xaflE?'
p773
tp774
Rp775
sS'euclidiselement03euclgoog_0059'
p776
g2
(g6
S'\xd3\xa9\x8e\x90OJG?'
p777
tp778
Rp779
sS'euclidiselement03euclgoog_0139'
p780
g2
(g6
S'\xea:\xa6\t\x14L.?'
p781
tp782
Rp783
sS'euclidiselement03euclgoog_0138'
p784
g2
(g6
S'4\x9c\x7f\xbdmB\x10?'
p785
tp786
Rp787
sS'euclidiselement03euclgoog_0131'
p788
g2
(g6
S"O\x99\xa3\x87:\xfc'?"
p789
tp790
Rp791
sS'euclidiselement03euclgoog_0130'
p792
g2
(g6
S'\xebi\n\xf5\xa9\xe4=?'
p793
tp794
Rp795
sS'euclidiselement03euclgoog_0133'
p796
g2
(g6
S'\x06\x97(\xbd\xb8\x96L?'
p797
tp798
Rp799
sS'euclidiselement03euclgoog_0132'
p800
g2
(g6
S'o\xb5n\xf3\xfb\xd7(?'
p801
tp802
Rp803
sS'euclidiselement03euclgoog_0135'
p804
g2
(g6
S'\xc9\xecT\xba\xa3\x08\x11?'
p805
tp806
Rp807
sS'euclidiselement03euclgoog_0134'
p808
g2
(g6
S'\xafe&&.T\x17?'
p809
tp810
Rp811
sS'euclidiselement03euclgoog_0137'
p812
g2
(g6
S'\xc9\x1b\xb9\xa59\xa1\x10?'
p813
tp814
Rp815
sS'euclidiselement03euclgoog_0136'
p816
g2
(g6
S'\xafK\xcd\xa1\xaa\xc09?'
p817
tp818
Rp819
sS'euclidiselement03euclgoog_0470'
p820
g2
(g6
S'\x14\xe0\x97\x14\xe0\x97T?'
p821
tp822
Rp823
sS'euclidiselement03euclgoog_0471'
p824
g2
(g6
S'J\xf4kdv\xe1H?'
p825
tp826
Rp827
sS'euclidiselement03euclgoog_0348'
p828
g2
(g6
S'\xe4\x1d\x84J\n!\x13?'
p829
tp830
Rp831
sS'euclidiselement03euclgoog_0349'
p832
g2
(g6
S'M \x12\xd4\x1eS>?'
p833
tp834
Rp835
sS'euclidiselement03euclgoog_0474'
p836
g2
(g6
S'Bh\xab[\xea P?'
p837
tp838
Rp839
sS'euclidiselement03euclgoog_0475'
p840
g2
(g6
S'\xfc\xab:q`\xb4P?'
p841
tp842
Rp843
sS'euclidiselement03euclgoog_0476'
p844
g2
(g6
S'\x19\xda\xeb\x1c\xc5T0?'
p845
tp846
Rp847
sS'euclidiselement03euclgoog_0477'
p848
g2
(g6
S'"\x9a(%\x85\x91H?'
p849
tp850
Rp851
sS'euclidiselement03euclgoog_0342'
p852
g2
(g6
S'\xd7\r\xe9\xc6\xfd{7?'
p853
tp854
Rp855
sS'euclidiselement03euclgoog_0343'
p856
g2
(g6
S'\xadn*\xf7\x0cPH?'
p857
tp858
Rp859
sS'euclidiselement03euclgoog_0340'
p860
g2
(g6
S"$\x81S\x04.'??"
p861
tp862
Rp863
sS'euclidiselement03euclgoog_0341'
p864
g2
(g6
S'.t\x10\xc3E!<?'
p865
tp866
Rp867
sS'euclidiselement03euclgoog_0346'
p868
g2
(g6
S'~\xc6\x9esG\x0c(?'
p869
tp870
Rp871
sS'euclidiselement03euclgoog_0347'
p872
g2
(g6
S'TMG\xff\x8c\x0f\x13?'
p873
tp874
Rp875
sS'euclidiselement03euclgoog_0344'
p876
g2
(g6
S'\x1a\xa9u&nMJ?'
p877
tp878
Rp879
sS'euclidiselement03euclgoog_0345'
p880
g2
(g6
S']\xe9io\xc6\x084?'
p881
tp882
Rp883
sS'euclidiselement03euclgoog_0199'
p884
g2
(g6
S'Of\xc5\xce\x8d\x15G?'
p885
tp886
Rp887
sS'euclidiselement03euclgoog_0198'
p888
g2
(g6
S' \x1b\xf2\xacK\xab6?'
p889
tp890
Rp891
sS'euclidiselement03euclgoog_0225'
p892
g2
(g6
S'\xb6\x8f\xd2\xfbY8M?'
p893
tp894
Rp895
sS'euclidiselement03euclgoog_0224'
p896
g2
(g6
S'\xb3C\\\xf8\xd80Q?'
p897
tp898
Rp899
sS'euclidiselement03euclgoog_0227'
p900
g2
(g6
S'\x9b\xd9\x0c\xfb}iA?'
p901
tp902
Rp903
sS'euclidiselement03euclgoog_0226'
p904
g2
(g6
S'[\xf0\xe36\xd6\x9f=?'
p905
tp906
Rp907
sS'euclidiselement03euclgoog_0221'
p908
g2
(g6
S'N]v\x9e\xa5\x90G?'
p909
tp910
Rp911
sS'euclidiselement03euclgoog_0189'
p912
g2
(g6
S'\xa4\xc7\x83&\xaco0?'
p913
tp914
Rp915
sS'euclidiselement03euclgoog_0223'
p916
g2
(g6
S'\xb5\xc2)U\x15\xf7C?'
p917
tp918
Rp919
sS'euclidiselement03euclgoog_0222'
p920
g2
(g6
S'\xf5\xc6\xd6\t\n}7?'
p921
tp922
Rp923
sS'euclidiselement03euclgoog_0184'
p924
g2
(g6
S'\x81Ih9\x04\x8cO?'
p925
tp926
Rp927
sS'euclidiselement03euclgoog_0185'
p928
g2
(g6
S'\xd9L\x84\xc7\x9f\xe9R?'
p929
tp930
Rp931
sS'euclidiselement03euclgoog_0186'
p932
g2
(g6
S'\xfa%\x8e#j3S?'
p933
tp934
Rp935
sS'euclidiselement03euclgoog_0187'
p936
g2
(g6
S'\x9b\xe8\x93\xcc\x9a\xbcT?'
p937
tp938
Rp939
sS'euclidiselement03euclgoog_0229'
p940
g2
(g6
S'\xa48\xa2La\x9a\x1e?'
p941
tp942
Rp943
sS'euclidiselement03euclgoog_0228'
p944
g2
(g6
S"\x7f\x8a't\xd7\xe1S?"
p945
tp946
Rp947
sS'euclidiselement03euclgoog_0182'
p948
g2
(g6
S'm\xf9\xc5\x15\x9f\xc9P?'
p949
tp950
Rp951
sS'euclidiselement03euclgoog_0183'
p952
g2
(g6
S'\x9b\x16Ju\x7fIS?'
p953
tp954
Rp955
sS'euclidiselement03euclgoog_0193'
p956
g2
(g6
S'_\x85Q\x14G\x9b7?'
p957
tp958
Rp959
sS'euclidiselement03euclgoog_0192'
p960
g2
(g6
S'\xf7\xdat.\xee\xefS?'
p961
tp962
Rp963
sS'euclidiselement03euclgoog_0298'
p964
g2
(g6
S'\x94\xcd\xf4}\xa5\xc0M?'
p965
tp966
Rp967
sS'euclidiselement03euclgoog_0299'
p968
g2
(g6
S'\xb8\x9f\xa1\x07H\xb5O?'
p969
tp970
Rp971
sS'euclidiselement03euclgoog_0290'
p972
g2
(g6
S'\xe9\x0e\x97\x9a\xec\x99A?'
p973
tp974
Rp975
sS'euclidiselement03euclgoog_0291'
p976
g2
(g6
S'\xab\x1b\xfe\x94\x01-I?'
p977
tp978
Rp979
sS'euclidiselement03euclgoog_0292'
p980
g2
(g6
S'\r\x1a\xda\xdc\xdf\xa7A?'
p981
tp982
Rp983
sS'euclidiselement03euclgoog_0293'
p984
g2
(g6
S'\t\x1b!\x85\xe9\x87I?'
p985
tp986
Rp987
sS'euclidiselement03euclgoog_0294'
p988
g2
(g6
S'\xd2\xc1K1(AD?'
p989
tp990
Rp991
sS'euclidiselement03euclgoog_0295'
p992
g2
(g6
S'\x9f!\x1c\xddS\xbeN?'
p993
tp994
Rp995
sS'euclidiselement03euclgoog_0296'
p996
g2
(g6
S'\xd6\x93\xdc\xe6\xa9TN?'
p997
tp998
Rp999
sS'euclidiselement03euclgoog_0297'
p1000
g2
(g6
S';\xdf#\xfa\xf2KN?'
p1001
tp1002
Rp1003
sS'euclidiselement03euclgoog_0096'
p1004
g2
(g6
S'\xe5\x8d\xf4\x02\xa2\xfcQ?'
p1005
tp1006
Rp1007
sS'euclidiselement03euclgoog_0097'
p1008
g2
(g6
S'\x14\xf3\x87\x8f\xea\x9cP?'
p1009
tp1010
Rp1011
sS'euclidiselement03euclgoog_0094'
p1012
g2
(g6
S"\xefYM\xab\x08n'?"
p1013
tp1014
Rp1015
sS'euclidiselement03euclgoog_0095'
p1016
g2
(g6
S'\xed\xe1+PY\xa9J?'
p1017
tp1018
Rp1019
sS'euclidiselement03euclgoog_0092'
p1020
g2
(g6
S'\xc0h#o\xaacQ?'
p1021
tp1022
Rp1023
sS'euclidiselement03euclgoog_0093'
p1024
g2
(g6
S'\xd2\xe3qs\xe0\x8fK?'
p1025
tp1026
Rp1027
sS'euclidiselement03euclgoog_0090'
p1028
g2
(g6
S'\xa7\xabt\xf2k\x8a7?'
p1029
tp1030
Rp1031
sS'euclidiselement03euclgoog_0091'
p1032
g2
(g6
S'Z\x85{\x8f\xb96U?'
p1033
tp1034
Rp1035
sS'euclidiselement03euclgoog_0098'
p1036
g2
(g6
S'\x14\xdd\xe6\x15,8W?'
p1037
tp1038
Rp1039
sS'euclidiselement03euclgoog_0099'
p1040
g2
(g6
S'=\x92\xd6\x03\xf4\x11@?'
p1041
tp1042
Rp1043
sS'euclidiselement03euclgoog_0269'
p1044
g2
(g6
S'j`\xff\x9bc\x8d&?'
p1045
tp1046
Rp1047
sS'euclidiselement03euclgoog_0268'
p1048
g2
(g6
S'\xb7\xdc\x95\xf8;fP?'
p1049
tp1050
Rp1051
sS'euclidiselement03euclgoog_0261'
p1052
g2
(g6
S'0L\xb6a\xc2<(?'
p1053
tp1054
Rp1055
sS'euclidiselement03euclgoog_0260'
p1056
g2
(g6
S'\xa0n\xdf\xd95\xecA?'
p1057
tp1058
Rp1059
sS'euclidiselement03euclgoog_0263'
p1060
g2
(g6
S'\xbd\\\xe4B\nLE?'
p1061
tp1062
Rp1063
sS'euclidiselement03euclgoog_0262'
p1064
g2
(g6
S'\xb6]~F$\xbeE?'
p1065
tp1066
Rp1067
sS'euclidiselement03euclgoog_0265'
p1068
g2
(g6
S'A\xfb\x91x=\xfa.?'
p1069
tp1070
Rp1071
sS'euclidiselement03euclgoog_0264'
p1072
g2
(g6
S'\xe4F\xec\xd9\x87 S?'
p1073
tp1074
Rp1075
sS'euclidiselement03euclgoog_0267'
p1076
g2
(g6
S'\xc9\x82"\xdf\xce\x9eG?'
p1077
tp1078
Rp1079
sS'euclidiselement03euclgoog_0266'
p1080
g2
(g6
S'/\xdb\x1fD\xab\xcdE?'
p1081
tp1082
Rp1083
sS'euclidiselement03euclgoog_0434'
p1084
g2
(g6
S'\xc9\xb7\xd1\x9e\x89\xb8L?'
p1085
tp1086
Rp1087
sS'euclidiselement03euclgoog_0435'
p1088
g2
(g6
S'\xf3\x11\x15\xdez\x08M?'
p1089
tp1090
Rp1091
sS'euclidiselement03euclgoog_0436'
p1092
g2
(g6
S'\x1fP[#;\xc4F?'
p1093
tp1094
Rp1095
sS'euclidiselement03euclgoog_0437'
p1096
g2
(g6
S"\xb3\x0c^\x02~'C?"
p1097
tp1098
Rp1099
sS'euclidiselement03euclgoog_0430'
p1100
g2
(g6
S'\x01\xf2\x9au\xa6\x14U?'
p1101
tp1102
Rp1103
sS'euclidiselement03euclgoog_0431'
p1104
g2
(g6
S'ACMV\xdaYW?'
p1105
tp1106
Rp1107
sS'euclidiselement03euclgoog_0432'
p1108
g2
(g6
S'\x1e\xd1z\xa0F/J?'
p1109
tp1110
Rp1111
sS'euclidiselement03euclgoog_0433'
p1112
g2
(g6
S'\nW\xbe~\x0b8N?'
p1113
tp1114
Rp1115
sS'euclidiselement03euclgoog_0438'
p1116
g2
(g6
S'\xd5\xa466\xc2\xa3D?'
p1117
tp1118
Rp1119
sS'euclidiselement03euclgoog_0439'
p1120
g2
(g6
S'\xcbL\x03$\x94\x9eK?'
p1121
tp1122
Rp1123
sS'euclidiselement03euclgoog_0140'
p1124
g2
(g6
S'\xdc\x96\xefyj!A?'
p1125
tp1126
Rp1127
sS'euclidiselement03euclgoog_0141'
p1128
g2
(g6
S'\x0f\xa5|\x02`\xe2G?'
p1129
tp1130
Rp1131
sS'euclidiselement03euclgoog_0142'
p1132
g2
(g6
S'\xdc\xc5Se\x00\xba@?'
p1133
tp1134
Rp1135
sS'euclidiselement03euclgoog_0143'
p1136
g2
(g6
S'\xec%\x9b\xa2\x01G\x0c?'
p1137
tp1138
Rp1139
sS'euclidiselement03euclgoog_0144'
p1140
g2
(g6
S'\x16Tr^/\x9d\x0c?'
p1141
tp1142
Rp1143
sS'euclidiselement03euclgoog_0145'
p1144
g2
(g6
S"\x1d\xea\xa4H'$;?"
p1145
tp1146
Rp1147
sS'euclidiselement03euclgoog_0146'
p1148
g2
(g6
S'\xf0\xe6ym\xca76?'
p1149
tp1150
Rp1151
sS'euclidiselement03euclgoog_0147'
p1152
g2
(g6
S'\x8b\xfd\xab\xb2D\xd5O?'
p1153
tp1154
Rp1155
sS'euclidiselement03euclgoog_0148'
p1156
g2
(g6
S'G\x00g\xd5.RV?'
p1157
tp1158
Rp1159
sS'euclidiselement03euclgoog_0149'
p1160
g2
(g6
S'zjH\x7f\xe8\x800?'
p1161
tp1162
Rp1163
sS'euclidiselement03euclgoog_0500'
p1164
g2
(g6
S'\xe7\\lj\x93\xfbQ?'
p1165
tp1166
Rp1167
sS'euclidiselement03euclgoog_0315'
p1168
g2
(g6
S'\xc3_,\xef\x1aSD?'
p1169
tp1170
Rp1171
sS'euclidiselement03euclgoog_0314'
p1172
g2
(g6
S'\x01@[\xc4\x89\xbfC?'
p1173
tp1174
Rp1175
sS'euclidiselement03euclgoog_0317'
p1176
g2
(g6
S'+\x88!\xd4e\xb4I?'
p1177
tp1178
Rp1179
sS'euclidiselement03euclgoog_0316'
p1180
g2
(g6
S'L\x13\x98\x1f\xf5\x8aQ?'
p1181
tp1182
Rp1183
sS'euclidiselement03euclgoog_0311'
p1184
g2
(g6
S'o\x8e\xfb!\x9e\xe3H?'
p1185
tp1186
Rp1187
sS'euclidiselement03euclgoog_0310'
p1188
g2
(g6
S'\xb9\x9f\xa1\x07H\xb5O?'
p1189
tp1190
Rp1191
sS'euclidiselement03euclgoog_0313'
p1192
g2
(g6
S'\xd7\xdcWb\x1ftH?'
p1193
tp1194
Rp1195
sS'euclidiselement03euclgoog_0312'
p1196
g2
(g6
S'\x02B\xfc6\xf0\x13M?'
p1197
tp1198
Rp1199
sS'euclidiselement03euclgoog_0319'
p1200
g2
(g6
S'\xe0\xa7\xbb\x8b\xb5\x85P?'
p1201
tp1202
Rp1203
sS'euclidiselement03euclgoog_0318'
p1204
g2
(g6
S'\x08[-\xfb\x8f\x0eP?'
p1205
tp1206
Rp1207
sS'euclidiselement03euclgoog_0472'
p1208
g2
(g6
S"\xa4!'n2\xd3Q?"
p1209
tp1210
Rp1211
sS'euclidiselement03euclgoog_0473'
p1212
g2
(g6
S'Red\x02\x17\xf2!?'
p1213
tp1214
Rp1215
sS'euclidiselement03euclgoog_0478'
p1216
g2
(g6
S'\xe1\xdf\xe6\xc3r\x08L?'
p1217
tp1218
Rp1219
sS'euclidiselement03euclgoog_0479'
p1220
g2
(g6
S'[\xc2\x0e}\x1aVH?'
p1221
tp1222
Rp1223
sS'euclidiselement03euclgoog_0041'
p1224
g2
(g6
S'6H\x02\x13\x81IJ?'
p1225
tp1226
Rp1227
sS'euclidiselement03euclgoog_0040'
p1228
g2
(g6
S'\xcc\xc9\x8c\x93c$Q?'
p1229
tp1230
Rp1231
sS'euclidiselement03euclgoog_0043'
p1232
g2
(g6
S'\r\xabiBn\xf2C?'
p1233
tp1234
Rp1235
sS'euclidiselement03euclgoog_0042'
p1236
g2
(g6
S'U\xcc\x0cA\xe4QP?'
p1237
tp1238
Rp1239
sS'euclidiselement03euclgoog_0045'
p1240
g2
(g6
S'\x83G-\x19@\xd4P?'
p1241
tp1242
Rp1243
sS'euclidiselement03euclgoog_0044'
p1244
g2
(g6
S'\xc0\xc7\x88\xfay9J?'
p1245
tp1246
Rp1247
sS'euclidiselement03euclgoog_0047'
p1248
g2
(g6
S'"\xa4\xbe3-\xdfO?'
p1249
tp1250
Rp1251
sS'euclidiselement03euclgoog_0046'
p1252
g2
(g6
S'\xe4\xcc2L@\xfbP?'
p1253
tp1254
Rp1255
sS'euclidiselement03euclgoog_0049'
p1256
g2
(g6
S'\xce\x0f\x81\x1d\xbb\xb8C?'
p1257
tp1258
Rp1259
sS'euclidiselement03euclgoog_0048'
p1260
g2
(g6
S'\xd9JL\nETO?'
p1261
tp1262
Rp1263
sS'euclidiselement03euclgoog_0104'
p1264
g2
(g6
S'\xee\x9d\xbc\xfd\xb0\x0bI?'
p1265
tp1266
Rp1267
sS'euclidiselement03euclgoog_0105'
p1268
g2
(g6
S'\x13\xac&\xa53\x88U?'
p1269
tp1270
Rp1271
sS'euclidiselement03euclgoog_0106'
p1272
g2
(g6
S'\xb9\x17\x0e\x1a\x0c\x86U?'
p1273
tp1274
Rp1275
sS'euclidiselement03euclgoog_0107'
p1276
g2
(g6
S'P\xb3\xfc\x0b\xbe\x8f5?'
p1277
tp1278
Rp1279
sS'euclidiselement03euclgoog_0100'
p1280
g2
(g6
S'\xd4-\xc5\xf5\xa5\x1bP?'
p1281
tp1282
Rp1283
sS'euclidiselement03euclgoog_0101'
p1284
g2
(g6
S'\x87\xdd>\x9e\x99\xfbK?'
p1285
tp1286
Rp1287
sS'euclidiselement03euclgoog_0102'
p1288
g2
(g6
S'\x1b\\\xb2\x13\xaf\xa2Q?'
p1289
tp1290
Rp1291
sS'euclidiselement03euclgoog_0103'
p1292
g2
(g6
S'\x88\x9ae^\x9d\xbdA?'
p1293
tp1294
Rp1295
sS'euclidiselement03euclgoog_0108'
p1296
g2
(g6
S'i\xf1m0\x1a\x182?'
p1297
tp1298
Rp1299
sS'euclidiselement03euclgoog_0109'
p1300
g2
(g6
S'B>\xda\xc7\xb4U+?'
p1301
tp1302
Rp1303
sS'euclidiselement03euclgoog_0370'
p1304
g2
(g6
S'<g\xcd\x81]\x1bI?'
p1305
tp1306
Rp1307
sS'euclidiselement03euclgoog_0379'
p1308
g2
(g6
S'\xec\x91\x9e\xec\xa6\x96P?'
p1309
tp1310
Rp1311
sS'euclidiselement03euclgoog_0359'
p1312
g2
(g6
S'4\x98\x1a\xc9\xa8\x8fB?'
p1313
tp1314
Rp1315
sS'euclidiselement03euclgoog_0358'
p1316
g2
(g6
S'=4=9\xe2\x88C?'
p1317
tp1318
Rp1319
sS'euclidiselement03euclgoog_0378'
p1320
g2
(g6
S'\xa0\xdb\xee\x8eK\x11P?'
p1321
tp1322
Rp1323
sS'euclidiselement03euclgoog_0351'
p1324
g2
(g6
S'\x91\xea0\xb4\xd0\xa1I?'
p1325
tp1326
Rp1327
sS'euclidiselement03euclgoog_0350'
p1328
g2
(g6
S'\xe8G-\x8b\r\xf9\x0f?'
p1329
tp1330
Rp1331
sS'euclidiselement03euclgoog_0353'
p1332
g2
(g6
S'\xc4KyO1\xf6C?'
p1333
tp1334
Rp1335
sS'euclidiselement03euclgoog_0352'
p1336
g2
(g6
S'+\xabG.\x15\x9e3?'
p1337
tp1338
Rp1339
sS'euclidiselement03euclgoog_0355'
p1340
g2
(g6
S'\x14(2\x97\x8ctA?'
p1341
tp1342
Rp1343
sS'euclidiselement03euclgoog_0354'
p1344
g2
(g6
S'\xae\xc7\xc3)\x88\xdbJ?'
p1345
tp1346
Rp1347
sS'euclidiselement03euclgoog_0357'
p1348
g2
(g6
S'\x0cG\xcb"\x8b\x16A?'
p1349
tp1350
Rp1351
sS'euclidiselement03euclgoog_0356'
p1352
g2
(g6
S'\x89\x9c}mj[F?'
p1353
tp1354
Rp1355
sS'euclidiselement03euclgoog_0469'
p1356
g2
(g6
S'\xc9\x04d%7h0?'
p1357
tp1358
Rp1359
sS'euclidiselement03euclgoog_0468'
p1360
g2
(g6
S'7\x93\xc5\xc9\xb4\x1dQ?'
p1361
tp1362
Rp1363
sS'euclidiselement03euclgoog_0467'
p1364
g2
(g6
S'\x13J\xcf\r_f\x1a?'
p1365
tp1366
Rp1367
sS'euclidiselement03euclgoog_0466'
p1368
g2
(g6
S']@X~\x98\x9f\x19?'
p1369
tp1370
Rp1371
sS'euclidiselement03euclgoog_0465'
p1372
g2
(g6
S'\xe5\xa6UN\x9a\x94C?'
p1373
tp1374
Rp1375
sS'euclidiselement03euclgoog_0464'
p1376
g2
(g6
S'\xb40%\x86\x17\xa3P?'
p1377
tp1378
Rp1379
sS'euclidiselement03euclgoog_0463'
p1380
g2
(g6
S'&\x13]\xb0^\xe3P?'
p1381
tp1382
Rp1383
sS'euclidiselement03euclgoog_0462'
p1384
g2
(g6
S'\x0c\x87\xbc\x89\x11\x08P?'
p1385
tp1386
Rp1387
sS'euclidiselement03euclgoog_0461'
p1388
g2
(g6
S't7\xc7\x1f\xdb\x94K?'
p1389
tp1390
Rp1391
sS'euclidiselement03euclgoog_0460'
p1392
g2
(g6
S'\xe8\xa0\xbaM\xa9\x90O?'
p1393
tp1394
Rp1395
sS'euclidiselement03euclgoog_0210'
p1396
g2
(g6
S'\xde7Mx\x80\xd1S?'
p1397
tp1398
Rp1399
sS'euclidiselement03euclgoog_0211'
p1400
g2
(g6
S'3\xe5\xefa%r7?'
p1401
tp1402
Rp1403
sS'euclidiselement03euclgoog_0212'
p1404
g2
(g6
S'R\xfa\x16\xc0\xb3xU?'
p1405
tp1406
Rp1407
sS'euclidiselement03euclgoog_0213'
p1408
g2
(g6
S'\x03*<\x1d\x043R?'
p1409
tp1410
Rp1411
sS'euclidiselement03euclgoog_0214'
p1412
g2
(g6
S'Li\xab\x02\xa7\xa8C?'
p1413
tp1414
Rp1415
sS'euclidiselement03euclgoog_0215'
p1416
g2
(g6
S'N\xb1\xa0j\xe4\x80S?'
p1417
tp1418
Rp1419
sS'euclidiselement03euclgoog_0216'
p1420
g2
(g6
S'\xabH\xc1\xec\x11\xb4U?'
p1421
tp1422
Rp1423
sS'euclidiselement03euclgoog_0217'
p1424
g2
(g6
S'\x15\xae\x8e\x1d\x1a\x97\x1f?'
p1425
tp1426
Rp1427
sS'euclidiselement03euclgoog_0218'
p1428
g2
(g6
S'\xbc\xa2\xf1I\xbcaN?'
p1429
tp1430
Rp1431
sS'euclidiselement03euclgoog_0219'
p1432
g2
(g6
S'}\xc4\xe5\x9c\xefbC?'
p1433
tp1434
Rp1435
sS'euclidiselement03euclgoog_0191'
p1436
g2
(g6
S'\xb3jtC\x9f\xe2R?'
p1437
tp1438
Rp1439
sS'euclidiselement03euclgoog_0190'
p1440
g2
(g6
S'\xb1\xae\xe3\x95G\x80T?'
p1441
tp1442
Rp1443
sS'euclidiselement03euclgoog_0197'
p1444
g2
(g6
S'RM\xda\x18\xf9\xc5L?'
p1445
tp1446
Rp1447
sS'euclidiselement03euclgoog_0196'
p1448
g2
(g6
S'S\xadw\xce\xec\xa4\x1d?'
p1449
tp1450
Rp1451
sS'euclidiselement03euclgoog_0195'
p1452
g2
(g6
S':\x01^\xe0o H?'
p1453
tp1454
Rp1455
sS'euclidiselement03euclgoog_0194'
p1456
g2
(g6
S'G\x90dW\xf5|\x1f?'
p1457
tp1458
Rp1459
sS'euclidiselement03euclgoog_0128'
p1460
g2
(g6
S'\xc1\xdf\xae\xb7\xad\xc8V?'
p1461
tp1462
Rp1463
sS'euclidiselement03euclgoog_0129'
p1464
g2
(g6
S"'\xcb\xf0'\x9b\xeeH?"
p1465
tp1466
Rp1467
sS'euclidiselement03euclgoog_0287'
p1468
g2
(g6
S'|\x84\xd8\xf1\xa0l>?'
p1469
tp1470
Rp1471
sS'euclidiselement03euclgoog_0286'
p1472
g2
(g6
S'\xd1\xc9\x19t~\xa6!?'
p1473
tp1474
Rp1475
sS'euclidiselement03euclgoog_0285'
p1476
g2
(g6
S'\xb9\x1f\xbd\xcb\xd4\xe8L?'
p1477
tp1478
Rp1479
sS'euclidiselement03euclgoog_0284'
p1480
g2
(g6
S'\x85\xb2\xe4\xd0\xbb$N?'
p1481
tp1482
Rp1483
sS'euclidiselement03euclgoog_0283'
p1484
g2
(g6
S'K\x9e\x9b\x96\x1a\xd4O?'
p1485
tp1486
Rp1487
sS'euclidiselement03euclgoog_0282'
p1488
g2
(g6
S'%\x1aCa\xfc\xd1I?'
p1489
tp1490
Rp1491
sS'euclidiselement03euclgoog_0281'
p1492
g2
(g6
S'\x8f\x02+\x96S\xb1G?'
p1493
tp1494
Rp1495
sS'euclidiselement03euclgoog_0280'
p1496
g2
(g6
S'P\xb5!\x06(\xb0O?'
p1497
tp1498
Rp1499
sS'euclidiselement03euclgoog_0289'
p1500
g2
(g6
S'\xf6\x95\xd9y\x9a\x85H?'
p1501
tp1502
Rp1503
sS'euclidiselement03euclgoog_0288'
p1504
g2
(g6
S'H=\xa1\xfe\xaf/(?'
p1505
tp1506
Rp1507
sS'euclidiselement03euclgoog_0492'
p1508
g2
(g6
S'\x94\xd3\x0cQ#~J?'
p1509
tp1510
Rp1511
sS'euclidiselement03euclgoog_0493'
p1512
g2
(g6
S'\xb40%\x86\x17\xa3P?'
p1513
tp1514
Rp1515
sS'euclidiselement03euclgoog_0490'
p1516
g2
(g6
S'\x9c\xd4\x93a\xfa\xd6Q?'
p1517
tp1518
Rp1519
sS'euclidiselement03euclgoog_0491'
p1520
g2
(g6
S'\xa7\xdd\xf5\xf2cVP?'
p1521
tp1522
Rp1523
sS'euclidiselement03euclgoog_0496'
p1524
g2
(g6
S'\x9e\x1eacD\xa4S?'
p1525
tp1526
Rp1527
sS'euclidiselement03euclgoog_0497'
p1528
g2
(g6
S'q\xd6\x11\x9a\x04+L?'
p1529
tp1530
Rp1531
sS'euclidiselement03euclgoog_0494'
p1532
g2
(g6
S'\xcc\xccz(\xff~S?'
p1533
tp1534
Rp1535
sS'euclidiselement03euclgoog_0495'
p1536
g2
(g6
S'\xeaRoW1\x17P?'
p1537
tp1538
Rp1539
sS'euclidiselement03euclgoog_0188'
p1540
g2
(g6
S';yC\xf2&6M?'
p1541
tp1542
Rp1543
sS'euclidiselement03euclgoog_0498'
p1544
g2
(g6
S'\xf8\x8aIiTZU?'
p1545
tp1546
Rp1547
sS'euclidiselement03euclgoog_0499'
p1548
g2
(g6
S'\xc7\xd3\xbd\xa1\x90\rS?'
p1549
tp1550
Rp1551
sS'euclidiselement03euclgoog_0120'
p1552
g2
(g6
S'WyYT\x02gN?'
p1553
tp1554
Rp1555
sS'euclidiselement03euclgoog_0220'
p1556
g2
(g6
S'\xd8\xa6\xe1\xbas\x01R?'
p1557
tp1558
Rp1559
sS'euclidiselement03euclgoog_0085'
p1560
g2
(g6
S'\xd7\xc3\xb4C8\x89)?'
p1561
tp1562
Rp1563
sS'euclidiselement03euclgoog_0084'
p1564
g2
(g6
S'\xd2\xa9\x8e\x90OJ7?'
p1565
tp1566
Rp1567
sS'euclidiselement03euclgoog_0087'
p1568
g2
(g6
S'HLE\xf30\xa7R?'
p1569
tp1570
Rp1571
sS'euclidiselement03euclgoog_0086'
p1572
g2
(g6
S'd\x99x\x1fP\t%?'
p1573
tp1574
Rp1575
sS'euclidiselement03euclgoog_0081'
p1576
g2
(g6
S'\xc8a\x96m\x0e\xcbM?'
p1577
tp1578
Rp1579
sS'euclidiselement03euclgoog_0080'
p1580
g2
(g6
S',\x98\x9dm1aH?'
p1581
tp1582
Rp1583
sS'euclidiselement03euclgoog_0083'
p1584
g2
(g6
S'\xb4\xfb\xd9\x96_\x7f+?'
p1585
tp1586
Rp1587
sS'euclidiselement03euclgoog_0082'
p1588
g2
(g6
S'\x16\xaee\x04\x86bK?'
p1589
tp1590
Rp1591
sS'euclidiselement03euclgoog_0089'
p1592
g2
(g6
S'/\x95\x86P\xbb\xdfS?'
p1593
tp1594
Rp1595
sS'euclidiselement03euclgoog_0088'
p1596
g2
(g6
S'1\xc4\x86\x80\x84\x96??'
p1597
tp1598
Rp1599
sS'euclidiselement03euclgoog_0180'
p1600
g2
(g6
S'\xb1\nP\xe7\x10\x9aQ?'
p1601
tp1602
Rp1603
sS'euclidiselement03euclgoog_0181'
p1604
g2
(g6
S't\x04@\xf3<JL?'
p1605
tp1606
Rp1607
sS'euclidiselement03euclgoog_0038'
p1608
g2
(g6
S'\x15\xe64/\xf8\x8dO?'
p1609
tp1610
Rp1611
sS'euclidiselement03euclgoog_0039'
p1612
g2
(g6
S'\x87^|t)\xb0O?'
p1613
tp1614
Rp1615
sS'euclidiselement03euclgoog_0030'
p1616
g2
(g6
S')\xf8\x9cn\x8dTV?'
p1617
tp1618
Rp1619
sS'euclidiselement03euclgoog_0031'
p1620
g2
(g6
S'\xc9\xc2\x17;\xdf3W?'
p1621
tp1622
Rp1623
sS'euclidiselement03euclgoog_0032'
p1624
g2
(g6
S'\xb5psO%\xccQ?'
p1625
tp1626
Rp1627
sS'euclidiselement03euclgoog_0033'
p1628
g2
(g6
S'\xd0\xa48,\x13VQ?'
p1629
tp1630
Rp1631
sS'euclidiselement03euclgoog_0034'
p1632
g2
(g6
S'(%#\xa9\xb3\x10V?'
p1633
tp1634
Rp1635
sS'euclidiselement03euclgoog_0035'
p1636
g2
(g6
S'y\xfc\x1d\xd9\x88\xd3R?'
p1637
tp1638
Rp1639
sS'euclidiselement03euclgoog_0036'
p1640
g2
(g6
S'(\\5Y\xd4>T?'
p1641
tp1642
Rp1643
sS'euclidiselement03euclgoog_0037'
p1644
g2
(g6
S'D\xb3\xf4\xfa\xed\x12U?'
p1645
tp1646
Rp1647
sS'euclidiselement03euclgoog_0254'
p1648
g2
(g6
S'\xd3\x1d^\xbaU\x13K?'
p1649
tp1650
Rp1651
sS'euclidiselement03euclgoog_0255'
p1652
g2
(g6
S')\xbbJ\xa4\xb5lF?'
p1653
tp1654
Rp1655
sS'euclidiselement03euclgoog_0256'
p1656
g2
(g6
S'P\xc7\xa5\xec_=Q?'
p1657
tp1658
Rp1659
sS'euclidiselement03euclgoog_0257'
p1660
g2
(g6
S'\x9f!\x1c\xddS\xbeN?'
p1661
tp1662
Rp1663
sS'euclidiselement03euclgoog_0250'
p1664
g2
(g6
S'\xcc\xb2\x93\x04q\xcaQ?'
p1665
tp1666
Rp1667
sS'euclidiselement03euclgoog_0251'
p1668
g2
(g6
S'\x0fPz\xb9\xc8\x85T?'
p1669
tp1670
Rp1671
sS'euclidiselement03euclgoog_0252'
p1672
g2
(g6
S'U\xee\xe1[\xb2`I?'
p1673
tp1674
Rp1675
sS'euclidiselement03euclgoog_0253'
p1676
g2
(g6
S'\xba\x1f\xbd\xcb\xd4\xe8L?'
p1677
tp1678
Rp1679
sS'euclidiselement03euclgoog_0157'
p1680
g2
(g6
S'\xaeK\xcd\xa1\xaa\xc0I?'
p1681
tp1682
Rp1683
sS'euclidiselement03euclgoog_0156'
p1684
g2
(g6
S'\xa3\xae\xf0\x14\xdf\x93M?'
p1685
tp1686
Rp1687
sS'euclidiselement03euclgoog_0155'
p1688
g2
(g6
S'\xf3w^:Q0I?'
p1689
tp1690
Rp1691
sS'euclidiselement03euclgoog_0154'
p1692
g2
(g6
S'\x89\xca\x8f\xbc\xe9\rL?'
p1693
tp1694
Rp1695
sS'euclidiselement03euclgoog_0153'
p1696
g2
(g6
S'oB\x9b\xb5\xbd\xa1\x07?'
p1697
tp1698
Rp1699
sS'euclidiselement03euclgoog_0152'
p1700
g2
(g6
S'\xed\x10\x90;\xefAJ?'
p1701
tp1702
Rp1703
sS'euclidiselement03euclgoog_0151'
p1704
g2
(g6
S'\xf2/7\xdd\xe3cC?'
p1705
tp1706
Rp1707
sS'euclidiselement03euclgoog_0150'
p1708
g2
(g6
S'\xf4\x1b\xf2\xe8\x87\x16L?'
p1709
tp1710
Rp1711
sS'euclidiselement03euclgoog_0423'
p1712
g2
(g6
S'9\x82y\xcc\xa3\xd1S?'
p1713
tp1714
Rp1715
sS'euclidiselement03euclgoog_0422'
p1716
g2
(g6
S'"\xcce*\xa27A?'
p1717
tp1718
Rp1719
sS'euclidiselement03euclgoog_0421'
p1720
g2
(g6
S':\xa8\x7fJT#8?'
p1721
tp1722
Rp1723
sS'euclidiselement03euclgoog_0420'
p1724
g2
(g6
S'?!\xb4\xd5-uP?'
p1725
tp1726
Rp1727
sS'euclidiselement03euclgoog_0427'
p1728
g2
(g6
S'15\xe6\xbfk\xd5#?'
p1729
tp1730
Rp1731
sS'euclidiselement03euclgoog_0426'
p1732
g2
(g6
S'\xed\xc2B\xd7+6V?'
p1733
tp1734
Rp1735
sS'euclidiselement03euclgoog_0425'
p1736
g2
(g6
S'E~\xfc]\x00rR?'
p1737
tp1738
Rp1739
sS'euclidiselement03euclgoog_0424'
p1740
g2
(g6
S'o\x19\x9b\x9c2\x1dR?'
p1741
tp1742
Rp1743
sS'euclidiselement03euclgoog_0429'
p1744
g2
(g6
S'\x16x\x9f\x15x\x9f5?'
p1745
tp1746
Rp1747
sS'euclidiselement03euclgoog_0428'
p1748
g2
(g6
S'l\xab\x06\x17O\xd4R?'
p1749
tp1750
Rp1751
sS'euclidiselement03euclgoog_0456'
p1752
g2
(g6
S'a \xee\x86c\x9eU?'
p1753
tp1754
Rp1755
sS'euclidiselement03euclgoog_0457'
p1756
g2
(g6
S"\x14\x953\x91\x1f\x7f'?"
p1757
tp1758
Rp1759
sS'euclidiselement03euclgoog_0454'
p1760
g2
(g6
S"'D\x14+/}N?"
p1761
tp1762
Rp1763
sS'euclidiselement03euclgoog_0455'
p1764
g2
(g6
S'\xb4\xbc\xf5\xffBVM?'
p1765
tp1766
Rp1767
sS'euclidiselement03euclgoog_0452'
p1768
g2
(g6
S'\xd4\xbf\x9c\xae|\xecO?'
p1769
tp1770
Rp1771
sS'euclidiselement03euclgoog_0453'
p1772
g2
(g6
S'\x89d\xe0\xc3>\x9dS?'
p1773
tp1774
Rp1775
sS'euclidiselement03euclgoog_0450'
p1776
g2
(g6
S'\x1elX\x1dlX=?'
p1777
tp1778
Rp1779
sS'euclidiselement03euclgoog_0451'
p1780
g2
(g6
S'_lP\x8b\xba\xdcH?'
p1781
tp1782
Rp1783
sS'euclidiselement03euclgoog_0458'
p1784
g2
(g6
S'&\xc5"\xb1\x10\xa9Q?'
p1785
tp1786
Rp1787
sS'euclidiselement03euclgoog_0459'
p1788
g2
(g6
S'@^\xa2\xd7jcR?'
p1789
tp1790
Rp1791
sS'euclidiselement03euclgoog_0320'
p1792
g2
(g6
S'w\xa0\xf3\xfa}IH?'
p1793
tp1794
Rp1795
sS'euclidiselement03euclgoog_0321'
p1796
g2
(g6
S'\xfe\xe8\xc0u\xab\xbeG?'
p1797
tp1798
Rp1799
sS'euclidiselement03euclgoog_0322'
p1800
g2
(g6
S'\x87\x14R\xba\xadRK?'
p1801
tp1802
Rp1803
sS'euclidiselement03euclgoog_0323'
p1804
g2
(g6
S'\xeb\x9e\xc7\xd9\xeb\xf9+?'
p1805
tp1806
Rp1807
sS'euclidiselement03euclgoog_0324'
p1808
g2
(g6
S'3\x07f\x7f\xaa\x02L?'
p1809
tp1810
Rp1811
sS'euclidiselement03euclgoog_0325'
p1812
g2
(g6
S'\xaa\xfa\xb1\xe39\xa4M?'
p1813
tp1814
Rp1815
sS'euclidiselement03euclgoog_0326'
p1816
g2
(g6
S'\xca\x85\xd7g\xe4\x154?'
p1817
tp1818
Rp1819
sS'euclidiselement03euclgoog_0327'
p1820
g2
(g6
S'G\x80\xf1\x9b\xabDP?'
p1821
tp1822
Rp1823
sS'euclidiselement03euclgoog_0328'
p1824
g2
(g6
S'L)\x9bj`\xd7I?'
p1825
tp1826
Rp1827
sS'euclidiselement03euclgoog_0329'
p1828
g2
(g6
S'@\xb5\xde9\xfa\x97I?'
p1829
tp1830
Rp1831
sS'euclidiselement03euclgoog_0078'
p1832
g2
(g6
S'\xf6\x93\xab\x9e\x9c7W?'
p1833
tp1834
Rp1835
sS'euclidiselement03euclgoog_0079'
p1836
g2
(g6
S'HLE\xf30\xa7R?'
p1837
tp1838
Rp1839
sS'euclidiselement03euclgoog_0074'
p1840
g2
(g6
S'\xc4(\n\xc8J\xa2S?'
p1841
tp1842
Rp1843
sS'euclidiselement03euclgoog_0075'
p1844
g2
(g6
S'u=\xf7\xac\x80\xfbI?'
p1845
tp1846
Rp1847
sS'euclidiselement03euclgoog_0076'
p1848
g2
(g6
S'\tzJ\x1e]?T?'
p1849
tp1850
Rp1851
sS'euclidiselement03euclgoog_0077'
p1852
g2
(g6
S'\x8a\xcd"\xa1\xdf\x81\x17?'
p1853
tp1854
Rp1855
sS'euclidiselement03euclgoog_0070'
p1856
g2
(g6
S'L~!\x92\x93WH?'
p1857
tp1858
Rp1859
sS'euclidiselement03euclgoog_0071'
p1860
g2
(g6
S'=\xfeYD\xe0\xacJ?'
p1861
tp1862
Rp1863
sS'euclidiselement03euclgoog_0072'
p1864
g2
(g6
S'\xc5\xbd\xc1\xd6\xa2?Q?'
p1865
tp1866
Rp1867
sS'euclidiselement03euclgoog_0073'
p1868
g2
(g6
S'\x98\xc6W? \xf8U?'
p1869
tp1870
Rp1871
sS'euclidiselement03euclgoog_0443'
p1872
g2
(g6
S'\xcd\x96\xd0%\xdekM?'
p1873
tp1874
Rp1875
sS'euclidiselement03euclgoog_0442'
p1876
g2
(g6
S'\xb1\xa8\xd2\x00\x1a\x9cQ?'
p1877
tp1878
Rp1879
sS'euclidiselement03euclgoog_0113'
p1880
g2
(g6
S'\x13\tYi\xb3YM?'
p1881
tp1882
Rp1883
sS'euclidiselement03euclgoog_0112'
p1884
g2
(g6
S'I\x03q\x9dBu9?'
p1885
tp1886
Rp1887
sS'euclidiselement03euclgoog_0111'
p1888
g2
(g6
S'\x8d\x89\x12\x02P\xe73?'
p1889
tp1890
Rp1891
sS'euclidiselement03euclgoog_0110'
p1892
g2
(g6
S'hN\x88\xc4\x94=P?'
p1893
tp1894
Rp1895
sS'euclidiselement03euclgoog_0117'
p1896
g2
(g6
S'eaO\xd6I\xd7I?'
p1897
tp1898
Rp1899
sS'euclidiselement03euclgoog_0116'
p1900
g2
(g6
S'\xf3\x8d\xff\xb3\x0f\x95B?'
p1901
tp1902
Rp1903
sS'euclidiselement03euclgoog_0115'
p1904
g2
(g6
S'z\x83\x0b\xf1\xbf\xb4&?'
p1905
tp1906
Rp1907
sS'euclidiselement03euclgoog_0114'
p1908
g2
(g6
S'\xf9\xaf\xc8M\x1d\x86H?'
p1909
tp1910
Rp1911
sS'euclidiselement03euclgoog_0449'
p1912
g2
(g6
S'(]*\xb2\xa8\xb0R?'
p1913
tp1914
Rp1915
sS'euclidiselement03euclgoog_0119'
p1916
g2
(g6
S'\xea:\xa6\t\x14L\x0e?'
p1917
tp1918
Rp1919
sS'euclidiselement03euclgoog_0118'
p1920
g2
(g6
S'\xc7D9a\xb2K=?'
p1921
tp1922
Rp1923
sS'euclidiselement03euclgoog_0448'
p1924
g2
(g6
S'\x06\xf5`\x80\x94CS?'
p1925
tp1926
Rp1927
s.