(dp0
S'coets_1691_v1_1_0492.tif'
p1
(I2196
I3536
tp2
sS'coets_1691_v1_1_0162.tif'
p3
(I2206
I3530
tp4
sS'coets_1691_v1_1_0212.tif'
p5
(I2184
I3526
tp6
sS'coets_1691_v1_1_0031.tif'
p7
(I2224
I3530
tp8
sS'coets_1691_v1_1_0427.tif'
p9
(I2196
I3536
tp10
sS'coets_1691_v1_1_0347.tif'
p11
(I2174
I3530
tp12
sS'coets_1691_v1_1_0420.tif'
p13
(I2196
I3536
tp14
sS'coets_1691_v1_1_0237.tif'
p15
(I2184
I3526
tp16
sS'coets_1691_v1_1_0098.tif'
p17
(I2206
I3530
tp18
sS'coets_1691_v1_1_0246.tif'
p19
(I2184
I3526
tp20
sS'coets_1691_v1_1_0494.tif'
p21
(I2196
I3536
tp22
sS'coets_1691_v1_1_0257.tif'
p23
(I2184
I3526
tp24
sS'coets_1691_v1_1_0269.tif'
p25
(I2184
I3526
tp26
sS'coets_1691_v1_1_0491.tif'
p27
(I2196
I3536
tp28
sS'coets_1691_v1_1_0239.tif'
p29
(I2184
I3526
tp30
sS'coets_1691_v1_1_0260.tif'
p31
(I2184
I3526
tp32
sS'coets_1691_v1_1_0152.tif'
p33
(I2206
I3530
tp34
sS'coets_1691_v1_1_0316.tif'
p35
(I2174
I3530
tp36
sS'coets_1691_v1_1_0134.tif'
p37
(I2206
I3530
tp38
sS'coets_1691_v1_1_0204.tif'
p39
(I2184
I3526
tp40
sS'coets_1691_v1_1_0093.tif'
p41
(I2206
I3530
tp42
sS'coets_1691_v1_1_0284.tif'
p43
(I2184
I3526
tp44
sS'coets_1691_v1_1_0187.tif'
p45
(I2206
I3530
tp46
sS'coets_1691_v1_1_0389.tif'
p47
(I2174
I3530
tp48
sS'coets_1691_v1_1_0324.tif'
p49
(I2174
I3530
tp50
sS'coets_1691_v1_1_0083.tif'
p51
(I2224
I3530
tp52
sS'coets_1691_v1_1_0317.tif'
p53
(I2174
I3530
tp54
sS'coets_1691_v1_1_0073.tif'
p55
(I2224
I3530
tp56
sS'coets_1691_v1_1_0226.tif'
p57
(I2184
I3526
tp58
sS'coets_1691_v1_1_0353.tif'
p59
(I2174
I3530
tp60
sS'coets_1691_v1_1_0105.tif'
p61
(I2206
I3530
tp62
sS'coets_1691_v1_1_0110.tif'
p63
(I2206
I3530
tp64
sS'coets_1691_v1_1_0044.tif'
p65
(I2224
I3530
tp66
sS'coets_1691_v1_1_0342.tif'
p67
(I2174
I3530
tp68
sS'coets_1691_v1_1_0371.tif'
p69
(I2174
I3530
tp70
sS'coets_1691_v1_1_0399.tif'
p71
(I2174
I3530
tp72
sS'coets_1691_v1_1_0059.tif'
p73
(I2224
I3530
tp74
sS'coets_1691_v1_1_0285.tif'
p75
(I2184
I3526
tp76
sS'coets_1691_v1_1_0062.tif'
p77
(I2224
I3530
tp78
sS'coets_1691_v1_1_0432.tif'
p79
(I2196
I3536
tp80
sS'coets_1691_v1_1_0180.tif'
p81
(I2206
I3530
tp82
sS'coets_1691_v1_1_0118.tif'
p83
(I2206
I3530
tp84
sS'coets_1691_v1_1_0214.tif'
p85
(I2184
I3526
tp86
sS'coets_1691_v1_1_0322.tif'
p87
(I2174
I3530
tp88
sS'coets_1691_v1_1_0395.tif'
p89
(I2174
I3530
tp90
sS'coets_1691_v1_1_0452.tif'
p91
(I2196
I3536
tp92
sS'coets_1691_v1_1_0227.tif'
p93
(I2184
I3526
tp94
sS'coets_1691_v1_1_0065.tif'
p95
(I2224
I3530
tp96
sS'coets_1691_v1_1_0319.tif'
p97
(I2174
I3530
tp98
sS'coets_1691_v1_1_0340.tif'
p99
(I2174
I3530
tp100
sS'coets_1691_v1_1_0417.tif'
p101
(I2196
I3536
tp102
sS'coets_1691_v1_1_0224.tif'
p103
(I2184
I3526
tp104
sS'coets_1691_v1_1_0272.tif'
p105
(I2184
I3526
tp106
sS'coets_1691_v1_1_0388.tif'
p107
(I2174
I3530
tp108
sS'coets_1691_v1_1_0119.tif'
p109
(I2206
I3530
tp110
sS'coets_1691_v1_1_0218.tif'
p111
(I2184
I3526
tp112
sS'coets_1691_v1_1_0439.tif'
p113
(I2196
I3536
tp114
sS'coets_1691_v1_1_0425.tif'
p115
(I2196
I3536
tp116
sS'coets_1691_v1_1_0462.tif'
p117
(I2196
I3536
tp118
sS'coets_1691_v1_1_0302.tif'
p119
(I2174
I3530
tp120
sS'coets_1691_v1_1_0413.tif'
p121
(I2196
I3536
tp122
sS'coets_1691_v1_1_0495.tif'
p123
(I2196
I3536
tp124
sS'coets_1691_v1_1_0210.tif'
p125
(I2184
I3526
tp126
sS'coets_1691_v1_1_0264.tif'
p127
(I629
I956
tp128
sS'coets_1691_v1_1_0287.tif'
p129
(I2184
I3526
tp130
sS'coets_1691_v1_1_0082.tif'
p131
(I2224
I3530
tp132
sS'coets_1691_v1_1_0421.tif'
p133
(I2196
I3536
tp134
sS'coets_1691_v1_1_0473.tif'
p135
(I2180
I3538
tp136
sS'coets_1691_v1_1_0390.tif'
p137
(I2174
I3530
tp138
sS'coets_1691_v1_1_0485.tif'
p139
(I2196
I3536
tp140
sS'coets_1691_v1_1_0198.tif'
p141
(I629
I956
tp142
sS'coets_1691_v1_1_0225.tif'
p143
(I2184
I3526
tp144
sS'coets_1691_v1_1_0380.tif'
p145
(I2174
I3530
tp146
sS'coets_1691_v1_1_0375.tif'
p147
(I2174
I3530
tp148
sS'coets_1691_v1_1_0079.tif'
p149
(I2224
I3530
tp150
sS'coets_1691_v1_1_0185.tif'
p151
(I2206
I3530
tp152
sS'coets_1691_v1_1_0103.tif'
p153
(I2206
I3530
tp154
sS'coets_1691_v1_1_0190.tif'
p155
(I2206
I3530
tp156
sS'coets_1691_v1_1_0053.tif'
p157
(I2224
I3530
tp158
sS'coets_1691_v1_1_0165.tif'
p159
(I2206
I3530
tp160
sS'coets_1691_v1_1_0290.tif'
p161
(I629
I956
tp162
sS'coets_1691_v1_1_0071.tif'
p163
(I2224
I3530
tp164
sS'coets_1691_v1_1_0064.tif'
p165
(I2224
I3530
tp166
sS'coets_1691_v1_1_0129.tif'
p167
(I2206
I3530
tp168
sS'coets_1691_v1_1_0344.tif'
p169
(I2174
I3530
tp170
sS'coets_1691_v1_1_0318.tif'
p171
(I2174
I3530
tp172
sS'coets_1691_v1_1_0203.tif'
p173
(I2184
I3526
tp174
sS'coets_1691_v1_1_0107.tif'
p175
(I2206
I3530
tp176
sS'coets_1691_v1_1_0191.tif'
p177
(I2206
I3530
tp178
sS'coets_1691_v1_1_0393.tif'
p179
(I2174
I3530
tp180
sS'coets_1691_v1_1_0256.tif'
p181
(I2184
I3526
tp182
sS'coets_1691_v1_1_0424.tif'
p183
(I2196
I3536
tp184
sS'coets_1691_v1_1_0216.tif'
p185
(I2184
I3526
tp186
sS'coets_1691_v1_1_0261.tif'
p187
(I2184
I3526
tp188
sS'coets_1691_v1_1_0294.tif'
p189
(I2184
I3526
tp190
sS'coets_1691_v1_1_0274.tif'
p191
(I2184
I3526
tp192
sS'coets_1691_v1_1_0171.tif'
p193
(I2206
I3530
tp194
sS'coets_1691_v1_1_0154.tif'
p195
(I2206
I3530
tp196
sS'coets_1691_v1_1_0106.tif'
p197
(I2206
I3530
tp198
sS'coets_1691_v1_1_0205.tif'
p199
(I2184
I3526
tp200
sS'coets_1691_v1_1_0298.tif'
p201
(I2174
I3530
tp202
sS'coets_1691_v1_1_0415.tif'
p203
(I2196
I3536
tp204
sS'coets_1691_v1_1_0258.tif'
p205
(I2184
I3526
tp206
sS'coets_1691_v1_1_0472.tif'
p207
(I2196
I3536
tp208
sS'coets_1691_v1_1_0029.tif'
p209
(I2224
I3530
tp210
sS'coets_1691_v1_1_0306.tif'
p211
(I2174
I3530
tp212
sS'coets_1691_v1_1_0479.tif'
p213
(I2196
I3536
tp214
sS'coets_1691_v1_1_0320.tif'
p215
(I2174
I3530
tp216
sS'coets_1691_v1_1_0354.tif'
p217
(I2174
I3530
tp218
sS'coets_1691_v1_1_0497.tif'
p219
(I2196
I3536
tp220
sS'coets_1691_v1_1_0144.tif'
p221
(I2206
I3530
tp222
sS'coets_1691_v1_1_0155.tif'
p223
(I2206
I3530
tp224
sS'coets_1691_v1_1_0376.tif'
p225
(I2174
I3530
tp226
sS'coets_1691_v1_1_0163.tif'
p227
(I2206
I3530
tp228
sS'coets_1691_v1_1_0402.tif'
p229
(I2196
I3536
tp230
sS'coets_1691_v1_1_0359.tif'
p231
(I2174
I3530
tp232
sS'coets_1691_v1_1_0058.tif'
p233
(I2224
I3530
tp234
sS'coets_1691_v1_1_0345.tif'
p235
(I2174
I3530
tp236
sS'coets_1691_v1_1_0300.tif'
p237
(I2174
I3530
tp238
sS'coets_1691_v1_1_0188.tif'
p239
(I2206
I3530
tp240
sS'coets_1691_v1_1_0350.tif'
p241
(I2174
I3530
tp242
sS'coets_1691_v1_1_0329.tif'
p243
(I2174
I3530
tp244
sS'coets_1691_v1_1_0181.tif'
p245
(I2206
I3530
tp246
sS'coets_1691_v1_1_0392.tif'
p247
(I2174
I3530
tp248
sS'coets_1691_v1_1_0334.tif'
p249
(I2174
I3530
tp250
sS'coets_1691_v1_1_0104.tif'
p251
(I2206
I3530
tp252
sS'coets_1691_v1_1_0080.tif'
p253
(I2224
I3530
tp254
sS'coets_1691_v1_1_0327.tif'
p255
(I2174
I3530
tp256
sS'coets_1691_v1_1_0116.tif'
p257
(I2206
I3530
tp258
sS'coets_1691_v1_1_0471.tif'
p259
(I2196
I3536
tp260
sS'coets_1691_v1_1_0160.tif'
p261
(I2206
I3530
tp262
sS'coets_1691_v1_1_0230.tif'
p263
(I2184
I3526
tp264
sS'coets_1691_v1_1_0095.tif'
p265
(I2206
I3530
tp266
sS'coets_1691_v1_1_0157.tif'
p267
(I2206
I3530
tp268
sS'coets_1691_v1_1_0451.tif'
p269
(I2180
I3538
tp270
sS'coets_1691_v1_1_0408.tif'
p271
(I2196
I3536
tp272
sS'coets_1691_v1_1_0028.tif'
p273
(I2224
I3530
tp274
sS'coets_1691_v1_1_0267.tif'
p275
(I2184
I3526
tp276
sS'coets_1691_v1_1_0382.tif'
p277
(I2174
I3530
tp278
sS'coets_1691_v1_1_0217.tif'
p279
(I2184
I3526
tp280
sS'coets_1691_v1_1_0102.tif'
p281
(I2206
I3530
tp282
sS'coets_1691_v1_1_0050.tif'
p283
(I2224
I3530
tp284
sS'coets_1691_v1_1_0321.tif'
p285
(I2174
I3530
tp286
sS'coets_1691_v1_1_0147.tif'
p287
(I2206
I3530
tp288
sS'coets_1691_v1_1_0063.tif'
p289
(I2224
I3530
tp290
sS'coets_1691_v1_1_0291.tif'
p291
(I629
I956
tp292
sS'coets_1691_v1_1_0166.tif'
p293
(I2206
I3530
tp294
sS'coets_1691_v1_1_0266.tif'
p295
(I2184
I3526
tp296
sS'coets_1691_v1_1_0094.tif'
p297
(I2206
I3530
tp298
sS'coets_1691_v1_1_0115.tif'
p299
(I2206
I3530
tp300
sS'coets_1691_v1_1_0089.tif'
p301
(I2224
I3530
tp302
sS'coets_1691_v1_1_0199.tif'
p303
(I2184
I3526
tp304
sS'coets_1691_v1_1_0301.tif'
p305
(I2174
I3530
tp306
sS'coets_1691_v1_1_0358.tif'
p307
(I2174
I3530
tp308
sS'coets_1691_v1_1_0184.tif'
p309
(I2206
I3530
tp310
sS'coets_1691_v1_1_0153.tif'
p311
(I2206
I3530
tp312
sS'coets_1691_v1_1_0238.tif'
p313
(I629
I956
tp314
sS'coets_1691_v1_1_0426.tif'
p315
(I2196
I3536
tp316
sS'coets_1691_v1_1_0164.tif'
p317
(I2206
I3530
tp318
sS'coets_1691_v1_1_0437.tif'
p319
(I2196
I3536
tp320
sS'coets_1691_v1_1_0409.tif'
p321
(I2196
I3536
tp322
sS'coets_1691_v1_1_0128.tif'
p323
(I2206
I3530
tp324
sS'coets_1691_v1_1_0141.tif'
p325
(I2206
I3530
tp326
sS'coets_1691_v1_1_0356.tif'
p327
(I2174
I3530
tp328
sS'coets_1691_v1_1_0215.tif'
p329
(I2184
I3526
tp330
sS'coets_1691_v1_1_0197.tif'
p331
(I2184
I3526
tp332
sS'coets_1691_v1_1_0400.tif'
p333
(I2174
I3530
tp334
sS'coets_1691_v1_1_0486.tif'
p335
(I2196
I3536
tp336
sS'coets_1691_v1_1_0186.tif'
p337
(I2206
I3530
tp338
sS'coets_1691_v1_1_0207.tif'
p339
(I2184
I3526
tp340
sS'coets_1691_v1_1_0251.tif'
p341
(I2184
I3526
tp342
sS'coets_1691_v1_1_0146.tif'
p343
(I2206
I3530
tp344
sS'coets_1691_v1_1_0023.tif'
p345
(I2224
I3530
tp346
sS'coets_1691_v1_1_0464.tif'
p347
(I2196
I3536
tp348
sS'coets_1691_v1_1_0052.tif'
p349
(I2224
I3530
tp350
sS'coets_1691_v1_1_0233.tif'
p351
(I2184
I3526
tp352
sS'coets_1691_v1_1_0135.tif'
p353
(I2206
I3530
tp354
sS'coets_1691_v1_1_0367.tif'
p355
(I2174
I3530
tp356
sS'coets_1691_v1_1_0315.tif'
p357
(I2174
I3530
tp358
sS'coets_1691_v1_1_0482.tif'
p359
(I2196
I3536
tp360
sS'coets_1691_v1_1_0113.tif'
p361
(I2206
I3530
tp362
sS'coets_1691_v1_1_0309.tif'
p363
(I2174
I3530
tp364
sS'coets_1691_v1_1_0223.tif'
p365
(I2184
I3526
tp366
sS'coets_1691_v1_1_0255.tif'
p367
(I2184
I3526
tp368
sS'coets_1691_v1_1_0346.tif'
p369
(I2174
I3530
tp370
sS'coets_1691_v1_1_0446.tif'
p371
(I2196
I3536
tp372
sS'coets_1691_v1_1_0311.tif'
p373
(I2174
I3530
tp374
sS'coets_1691_v1_1_0114.tif'
p375
(I2206
I3530
tp376
sS'coets_1691_v1_1_0036.tif'
p377
(I2224
I3530
tp378
sS'coets_1691_v1_1_0200.tif'
p379
(I2184
I3526
tp380
sS'coets_1691_v1_1_0054.tif'
p381
(I2224
I3530
tp382
sS'coets_1691_v1_1_0126.tif'
p383
(I2206
I3530
tp384
sS'coets_1691_v1_1_0483.tif'
p385
(I2196
I3536
tp386
sS'coets_1691_v1_1_0336.tif'
p387
(I2174
I3530
tp388
sS'coets_1691_v1_1_0474.tif'
p389
(I2196
I3536
tp390
sS'coets_1691_v1_1_0051.tif'
p391
(I2224
I3530
tp392
sS'coets_1691_v1_1_0428.tif'
p393
(I2196
I3536
tp394
sS'coets_1691_v1_1_0447.tif'
p395
(I2196
I3536
tp396
sS'coets_1691_v1_1_0430.tif'
p397
(I2196
I3536
tp398
sS'coets_1691_v1_1_0263.tif'
p399
(I2184
I3526
tp400
sS'coets_1691_v1_1_0312.tif'
p401
(I2174
I3530
tp402
sS'coets_1691_v1_1_0489.tif'
p403
(I2196
I3536
tp404
sS'coets_1691_v1_1_0444.tif'
p405
(I2196
I3536
tp406
sS'coets_1691_v1_1_0412.tif'
p407
(I2196
I3536
tp408
sS'coets_1691_v1_1_0478.tif'
p409
(I2196
I3536
tp410
sS'coets_1691_v1_1_0182.tif'
p411
(I2206
I3530
tp412
sS'coets_1691_v1_1_0177.tif'
p413
(I2206
I3530
tp414
sS'coets_1691_v1_1_0206.tif'
p415
(I2184
I3526
tp416
sS'coets_1691_v1_1_0335.tif'
p417
(I2174
I3530
tp418
sS'coets_1691_v1_1_0156.tif'
p419
(I2206
I3530
tp420
sS'coets_1691_v1_1_0440.tif'
p421
(I2196
I3536
tp422
sS'coets_1691_v1_1_0159.tif'
p423
(I2206
I3530
tp424
sS'coets_1691_v1_1_0145.tif'
p425
(I2206
I3530
tp426
sS'coets_1691_v1_1_0470.tif'
p427
(I2196
I3536
tp428
sS'coets_1691_v1_1_0404.tif'
p429
(I2180
I3538
tp430
sS'coets_1691_v1_1_0441.tif'
p431
(I2196
I3536
tp432
sS'coets_1691_v1_1_0222.tif'
p433
(I2184
I3526
tp434
sS'coets_1691_v1_1_0314.tif'
p435
(I2174
I3530
tp436
sS'coets_1691_v1_1_0328.tif'
p437
(I2174
I3530
tp438
sS'coets_1691_v1_1_0303.tif'
p439
(I2174
I3530
tp440
sS'coets_1691_v1_1_0271.tif'
p441
(I2184
I3526
tp442
sS'coets_1691_v1_1_0445.tif'
p443
(I2196
I3536
tp444
sS'coets_1691_v1_1_0037.tif'
p445
(I2224
I3530
tp446
sS'coets_1691_v1_1_0026.tif'
p447
(I2224
I3530
tp448
sS'coets_1691_v1_1_0253.tif'
p449
(I2184
I3526
tp450
sS'coets_1691_v1_1_0092.tif'
p451
(I2206
I3530
tp452
sS'coets_1691_v1_1_0365.tif'
p453
(I2174
I3530
tp454
sS'coets_1691_v1_1_0208.tif'
p455
(I2184
I3526
tp456
sS'coets_1691_v1_1_0178.tif'
p457
(I2206
I3530
tp458
sS'coets_1691_v1_1_0279.tif'
p459
(I2184
I3526
tp460
sS'coets_1691_v1_1_0150.tif'
p461
(I2206
I3530
tp462
sS'coets_1691_v1_1_0385.tif'
p463
(I2174
I3530
tp464
sS'coets_1691_v1_1_0021.tif'
p465
(I2224
I3530
tp466
sS'coets_1691_v1_1_0174.tif'
p467
(I2206
I3530
tp468
sS'coets_1691_v1_1_0448.tif'
p469
(I2196
I3536
tp470
sS'coets_1691_v1_1_0487.tif'
p471
(I2196
I3536
tp472
sS'coets_1691_v1_1_0070.tif'
p473
(I2224
I3530
tp474
sS'coets_1691_v1_1_0248.tif'
p475
(I2184
I3526
tp476
sS'coets_1691_v1_1_0193.tif'
p477
(I2206
I3530
tp478
sS'coets_1691_v1_1_0463.tif'
p479
(I2196
I3536
tp480
sS'coets_1691_v1_1_0183.tif'
p481
(I2206
I3530
tp482
sS'coets_1691_v1_1_0109.tif'
p483
(I2206
I3530
tp484
sS'coets_1691_v1_1_0278.tif'
p485
(I2184
I3526
tp486
sS'coets_1691_v1_1_0055.tif'
p487
(I2224
I3530
tp488
sS'coets_1691_v1_1_0265.tif'
p489
(I2184
I3526
tp490
sS'coets_1691_v1_1_0240.tif'
p491
(I2184
I3526
tp492
sS'coets_1691_v1_1_0436.tif'
p493
(I2196
I3536
tp494
sS'coets_1691_v1_1_0123.tif'
p495
(I2206
I3530
tp496
sS'coets_1691_v1_1_0476.tif'
p497
(I2196
I3536
tp498
sS'coets_1691_v1_1_0101.tif'
p499
(I2206
I3530
tp500
sS'coets_1691_v1_1_0401.tif'
p501
(I2174
I3530
tp502
sS'coets_1691_v1_1_0158.tif'
p503
(I2206
I3530
tp504
sS'coets_1691_v1_1_0167.tif'
p505
(I2206
I3530
tp506
sS'coets_1691_v1_1_0414.tif'
p507
(I2196
I3536
tp508
sS'coets_1691_v1_1_0391.tif'
p509
(I2174
I3530
tp510
sS'coets_1691_v1_1_0045.tif'
p511
(I2224
I3530
tp512
sS'coets_1691_v1_1_0333.tif'
p513
(I2174
I3530
tp514
sS'coets_1691_v1_1_0465.tif'
p515
(I2196
I3536
tp516
sS'coets_1691_v1_1_0438.tif'
p517
(I2196
I3536
tp518
sS'coets_1691_v1_1_0241.tif'
p519
(I2184
I3526
tp520
sS'coets_1691_v1_1_0289.tif'
p521
(I629
I956
tp522
sS'coets_1691_v1_1_0276.tif'
p523
(I2184
I3526
tp524
sS'coets_1691_v1_1_0403.tif'
p525
(I2196
I3536
tp526
sS'coets_1691_v1_1_0280.tif'
p527
(I2184
I3526
tp528
sS'coets_1691_v1_1_0194.tif'
p529
(I2184
I3526
tp530
sS'coets_1691_v1_1_0326.tif'
p531
(I2174
I3530
tp532
sS'coets_1691_v1_1_0242.tif'
p533
(I2184
I3526
tp534
sS'coets_1691_v1_1_0351.tif'
p535
(I2174
I3530
tp536
sS'coets_1691_v1_1_0149.tif'
p537
(I2206
I3530
tp538
sS'coets_1691_v1_1_0067.tif'
p539
(I2224
I3530
tp540
sS'coets_1691_v1_1_0383.tif'
p541
(I2174
I3530
tp542
sS'coets_1691_v1_1_0496.tif'
p543
(I2196
I3536
tp544
sS'coets_1691_v1_1_0456.tif'
p545
(I2196
I3536
tp546
sS'coets_1691_v1_1_0220.tif'
p547
(I2184
I3526
tp548
sS'coets_1691_v1_1_0368.tif'
p549
(I2174
I3530
tp550
sS'coets_1691_v1_1_0022.tif'
p551
(I2224
I3530
tp552
sS'coets_1691_v1_1_0293.tif'
p553
(I2184
I3526
tp554
sS'coets_1691_v1_1_0337.tif'
p555
(I2174
I3530
tp556
sS'coets_1691_v1_1_0361.tif'
p557
(I2174
I3530
tp558
sS'coets_1691_v1_1_0221.tif'
p559
(I2184
I3526
tp560
sS'coets_1691_v1_1_0259.tif'
p561
(I2184
I3526
tp562
sS'coets_1691_v1_1_0192.tif'
p563
(I2206
I3530
tp564
sS'coets_1691_v1_1_0189.tif'
p565
(I2206
I3530
tp566
sS'coets_1691_v1_1_0339.tif'
p567
(I2174
I3530
tp568
sS'coets_1691_v1_1_0243.tif'
p569
(I2184
I3526
tp570
sS'coets_1691_v1_1_0450.tif'
p571
(I2196
I3536
tp572
sS'coets_1691_v1_1_0125.tif'
p573
(I2206
I3530
tp574
sS'coets_1691_v1_1_0035.tif'
p575
(I2224
I3530
tp576
sS'coets_1691_v1_1_0235.tif'
p577
(I2184
I3526
tp578
sS'coets_1691_v1_1_0130.tif'
p579
(I2206
I3530
tp580
sS'coets_1691_v1_1_0049.tif'
p581
(I2224
I3530
tp582
sS'coets_1691_v1_1_0480.tif'
p583
(I2196
I3536
tp584
sS'coets_1691_v1_1_0057.tif'
p585
(I2224
I3530
tp586
sS'coets_1691_v1_1_0161.tif'
p587
(I2206
I3530
tp588
sS'coets_1691_v1_1_0039.tif'
p589
(I2224
I3530
tp590
sS'coets_1691_v1_1_0112.tif'
p591
(I2206
I3530
tp592
sS'coets_1691_v1_1_0407.tif'
p593
(I2196
I3536
tp594
sS'coets_1691_v1_1_0143.tif'
p595
(I2206
I3530
tp596
sS'coets_1691_v1_1_0228.tif'
p597
(I2184
I3526
tp598
sS'coets_1691_v1_1_0477.tif'
p599
(I2196
I3536
tp600
sS'coets_1691_v1_1_0209.tif'
p601
(I2184
I3526
tp602
sS'coets_1691_v1_1_0096.tif'
p603
(I2206
I3530
tp604
sS'coets_1691_v1_1_0121.tif'
p605
(I2206
I3530
tp606
sS'coets_1691_v1_1_0386.tif'
p607
(I2174
I3530
tp608
sS'coets_1691_v1_1_0234.tif'
p609
(I2184
I3526
tp610
sS'coets_1691_v1_1_0229.tif'
p611
(I2184
I3526
tp612
sS'coets_1691_v1_1_0270.tif'
p613
(I2184
I3526
tp614
sS'coets_1691_v1_1_0040.tif'
p615
(I2224
I3530
tp616
sS'coets_1691_v1_1_0176.tif'
p617
(I2206
I3530
tp618
sS'coets_1691_v1_1_0331.tif'
p619
(I2174
I3530
tp620
sS'coets_1691_v1_1_0364.tif'
p621
(I2174
I3530
tp622
sS'coets_1691_v1_1_0069.tif'
p623
(I2224
I3530
tp624
sS'coets_1691_v1_1_0357.tif'
p625
(I2174
I3530
tp626
sS'coets_1691_v1_1_0117.tif'
p627
(I2206
I3530
tp628
sS'coets_1691_v1_1_0384.tif'
p629
(I2174
I3530
tp630
sS'coets_1691_v1_1_0120.tif'
p631
(I2206
I3530
tp632
sS'coets_1691_v1_1_0138.tif'
p633
(I2206
I3530
tp634
sS'coets_1691_v1_1_0475.tif'
p635
(I2196
I3536
tp636
sS'coets_1691_v1_1_0377.tif'
p637
(I2174
I3530
tp638
sS'coets_1691_v1_1_0250.tif'
p639
(I2184
I3526
tp640
sS'coets_1691_v1_1_0366.tif'
p641
(I2174
I3530
tp642
sS'coets_1691_v1_1_0467.tif'
p643
(I2196
I3536
tp644
sS'coets_1691_v1_1_0429.tif'
p645
(I2196
I3536
tp646
sS'coets_1691_v1_1_0431.tif'
p647
(I2196
I3536
tp648
sS'coets_1691_v1_1_0091.tif'
p649
(I2224
I3530
tp650
sS'coets_1691_v1_1_0201.tif'
p651
(I2184
I3526
tp652
sS'coets_1691_v1_1_0254.tif'
p653
(I2184
I3526
tp654
sS'coets_1691_v1_1_0283.tif'
p655
(I2184
I3526
tp656
sS'coets_1691_v1_1_0453.tif'
p657
(I2196
I3536
tp658
sS'coets_1691_v1_1_0048.tif'
p659
(I2224
I3530
tp660
sS'coets_1691_v1_1_0406.tif'
p661
(I2196
I3536
tp662
sS'coets_1691_v1_1_0443.tif'
p663
(I2196
I3536
tp664
sS'coets_1691_v1_1_0325.tif'
p665
(I2174
I3530
tp666
sS'coets_1691_v1_1_0247.tif'
p667
(I2184
I3526
tp668
sS'coets_1691_v1_1_0435.tif'
p669
(I2196
I3536
tp670
sS'coets_1691_v1_1_0338.tif'
p671
(I2174
I3530
tp672
sS'coets_1691_v1_1_0140.tif'
p673
(I2206
I3530
tp674
sS'coets_1691_v1_1_0484.tif'
p675
(I2196
I3536
tp676
sS'coets_1691_v1_1_0097.tif'
p677
(I2206
I3530
tp678
sS'coets_1691_v1_1_0296.tif'
p679
(I2184
I3526
tp680
sS'coets_1691_v1_1_0499.tif'
p681
(I2196
I3536
tp682
sS'coets_1691_v1_1_0122.tif'
p683
(I2206
I3530
tp684
sS'coets_1691_v1_1_0460.tif'
p685
(I2196
I3536
tp686
sS'coets_1691_v1_1_0099.tif'
p687
(I2206
I3530
tp688
sS'coets_1691_v1_1_0313.tif'
p689
(I2174
I3530
tp690
sS'coets_1691_v1_1_0288.tif'
p691
(I2184
I3526
tp692
sS'coets_1691_v1_1_0449.tif'
p693
(I2196
I3536
tp694
sS'coets_1691_v1_1_0046.tif'
p695
(I2224
I3530
tp696
sS'coets_1691_v1_1_0075.tif'
p697
(I2224
I3530
tp698
sS'coets_1691_v1_1_0060.tif'
p699
(I2224
I3530
tp700
sS'coets_1691_v1_1_0292.tif'
p701
(I629
I956
tp702
sS'coets_1691_v1_1_0362.tif'
p703
(I2174
I3530
tp704
sS'coets_1691_v1_1_0024.tif'
p705
(I2224
I3530
tp706
sS'coets_1691_v1_1_0397.tif'
p707
(I2174
I3530
tp708
sS'coets_1691_v1_1_0330.tif'
p709
(I2174
I3530
tp710
sS'coets_1691_v1_1_0124.tif'
p711
(I2206
I3530
tp712
sS'coets_1691_v1_1_0133.tif'
p713
(I2206
I3530
tp714
sS'coets_1691_v1_1_0466.tif'
p715
(I2196
I3536
tp716
sS'coets_1691_v1_1_0169.tif'
p717
(I2206
I3530
tp718
sS'coets_1691_v1_1_0042.tif'
p719
(I2224
I3530
tp720
sS'coets_1691_v1_1_0068.tif'
p721
(I2224
I3530
tp722
sS'coets_1691_v1_1_0086.tif'
p723
(I2224
I3530
tp724
sS'coets_1691_v1_1_0442.tif'
p725
(I2196
I3536
tp726
sS'coets_1691_v1_1_0179.tif'
p727
(I2206
I3530
tp728
sS'coets_1691_v1_1_0025.tif'
p729
(I2224
I3530
tp730
sS'coets_1691_v1_1_0252.tif'
p731
(I2184
I3526
tp732
sS'coets_1691_v1_1_0033.tif'
p733
(I2224
I3530
tp734
sS'coets_1691_v1_1_0411.tif'
p735
(I2196
I3536
tp736
sS'coets_1691_v1_1_0043.tif'
p737
(I2224
I3530
tp738
sS'coets_1691_v1_1_0297.tif'
p739
(I2184
I3526
tp740
sS'coets_1691_v1_1_0286.tif'
p741
(I2184
I3526
tp742
sS'coets_1691_v1_1_0175.tif'
p743
(I2206
I3530
tp744
sS'coets_1691_v1_1_0433.tif'
p745
(I2196
I3536
tp746
sS'coets_1691_v1_1_0332.tif'
p747
(I2174
I3530
tp748
sS'coets_1691_v1_1_0232.tif'
p749
(I2184
I3526
tp750
sS'coets_1691_v1_1_0087.tif'
p751
(I2224
I3530
tp752
sS'coets_1691_v1_1_0468.tif'
p753
(I2196
I3536
tp754
sS'coets_1691_v1_1_0398.tif'
p755
(I2174
I3530
tp756
sS'coets_1691_v1_1_0419.tif'
p757
(I2196
I3536
tp758
sS'coets_1691_v1_1_0249.tif'
p759
(I2182
I3528
tp760
sS'coets_1691_v1_1_0493.tif'
p761
(I2196
I3536
tp762
sS'coets_1691_v1_1_0457.tif'
p763
(I2196
I3536
tp764
sS'coets_1691_v1_1_0277.tif'
p765
(I2184
I3526
tp766
sS'coets_1691_v1_1_0084.tif'
p767
(I2224
I3530
tp768
sS'coets_1691_v1_1_0168.tif'
p769
(I2206
I3530
tp770
sS'coets_1691_v1_1_0032.tif'
p771
(I2224
I3530
tp772
sS'coets_1691_v1_1_0394.tif'
p773
(I2174
I3530
tp774
sS'coets_1691_v1_1_0131.tif'
p775
(I2206
I3530
tp776
sS'coets_1691_v1_1_0310.tif'
p777
(I2174
I3530
tp778
sS'coets_1691_v1_1_0481.tif'
p779
(I2196
I3536
tp780
sS'coets_1691_v1_1_0066.tif'
p781
(I2224
I3530
tp782
sS'coets_1691_v1_1_0341.tif'
p783
(I2174
I3530
tp784
sS'coets_1691_v1_1_0373.tif'
p785
(I2174
I3530
tp786
sS'coets_1691_v1_1_0363.tif'
p787
(I2174
I3530
tp788
sS'coets_1691_v1_1_0245.tif'
p789
(I2184
I3526
tp790
sS'coets_1691_v1_1_0202.tif'
p791
(I2184
I3526
tp792
sS'coets_1691_v1_1_0418.tif'
p793
(I2196
I3536
tp794
sS'coets_1691_v1_1_0273.tif'
p795
(I2184
I3526
tp796
sS'coets_1691_v1_1_0405.tif'
p797
(I2196
I3536
tp798
sS'coets_1691_v1_1_0349.tif'
p799
(I2174
I3530
tp800
sS'coets_1691_v1_1_0139.tif'
p801
(I2206
I3530
tp802
sS'coets_1691_v1_1_0027.tif'
p803
(I2224
I3530
tp804
sS'coets_1691_v1_1_0151.tif'
p805
(I2206
I3530
tp806
sS'coets_1691_v1_1_0213.tif'
p807
(I2184
I3526
tp808
sS'coets_1691_v1_1_0387.tif'
p809
(I2174
I3530
tp810
sS'coets_1691_v1_1_0041.tif'
p811
(I2224
I3530
tp812
sS'coets_1691_v1_1_0137.tif'
p813
(I2206
I3530
tp814
sS'coets_1691_v1_1_0170.tif'
p815
(I2206
I3530
tp816
sS'coets_1691_v1_1_0085.tif'
p817
(I2234
I3536
tp818
sS'coets_1691_v1_1_0378.tif'
p819
(I2174
I3530
tp820
sS'coets_1691_v1_1_0132.tif'
p821
(I2206
I3530
tp822
sS'coets_1691_v1_1_0195.tif'
p823
(I2184
I3526
tp824
sS'coets_1691_v1_1_0348.tif'
p825
(I2174
I3530
tp826
sS'coets_1691_v1_1_0281.tif'
p827
(I2184
I3526
tp828
sS'coets_1691_v1_1_0416.tif'
p829
(I2196
I3536
tp830
sS'coets_1691_v1_1_0379.tif'
p831
(I2174
I3530
tp832
sS'coets_1691_v1_1_0030.tif'
p833
(I2224
I3530
tp834
sS'coets_1691_v1_1_0374.tif'
p835
(I2174
I3530
tp836
sS'coets_1691_v1_1_0422.tif'
p837
(I2196
I3536
tp838
sS'coets_1691_v1_1_0111.tif'
p839
(I2206
I3530
tp840
sS'coets_1691_v1_1_0047.tif'
p841
(I2224
I3530
tp842
sS'coets_1691_v1_1_0076.tif'
p843
(I2224
I3530
tp844
sS'coets_1691_v1_1_0308.tif'
p845
(I2174
I3530
tp846
sS'coets_1691_v1_1_0108.tif'
p847
(I2206
I3530
tp848
sS'coets_1691_v1_1_0498.tif'
p849
(I2196
I3536
tp850
sS'coets_1691_v1_1_0148.tif'
p851
(I2206
I3530
tp852
sS'coets_1691_v1_1_0173.tif'
p853
(I2206
I3530
tp854
sS'coets_1691_v1_1_0282.tif'
p855
(I2184
I3526
tp856
sS'coets_1691_v1_1_0459.tif'
p857
(I2196
I3536
tp858
sS'coets_1691_v1_1_0244.tif'
p859
(I2184
I3526
tp860
sS'coets_1691_v1_1_0372.tif'
p861
(I2174
I3530
tp862
sS'coets_1691_v1_1_0034.tif'
p863
(I2224
I3530
tp864
sS'coets_1691_v1_1_0369.tif'
p865
(I2174
I3530
tp866
sS'coets_1691_v1_1_0061.tif'
p867
(I2224
I3530
tp868
sS'coets_1691_v1_1_0352.tif'
p869
(I629
I956
tp870
sS'coets_1691_v1_1_0423.tif'
p871
(I2196
I3536
tp872
sS'coets_1691_v1_1_0019.tif'
p873
(I2224
I3530
tp874
sS'coets_1691_v1_1_0078.tif'
p875
(I2224
I3530
tp876
sS'coets_1691_v1_1_0038.tif'
p877
(I2224
I3530
tp878
sS'coets_1691_v1_1_0275.tif'
p879
(I2184
I3526
tp880
sS'coets_1691_v1_1_0343.tif'
p881
(I2174
I3530
tp882
sS'coets_1691_v1_1_0488.tif'
p883
(I2196
I3536
tp884
sS'coets_1691_v1_1_0295.tif'
p885
(I2184
I3526
tp886
sS'coets_1691_v1_1_0370.tif'
p887
(I2174
I3530
tp888
sS'coets_1691_v1_1_0455.tif'
p889
(I2196
I3536
tp890
sS'coets_1691_v1_1_0219.tif'
p891
(I2184
I3526
tp892
sS'coets_1691_v1_1_0381.tif'
p893
(I2174
I3530
tp894
sS'coets_1691_v1_1_0142.tif'
p895
(I2206
I3530
tp896
sS'coets_1691_v1_1_0323.tif'
p897
(I2174
I3530
tp898
sS'coets_1691_v1_1_0299.tif'
p899
(I2174
I3530
tp900
sS'coets_1691_v1_1_0074.tif'
p901
(I2224
I3530
tp902
sS'coets_1691_v1_1_0196.tif'
p903
(I629
I956
tp904
sS'coets_1691_v1_1_0469.tif'
p905
(I2196
I3536
tp906
sS'coets_1691_v1_1_0056.tif'
p907
(I2224
I3530
tp908
sS'coets_1691_v1_1_0262.tif'
p909
(I629
I956
tp910
sS'coets_1691_v1_1_0490.tif'
p911
(I2196
I3536
tp912
sS'coets_1691_v1_1_0236.tif'
p913
(I2184
I3526
tp914
sS'coets_1691_v1_1_0458.tif'
p915
(I2196
I3536
tp916
sS'coets_1691_v1_1_0081.tif'
p917
(I2224
I3530
tp918
sS'coets_1691_v1_1_0454.tif'
p919
(I2196
I3536
tp920
sS'coets_1691_v1_1_0136.tif'
p921
(I2206
I3530
tp922
sS'coets_1691_v1_1_0360.tif'
p923
(I2174
I3530
tp924
sS'coets_1691_v1_1_0305.tif'
p925
(I2174
I3530
tp926
sS'coets_1691_v1_1_0410.tif'
p927
(I2196
I3536
tp928
sS'coets_1691_v1_1_0088.tif'
p929
(I2224
I3530
tp930
sS'coets_1691_v1_1_0396.tif'
p931
(I2174
I3530
tp932
sS'coets_1691_v1_1_0127.tif'
p933
(I2206
I3530
tp934
sS'coets_1691_v1_1_0172.tif'
p935
(I2206
I3530
tp936
sS'coets_1691_v1_1_0072.tif'
p937
(I2224
I3530
tp938
sS'coets_1691_v1_1_0100.tif'
p939
(I2206
I3530
tp940
sS'coets_1691_v1_1_0211.tif'
p941
(I2184
I3526
tp942
sS'coets_1691_v1_1_0268.tif'
p943
(I2184
I3526
tp944
sS'coets_1691_v1_1_0077.tif'
p945
(I2224
I3530
tp946
sS'coets_1691_v1_1_0090.tif'
p947
(I2224
I3530
tp948
sS'coets_1691_v1_1_0304.tif'
p949
(I2174
I3530
tp950
sS'coets_1691_v1_1_0355.tif'
p951
(I2174
I3530
tp952
sS'coets_1691_v1_1_0231.tif'
p953
(I2184
I3526
tp954
sS'coets_1691_v1_1_0461.tif'
p955
(I2196
I3536
tp956
sS'coets_1691_v1_1_0307.tif'
p957
(I2174
I3530
tp958
sS'coets_1691_v1_1_0434.tif'
p959
(I2196
I3536
tp960
s.