(lp0
I10
aI21
aI19
aI23
aI13
aI21
aI71
aI1
aI2
aI11
aI8
aI5
aI5
aI1
aI16
aI2
aI33
aI50
aI18
aI19
aI3
aI2
aI13
aI9
aI1
aI7
aI3
aI10
aI12
aI8
aI11
aI11
aI15
aI16
aI31
aI11
aI24
aI2
aI51
aI1
aI15
aI15
aI9
aI12
aI10
aI32
aI23
aI13
aI18
aI13
aI26
aI21
aI17
a.