(dp0
S'euclideselement00archgoog_0139'
p1
cnumpy.core.multiarray
scalar
p2
(cnumpy
dtype
p3
(S'f8'
p4
I0
I1
tp5
Rp6
(I3
S'<'
p7
NNNI-1
I-1
I0
tp8
bS'H\xd3t\xd9~\xe89?'
p9
tp10
Rp11
sS'euclideselement00archgoog_0138'
p12
g2
(g6
S'\r\xfb\x1a1\x90IA?'
p13
tp14
Rp15
sS'euclideselement00archgoog_0131'
p16
g2
(g6
S'\x83\xc13P\xaa\xae??'
p17
tp18
Rp19
sS'euclideselement00archgoog_0130'
p20
g2
(g6
S'\x98^z\xda\\o=?'
p21
tp22
Rp23
sS'euclideselement00archgoog_0133'
p24
g2
(g6
S'T\x1d\xae{HkA?'
p25
tp26
Rp27
sS'euclideselement00archgoog_0132'
p28
g2
(g6
S'\x01R(\x83T\xad5?'
p29
tp30
Rp31
sS'euclideselement00archgoog_0135'
p32
g2
(g6
S'{JL\x8a*)>?'
p33
tp34
Rp35
sS'euclideselement00archgoog_0134'
p36
g2
(g6
S'\xc7S\x89\x8ec\xd9A?'
p37
tp38
Rp39
sS'euclideselement00archgoog_0137'
p40
g2
(g6
S'\xd5U\xb0\xf7\x99uB?'
p41
tp42
Rp43
sS'euclideselement00archgoog_0136'
p44
g2
(g6
S'\x1f~&\x10/\x08B?'
p45
tp46
Rp47
sS'euclideselement00archgoog_0298'
p48
g2
(g6
S'8\xf83|\xbdjA?'
p49
tp50
Rp51
sS'euclideselement00archgoog_0299'
p52
g2
(g6
S'\xf4@g\xee\xb1\xdc=?'
p53
tp54
Rp55
sS'euclideselement00archgoog_0290'
p56
g2
(g6
S'}\x9f\xb7\x9et\xbe4?'
p57
tp58
Rp59
sS'euclideselement00archgoog_0291'
p60
g2
(g6
S'\t{bpL%A?'
p61
tp62
Rp63
sS'euclideselement00archgoog_0292'
p64
g2
(g6
S'*\xc89\xbe\xad\x00@?'
p65
tp66
Rp67
sS'euclideselement00archgoog_0293'
p68
g2
(g6
S'\xa0/\xa6\xfd\xf0\xee<?'
p69
tp70
Rp71
sS'euclideselement00archgoog_0294'
p72
g2
(g6
S'0g\xdf\x0c"\x9c@?'
p73
tp74
Rp75
sS'euclideselement00archgoog_0295'
p76
g2
(g6
S'\xaa!!\x1a0PA?'
p77
tp78
Rp79
sS'euclideselement00archgoog_0296'
p80
g2
(g6
S'\x95\xee\xb3$$r;?'
p81
tp82
Rp83
sS'euclideselement00archgoog_0297'
p84
g2
(g6
S'E\xe5\x1dU\x1a\x01:?'
p85
tp86
Rp87
sS'euclideselement00archgoog_0225'
p88
g2
(g6
S'h\x1fM\x16+\x1fA?'
p89
tp90
Rp91
sS'euclideselement00archgoog_0224'
p92
g2
(g6
S'\xd5\x0fo\xc1N6B?'
p93
tp94
Rp95
sS'euclideselement00archgoog_0227'
p96
g2
(g6
S'\n\xd9<\xcb\xc0p>?'
p97
tp98
Rp99
sS'euclideselement00archgoog_0226'
p100
g2
(g6
S'N \xecx\x92\xa8??'
p101
tp102
Rp103
sS'euclideselement00archgoog_0221'
p104
g2
(g6
S'\xaan\x1e\xadm\x11??'
p105
tp106
Rp107
sS'euclideselement00archgoog_0220'
p108
g2
(g6
S'B\xde\xf1a \xd3C?'
p109
tp110
Rp111
sS'euclideselement00archgoog_0223'
p112
g2
(g6
S'\x99\xa7-D\xdd\xd0A?'
p113
tp114
Rp115
sS'euclideselement00archgoog_0222'
p116
g2
(g6
S'\xa0x\xa5\x7f\x01\xa8B?'
p117
tp118
Rp119
sS'euclideselement00archgoog_0184'
p120
g2
(g6
S'\xc8S\x89\x8ec\xd9A?'
p121
tp122
Rp123
sS'euclideselement00archgoog_0185'
p124
g2
(g6
S'\xeca\x90\x0b\x84]B?'
p125
tp126
Rp127
sS'euclideselement00archgoog_0186'
p128
g2
(g6
S'\xf9\xa2\xb0\x84\xa1\xf7:?'
p129
tp130
Rp131
sS'euclideselement00archgoog_0187'
p132
g2
(g6
S'\xb4>2\xaei\x93:?'
p133
tp134
Rp135
sS'euclideselement00archgoog_0180'
p136
g2
(g6
S'\xbdS\xcd\x93\x98*A?'
p137
tp138
Rp139
sS'euclideselement00archgoog_0181'
p140
g2
(g6
S'l\xb0\xf7U\x12\x8f@?'
p141
tp142
Rp143
sS'euclideselement00archgoog_0182'
p144
g2
(g6
S'\x1a@\xb3\t\x1fg9?'
p145
tp146
Rp147
sS'euclideselement00archgoog_0183'
p148
g2
(g6
S'\xf1~\x1a\xac?\x01??'
p149
tp150
Rp151
sS'euclideselement00archgoog_0348'
p152
g2
(g6
S'*\x11R\xa5yQ??'
p153
tp154
Rp155
sS'euclideselement00archgoog_0349'
p156
g2
(g6
S',\x0e\x7fE\xd4\xf67?'
p157
tp158
Rp159
sS'euclideselement00archgoog_0342'
p160
g2
(g6
S'\x1d\xc2\x10IC\xb77?'
p161
tp162
Rp163
sS'euclideselement00archgoog_0343'
p164
g2
(g6
S'{\x8ab\xcfB\xbd9?'
p165
tp166
Rp167
sS'euclideselement00archgoog_0340'
p168
g2
(g6
S'\x9dC\xfa\xf8\x95d;?'
p169
tp170
Rp171
sS'euclideselement00archgoog_0341'
p172
g2
(g6
S'S \x94\xca\xf2\x9e>?'
p173
tp174
Rp175
sS'euclideselement00archgoog_0346'
p176
g2
(g6
S'\xf7\x01T\xe4f{??'
p177
tp178
Rp179
sS'euclideselement00archgoog_0347'
p180
g2
(g6
S'\xfd\xbfU\xba7<>?'
p181
tp182
Rp183
sS'euclideselement00archgoog_0344'
p184
g2
(g6
S'\xf1\xef.\xce\xae\xf5:?'
p185
tp186
Rp187
sS'euclideselement00archgoog_0345'
p188
g2
(g6
S'\xe6\x01\xdc\xac3j>?'
p189
tp190
Rp191
sS'euclideselement00archgoog_0041'
p192
g2
(g6
S'\xfa\xee\x04\xf21\xb3>?'
p193
tp194
Rp195
sS'euclideselement00archgoog_0040'
p196
g2
(g6
S'[[\x02\xf7\xd1!A?'
p197
tp198
Rp199
sS'euclideselement00archgoog_0043'
p200
g2
(g6
S'\x93I\x8e\x9a\xbbdA?'
p201
tp202
Rp203
sS'euclideselement00archgoog_0042'
p204
g2
(g6
S'>&|\xba\xf8P@?'
p205
tp206
Rp207
sS'euclideselement00archgoog_0045'
p208
g2
(g6
S'8t\x1dE\xaf\x87\x14?'
p209
tp210
Rp211
sS'euclideselement00archgoog_0044'
p212
g2
(g6
S'\xf8\xa11\xb0\xe2\x90??'
p213
tp214
Rp215
sS'euclideselement00archgoog_0047'
p216
g2
(g6
S'Q\xf4*84\xdc@?'
p217
tp218
Rp219
sS'euclideselement00archgoog_0046'
p220
g2
(g6
S'\x00\x7f\xb2\x8b\x9a\x13??'
p221
tp222
Rp223
sS'euclideselement00archgoog_0049'
p224
g2
(g6
S'\x80\xeb\x83y\xf3uC?'
p225
tp226
Rp227
sS'euclideselement00archgoog_0048'
p228
g2
(g6
S"\x94Uj\x13\x11'@?"
p229
tp230
Rp231
sS'euclideselement00archgoog_0140'
p232
g2
(g6
S'q\x9c\xfd\xf5@UC?'
p233
tp234
Rp235
sS'euclideselement00archgoog_0141'
p236
g2
(g6
S'\xfdq\x8a\x01zqA?'
p237
tp238
Rp239
sS'euclideselement00archgoog_0142'
p240
g2
(g6
S'),u\xa4\x18\xdc<?'
p241
tp242
Rp243
sS'euclideselement00archgoog_0143'
p244
g2
(g6
S'\x84D%\xb7\x18g??'
p245
tp246
Rp247
sS'euclideselement00archgoog_0144'
p248
g2
(g6
S'g\x1f3b\xe4^B?'
p249
tp250
Rp251
sS'euclideselement00archgoog_0145'
p252
g2
(g6
S'\xd9\xde\x84,\xe5\x9eA?'
p253
tp254
Rp255
sS'euclideselement00archgoog_0146'
p256
g2
(g6
S'\x0e\x93H\xfcqG>?'
p257
tp258
Rp259
sS'euclideselement00archgoog_0147'
p260
g2
(g6
S'\xb7O\xf7\xb6\xc1OA?'
p261
tp262
Rp263
sS'euclideselement00archgoog_0148'
p264
g2
(g6
S'\xa5?\xfd\xc0\xcb;B?'
p265
tp266
Rp267
sS'euclideselement00archgoog_0149'
p268
g2
(g6
S'\x97-\xf6\xd9\xcf\x91C?'
p269
tp270
Rp271
sS'euclideselement00archgoog_0269'
p272
g2
(g6
S'E+fj\x85 B?'
p273
tp274
Rp275
sS'euclideselement00archgoog_0268'
p276
g2
(g6
S'\xc9%\xa9\xf1\x8b\xe48?'
p277
tp278
Rp279
sS'euclideselement00archgoog_0261'
p280
g2
(g6
S'\xc8\xa5W\x1e\xf6t@?'
p281
tp282
Rp283
sS'euclideselement00archgoog_0260'
p284
g2
(g6
S'Ai\xd7B\xfc%@?'
p285
tp286
Rp287
sS'euclideselement00archgoog_0263'
p288
g2
(g6
S'\xa0/\xa6\xfd\xf0\xee<?'
p289
tp290
Rp291
sS'euclideselement00archgoog_0262'
p292
g2
(g6
S'\x1e_\x7fO\xa3%9?'
p293
tp294
Rp295
sS'euclideselement00archgoog_0265'
p296
g2
(g6
S'\x96s\xe6\xe4%A8?'
p297
tp298
Rp299
sS'euclideselement00archgoog_0264'
p300
g2
(g6
S'\xdb\xc4\xd0\xb3\xe0n;?'
p301
tp302
Rp303
sS'euclideselement00archgoog_0267'
p304
g2
(g6
S'\xa0/\xa6\xfd\xf0\xee<?'
p305
tp306
Rp307
sS'euclideselement00archgoog_0266'
p308
g2
(g6
S'\xe2\xf9\xd77=g<?'
p309
tp310
Rp311
sS'euclideselement00archgoog_0315'
p312
g2
(g6
S'\x14l\xa0\x87Bc@?'
p313
tp314
Rp315
sS'euclideselement00archgoog_0314'
p316
g2
(g6
S'\xaf\xc2\xe2j\xd5\xf4>?'
p317
tp318
Rp319
sS'euclideselement00archgoog_0317'
p320
g2
(g6
S'\x9e\xdb\x17J\xc0?<?'
p321
tp322
Rp323
sS'euclideselement00archgoog_0316'
p324
g2
(g6
S'|\x95R\x1eq ;?'
p325
tp326
Rp327
sS'euclideselement00archgoog_0311'
p328
g2
(g6
S"\x99\x82\xcf\xf8\xc0\x1d'?"
p329
tp330
Rp331
sS'euclideselement00archgoog_0310'
p332
g2
(g6
S'_-\x08\x04#\xf2;?'
p333
tp334
Rp335
sS'euclideselement00archgoog_0313'
p336
g2
(g6
S'\x0eI\xedr\xa0J>?'
p337
tp338
Rp339
sS'euclideselement00archgoog_0312'
p340
g2
(g6
S'l\xe9\xfd&%\xd4??'
p341
tp342
Rp343
sS'euclideselement00archgoog_0319'
p344
g2
(g6
S'th\x97\xe2\x9f\x8a>?'
p345
tp346
Rp347
sS'euclideselement00archgoog_0318'
p348
g2
(g6
S'O]\xa59\xee\xf4C?'
p349
tp350
Rp351
sS'euclideselement00archgoog_0129'
p352
g2
(g6
S'\xc5Q\x1e \xf8\xebA?'
p353
tp354
Rp355
sS'euclideselement00archgoog_0085'
p356
g2
(g6
S'sza\xdaCOB?'
p357
tp358
Rp359
sS'euclideselement00archgoog_0084'
p360
g2
(g6
S"'\xbe&\xb9\x1e\x81A?"
p361
tp362
Rp363
sS'euclideselement00archgoog_0087'
p364
g2
(g6
S'6}\xa5\xd5\xe4\x9b<?'
p365
tp366
Rp367
sS'euclideselement00archgoog_0086'
p368
g2
(g6
S"]\r'X\x06\xf0>?"
p369
tp370
Rp371
sS'euclideselement00archgoog_0081'
p372
g2
(g6
S'\x7f.\x0c\xdb0\xb7A?'
p373
tp374
Rp375
sS'euclideselement00archgoog_0080'
p376
g2
(g6
S'\xfb\xca\xaa\x9bFg@?'
p377
tp378
Rp379
sS'euclideselement00archgoog_0083'
p380
g2
(g6
S'\x98e#\xb0Mi@?'
p381
tp382
Rp383
sS'euclideselement00archgoog_0082'
p384
g2
(g6
S'\x823r:\xdf\x08>?'
p385
tp386
Rp387
sS'euclideselement00archgoog_0089'
p388
g2
(g6
S'\xf96r\xd4\xd2\x83A?'
p389
tp390
Rp391
sS'euclideselement00archgoog_0088'
p392
g2
(g6
S'\xf4 K{k\xe0A?'
p393
tp394
Rp395
sS'euclideselement00archgoog_0038'
p396
g2
(g6
S'\xca\xeaF\xfcU\x85B?'
p397
tp398
Rp399
sS'euclideselement00archgoog_0039'
p400
g2
(g6
S'=\x85_\x1d\xb3\x9b??'
p401
tp402
Rp403
sS'euclideselement00archgoog_0030'
p404
g2
(g6
S's\xaa\x97\xa9\x84]??'
p405
tp406
Rp407
sS'euclideselement00archgoog_0031'
p408
g2
(g6
S'\xeb0\x0f\x113j>?'
p409
tp410
Rp411
sS'euclideselement00archgoog_0032'
p412
g2
(g6
S'\xe1\x8e\xaeE\xc6%=?'
p413
tp414
Rp415
sS'euclideselement00archgoog_0033'
p416
g2
(g6
S'\x8e\xb7\xe6k\x8bb@?'
p417
tp418
Rp419
sS'euclideselement00archgoog_0034'
p420
g2
(g6
S'l8\xa7\xc1m"9?'
p421
tp422
Rp423
sS'euclideselement00archgoog_0035'
p424
g2
(g6
S'(\xebB\xb4T\xdc5?'
p425
tp426
Rp427
sS'euclideselement00archgoog_0036'
p428
g2
(g6
S'\x80p\x8c\xdf\xf1\xe8<?'
p429
tp430
Rp431
sS'euclideselement00archgoog_0037'
p432
g2
(g6
S'\xe1\x8e\xaeE\xc6%=?'
p433
tp434
Rp435
sS'euclideselement00archgoog_0423'
p436
g2
(g6
S'\xff\x9eV%\xa0\x9c=?'
p437
tp438
Rp439
sS'euclideselement00archgoog_0422'
p440
g2
(g6
S'\xdf\xba\xc7\xcb\x86f=?'
p441
tp442
Rp443
sS'euclideselement00archgoog_0421'
p444
g2
(g6
S'a\x0b\x14\x8c\xc8\xcf3?'
p445
tp446
Rp447
sS'euclideselement00archgoog_0420'
p448
g2
(g6
S'\x0b\x1bZ\xd1A\x1e;?'
p449
tp450
Rp451
sS'euclideselement00archgoog_0425'
p452
g2
(g6
S'\x9dC\xfa\xf8\x95d;?'
p453
tp454
Rp455
sS'euclideselement00archgoog_0424'
p456
g2
(g6
S'\xc8\x87+\xe9\x0307?'
p457
tp458
Rp459
sS'euclideselement00archgoog_0188'
p460
g2
(g6
S'\xdf\xef\xa6\xaeL\xb8??'
p461
tp462
Rp463
sS'euclideselement00archgoog_0189'
p464
g2
(g6
S'K#\xd5NZ-@?'
p465
tp466
Rp467
sS'euclideselement00archgoog_0104'
p468
g2
(g6
S'\xf5g\xb0\x00\x90\xa1A?'
p469
tp470
Rp471
sS'euclideselement00archgoog_0105'
p472
g2
(g6
S'\x18\xfa\xc2\x1b\xf5\xd6A?'
p473
tp474
Rp475
sS'euclideselement00archgoog_0106'
p476
g2
(g6
S'?a\x05\xc7\xc7OA?'
p477
tp478
Rp479
sS'euclideselement00archgoog_0107'
p480
g2
(g6
S'Y\xd3\xa5\xa8\xb3\x00A?'
p481
tp482
Rp483
sS'euclideselement00archgoog_0100'
p484
g2
(g6
S'\xd5\xc8\xb9\x0fY\x9a??'
p485
tp486
Rp487
sS'euclideselement00archgoog_0101'
p488
g2
(g6
S'\x99\xdb5\xc9\xebfB?'
p489
tp490
Rp491
sS'euclideselement00archgoog_0102'
p492
g2
(g6
S'\xd2Y\x1d\x10b\r@?'
p493
tp494
Rp495
sS'euclideselement00archgoog_0103'
p496
g2
(g6
S'x\xd4v\xc9\x9b\xb7A?'
p497
tp498
Rp499
sS'euclideselement00archgoog_0108'
p500
g2
(g6
S'\xcd[\xd7\xca\xab7A?'
p501
tp502
Rp503
sS'euclideselement00archgoog_0109'
p504
g2
(g6
S'K4\x99S\\\xef=?'
p505
tp506
Rp507
sS'euclideselement00archgoog_0229'
p508
g2
(g6
S'\xc3C\x9dkR\x96@?'
p509
tp510
Rp511
sS'euclideselement00archgoog_0228'
p512
g2
(g6
S'\xc7\x97a)\xbay@?'
p513
tp514
Rp515
sS'euclideselement00archgoog_0287'
p516
g2
(g6
S'\xf9\x12?\x81\x8f\x11@?'
p517
tp518
Rp519
sS'euclideselement00archgoog_0286'
p520
g2
(g6
S'\x14\xa3\x85<\xd3nA?'
p521
tp522
Rp523
sS'euclideselement00archgoog_0285'
p524
g2
(g6
S'|U\xfb\x07<X??'
p525
tp526
Rp527
sS'euclideselement00archgoog_0284'
p528
g2
(g6
S'\xe2\xf9\xd77=g<?'
p529
tp530
Rp531
sS'euclideselement00archgoog_0283'
p532
g2
(g6
S'\xda?\xc8R\xf9G6?'
p533
tp534
Rp535
sS'euclideselement00archgoog_0282'
p536
g2
(g6
S'\xf5\xd3\x9f\x82u\x02>?'
p537
tp538
Rp539
sS'euclideselement00archgoog_0281'
p540
g2
(g6
S'\xbcC\xb6\x93<\xca9?'
p541
tp542
Rp543
sS'euclideselement00archgoog_0280'
p544
g2
(g6
S'\x1c\x93\xc2!\xe6\xee;?'
p545
tp546
Rp547
sS'euclideselement00archgoog_0289'
p548
g2
(g6
S'4L\xbd2\xe1%<?'
p549
tp550
Rp551
sS'euclideselement00archgoog_0288'
p552
g2
(g6
S'\x97\xee\xb3$$r;?'
p553
tp554
Rp555
sS'euclideselement00archgoog_0210'
p556
g2
(g6
S'\x8a\xaaHx\x96*C?'
p557
tp558
Rp559
sS'euclideselement00archgoog_0211'
p560
g2
(g6
S'q\xa8e\x14\x95\xdfA?'
p561
tp562
Rp563
sS'euclideselement00archgoog_0212'
p564
g2
(g6
S'\xcbj0aB\x0c??'
p565
tp566
Rp567
sS'euclideselement00archgoog_0213'
p568
g2
(g6
S'\xe0\xe6\xd2h-\xfd@?'
p569
tp570
Rp571
sS'euclideselement00archgoog_0214'
p572
g2
(g6
S'\xad\xc2L\xa5\x9fKB?'
p573
tp574
Rp575
sS'euclideselement00archgoog_0215'
p576
g2
(g6
S'\x07\xf3\xcc\xf4G\xebA?'
p577
tp578
Rp579
sS'euclideselement00archgoog_0216'
p580
g2
(g6
S'2\x15\x8a\xcc\x04X@?'
p581
tp582
Rp583
sS'euclideselement00archgoog_0217'
p584
g2
(g6
S'\xdbe\xee\xf2\xc4\xda@?'
p585
tp586
Rp587
sS'euclideselement00archgoog_0218'
p588
g2
(g6
S'\x81%\x8e%W-C?'
p589
tp590
Rp591
sS'euclideselement00archgoog_0219'
p592
g2
(g6
S'H\x15\x02\xc2\x9a\xb5A?'
p593
tp594
Rp595
sS'euclideselement00archgoog_0191'
p596
g2
(g6
S':\x0b\xeb\x99\x81\x12B?'
p597
tp598
Rp599
sS'euclideselement00archgoog_0190'
p600
g2
(g6
S'\x05\x16~h\x15Q=?'
p601
tp602
Rp603
sS'euclideselement00archgoog_0197'
p604
g2
(g6
S'\n\x12d\x86\t%>?'
p605
tp606
Rp607
sS'euclideselement00archgoog_0196'
p608
g2
(g6
S'\x07\xa1_\x8ef\x10<?'
p609
tp610
Rp611
sS'euclideselement00archgoog_0195'
p612
g2
(g6
S'\xfdq\x8a\x01zqA?'
p613
tp614
Rp615
sS'euclideselement00archgoog_0194'
p616
g2
(g6
S'\xb394k\x1f\xd1C?'
p617
tp618
Rp619
sS'euclideselement00archgoog_0359'
p620
g2
(g6
S'\x04S``Bn>?'
p621
tp622
Rp623
sS'euclideselement00archgoog_0358'
p624
g2
(g6
S'o\x15\xa6\x90\xdd\x8bB?'
p625
tp626
Rp627
sS'euclideselement00archgoog_0351'
p628
g2
(g6
S'\xa2HT\x14z\xa0:?'
p629
tp630
Rp631
sS'euclideselement00archgoog_0350'
p632
g2
(g6
S'\xc2\x12Mx\xebB@?'
p633
tp634
Rp635
sS'euclideselement00archgoog_0353'
p636
g2
(g6
S'-\xc4S\xa0\x1b!@?'
p637
tp638
Rp639
sS'euclideselement00archgoog_0352'
p640
g2
(g6
S'\x17\xdb\xe2bQ\xc0A?'
p641
tp642
Rp643
sS'euclideselement00archgoog_0355'
p644
g2
(g6
S'/\x01\x01v\xc3\x00B?'
p645
tp646
Rp647
sS'euclideselement00archgoog_0354'
p648
g2
(g6
S'\x95\x8a\x96\xa2\x0fW;?'
p649
tp650
Rp651
sS'euclideselement00archgoog_0357'
p652
g2
(g6
S'\x80W\xfa\xbf\x8c E?'
p653
tp654
Rp655
sS'euclideselement00archgoog_0356'
p656
g2
(g6
S'(\xb0cj\xbeB4?'
p657
tp658
Rp659
sS'euclideselement00archgoog_0078'
p660
g2
(g6
S'O\xdd\xfb\x81P)>?'
p661
tp662
Rp663
sS'euclideselement00archgoog_0079'
p664
g2
(g6
S'\xf9<\xe0\x90\xfd\xe4@?'
p665
tp666
Rp667
sS'euclideselement00archgoog_0074'
p668
g2
(g6
S'l\x17g?\x8d\x89C?'
p669
tp670
Rp671
sS'euclideselement00archgoog_0075'
p672
g2
(g6
S'8t\x1dE\xaf\x87D?'
p673
tp674
Rp675
sS'euclideselement00archgoog_0076'
p676
g2
(g6
S'\xd2\x9a\x14\xd9[m@?'
p677
tp678
Rp679
sS'euclideselement00archgoog_0077'
p680
g2
(g6
S'PW\xac\xc4E\x01>?'
p681
tp682
Rp683
sS'euclideselement00archgoog_0070'
p684
g2
(g6
S'\x93I\x8e\x9a\xbbdA?'
p685
tp686
Rp687
sS'euclideselement00archgoog_0071'
p688
g2
(g6
S'[[\x02\xf7\xd1!A?'
p689
tp690
Rp691
sS'euclideselement00archgoog_0072'
p692
g2
(g6
S'C\xa1\xf42E\xa0>?'
p693
tp694
Rp695
sS'euclideselement00archgoog_0073'
p696
g2
(g6
S'\x9f\xfd8\x9b\xa8\xcc@?'
p697
tp698
Rp699
sS'euclideselement00archgoog_0371'
p700
g2
(g6
S'\xf1\xef.\xce\xae\xf5:?'
p701
tp702
Rp703
sS'euclideselement00archgoog_0370'
p704
g2
(g6
S'$\x98F\x07\xb9%;?'
p705
tp706
Rp707
sS'euclideselement00archgoog_0418'
p708
g2
(g6
S'\x03S``Bn>?'
p709
tp710
Rp711
sS'euclideselement00archgoog_0419'
p712
g2
(g6
S'\x8e\xdb*\xe7\xb789?'
p713
tp714
Rp715
sS'euclideselement00archgoog_0412'
p716
g2
(g6
S'\xdeso\x86s\xeb<?'
p717
tp718
Rp719
sS'euclideselement00archgoog_0413'
p720
g2
(g6
S'+H\x0c\x90\x13(3?'
p721
tp722
Rp723
sS'euclideselement00archgoog_0410'
p724
g2
(g6
S'\xcd\xf9X,*~F?'
p725
tp726
Rp727
sS'euclideselement00archgoog_0411'
p728
g2
(g6
S'\xa8\x13!\xe5\x1e\xabN?'
p729
tp730
Rp731
sS'euclideselement00archgoog_0416'
p732
g2
(g6
S'\xd1@\x8f?\x8a=7?'
p733
tp734
Rp735
sS'euclideselement00archgoog_0417'
p736
g2
(g6
S'v;\xdd\x0e\xa6\xab2?'
p737
tp738
Rp739
sS'euclideselement00archgoog_0414'
p740
g2
(g6
S'>\xc4\xcb\xd7N2A?'
p741
tp742
Rp743
sS'euclideselement00archgoog_0415'
p744
g2
(g6
S'L\xd6\xac\x89\xa0@6?'
p745
tp746
Rp747
sS'euclideselement00archgoog_0379'
p748
g2
(g6
S'P\xd4\xe1i\xfb\xe7>?'
p749
tp750
Rp751
sS'euclideselement00archgoog_0378'
p752
g2
(g6
S'\x13\x0c\x80Rb\x04??'
p753
tp754
Rp755
sS'euclideselement00archgoog_0128'
p756
g2
(g6
S'/\x01\x01v\xc3\x00B?'
p757
tp758
Rp759
sS'euclideselement00archgoog_0254'
p760
g2
(g6
S'\xee\x07\xa06\x9c\xdc;?'
p761
tp762
Rp763
sS'euclideselement00archgoog_0255'
p764
g2
(g6
S'\x8b`1U\x0e\xdf=?'
p765
tp766
Rp767
sS'euclideselement00archgoog_0256'
p768
g2
(g6
S'<\xcbV\xee[\xdc:?'
p769
tp770
Rp771
sS'euclideselement00archgoog_0257'
p772
g2
(g6
S'UM\xa7\xb4c><?'
p773
tp774
Rp775
sS'euclideselement00archgoog_0250'
p776
g2
(g6
S'\\\x95\xf7a.8??'
p777
tp778
Rp779
sS'euclideselement00archgoog_0251'
p780
g2
(g6
S'\x13\x90\xaeZ+\x14=?'
p781
tp782
Rp783
sS'euclideselement00archgoog_0159'
p784
g2
(g6
S'+\t\xc40KvA?'
p785
tp786
Rp787
sS'euclideselement00archgoog_0253'
p788
g2
(g6
S'\x161\xcd\x04\xa5\xd99?'
p789
tp790
Rp791
sS'euclideselement00archgoog_0157'
p792
g2
(g6
S'\xc0rd%Zd=?'
p793
tp794
Rp795
sS'euclideselement00archgoog_0156'
p796
g2
(g6
S'\xa4\xb8\x93\xfa\xeb\xffB?'
p797
tp798
Rp799
sS'euclideselement00archgoog_0155'
p800
g2
(g6
S'\x01\x95\x99\xf2\xac.=?'
p801
tp802
Rp803
sS'euclideselement00archgoog_0154'
p804
g2
(g6
S'\x9eRp9n<??'
p805
tp806
Rp807
sS'euclideselement00archgoog_0153'
p808
g2
(g6
S'l\xb9\xcb\x9b1J??'
p809
tp810
Rp811
sS'euclideselement00archgoog_0152'
p812
g2
(g6
S'\t\xf1\xbf\x03BUB?'
p813
tp814
Rp815
sS'euclideselement00archgoog_0151'
p816
g2
(g6
S'\x15\x12 \x81\xd4\xd3>?'
p817
tp818
Rp819
sS'euclideselement00archgoog_0150'
p820
g2
(g6
S'\x14\x97\x1e\xd9H">?'
p821
tp822
Rp823
sS'euclideselement00archgoog_0120'
p824
g2
(g6
S'!\xfd\x9f\x17,=B?'
p825
tp826
Rp827
sS'euclideselement00archgoog_0320'
p828
g2
(g6
S'\xe2t\xa5w;\x98??'
p829
tp830
Rp831
sS'euclideselement00archgoog_0321'
p832
g2
(g6
S"\xf7'd@\xdd\xe5=?"
p833
tp834
Rp835
sS'euclideselement00archgoog_0322'
p836
g2
(g6
S'\xdeso\x86s\xeb<?'
p837
tp838
Rp839
sS'euclideselement00archgoog_0323'
p840
g2
(g6
S'\xc7\xcb\xd2\x00%\x0c@?'
p841
tp842
Rp843
sS'euclideselement00archgoog_0324'
p844
g2
(g6
S'\x8d\xed\x93a\xd65=?'
p845
tp846
Rp847
sS'euclideselement00archgoog_0325'
p848
g2
(g6
S'\x92)\xa8gTH@?'
p849
tp850
Rp851
sS'euclideselement00archgoog_0326'
p852
g2
(g6
S'\xec\xc6$\xf0@{C?'
p853
tp854
Rp855
sS'euclideselement00archgoog_0327'
p856
g2
(g6
S'\xc58\xa6(g\x1e@?'
p857
tp858
Rp859
sS'euclideselement00archgoog_0328'
p860
g2
(g6
S'\xcf\xfc\tZ\x1c\x1d>?'
p861
tp862
Rp863
sS'euclideselement00archgoog_0329'
p864
g2
(g6
S'\x04\x01\xe6\rMF@?'
p865
tp866
Rp867
sS'euclideselement00archgoog_0027'
p868
g2
(g6
S'\xdd\x07ZT$\x14@?'
p869
tp870
Rp871
sS'euclideselement00archgoog_0026'
p872
g2
(g6
S'\x19k\xf0\xb3/E??'
p873
tp874
Rp875
sS'euclideselement00archgoog_0025'
p876
g2
(g6
S'g=R.\xbc\xb6??'
p877
tp878
Rp879
sS'euclideselement00archgoog_0024'
p880
g2
(g6
S'\x9f\xfd8\x9b\xa8\xcc@?'
p881
tp882
Rp883
sS'euclideselement00archgoog_0023'
p884
g2
(g6
S'\x06t\x02_\xa5\xde;?'
p885
tp886
Rp887
sS'euclideselement00archgoog_0022'
p888
g2
(g6
S'\xe7aM=\xf0\x87>?'
p889
tp890
Rp891
sS'euclideselement00archgoog_0021'
p892
g2
(g6
S']\xa8\xd58!D@?'
p893
tp894
Rp895
sS'euclideselement00archgoog_0020'
p896
g2
(g6
S'vO\x91j\xb1\x92A?'
p897
tp898
Rp899
sS'euclideselement00archgoog_0029'
p900
g2
(g6
S'gEQ\x83*\xf9<?'
p901
tp902
Rp903
sS'euclideselement00archgoog_0028'
p904
g2
(g6
S'\xf4 K{k\xe0A?'
p905
tp906
Rp907
sS'euclideselement00archgoog_0113'
p908
g2
(g6
S'\x07\xf3\xcc\xf4G\xebA?'
p909
tp910
Rp911
sS'euclideselement00archgoog_0112'
p912
g2
(g6
S'\x8c5*\x9e\xe7\xe9A?'
p913
tp914
Rp915
sS'euclideselement00archgoog_0111'
p916
g2
(g6
S'\x8b\xbe\xa0U\xcd\xbb@?'
p917
tp918
Rp919
sS'euclideselement00archgoog_0110'
p920
g2
(g6
S'f\x1b\xbb\x02s\xdbB?'
p921
tp922
Rp923
sS'euclideselement00archgoog_0117'
p924
g2
(g6
S'\x11\x89KL\x89\xaa??'
p925
tp926
Rp927
sS'euclideselement00archgoog_0116'
p928
g2
(g6
S'\x02Ko\xb9WJ<?'
p929
tp930
Rp931
sS'euclideselement00archgoog_0115'
p932
g2
(g6
S'\xe56_#\x0co??'
p933
tp934
Rp935
sS'euclideselement00archgoog_0114'
p936
g2
(g6
S'\xd5U\xb0\xf7\x99uB?'
p937
tp938
Rp939
sS'euclideselement00archgoog_0119'
p940
g2
(g6
S'\\#\xef\xc6\x8a3A?'
p941
tp942
Rp943
sS'euclideselement00archgoog_0118'
p944
g2
(g6
S'w\xddJ\xca\xbc\xdc>?'
p945
tp946
Rp947
sS'euclideselement00archgoog_0121'
p948
g2
(g6
S'\xee\x07\xa06\x9c\xdc;?'
p949
tp950
Rp951
sS'euclideselement00archgoog_0166'
p952
g2
(g6
S'\xa1\xc2\x90\xaa\xd4\x9cA?'
p953
tp954
Rp955
sS'euclideselement00archgoog_0167'
p956
g2
(g6
S':z\x84#\xb99D?'
p957
tp958
Rp959
sS'euclideselement00archgoog_0164'
p960
g2
(g6
S'\xa7\xceVF\x8e~@?'
p961
tp962
Rp963
sS'euclideselement00archgoog_0165'
p964
g2
(g6
S'\xe3p\x8b$\xb5\xda??'
p965
tp966
Rp967
sS'euclideselement00archgoog_0162'
p968
g2
(g6
S'|R<I\r0=?'
p969
tp970
Rp971
sS'euclideselement00archgoog_0163'
p972
g2
(g6
S'\xdd[\xf1B\xdc=B?'
p973
tp974
Rp975
sS'euclideselement00archgoog_0160'
p976
g2
(g6
S'\xb1S\x11\x99\xcd{@?'
p977
tp978
Rp979
sS'euclideselement00archgoog_0161'
p980
g2
(g6
S'\xe8\xe8\x9bT\xfeAA?'
p981
tp982
Rp983
sS'euclideselement00archgoog_0168'
p984
g2
(g6
S'\xa1\xc2\x90\xaa\xd4\x9cA?'
p985
tp986
Rp987
sS'euclideselement00archgoog_0169'
p988
g2
(g6
S'\xf0oc\x98C\xd5@?'
p989
tp990
Rp991
sS'euclideselement00archgoog_0364'
p992
g2
(g6
S'\x12\x1d\xe1\x8c\x80\xffB?'
p993
tp994
Rp995
sS'euclideselement00archgoog_0365'
p996
g2
(g6
S'\xef\x01\x98H\xcd\xf2>?'
p997
tp998
Rp999
sS'euclideselement00archgoog_0366'
p1000
g2
(g6
S'H\t\x15\x99V\xdd:?'
p1001
tp1002
Rp1003
sS'euclideselement00archgoog_0367'
p1004
g2
(g6
S'\xd5\x01du\x00Y=?'
p1005
tp1006
Rp1007
sS'euclideselement00archgoog_0360'
p1008
g2
(g6
S'\x9d4d\xde\x1c\xc2>?'
p1009
tp1010
Rp1011
sS'euclideselement00archgoog_0361'
p1012
g2
(g6
S'WaFP\xbbd@?'
p1013
tp1014
Rp1015
sS'euclideselement00archgoog_0209'
p1016
g2
(g6
S'\x9bK\xa9\xe4T\x17@?'
p1017
tp1018
Rp1019
sS'euclideselement00archgoog_0208'
p1020
g2
(g6
S'\xfdu\x02a\xeb\xf4@?'
p1021
tp1022
Rp1023
sS'euclideselement00archgoog_0207'
p1024
g2
(g6
S'\xb9^\xae\xca\xbd{??'
p1025
tp1026
Rp1027
sS'euclideselement00archgoog_0206'
p1028
g2
(g6
S'\xc3\xce,\xb9\x893B?'
p1029
tp1030
Rp1031
sS'euclideselement00archgoog_0205'
p1032
g2
(g6
S"\xe2\xe4\xc5w'gA?"
p1033
tp1034
Rp1035
sS'euclideselement00archgoog_0204'
p1036
g2
(g6
S'\x00|\xe5.\xc8e@?'
p1037
tp1038
Rp1039
sS'euclideselement00archgoog_0203'
p1040
g2
(g6
S"\x00\x8d\xa93\xca'>?"
p1041
tp1042
Rp1043
sS'euclideselement00archgoog_0202'
p1044
g2
(g6
S'\xaf\xc0?\xb4\x99\xb5B?'
p1045
tp1046
Rp1047
sS'euclideselement00archgoog_0201'
p1048
g2
(g6
S'\x9aT}*t\xd2>?'
p1049
tp1050
Rp1051
sS'euclideselement00archgoog_0200'
p1052
g2
(g6
S'\xde\xf9\xa3^5U>?'
p1053
tp1054
Rp1055
sS'euclideselement00archgoog_0388'
p1056
g2
(g6
S'KZey\x98G9?'
p1057
tp1058
Rp1059
sS'euclideselement00archgoog_0389'
p1060
g2
(g6
S";KW'\xec\x93;?"
p1061
tp1062
Rp1063
sS'euclideselement00archgoog_0386'
p1064
g2
(g6
S'\x96\\\xcc\x12\xa4m5?'
p1065
tp1066
Rp1067
sS'euclideselement00archgoog_0387'
p1068
g2
(g6
S'i\xd1B\xdd"\'9?'
p1069
tp1070
Rp1071
sS'euclideselement00archgoog_0384'
p1072
g2
(g6
S'\xf16\x87\x13\xc2p;?'
p1073
tp1074
Rp1075
sS'euclideselement00archgoog_0385'
p1076
g2
(g6
S"\x94'\xddG\xaf\xef8?"
p1077
tp1078
Rp1079
sS'euclideselement00archgoog_0382'
p1080
g2
(g6
S'\xe5\xbcN\x87\xc5G5?'
p1081
tp1082
Rp1083
sS'euclideselement00archgoog_0383'
p1084
g2
(g6
S'\x8c\x18\x8b\x91\x9c\xc4;?'
p1085
tp1086
Rp1087
sS'euclideselement00archgoog_0380'
p1088
g2
(g6
S'\xf1nI>\\I??'
p1089
tp1090
Rp1091
sS'euclideselement00archgoog_0381'
p1092
g2
(g6
S'\xbeY\xc7\xef\xb1y@?'
p1093
tp1094
Rp1095
sS'euclideselement00archgoog_0069'
p1096
g2
(g6
S'/h\x86\xd9\xf9\x07@?'
p1097
tp1098
Rp1099
sS'euclideselement00archgoog_0068'
p1100
g2
(g6
S'@\xa8jL\xec\x10A?'
p1101
tp1102
Rp1103
sS'euclideselement00archgoog_0063'
p1104
g2
(g6
S'\xa4\x93\xdc\x86(\x93D?'
p1105
tp1106
Rp1107
sS'euclideselement00archgoog_0062'
p1108
g2
(g6
S'\x94\xc5\x0ep\x84\xc3B?'
p1109
tp1110
Rp1111
sS'euclideselement00archgoog_0061'
p1112
g2
(g6
S'\xeb0\x0f\x113j>?'
p1113
tp1114
Rp1115
sS'euclideselement00archgoog_0060'
p1116
g2
(g6
S'\xa2aA\xc2\x0c\xc1H?'
p1117
tp1118
Rp1119
sS'euclideselement00archgoog_0067'
p1120
g2
(g6
S'\xb0~\x14\xd7\x945B?'
p1121
tp1122
Rp1123
sS'euclideselement00archgoog_0066'
p1124
g2
(g6
S'\x19k\xf0\xb3/E??'
p1125
tp1126
Rp1127
sS'euclideselement00archgoog_0065'
p1128
g2
(g6
S'i\x087\xde\x17\x19>?'
p1129
tp1130
Rp1131
sS'euclideselement00archgoog_0064'
p1132
g2
(g6
S'\x85\xcd\x18\xbe}M<?'
p1133
tp1134
Rp1135
sS'euclideselement00archgoog_0018'
p1136
g2
(g6
S'\x89{\x9a\x0f\xe0\x966?'
p1137
tp1138
Rp1139
sS'euclideselement00archgoog_0019'
p1140
g2
(g6
S'A\x80\xb4\xb0d\x079?'
p1141
tp1142
Rp1143
sS'euclideselement00archgoog_0016'
p1144
g2
(g6
S']\x18z\x95\x94\xe0B?'
p1145
tp1146
Rp1147
sS'euclideselement00archgoog_0017'
p1148
g2
(g6
S'\x97\x88\xf4\xcaq\xe3C?'
p1149
tp1150
Rp1151
sS'euclideselement00archgoog_0014'
p1152
g2
(g6
S'\xad@7\xe2\xa5\x88:?'
p1153
tp1154
Rp1155
sS'euclideselement00archgoog_0015'
p1156
g2
(g6
S'\x84\x8b\x98\xb9\xbc\x1bA?'
p1157
tp1158
Rp1159
sS'euclideselement00archgoog_0409'
p1160
g2
(g6
S'8\xeah\xec0\x850?'
p1161
tp1162
Rp1163
sS'euclideselement00archgoog_0408'
p1164
g2
(g6
S'\x8d@\xafa\xbd\xf82?'
p1165
tp1166
Rp1167
sS'euclideselement00archgoog_0401'
p1168
g2
(g6
S',\x0e\x7fE\xd4\xf67?'
p1169
tp1170
Rp1171
sS'euclideselement00archgoog_0400'
p1172
g2
(g6
S'\x15_\x9bRI\xc74?'
p1173
tp1174
Rp1175
sS'euclideselement00archgoog_0403'
p1176
g2
(g6
S'\x0cA\xb3\x81\xbd\xf9:?'
p1177
tp1178
Rp1179
sS'euclideselement00archgoog_0402'
p1180
g2
(g6
S'\xe5\xf4\x10\xb2_ 9?'
p1181
tp1182
Rp1183
sS'euclideselement00archgoog_0405'
p1184
g2
(g6
S'\xaf\xf9F\x8b\x10\xa04?'
p1185
tp1186
Rp1187
sS'euclideselement00archgoog_0404'
p1188
g2
(g6
S'\xa1\xc99\xa4\xccL6?'
p1189
tp1190
Rp1191
sS'euclideselement00archgoog_0407'
p1192
g2
(g6
S'\xfa\x0bL\x7f\x95j=?'
p1193
tp1194
Rp1195
sS'euclideselement00archgoog_0406'
p1196
g2
(g6
S'\xe6\xf4\x10\xb2_ 9?'
p1197
tp1198
Rp1199
sS'euclideselement00archgoog_0362'
p1200
g2
(g6
S'\xff\xad\xec?\x19?:?'
p1201
tp1202
Rp1203
sS'euclideselement00archgoog_0363'
p1204
g2
(g6
S'p\xf2\xfd\rTO:?'
p1205
tp1206
Rp1207
sS'euclideselement00archgoog_0368'
p1208
g2
(g6
S"gs'\x02\rs5?"
p1209
tp1210
Rp1211
sS'euclideselement00archgoog_0369'
p1212
g2
(g6
S'\xa2HT\x14z\xa0:?'
p1213
tp1214
Rp1215
sS'euclideselement00archgoog_0243'
p1216
g2
(g6
S'\xb4\xf3\x8bt\xb3\x08A?'
p1217
tp1218
Rp1219
sS'euclideselement00archgoog_0242'
p1220
g2
(g6
S'\x17\xdb]\x10\xc3[A?'
p1221
tp1222
Rp1223
sS'euclideselement00archgoog_0241'
p1224
g2
(g6
S'\xe2\xf9\xd77=g<?'
p1225
tp1226
Rp1227
sS'euclideselement00archgoog_0240'
p1228
g2
(g6
S'\xe2\xf9\xd77=g<?'
p1229
tp1230
Rp1231
sS'euclideselement00archgoog_0247'
p1232
g2
(g6
S'\xa0O\xb6\xbf\xac\x97A?'
p1233
tp1234
Rp1235
sS'euclideselement00archgoog_0246'
p1236
g2
(g6
S'\x15\x96\x82f\xf6T@?'
p1237
tp1238
Rp1239
sS'euclideselement00archgoog_0245'
p1240
g2
(g6
S'V`~\x96\x0b\x99@?'
p1241
tp1242
Rp1243
sS'euclideselement00archgoog_0244'
p1244
g2
(g6
S'\xbd\xc5\xf6\xce6\xc1@?'
p1245
tp1246
Rp1247
sS'euclideselement00archgoog_0122'
p1248
g2
(g6
S'\xc5Y\x0e\xdf\xda\xf2@?'
p1249
tp1250
Rp1251
sS'euclideselement00archgoog_0123'
p1252
g2
(g6
S'|5\x10&\xb7\xe3@?'
p1253
tp1254
Rp1255
sS'euclideselement00archgoog_0249'
p1256
g2
(g6
S'\xe6\x8d\xf3\x0b\xda\x128?'
p1257
tp1258
Rp1259
sS'euclideselement00archgoog_0248'
p1260
g2
(g6
S'\x1e^\x88@vo6?'
p1261
tp1262
Rp1263
sS'euclideselement00archgoog_0126'
p1264
g2
(g6
S'_%Z5\xf6 A?'
p1265
tp1266
Rp1267
sS'euclideselement00archgoog_0127'
p1268
g2
(g6
S'\xb4\xdd\xc9TUY??'
p1269
tp1270
Rp1271
sS'euclideselement00archgoog_0124'
p1272
g2
(g6
S';\x17S\xb8\xd5\x9c@?'
p1273
tp1274
Rp1275
sS'euclideselement00archgoog_0125'
p1276
g2
(g6
S'\xe2\x92X\x11F\x8c+?'
p1277
tp1278
Rp1279
sS'euclideselement00archgoog_0236'
p1280
g2
(g6
S'\xfaI$6 \x1dA?'
p1281
tp1282
Rp1283
sS'euclideselement00archgoog_0237'
p1284
g2
(g6
S'\xbc\xda\x1b\x8e\x84\x95>?'
p1285
tp1286
Rp1287
sS'euclideselement00archgoog_0234'
p1288
g2
(g6
S'K\xbf$\xe5M\xab>?'
p1289
tp1290
Rp1291
sS'euclideselement00archgoog_0235'
p1292
g2
(g6
S'\t{bpL%A?'
p1293
tp1294
Rp1295
sS'euclideselement00archgoog_0232'
p1296
g2
(g6
S'V`~\x96\x0b\x99@?'
p1297
tp1298
Rp1299
sS'euclideselement00archgoog_0233'
p1300
g2
(g6
S'\xc3C\x9dkR\x96@?'
p1301
tp1302
Rp1303
sS'euclideselement00archgoog_0230'
p1304
g2
(g6
S'\xa8\xc0Y\x86\xebR@?'
p1305
tp1306
Rp1307
sS'euclideselement00archgoog_0231'
p1308
g2
(g6
S'\xea\xf3>3\xb6N>?'
p1309
tp1310
Rp1311
sS'euclideselement00archgoog_0238'
p1312
g2
(g6
S'\x98T\\\xa5\xd4\xce@?'
p1313
tp1314
Rp1315
sS'euclideselement00archgoog_0239'
p1316
g2
(g6
S'\xaa!!\x1a0PA?'
p1317
tp1318
Rp1319
sS'euclideselement00archgoog_0339'
p1320
g2
(g6
S'\x87v\xea\xd0\x18\xf0>?'
p1321
tp1322
Rp1323
sS'euclideselement00archgoog_0338'
p1324
g2
(g6
S'\xf16\x87\x13\xc2p;?'
p1325
tp1326
Rp1327
sS'euclideselement00archgoog_0337'
p1328
g2
(g6
S'\xd7\xc4\x03\xcb\x1b\xcd:?'
p1329
tp1330
Rp1331
sS'euclideselement00archgoog_0336'
p1332
g2
(g6
S'\x99\xe5\xde\x1d\x80\xb07?'
p1333
tp1334
Rp1335
sS'euclideselement00archgoog_0335'
p1336
g2
(g6
S'\xa7M\xae/^\xdc9?'
p1337
tp1338
Rp1339
sS'euclideselement00archgoog_0334'
p1340
g2
(g6
S'w\xb2\xa8\xd1\x16\xad@?'
p1341
tp1342
Rp1343
sS'euclideselement00archgoog_0333'
p1344
g2
(g6
S'\xb6QT6\x0f\xd1;?'
p1345
tp1346
Rp1347
sS'euclideselement00archgoog_0332'
p1348
g2
(g6
S'M\x15\xb6!wi@?'
p1349
tp1350
Rp1351
sS'euclideselement00archgoog_0331'
p1352
g2
(g6
S'\xf8\x8e\xfc.\x8do@?'
p1353
tp1354
Rp1355
sS'euclideselement00archgoog_0330'
p1356
g2
(g6
S'\r\xd6\xaay @B?'
p1357
tp1358
Rp1359
sS'euclideselement00archgoog_0252'
p1360
g2
(g6
S'U$\xb8\xf4\x0e.;?'
p1361
tp1362
Rp1363
sS'euclideselement00archgoog_0158'
p1364
g2
(g6
S'\xd7\xe8\x81\xdc\xcd;@?'
p1365
tp1366
Rp1367
sS'euclideselement00archgoog_0052'
p1368
g2
(g6
S'\x92~\xa9\xea_\x02C?'
p1369
tp1370
Rp1371
sS'euclideselement00archgoog_0053'
p1372
g2
(g6
S'\xa4N\xe9\x00\xdfnA?'
p1373
tp1374
Rp1375
sS'euclideselement00archgoog_0050'
p1376
g2
(g6
S"\x1c:\xb2\x87r'??"
p1377
tp1378
Rp1379
sS'euclideselement00archgoog_0051'
p1380
g2
(g6
S'\xa0y\xb9pq+B?'
p1381
tp1382
Rp1383
sS'euclideselement00archgoog_0056'
p1384
g2
(g6
S'\xdd}lm\xc2\x11B?'
p1385
tp1386
Rp1387
sS'euclideselement00archgoog_0057'
p1388
g2
(g6
S'\xf96r\xd4\xd2\x83A?'
p1389
tp1390
Rp1391
sS'euclideselement00archgoog_0054'
p1392
g2
(g6
S'\xf9<\xe0\x90\xfd\xe4@?'
p1393
tp1394
Rp1395
sS'euclideselement00archgoog_0055'
p1396
g2
(g6
S'\xe87\x85*\xda\xda@?'
p1397
tp1398
Rp1399
sS'euclideselement00archgoog_0258'
p1400
g2
(g6
S':\x0eLZj >?'
p1401
tp1402
Rp1403
sS'euclideselement00archgoog_0058'
p1404
g2
(g6
S'\xa8d\x10ZF\x12A?'
p1405
tp1406
Rp1407
sS'euclideselement00archgoog_0059'
p1408
g2
(g6
S'\xa3\r\xf27\xe5\x0eA?'
p1409
tp1410
Rp1411
sS'euclideselement00archgoog_0259'
p1412
g2
(g6
S'\xbe;\xe3!\xc9\x92??'
p1413
tp1414
Rp1415
sS'euclideselement00archgoog_0175'
p1416
g2
(g6
S'_\xcb\xfc\x0f2?<?'
p1417
tp1418
Rp1419
sS'euclideselement00archgoog_0174'
p1420
g2
(g6
S'\xc7\x8e\n?\xd9S:?'
p1421
tp1422
Rp1423
sS'euclideselement00archgoog_0177'
p1424
g2
(g6
S"r'\xdf\x1b\x92\x14B?"
p1425
tp1426
Rp1427
sS'euclideselement00archgoog_0176'
p1428
g2
(g6
S'?\x0f\xc1vX\xedA?'
p1429
tp1430
Rp1431
sS'euclideselement00archgoog_0171'
p1432
g2
(g6
S'\xce\xd2`\x13\xc6eB?'
p1433
tp1434
Rp1435
sS'euclideselement00archgoog_0170'
p1436
g2
(g6
S"r'\xdf\x1b\x92\x14B?"
p1437
tp1438
Rp1439
sS'euclideselement00archgoog_0173'
p1440
g2
(g6
S'\xa8\xef\xfa\xc8UN<?'
p1441
tp1442
Rp1443
sS'euclideselement00archgoog_0172'
p1444
g2
(g6
S'\x06x\xcbL\xbc9A?'
p1445
tp1446
Rp1447
sS'euclideselement00archgoog_0179'
p1448
g2
(g6
S'\x9e\xc0%<i\xafA?'
p1449
tp1450
Rp1451
sS'euclideselement00archgoog_0178'
p1452
g2
(g6
S'\xcbj0aB\x0c??'
p1453
tp1454
Rp1455
sS'euclideselement00archgoog_0373'
p1456
g2
(g6
S'\x7f\xbd\x86z\x92\xe2>?'
p1457
tp1458
Rp1459
sS'euclideselement00archgoog_0372'
p1460
g2
(g6
S'\xd0\xfc\tZ\x1c\x1d>?'
p1461
tp1462
Rp1463
sS'euclideselement00archgoog_0278'
p1464
g2
(g6
S'\xa2B\xb3\xe9\xcf}@?'
p1465
tp1466
Rp1467
sS'euclideselement00archgoog_0279'
p1468
g2
(g6
S'\\\x95\xf7a.8??'
p1469
tp1470
Rp1471
sS'euclideselement00archgoog_0377'
p1472
g2
(g6
S'\xef\x01\x98H\xcd\xf2>?'
p1473
tp1474
Rp1475
sS'euclideselement00archgoog_0376'
p1476
g2
(g6
S'U\xaeDU\x19\x95??'
p1477
tp1478
Rp1479
sS'euclideselement00archgoog_0375'
p1480
g2
(g6
S'\x99,7c\x93+8?'
p1481
tp1482
Rp1483
sS'euclideselement00archgoog_0374'
p1484
g2
(g6
S'\xdd\xc9]\xe6\xff\x08:?'
p1485
tp1486
Rp1487
sS'euclideselement00archgoog_0272'
p1488
g2
(g6
S'\x8d\xb8\x93\xa8\xf2\xb79?'
p1489
tp1490
Rp1491
sS'euclideselement00archgoog_0273'
p1492
g2
(g6
S'\x97*"\x18\x1e\xb8=?'
p1493
tp1494
Rp1495
sS'euclideselement00archgoog_0270'
p1496
g2
(g6
S'\x8eg\xf8\x7f8\x01@?'
p1497
tp1498
Rp1499
sS'euclideselement00archgoog_0271'
p1500
g2
(g6
S'\xb1#\xaa\xfe\x19\xf2??'
p1501
tp1502
Rp1503
sS'euclideselement00archgoog_0276'
p1504
g2
(g6
S'\x03\xfb\xc1\xb9\xbf\x7f<?'
p1505
tp1506
Rp1507
sS'euclideselement00archgoog_0277'
p1508
g2
(g6
S'\x1dk\x8b\x16S\x897?'
p1509
tp1510
Rp1511
sS'euclideselement00archgoog_0274'
p1512
g2
(g6
S'\xcd>\xf7\x85*_A?'
p1513
tp1514
Rp1515
sS'euclideselement00archgoog_0275'
p1516
g2
(g6
S'\xa0/\xa6\xfd\xf0\xee<?'
p1517
tp1518
Rp1519
sS'euclideselement00archgoog_0399'
p1520
g2
(g6
S'\x939F\xc2\xcd\xec<?'
p1521
tp1522
Rp1523
sS'euclideselement00archgoog_0398'
p1524
g2
(g6
S'\rH\xfa\xee\xf9IA?'
p1525
tp1526
Rp1527
sS'euclideselement00archgoog_0395'
p1528
g2
(g6
S"'\xe5tgf|@?"
p1529
tp1530
Rp1531
sS'euclideselement00archgoog_0394'
p1532
g2
(g6
S'\xa0\x13eI\x85">?'
p1533
tp1534
Rp1535
sS'euclideselement00archgoog_0397'
p1536
g2
(g6
S'\xbd\xe2\xfb,Ax\x02?'
p1537
tp1538
Rp1539
sS'euclideselement00archgoog_0396'
p1540
g2
(g6
S'e\xad\xb4LL\xa4@?'
p1541
tp1542
Rp1543
sS'euclideselement00archgoog_0391'
p1544
g2
(g6
S'\x97\x06\xde\xb2\x17P8?'
p1545
tp1546
Rp1547
sS'euclideselement00archgoog_0390'
p1548
g2
(g6
S'\x19\x83)\xe3\x1fJ=?'
p1549
tp1550
Rp1551
sS'euclideselement00archgoog_0393'
p1552
g2
(g6
S'U\xaeDU\x19\x95??'
p1553
tp1554
Rp1555
sS'euclideselement00archgoog_0392'
p1556
g2
(g6
S'\x1b\xb8\x18\xae\x14\xc89?'
p1557
tp1558
Rp1559
sS'euclideselement00archgoog_0306'
p1560
g2
(g6
S'D\x9c\xce)\x80\xb3;?'
p1561
tp1562
Rp1563
sS'euclideselement00archgoog_0307'
p1564
g2
(g6
S'\x06\\\x89M\x04}\r?'
p1565
tp1566
Rp1567
sS'euclideselement00archgoog_0304'
p1568
g2
(g6
S'{\x10 ^oQ>?'
p1569
tp1570
Rp1571
sS'euclideselement00archgoog_0305'
p1572
g2
(g6
S'\x8d\xb8\x93\xa8\xf2\xb79?'
p1573
tp1574
Rp1575
sS'euclideselement00archgoog_0302'
p1576
g2
(g6
S'r\r\xa4Z&\xce@?'
p1577
tp1578
Rp1579
sS'euclideselement00archgoog_0303'
p1580
g2
(g6
S'\x10\x01ts\xfa\xc75?'
p1581
tp1582
Rp1583
sS'euclideselement00archgoog_0300'
p1584
g2
(g6
S'b<\xf1\x17\xbe\xce:?'
p1585
tp1586
Rp1587
sS'euclideselement00archgoog_0301'
p1588
g2
(g6
S'\xb9w\xf9e\x7f\x93\x0c?'
p1589
tp1590
Rp1591
sS'euclideselement00archgoog_0308'
p1592
g2
(g6
S'\xfa_<\x14\xcd\xd2=?'
p1593
tp1594
Rp1595
sS'euclideselement00archgoog_0309'
p1596
g2
(g6
S'\xcc\xba\xc8\xe8:\x01=?'
p1597
tp1598
Rp1599
sS'euclideselement00archgoog_0096'
p1600
g2
(g6
S'\x91\xfc\xbaXlBB?'
p1601
tp1602
Rp1603
sS'euclideselement00archgoog_0097'
p1604
g2
(g6
S'\xae\x80\xa5o\xd8\x16@?'
p1605
tp1606
Rp1607
sS'euclideselement00archgoog_0094'
p1608
g2
(g6
S'\xad\x1f\xf7_\xc5\xef4?'
p1609
tp1610
Rp1611
sS'euclideselement00archgoog_0095'
p1612
g2
(g6
S'\xb3<\x15\xb1\x1e\xc6>?'
p1613
tp1614
Rp1615
sS'euclideselement00archgoog_0092'
p1616
g2
(g6
S'\x7f:\xe8S\x86y@?'
p1617
tp1618
Rp1619
sS'euclideselement00archgoog_0093'
p1620
g2
(g6
S'w\x0f#\xdd~\x04<?'
p1621
tp1622
Rp1623
sS'euclideselement00archgoog_0090'
p1624
g2
(g6
S'\x96\xc4\x06\x13\x08\xb4??'
p1625
tp1626
Rp1627
sS'euclideselement00archgoog_0091'
p1628
g2
(g6
S'\x19\x01\xba\x13\xe7\t<?'
p1629
tp1630
Rp1631
sS'euclideselement00archgoog_0098'
p1632
g2
(g6
S'\xc7\xe1\x84W\x0bv<?'
p1633
tp1634
Rp1635
sS'euclideselement00archgoog_0099'
p1636
g2
(g6
S'J\x1b\x1e\x84\xdf\x18@?'
p1637
tp1638
Rp1639
sS'euclideselement00archgoog_0199'
p1640
g2
(g6
S'?\x90Go[\xb8A?'
p1641
tp1642
Rp1643
sS'euclideselement00archgoog_0198'
p1644
g2
(g6
S'\x93\xc0iA\x9e\x00A?'
p1645
tp1646
Rp1647
sS'euclideselement00archgoog_0193'
p1648
g2
(g6
S'b\xe1\xbf[\xd4\xbd9?'
p1649
tp1650
Rp1651
sS'euclideselement00archgoog_0192'
p1652
g2
(g6
S'\x89H\xfb\x93\xefA??'
p1653
tp1654
Rp1655
s.