(dp0
S'cod87-diag-0072'
p1
(lp2
S'bern_87_005r.jpg'
p3
aI3064
aI4085
aI2158
aI1169
aI195
aI138
asS'cod87-diag-0073'
p4
(lp5
S'bern_87_005r.jpg'
p6
aI3064
aI4085
aI1480
aI1397
aI231
aI222
asS'cod87-diag-0179'
p7
(lp8
S'bern_87_007r.jpg'
p9
aI3064
aI4085
aI1934
aI2841
aI336
aI212
asS'cod87-diag-0178'
p10
(lp11
S'bern_87_007r.jpg'
p12
aI3064
aI4085
aI1802
aI2593
aI596
aI232
asS'cod87-diag-0076'
p13
(lp14
S'bern_87_005r.jpg'
p15
aI3064
aI4085
aI814
aI1712
aI234
aI120
asS'cod87-diag-0077'
p16
(lp17
S'bern_87_005r.jpg'
p18
aI3064
aI4085
aI1513
aI1769
aI138
aI99
asS'cod87-diag-0074'
p19
(lp20
S'bern_87_005r.jpg'
p21
aI3064
aI4085
aI988
aI1553
aI201
aI204
asS'cod87-diag-0075'
p22
(lp23
S'bern_87_005r.jpg'
p24
aI3064
aI4085
aI1567
aI1607
aI186
aI123
asS'cod87-diag-0173'
p25
(lp26
S'bern_87_007r.jpg'
p27
aI3064
aI4085
aI1432
aI700
aI192
aI176
asS'cod87-diag-0172'
p28
(lp29
S'bern_87_007r.jpg'
p30
aI3064
aI4085
aI1924
aI632
aI180
aI188
asS'cod87-diag-0171'
p31
(lp32
S'bern_87_007r.jpg'
p33
aI3064
aI4085
aI1664
aI564
aI180
aI152
asS'cod87-diag-0170'
p34
(lp35
S'bern_87_007r.jpg'
p36
aI3064
aI4085
aI680
aI544
aI212
aI184
asS'cod87-diag-0177'
p37
(lp38
S'bern_87_007r.jpg'
p39
aI3064
aI4085
aI532
aI2104
aI180
aI140
asS'cod87-diag-0176'
p40
(lp41
S'bern_87_007r.jpg'
p42
aI3064
aI4085
aI1708
aI1548
aI652
aI380
asS'cod87-diag-0175'
p43
(lp44
S'bern_87_007r.jpg'
p45
aI3064
aI4085
aI2240
aI1448
aI364
aI152
asS'cod87-diag-0174'
p46
(lp47
S'bern_87_007r.jpg'
p48
aI3064
aI4085
aI1672
aI760
aI164
aI140
asS'cod87-diag-0274'
p49
(lp50
S'bern_87_016v.jpg'
p51
aI3064
aI4085
aI2372
aI1624
aI552
aI364
asS'cod87-diag-0275'
p52
(lp53
S'bern_87_016v.jpg'
p54
aI3064
aI4085
aI2336
aI2028
aI596
aI636
asS'cod87-diag-0276'
p55
(lp56
S'bern_87_016v.jpg'
p57
aI3064
aI4085
aI1409
aI3013
aI100
aI144
asS'cod87-diag-0277'
p58
(lp59
S'bern_87_017r.jpg'
p60
aI3064
aI4085
aI502
aI550
aI106
aI92
asS'cod87-diag-0270'
p61
(lp62
S'bern_87_016r.jpg'
p63
aI3064
aI4085
aI1984
aI2569
aI700
aI456
asS'cod87-diag-0271'
p64
(lp65
S'bern_87_016r.jpg'
p66
aI3064
aI4085
aI1544
aI2957
aI1272
aI720
asS'cod87-diag-0272'
p67
(lp68
S'bern_87_016r.jpg'
p69
aI3064
aI4085
aI748
aI3333
aI788
aI220
asS'cod87-diag-0273'
p70
(lp71
S'bern_87_016v.jpg'
p72
aI3064
aI4085
aI2288
aI936
aI632
aI548
asS'cod87-diag-0278'
p73
(lp74
S'bern_87_017r.jpg'
p75
aI3064
aI4085
aI616
aI542
aI184
aI84
asS'cod87-diag-0279'
p76
(lp77
S'bern_87_017r.jpg'
p78
aI3064
aI4085
aI820
aI544
aI188
aI126
asS'cod87-diag-0007'
p79
(lp80
S'bern_87_003r.jpg'
p81
aI3064
aI4085
aI1464
aI1631
aI86
aI98
asS'cod87-diag-0006'
p82
(lp83
S'bern_87_003r.jpg'
p84
aI3064
aI4085
aI1033
aI1604
aI62
aI100
asS'cod87-diag-0005'
p85
(lp86
S'bern_87_002v.jpg'
p87
aI3064
aI4085
aI1648
aI1536
aI1156
aI240
asS'cod87-diag-0004'
p88
(lp89
S'bern_87_002r.jpg'
p90
aI3064
aI4085
aI1414
aI2393
aI1124
aI628
asS'cod87-diag-0003'
p91
(lp92
S'bern_87_002r.jpg'
p93
aI3064
aI4085
aI1177
aI2064
aI312
aI272
asS'cod87-diag-0002'
p94
(lp95
S'bern_87_002r.jpg'
p96
aI3064
aI4085
aI1396
aI1992
aI1284
aI172
asS'cod87-diag-0001'
p97
(lp98
S'bern_87_002r.jpg'
p99
aI3064
aI4085
aI1180
aI1516
aI1208
aI456
asS'cod87-diag-0009'
p100
(lp101
S'bern_87_003r.jpg'
p102
aI3064
aI4085
aI746
aI1682
aI72
aI98
asS'cod87-diag-0008'
p103
(lp104
S'bern_87_003r.jpg'
p105
aI3064
aI4085
aI1688
aI1609
aI76
aI100
asS'cod87-diag-0308'
p106
(lp107
S'bern_87_017r.jpg'
p108
aI3064
aI4085
aI960
aI2452
aI240
aI138
asS'cod87-diag-0309'
p109
(lp110
S'bern_87_017r.jpg'
p111
aI3064
aI4085
aI831
aI2602
aI222
aI138
asS'cod87-diag-0304'
p112
(lp113
S'bern_87_017r.jpg'
p114
aI3064
aI4085
aI2382
aI2077
aI177
aI150
asS'cod87-diag-0305'
p115
(lp116
S'bern_87_017r.jpg'
p117
aI3064
aI4085
aI1590
aI2236
aI129
aI99
asS'cod87-diag-0306'
p118
(lp119
S'bern_87_017r.jpg'
p120
aI3064
aI4085
aI615
aI2467
aI129
aI120
asS'cod87-diag-0307'
p121
(lp122
S'bern_87_017r.jpg'
p123
aI3064
aI4085
aI762
aI2467
aI198
aI132
asS'cod87-diag-0300'
p124
(lp125
S'bern_87_017r.jpg'
p126
aI3064
aI4085
aI1821
aI1738
aI702
aI342
asS'cod87-diag-0301'
p127
(lp128
S'bern_87_017r.jpg'
p129
aI3064
aI4085
aI1113
aI1954
aI510
aI279
asS'cod87-diag-0302'
p130
(lp131
S'bern_87_017r.jpg'
p132
aI3064
aI4085
aI2088
aI2092
aI108
aI108
asS'cod87-diag-0303'
p133
(lp134
S'bern_87_017r.jpg'
p135
aI3064
aI4085
aI2190
aI2092
aI192
aI126
asS'cod87-diag-0098'
p136
(lp137
S'bern_87_005r.jpg'
p138
aI3064
aI4085
aI1136
aI3022
aI210
aI201
asS'cod87-diag-0099'
p139
(lp140
S'bern_87_005r.jpg'
p141
aI3064
aI4085
aI1217
aI3229
aI495
aI222
asS'cod87-diag-0094'
p142
(lp143
S'bern_87_005r.jpg'
p144
aI3064
aI4085
aI659
aI2540
aI243
aI111
asS'cod87-diag-0095'
p145
(lp146
S'bern_87_005r.jpg'
p147
aI3064
aI4085
aI1175
aI2675
aI324
aI96
asS'cod87-diag-0096'
p148
(lp149
S'bern_87_005r.jpg'
p150
aI3064
aI4085
aI407
aI3049
aI354
aI195
asS'cod87-diag-0097'
p151
(lp152
S'bern_87_005r.jpg'
p153
aI3064
aI4085
aI746
aI3031
aI411
aI192
asS'cod87-diag-0090'
p154
(lp155
S'bern_87_005r.jpg'
p156
aI3064
aI4085
aI1244
aI2252
aI132
aI117
asS'cod87-diag-0091'
p157
(lp158
S'bern_87_005r.jpg'
p159
aI3064
aI4085
aI500
aI2393
aI117
aI108
asS'cod87-diag-0092'
p160
(lp161
S'bern_87_005r.jpg'
p162
aI3064
aI4085
aI617
aI2396
aI141
aI93
asS'cod87-diag-0093'
p163
(lp164
S'bern_87_005r.jpg'
p165
aI3064
aI4085
aI410
aI2528
aI240
aI135
asS'cod87-diag-0238'
p166
(lp167
S'bern_87_012v.jpg'
p168
aI3064
aI4085
aI1932
aI460
aI224
aI140
asS'cod87-diag-0239'
p169
(lp170
S'bern_87_012v.jpg'
p171
aI3064
aI4085
aI868
aI600
aI452
aI220
asS'cod87-diag-0230'
p172
(lp173
S'bern_87_011v.jpg'
p174
aI3064
aI4085
aI1036
aI1852
aI328
aI324
asS'cod87-diag-0231'
p175
(lp176
S'bern_87_011v.jpg'
p177
aI3064
aI4085
aI1278
aI2697
aI268
aI264
asS'cod87-diag-0232'
p178
(lp179
S'bern_87_012r.jpg'
p180
aI3064
aI4085
aI2194
aI560
aI272
aI260
asS'cod87-diag-0233'
p181
(lp182
S'bern_87_012r.jpg'
p183
aI3064
aI4085
aI1782
aI1248
aI352
aI324
asS'cod87-diag-0234'
p184
(lp185
S'bern_87_012r.jpg'
p186
aI3064
aI4085
aI2224
aI1878
aI444
aI420
asS'cod87-diag-0235'
p187
(lp188
S'bern_87_012r.jpg'
p189
aI3064
aI4085
aI1088
aI2861
aI208
aI200
asS'cod87-diag-0236'
p190
(lp191
S'bern_87_012r.jpg'
p192
aI3064
aI4085
aI1064
aI3173
aI240
aI228
asS'cod87-diag-0237'
p193
(lp194
S'bern_87_012v.jpg'
p195
aI3064
aI4085
aI1223
aI292
aI420
aI256
asS'cod87-diag-0127'
p196
(lp197
S'bern_87_006r.jpg'
p198
aI3064
aI4085
aI1576
aI508
aI536
aI272
asS'cod87-diag-0289'
p199
(lp200
S'bern_87_017r.jpg'
p201
aI3064
aI4085
aI1444
aI986
aI156
aI132
asS'cod87-diag-0121'
p202
(lp203
S'bern_87_005v.jpg'
p204
aI3064
aI4085
aI2575
aI2883
aI340
aI152
asS'cod87-diag-0049'
p205
(lp206
S'bern_87_003r.jpg'
p207
aI3064
aI4085
aI2280
aI2428
aI220
aI188
asS'cod87-diag-0048'
p208
(lp209
S'bern_87_003r.jpg'
p210
aI3064
aI4085
aI1796
aI2463
aI177
aI102
asS'cod87-diag-0070'
p211
(lp212
S'bern_87_005r.jpg'
p213
aI3064
aI4085
aI1921
aI1175
aI57
aI159
asS'cod87-diag-0043'
p214
(lp215
S'bern_87_003r.jpg'
p216
aI3064
aI4085
aI1610
aI2400
aI87
aI75
asS'cod87-diag-0042'
p217
(lp218
S'bern_87_003r.jpg'
p219
aI3064
aI4085
aI1148
aI2364
aI201
aI114
asS'cod87-diag-0041'
p220
(lp221
S'bern_87_003r.jpg'
p222
aI3064
aI4085
aI800
aI2397
aI174
aI102
asS'cod87-diag-0040'
p223
(lp224
S'bern_87_003r.jpg'
p225
aI3064
aI4085
aI2186
aI2289
aI165
aI123
asS'cod87-diag-0047'
p226
(lp227
S'bern_87_003r.jpg'
p228
aI3064
aI4085
aI1424
aI2448
aI168
aI120
asS'cod87-diag-0046'
p229
(lp230
S'bern_87_003r.jpg'
p231
aI3064
aI4085
aI962
aI2454
aI144
aI102
asS'cod87-diag-0045'
p232
(lp233
S'bern_87_003r.jpg'
p234
aI3064
aI4085
aI500
aI2478
aI168
aI75
asS'cod87-diag-0044'
p235
(lp236
S'bern_87_003r.jpg'
p237
aI3064
aI4085
aI1943
aI2379
aI201
aI123
asS'cod87-diag-0124'
p238
(lp239
S'bern_87_005v.jpg'
p240
aI3064
aI4085
aI926
aI3248
aI333
aI153
asS'cod87-diag-0125'
p241
(lp242
S'bern_87_005v.jpg'
p243
aI3064
aI4085
aI2676
aI3193
aI168
aI180
asS'cod87-diag-0126'
p244
(lp245
S'bern_87_005v.jpg'
p246
aI3064
aI4085
aI1904
aI3309
aI584
aI272
asS'cod87-diag-0071'
p247
(lp248
S'bern_87_005r.jpg'
p249
aI3064
aI4085
aI1969
aI1199
aI210
aI159
asS'cod87-diag-0120'
p250
(lp251
S'bern_87_005v.jpg'
p252
aI3064
aI4085
aI2007
aI2847
aI232
aI152
asS'cod87-diag-0288'
p253
(lp254
S'bern_87_017r.jpg'
p255
aI3064
aI4085
aI1846
aI918
aI140
aI106
asS'cod87-diag-0122'
p256
(lp257
S'bern_87_005v.jpg'
p258
aI3064
aI4085
aI2219
aI3019
aI308
aI160
asS'cod87-diag-0123'
p259
(lp260
S'bern_87_005v.jpg'
p261
aI3064
aI4085
aI2510
aI3097
aI300
aI156
asS'cod87-diag-0285'
p262
(lp263
S'bern_87_017r.jpg'
p264
aI3064
aI4085
aI1228
aI786
aI122
aI128
asS'cod87-diag-0284'
p265
(lp266
S'bern_87_017r.jpg'
p267
aI3064
aI4085
aI1044
aI796
aI170
aI100
asS'cod87-diag-0287'
p268
(lp269
S'bern_87_017r.jpg'
p270
aI3064
aI4085
aI1728
aI926
aI128
aI96
asS'cod87-diag-0286'
p271
(lp272
S'bern_87_017r.jpg'
p273
aI3064
aI4085
aI1624
aI922
aI118
aI102
asS'cod87-diag-0128'
p274
(lp275
S'bern_87_006r.jpg'
p276
aI3064
aI4085
aI396
aI648
aI288
aI240
asS'cod87-diag-0280'
p277
(lp278
S'bern_87_017r.jpg'
p279
aI3064
aI4085
aI1486
aI604
aI174
aI72
asS'cod87-diag-0283'
p280
(lp281
S'bern_87_017r.jpg'
p282
aI3064
aI4085
aI762
aI794
aI248
aI106
asS'cod87-diag-0282'
p283
(lp284
S'bern_87_017r.jpg'
p285
aI3064
aI4085
aI1818
aI578
aI180
aI102
asS'cod87-diag-0281'
p286
(lp287
S'bern_87_017r.jpg'
p288
aI3064
aI4085
aI1678
aI592
aI116
aI86
asS'cod87-diag-0129'
p289
(lp290
S'bern_87_006r.jpg'
p291
aI3064
aI4085
aI960
aI856
aI360
aI180
asS'cod87-diag-0078'
p292
(lp293
S'bern_87_005r.jpg'
p294
aI3064
aI4085
aI475
aI1769
aI198
aI174
asS'cod87-diag-0079'
p295
(lp296
S'bern_87_005r.jpg'
p297
aI3064
aI4085
aI1621
aI1826
aI315
aI111
asS'cod87-diag-0340'
p298
(lp299
S'bern_87_017v.jpg'
p300
aI3064
aI4085
aI2125
aI1638
aI132
aI132
asS'cod87-diag-0341'
p301
(lp302
S'bern_87_017v.jpg'
p303
aI3064
aI4085
aI1290
aI1907
aI138
aI132
asS'cod87-diag-0342'
p304
(lp305
S'bern_87_017v.jpg'
p306
aI3064
aI4085
aI1413
aI1904
aI141
aI129
asS'cod87-diag-0343'
p307
(lp308
S'bern_87_017v.jpg'
p309
aI3064
aI4085
aI2760
aI1880
aI141
aI138
asS'cod87-diag-0344'
p310
(lp311
S'bern_87_017v.jpg'
p312
aI3064
aI4085
aI1860
aI1997
aI102
aI99
asS'cod87-diag-0345'
p313
(lp314
S'bern_87_017v.jpg'
p315
aI3064
aI4085
aI2700
aI1994
aI111
aI120
asS'cod87-diag-0346'
p316
(lp317
S'bern_87_017v.jpg'
p318
aI3064
aI4085
aI2802
aI2015
aI141
aI96
asS'cod87-diag-0347'
p319
(lp320
S'bern_87_017v.jpg'
p321
aI3064
aI4085
aI1941
aI2069
aI150
aI108
asS'cod87-diag-0348'
p322
(lp323
S'bern_87_017v.jpg'
p324
aI3064
aI4085
aI2088
aI2066
aI222
aI198
asS'cod87-diag-0349'
p325
(lp326
S'bern_87_017v.jpg'
p327
aI3064
aI4085
aI1740
aI2144
aI93
aI90
asS'cod87-diag-0199'
p328
(lp329
S'bern_87_008v.jpg'
p330
aI3064
aI4085
aI2372
aI2966
aI136
aI124
asS'cod87-diag-0198'
p331
(lp332
S'bern_87_008v.jpg'
p333
aI3064
aI4085
aI1068
aI2978
aI128
aI108
asS'cod87-diag-0191'
p334
(lp335
S'bern_87_008r.jpg'
p336
aI3064
aI4085
aI1188
aI1138
aI180
aI172
asS'cod87-diag-0190'
p337
(lp338
S'bern_87_007v.jpg'
p339
aI3064
aI4085
aI2156
aI1184
aI736
aI612
asS'cod87-diag-0193'
p340
(lp341
S'bern_87_008v.jpg'
p342
aI3064
aI4085
aI1648
aI680
aI1204
aI564
asS'cod87-diag-0192'
p343
(lp344
S'bern_87_008r.jpg'
p345
aI3064
aI4085
aI1368
aI1130
aI172
aI164
asS'cod87-diag-0195'
p346
(lp347
S'bern_87_008v.jpg'
p348
aI3064
aI4085
aI2020
aI2670
aI140
aI132
asS'cod87-diag-0194'
p349
(lp350
S'bern_87_008v.jpg'
p351
aI3064
aI4085
aI2396
aI2598
aI172
aI144
asS'cod87-diag-0197'
p352
(lp353
S'bern_87_008v.jpg'
p354
aI3064
aI4085
aI952
aI2902
aI144
aI148
asS'cod87-diag-0196'
p355
(lp356
S'bern_87_008v.jpg'
p357
aI3064
aI4085
aI1344
aI2838
aI128
aI120
asS'cod87-diag-0229'
p358
(lp359
S'bern_87_011v.jpg'
p360
aI3064
aI4085
aI800
aI1856
aI272
aI240
asS'cod87-diag-0141'
p361
(lp362
S'bern_87_006r.jpg'
p363
aI3064
aI4085
aI2228
aI2060
aI352
aI180
asS'cod87-diag-0221'
p364
(lp365
S'bern_87_010v.jpg'
p366
aI3064
aI4085
aI1898
aI3062
aI428
aI204
asS'cod87-diag-0220'
p367
(lp368
S'bern_87_010v.jpg'
p369
aI3064
aI4085
aI1158
aI2762
aI340
aI204
asS'cod87-diag-0168'
p370
(lp371
S'bern_87_006v.jpg'
p372
aI3064
aI4085
aI2636
aI3321
aI240
aI224
asS'cod87-diag-0169'
p373
(lp374
S'bern_87_007r.jpg'
p375
aI3064
aI4085
aI1720
aI440
aI172
aI140
asS'cod87-diag-0160'
p376
(lp377
S'bern_87_006v.jpg'
p378
aI3064
aI4085
aI2564
aI2156
aI348
aI192
asS'cod87-diag-0161'
p379
(lp380
S'bern_87_006v.jpg'
p381
aI3064
aI4085
aI2596
aI2449
aI240
aI236
asS'cod87-diag-0162'
p382
(lp383
S'bern_87_006v.jpg'
p384
aI3064
aI4085
aI1776
aI2605
aI212
aI196
asS'cod87-diag-0163'
p385
(lp386
S'bern_87_006v.jpg'
p387
aI3064
aI4085
aI1308
aI2689
aI188
aI140
asS'cod87-diag-0164'
p388
(lp389
S'bern_87_006v.jpg'
p390
aI3064
aI4085
aI1148
aI2901
aI192
aI168
asS'cod87-diag-0165'
p391
(lp392
S'bern_87_006v.jpg'
p393
aI3064
aI4085
aI1132
aI3049
aI232
aI208
asS'cod87-diag-0166'
p394
(lp395
S'bern_87_006v.jpg'
p396
aI3064
aI4085
aI2632
aI3153
aI200
aI188
asS'cod87-diag-0167'
p397
(lp398
S'bern_87_006v.jpg'
p399
aI3064
aI4085
aI928
aI3329
aI256
aI232
asS'cod87-diag-0241'
p400
(lp401
S'bern_87_012v.jpg'
p402
aI3064
aI4085
aI368
aI2700
aI280
aI180
asS'cod87-diag-0240'
p403
(lp404
S'bern_87_012v.jpg'
p405
aI3064
aI4085
aI368
aI2504
aI312
aI224
asS'cod87-diag-0243'
p406
(lp407
S'bern_87_012v.jpg'
p408
aI3064
aI4085
aI2080
aI2704
aI276
aI148
asS'cod87-diag-0242'
p409
(lp410
S'bern_87_012v.jpg'
p411
aI3064
aI4085
aI1056
aI2696
aI212
aI148
asS'cod87-diag-0245'
p412
(lp413
S'bern_87_012v.jpg'
p414
aI3064
aI4085
aI968
aI2996
aI380
aI136
asS'cod87-diag-0244'
p415
(lp416
S'bern_87_012v.jpg'
p417
aI3064
aI4085
aI2056
aI2840
aI452
aI152
asS'cod87-diag-0247'
p418
(lp419
S'bern_87_013r.jpg'
p420
aI3064
aI4085
aI660
aI728
aI276
aI248
asS'cod87-diag-0246'
p421
(lp422
S'bern_87_008v.jpg'
p423
aI3064
aI4085
aI2319
aI2751
aI84
aI96
asS'cod87-diag-0249'
p424
(lp425
S'bern_87_013r.jpg'
p426
aI3064
aI4085
aI1192
aI1192
aI180
aI196
asS'cod87-diag-0248'
p427
(lp428
S'bern_87_013r.jpg'
p429
aI3064
aI4085
aI760
aI908
aI308
aI296
asS'cod87-diag-0014'
p430
(lp431
S'bern_87_003r.jpg'
p432
aI3064
aI4085
aI1329
aI1729
aI136
aI130
asS'cod87-diag-0015'
p433
(lp434
S'bern_87_003r.jpg'
p435
aI3064
aI4085
aI1691
aI1757
aI80
aI92
asS'cod87-diag-0016'
p436
(lp437
S'bern_87_003r.jpg'
p438
aI3064
aI4085
aI2001
aI1767
aI210
aI66
asS'cod87-diag-0017'
p439
(lp440
S'bern_87_003r.jpg'
p441
aI3064
aI4085
aI503
aI1839
aI116
aI96
asS'cod87-diag-0010'
p442
(lp443
S'bern_87_003r.jpg'
p444
aI3064
aI4085
aI1250
aI1690
aI152
aI80
asS'cod87-diag-0011'
p445
(lp446
S'bern_87_003r.jpg'
p447
aI3064
aI4085
aI1868
aI1696
aI70
aI72
asS'cod87-diag-0012'
p448
(lp449
S'bern_87_003r.jpg'
p450
aI3064
aI4085
aI2066
aI1674
aI120
aI104
asS'cod87-diag-0013'
p451
(lp452
S'bern_87_003r.jpg'
p453
aI3064
aI4085
aI763
aI1749
aI100
aI106
asS'cod87-diag-0018'
p454
(lp455
S'bern_87_003r.jpg'
p456
aI3064
aI4085
aI1207
aI1839
aI100
aI80
asS'cod87-diag-0019'
p457
(lp458
S'bern_87_003r.jpg'
p459
aI3064
aI4085
aI1785
aI1805
aI112
aI120
asS'cod87-diag-0339'
p460
(lp461
S'bern_87_017v.jpg'
p462
aI3064
aI4085
aI1981
aI1632
aI147
aI123
asS'cod87-diag-0338'
p463
(lp464
S'bern_87_017v.jpg'
p465
aI3064
aI4085
aI1753
aI1638
aI225
aI111
asS'cod87-diag-0331'
p466
(lp467
S'bern_87_017v.jpg'
p468
aI3064
aI4085
aI1816
aI1290
aI132
aI123
asS'cod87-diag-0330'
p469
(lp470
S'bern_87_017v.jpg'
p471
aI3064
aI4085
aI1684
aI1287
aI129
aI111
asS'cod87-diag-0333'
p472
(lp473
S'bern_87_017v.jpg'
p474
aI3064
aI4085
aI2272
aI1431
aI294
aI102
asS'cod87-diag-0332'
p475
(lp476
S'bern_87_017v.jpg'
p477
aI3064
aI4085
aI1921
aI1302
aI102
aI111
asS'cod87-diag-0335'
p478
(lp479
S'bern_87_017v.jpg'
p480
aI3064
aI4085
aI1822
aI1515
aI372
aI81
asS'cod87-diag-0334'
p481
(lp482
S'bern_87_017v.jpg'
p483
aI3064
aI4085
aI2536
aI1422
aI129
aI156
asS'cod87-diag-0337'
p484
(lp485
S'bern_87_017v.jpg'
p486
aI3064
aI4085
aI1537
aI1647
aI210
aI96
asS'cod87-diag-0336'
p487
(lp488
S'bern_87_017v.jpg'
p489
aI3064
aI4085
aI1423
aI1638
aI105
aI105
asS'cod87-diag-0205'
p490
(lp491
S'bern_87_009v.jpg'
p492
aI3064
aI4085
aI1708
aI2985
aI364
aI376
asS'cod87-diag-0204'
p493
(lp494
S'bern_87_009v.jpg'
p495
aI3064
aI4085
aI1652
aI2192
aI312
aI228
asS'cod87-diag-0207'
p496
(lp497
S'bern_87_010r.jpg'
p498
aI3064
aI4085
aI1522
aI308
aI376
aI256
asS'cod87-diag-0206'
p499
(lp500
S'bern_87_009v.jpg'
p501
aI3064
aI4085
aI1272
aI3213
aI420
aI256
asS'cod87-diag-0201'
p502
(lp503
S'bern_87_008v.jpg'
p504
aI3064
aI4085
aI480
aI3242
aI208
aI112
asS'cod87-diag-0200'
p505
(lp506
S'bern_87_008v.jpg'
p507
aI3064
aI4085
aI1760
aI3038
aI124
aI156
asS'cod87-diag-0203'
p508
(lp509
S'bern_87_009v.jpg'
p510
aI3064
aI4085
aI2552
aI1716
aI244
aI212
asS'cod87-diag-0202'
p511
(lp512
S'bern_87_008v.jpg'
p513
aI3064
aI4085
aI1740
aI3186
aI168
aI180
asS'cod87-diag-0209'
p514
(lp515
S'bern_87_010r.jpg'
p516
aI3064
aI4085
aI1278
aI1380
aI312
aI168
asS'cod87-diag-0208'
p517
(lp518
S'bern_87_010r.jpg'
p519
aI3064
aI4085
aI1134
aI888
aI428
aI164
asS'cod87-diag-0058'
p520
(lp521
S'bern_87_005r.jpg'
p522
aI3064
aI4085
aI1639
aI845
aI246
aI105
asS'cod87-diag-0059'
p523
(lp524
S'bern_87_005r.jpg'
p525
aI3064
aI4085
aI1624
aI944
aI189
aI69
asS'cod87-diag-0050'
p526
(lp527
S'bern_87_003r.jpg'
p528
aI3064
aI4085
aI579
aI2519
aI195
aI111
asS'cod87-diag-0051'
p529
(lp530
S'bern_87_003r.jpg'
p531
aI3064
aI4085
aI1095
aI2546
aI84
aI75
asS'cod87-diag-0052'
p532
(lp533
S'bern_87_003r.jpg'
p534
aI3064
aI4085
aI1536
aI2537
aI159
aI87
asS'cod87-diag-0053'
p535
(lp536
S'bern_87_003r.jpg'
p537
aI3064
aI4085
aI522
aI2606
aI210
aI111
asS'cod87-diag-0054'
p538
(lp539
S'bern_87_003r.jpg'
p540
aI3064
aI4085
aI897
aI2594
aI117
aI114
asS'cod87-diag-0055'
p541
(lp542
S'bern_87_003r.jpg'
p543
aI3064
aI4085
aI1260
aI2594
aI138
aI132
asS'cod87-diag-0056'
p544
(lp545
S'bern_87_003r.jpg'
p546
aI3064
aI4085
aI1419
aI2591
aI138
aI138
asS'cod87-diag-0057'
p547
(lp548
S'bern_87_005r.jpg'
p549
aI3064
aI4085
aI1492
aI878
aI165
aI75
asS'cod87-diag-0111'
p550
(lp551
S'bern_87_005v.jpg'
p552
aI3064
aI4085
aI1089
aI1475
aI156
aI159
asS'cod87-diag-0110'
p553
(lp554
S'bern_87_005v.jpg'
p555
aI3064
aI4085
aI2697
aI1298
aI147
aI147
asS'cod87-diag-0298'
p556
(lp557
S'bern_87_017r.jpg'
p558
aI3064
aI4085
aI942
aI1701
aI428
aI88
asS'cod87-diag-0112'
p559
(lp560
S'bern_87_005v.jpg'
p561
aI3064
aI4085
aI1959
aI1541
aI183
aI174
asS'cod87-diag-0115'
p562
(lp563
S'bern_87_005v.jpg'
p564
aI3064
aI4085
aI1919
aI1901
aI150
aI126
asS'cod87-diag-0114'
p565
(lp566
S'bern_87_005v.jpg'
p567
aI3064
aI4085
aI2595
aI1742
aI168
aI114
asS'cod87-diag-0117'
p568
(lp569
S'bern_87_005v.jpg'
p570
aI3064
aI4085
aI2411
aI2451
aI544
aI228
asS'cod87-diag-0116'
p571
(lp572
S'bern_87_005v.jpg'
p573
aI3064
aI4085
aI1280
aI2276
aI330
aI165
asS'cod87-diag-0119'
p574
(lp575
S'bern_87_005v.jpg'
p576
aI3064
aI4085
aI2015
aI2735
aI176
aI140
asS'cod87-diag-0118'
p577
(lp578
S'bern_87_005v.jpg'
p579
aI3064
aI4085
aI891
aI2675
aI264
aI180
asS'cod87-diag-0290'
p580
(lp581
S'bern_87_017r.jpg'
p582
aI3064
aI4085
aI1776
aI1175
aI244
aI114
asS'cod87-diag-0291'
p583
(lp584
S'bern_87_017r.jpg'
p585
aI3064
aI4085
aI1174
aI1293
aI184
aI60
asS'cod87-diag-0296'
p586
(lp587
S'bern_87_017r.jpg'
p588
aI3064
aI4085
aI1931
aI1386
aI520
aI330
asS'cod87-diag-0297'
p589
(lp590
S'bern_87_017r.jpg'
p591
aI3064
aI4085
aI2255
aI1380
aI284
aI304
asS'cod87-diag-0294'
p592
(lp593
S'bern_87_017r.jpg'
p594
aI3064
aI4085
aI1924
aI1323
aI200
aI80
asS'cod87-diag-0295'
p595
(lp596
S'bern_87_017r.jpg'
p597
aI3064
aI4085
aI1655
aI1398
aI288
aI308
asS'cod87-diag-0186'
p598
(lp599
S'bern_87_007v.jpg'
p600
aI3064
aI4085
aI2256
aI996
aI192
aI136
asS'cod87-diag-0187'
p601
(lp602
S'bern_87_007v.jpg'
p603
aI3064
aI4085
aI2404
aI1056
aI172
aI112
asS'cod87-diag-0184'
p604
(lp605
S'bern_87_007v.jpg'
p606
aI3064
aI4085
aI1332
aI808
aI204
aI244
asS'cod87-diag-0185'
p607
(lp608
S'bern_87_007v.jpg'
p609
aI3064
aI4085
aI2580
aI796
aI360
aI212
asS'cod87-diag-0182'
p610
(lp611
S'bern_87_007v.jpg'
p612
aI3064
aI4085
aI2596
aI276
aI260
aI216
asS'cod87-diag-0183'
p613
(lp614
S'bern_87_007v.jpg'
p615
aI3064
aI4085
aI1240
aI616
aI356
aI208
asS'cod87-diag-0180'
p616
(lp617
S'bern_87_007r.jpg'
p618
aI3064
aI4085
aI1738
aI3005
aI772
aI228
asS'cod87-diag-0181'
p619
(lp620
S'bern_87_007r.jpg'
p621
aI3064
aI4085
aI1406
aI3289
aI336
aI200
asS'cod87-diag-0062'
p622
(lp623
S'bern_87_005r.jpg'
p624
aI3064
aI4085
aI580
aI1139
aI150
aI135
asS'cod87-diag-0188'
p625
(lp626
S'bern_87_007v.jpg'
p627
aI3064
aI4085
aI2592
aI1056
aI184
aI108
asS'cod87-diag-0189'
p628
(lp629
S'bern_87_007v.jpg'
p630
aI3064
aI4085
aI1672
aI1136
aI284
aI120
asS'cod87-diag-0102'
p631
(lp632
S'bern_87_005v.jpg'
p633
aI3064
aI4085
aI1620
aI719
aI186
aI180
asS'cod87-diag-0103'
p634
(lp635
S'bern_87_005v.jpg'
p636
aI3064
aI4085
aI2112
aI614
aI657
aI276
asS'cod87-diag-0153'
p637
(lp638
S'bern_87_006v.jpg'
p639
aI3064
aI4085
aI1180
aI872
aI360
aI172
asS'cod87-diag-0259'
p640
(lp641
S'bern_87_013v.jpg'
p642
aI3064
aI4085
aI1664
aI1727
aI208
aI172
asS'cod87-diag-0155'
p643
(lp644
S'bern_87_006v.jpg'
p645
aI3064
aI4085
aI2468
aI1216
aI440
aI192
asS'cod87-diag-0154'
p646
(lp647
S'bern_87_006v.jpg'
p648
aI3064
aI4085
aI2400
aI1032
aI316
aI216
asS'cod87-diag-0157'
p649
(lp650
S'bern_87_006v.jpg'
p651
aI3064
aI4085
aI1536
aI1416
aI332
aI188
asS'cod87-diag-0156'
p652
(lp653
S'bern_87_006v.jpg'
p654
aI3064
aI4085
aI2268
aI1328
aI240
aI196
asS'cod87-diag-0151'
p655
(lp656
S'bern_87_006v.jpg'
p657
aI3064
aI4085
aI2344
aI308
aI532
aI260
asS'cod87-diag-0150'
p658
(lp659
S'bern_87_006r.jpg'
p660
aI3064
aI4085
aI1674
aI3257
aI356
aI152
asS'cod87-diag-0258'
p661
(lp662
S'bern_87_013v.jpg'
p663
aI3064
aI4085
aI1221
aI1519
aI243
aI198
asS'cod87-diag-0152'
p664
(lp665
S'bern_87_006v.jpg'
p666
aI3064
aI4085
aI2304
aI636
aI456
aI272
asS'cod87-diag-0256'
p667
(lp668
S'bern_87_013v.jpg'
p669
aI3064
aI4085
aI1812
aI1014
aI216
aI180
asS'cod87-diag-0257'
p670
(lp671
S'bern_87_013v.jpg'
p672
aI3064
aI4085
aI1392
aI1308
aI438
aI192
asS'cod87-diag-0254'
p673
(lp674
S'bern_87_013v.jpg'
p675
aI3064
aI4085
aI1914
aI672
aI174
aI180
asS'cod87-diag-0255'
p676
(lp677
S'bern_87_013v.jpg'
p678
aI3064
aI4085
aI1134
aI876
aI294
aI291
asS'cod87-diag-0252'
p679
(lp680
S'bern_87_013v.jpg'
p681
aI3064
aI4085
aI735
aI240
aI825
aI624
asS'cod87-diag-0158'
p682
(lp683
S'bern_87_006v.jpg'
p684
aI3064
aI4085
aI1644
aI1692
aI168
aI152
asS'cod87-diag-0250'
p685
(lp686
S'bern_87_013r.jpg'
p687
aI3064
aI4085
aI1484
aI2514
aI552
aI288
asS'cod87-diag-0253'
p688
(lp689
S'bern_87_013v.jpg'
p690
aI3064
aI4085
aI1518
aI222
aI321
aI504
asS'cod87-diag-0251'
p691
(lp692
S'bern_87_013r.jpg'
p693
aI3064
aI4085
aI904
aI2820
aI404
aI376
asS'cod87-diag-0108'
p694
(lp695
S'bern_87_005v.jpg'
p696
aI3064
aI4085
aI924
aI1208
aI180
aI189
asS'cod87-diag-0021'
p697
(lp698
S'bern_87_003r.jpg'
p699
aI3064
aI4085
aI1319
aI1889
aI78
aI102
asS'cod87-diag-0020'
p700
(lp701
S'bern_87_003r.jpg'
p702
aI3064
aI4085
aI591
aI1901
aI128
aI100
asS'cod87-diag-0023'
p703
(lp704
S'bern_87_003r.jpg'
p705
aI3064
aI4085
aI2221
aI1877
aI264
aI174
asS'cod87-diag-0022'
p706
(lp707
S'bern_87_003r.jpg'
p708
aI3064
aI4085
aI2055
aI1893
aI100
aI102
asS'cod87-diag-0025'
p709
(lp710
S'bern_87_003r.jpg'
p711
aI3064
aI4085
aI1133
aI1957
aI192
aI192
asS'cod87-diag-0024'
p712
(lp713
S'bern_87_003r.jpg'
p714
aI3064
aI4085
aI677
aI1979
aI102
aI88
asS'cod87-diag-0027'
p715
(lp716
S'bern_87_003r.jpg'
p717
aI3064
aI4085
aI819
aI2055
aI220
aI76
asS'cod87-diag-0026'
p718
(lp719
S'bern_87_003r.jpg'
p720
aI3064
aI4085
aI1705
aI1955
aI234
aI150
asS'cod87-diag-0029'
p721
(lp722
S'bern_87_003r.jpg'
p723
aI3064
aI4085
aI577
aI2103
aI188
aI166
asS'cod87-diag-0028'
p724
(lp725
S'bern_87_003r.jpg'
p726
aI3064
aI4085
aI1751
aI2023
aI308
aI104
asS'cod87-diag-0326'
p727
(lp728
S'bern_87_017v.jpg'
p729
aI3064
aI4085
aI2602
aI999
aI213
aI207
asS'cod87-diag-0327'
p730
(lp731
S'bern_87_017v.jpg'
p732
aI3064
aI4085
aI2143
aI1215
aI237
aI153
asS'cod87-diag-0324'
p733
(lp734
S'bern_87_017v.jpg'
p735
aI3064
aI4085
aI2575
aI675
aI219
aI159
asS'cod87-diag-0325'
p736
(lp737
S'bern_87_017v.jpg'
p738
aI3064
aI4085
aI1003
aI813
aI132
aI159
asS'cod87-diag-0322'
p739
(lp740
S'bern_87_017v.jpg'
p741
aI3064
aI4085
aI1603
aI603
aI228
aI114
asS'cod87-diag-0323'
p742
(lp743
S'bern_87_017v.jpg'
p744
aI3064
aI4085
aI1819
aI597
aI141
aI180
asS'cod87-diag-0320'
p745
(lp746
S'bern_87_017v.jpg'
p747
aI3064
aI4085
aI1492
aI540
aI147
aI135
asS'cod87-diag-0321'
p748
(lp749
S'bern_87_017v.jpg'
p750
aI3064
aI4085
aI1132
aI603
aI156
aI99
asS'cod87-diag-0328'
p751
(lp752
S'bern_87_017v.jpg'
p753
aI3064
aI4085
aI2341
aI1221
aI186
aI159
asS'cod87-diag-0329'
p754
(lp755
S'bern_87_017v.jpg'
p756
aI3064
aI4085
aI2515
aI1188
aI189
aI165
asS'cod87-diag-0212'
p757
(lp758
S'bern_87_010r.jpg'
p759
aI3064
aI4085
aI1722
aI2076
aI212
aI172
asS'cod87-diag-0213'
p760
(lp761
S'bern_87_010r.jpg'
p762
aI3064
aI4085
aI1936
aI2493
aI288
aI176
asS'cod87-diag-0210'
p763
(lp764
S'bern_87_010r.jpg'
p765
aI3064
aI4085
aI1042
aI1600
aI300
aI160
asS'cod87-diag-0211'
p766
(lp767
S'bern_87_010r.jpg'
p768
aI3064
aI4085
aI1434
aI1848
aI476
aI200
asS'cod87-diag-0216'
p769
(lp770
S'bern_87_010r.jpg'
p771
aI3064
aI4085
aI768
aI3069
aI400
aI200
asS'cod87-diag-0217'
p772
(lp773
S'bern_87_010v.jpg'
p774
aI3064
aI4085
aI1492
aI668
aI284
aI188
asS'cod87-diag-0214'
p775
(lp776
S'bern_87_010r.jpg'
p777
aI3064
aI4085
aI1640
aI2649
aI348
aI172
asS'cod87-diag-0215'
p778
(lp779
S'bern_87_010r.jpg'
p780
aI3064
aI4085
aI1924
aI2781
aI256
aI168
asS'cod87-diag-0218'
p781
(lp782
S'bern_87_010v.jpg'
p783
aI3064
aI4085
aI2432
aI864
aI368
aI216
asS'cod87-diag-0219'
p784
(lp785
S'bern_87_010v.jpg'
p786
aI3064
aI4085
aI1784
aI1228
aI252
aI268
asS'cod87-diag-0065'
p787
(lp788
S'bern_87_005r.jpg'
p789
aI3064
aI4085
aI1963
aI1133
aI120
aI78
asS'cod87-diag-0064'
p790
(lp791
S'bern_87_005r.jpg'
p792
aI3064
aI4085
aI1858
aI1133
aI114
aI72
asS'cod87-diag-0067'
p793
(lp794
S'bern_87_005r.jpg'
p795
aI3064
aI4085
aI217
aI1190
aI135
aI129
asS'cod87-diag-0066'
p796
(lp797
S'bern_87_005r.jpg'
p798
aI3064
aI4085
aI2071
aI1118
aI141
aI99
asS'cod87-diag-0061'
p799
(lp800
S'bern_87_005r.jpg'
p801
aI3064
aI4085
aI1252
aI1076
aI186
aI75
asS'cod87-diag-0060'
p802
(lp803
S'bern_87_005r.jpg'
p804
aI3064
aI4085
aI1090
aI1058
aI177
aI111
asS'cod87-diag-0063'
p805
(lp806
S'bern_87_005r.jpg'
p807
aI3064
aI4085
aI694
aI1124
aI162
aI138
asS'cod87-diag-0109'
p808
(lp809
S'bern_87_005v.jpg'
p810
aI3064
aI4085
aI2205
aI1265
aI159
aI174
asS'cod87-diag-0106'
p811
(lp812
S'bern_87_005v.jpg'
p813
aI3064
aI4085
aI2658
aI962
aI162
aI138
asS'cod87-diag-0107'
p814
(lp815
S'bern_87_005v.jpg'
p816
aI3064
aI4085
aI1932
aI1058
aI231
aI207
asS'cod87-diag-0104'
p817
(lp818
S'bern_87_005v.jpg'
p819
aI3064
aI4085
aI2277
aI866
aI267
aI183
asS'cod87-diag-0105'
p820
(lp821
S'bern_87_005v.jpg'
p822
aI3064
aI4085
aI1629
aI935
aI309
aI183
asS'cod87-diag-0069'
p823
(lp824
S'bern_87_005r.jpg'
p825
aI3064
aI4085
aI1867
aI1187
aI57
aI153
asS'cod87-diag-0068'
p826
(lp827
S'bern_87_005r.jpg'
p828
aI3064
aI4085
aI1798
aI1184
aI69
aI159
asS'cod87-diag-0100'
p829
(lp830
S'bern_87_005r.jpg'
p831
aI3064
aI4085
aI2221
aI3287
aI300
aI162
asS'cod87-diag-0101'
p832
(lp833
S'bern_87_005v.jpg'
p834
aI3064
aI4085
aI1443
aI722
aI186
aI180
asS'cod87-diag-0267'
p835
(lp836
S'bern_87_015v.jpg'
p837
aI3064
aI4085
aI1532
aI2625
aI1408
aI972
asS'cod87-diag-0266'
p838
(lp839
S'bern_87_015v.jpg'
p840
aI3064
aI4085
aI1348
aI1619
aI1588
aI644
asS'cod87-diag-0265'
p841
(lp842
S'bern_87_015v.jpg'
p843
aI3064
aI4085
aI1946
aI740
aI948
aI468
asS'cod87-diag-0264'
p844
(lp845
S'bern_87_015r.jpg'
p846
aI3064
aI4085
aI1675
aI3200
aI720
aI270
asS'cod87-diag-0263'
p847
(lp848
S'bern_87_015r.jpg'
p849
aI3064
aI4085
aI1567
aI3101
aI876
aI156
asS'cod87-diag-0262'
p850
(lp851
S'bern_87_013v.jpg'
p852
aI3064
aI4085
aI2628
aI2443
aI260
aI264
asS'cod87-diag-0261'
p853
(lp854
S'bern_87_013v.jpg'
p855
aI3064
aI4085
aI2528
aI2195
aI404
aI168
asS'cod87-diag-0260'
p856
(lp857
S'bern_87_013v.jpg'
p858
aI3064
aI4085
aI2132
aI1931
aI172
aI140
asS'cod87-diag-0269'
p859
(lp860
S'bern_87_016r.jpg'
p861
aI3064
aI4085
aI1904
aI1888
aI732
aI756
asS'cod87-diag-0268'
p862
(lp863
S'bern_87_016r.jpg'
p864
aI3064
aI4085
aI2060
aI1252
aI520
aI556
asS'cod87-diag-0159'
p865
(lp866
S'bern_87_006v.jpg'
p867
aI3064
aI4085
aI2340
aI2036
aI180
aI156
asS'cod87-diag-0319'
p868
(lp869
S'bern_87_017v.jpg'
p870
aI3064
aI4085
aI1357
aI537
aI147
aI132
asS'cod87-diag-0318'
p871
(lp872
S'bern_87_017r.jpg'
p873
aI3064
aI4085
aI2340
aI3188
aI141
aI141
asS'cod87-diag-0317'
p874
(lp875
S'bern_87_017r.jpg'
p876
aI3064
aI4085
aI1344
aI3170
aI138
aI129
asS'cod87-diag-0316'
p877
(lp878
S'bern_87_017r.jpg'
p879
aI3064
aI4085
aI1185
aI3170
aI174
aI165
asS'cod87-diag-0315'
p880
(lp881
S'bern_87_017r.jpg'
p882
aI3064
aI4085
aI1176
aI3023
aI141
aI135
asS'cod87-diag-0314'
p883
(lp884
S'bern_87_017r.jpg'
p885
aI3064
aI4085
aI1884
aI2897
aI90
aI81
asS'cod87-diag-0313'
p886
(lp887
S'bern_87_017r.jpg'
p888
aI3064
aI4085
aI1413
aI2813
aI432
aI138
asS'cod87-diag-0312'
p889
(lp890
S'bern_87_017r.jpg'
p891
aI3064
aI4085
aI2418
aI2684
aI162
aI138
asS'cod87-diag-0311'
p892
(lp893
S'bern_87_017r.jpg'
p894
aI3064
aI4085
aI2286
aI2666
aI147
aI156
asS'cod87-diag-0310'
p895
(lp896
S'bern_87_017r.jpg'
p897
aI3064
aI4085
aI1047
aI2593
aI345
aI123
asS'cod87-diag-0089'
p898
(lp899
S'bern_87_005r.jpg'
p900
aI3064
aI4085
aI1061
aI2255
aI198
aI153
asS'cod87-diag-0088'
p901
(lp902
S'bern_87_005r.jpg'
p903
aI3064
aI4085
aI1739
aI2171
aI144
aI135
asS'cod87-diag-0087'
p904
(lp905
S'bern_87_005r.jpg'
p906
aI3064
aI4085
aI1658
aI2171
aI114
aI150
asS'cod87-diag-0086'
p907
(lp908
S'bern_87_005r.jpg'
p909
aI3064
aI4085
aI473
aI2117
aI141
aI171
asS'cod87-diag-0085'
p910
(lp911
S'bern_87_005r.jpg'
p912
aI3064
aI4085
aI2207
aI2060
aI126
aI156
asS'cod87-diag-0084'
p913
(lp914
S'bern_87_005r.jpg'
p915
aI3064
aI4085
aI1718
aI2051
aI129
aI144
asS'cod87-diag-0083'
p916
(lp917
S'bern_87_005r.jpg'
p918
aI3064
aI4085
aI1529
aI2039
aI216
aI120
asS'cod87-diag-0082'
p919
(lp920
S'bern_87_005r.jpg'
p921
aI3064
aI4085
aI1400
aI2048
aI159
aI114
asS'cod87-diag-0081'
p922
(lp923
S'bern_87_005r.jpg'
p924
aI3064
aI4085
aI584
aI1973
aI213
aI189
asS'cod87-diag-0080'
p925
(lp926
S'bern_87_005r.jpg'
p927
aI3064
aI4085
aI1163
aI1892
aI240
aI204
asS'cod87-diag-0113'
p928
(lp929
S'bern_87_005v.jpg'
p930
aI3064
aI4085
aI897
aI1775
aI330
aI201
asS'cod87-diag-0299'
p931
(lp932
S'bern_87_017r.jpg'
p933
aI3064
aI4085
aI2324
aI1691
aI248
aI58
asS'cod87-diag-0142'
p934
(lp935
S'bern_87_006r.jpg'
p936
aI3064
aI4085
aI1696
aI2188
aI344
aI168
asS'cod87-diag-0143'
p937
(lp938
S'bern_87_006r.jpg'
p939
aI3064
aI4085
aI2264
aI2220
aI324
aI176
asS'cod87-diag-0140'
p940
(lp941
S'bern_87_006r.jpg'
p942
aI3064
aI4085
aI1108
aI2056
aI480
aI188
asS'cod87-diag-0228'
p943
(lp944
S'bern_87_011v.jpg'
p945
aI3064
aI4085
aI1844
aI1008
aI260
aI252
asS'cod87-diag-0146'
p946
(lp947
S'bern_87_006r.jpg'
p948
aI3064
aI4085
aI1810
aI2533
aI564
aI360
asS'cod87-diag-0147'
p949
(lp950
S'bern_87_006r.jpg'
p951
aI3064
aI4085
aI978
aI2741
aI260
aI196
asS'cod87-diag-0144'
p952
(lp953
S'bern_87_006r.jpg'
p954
aI3064
aI4085
aI1996
aI2332
aI356
aI172
asS'cod87-diag-0145'
p955
(lp956
S'bern_87_006r.jpg'
p957
aI3064
aI4085
aI1336
aI2400
aI216
aI176
asS'cod87-diag-0223'
p958
(lp959
S'bern_87_011r.jpg'
p960
aI3064
aI4085
aI1476
aI1156
aI360
aI180
asS'cod87-diag-0222'
p961
(lp962
S'bern_87_011r.jpg'
p963
aI3064
aI4085
aI1244
aI820
aI332
aI264
asS'cod87-diag-0148'
p964
(lp965
S'bern_87_006r.jpg'
p966
aI3064
aI4085
aI954
aI2985
aI336
aI180
asS'cod87-diag-0149'
p967
(lp968
S'bern_87_006r.jpg'
p969
aI3064
aI4085
aI1258
aI3125
aI368
aI176
asS'cod87-diag-0227'
p970
(lp971
S'bern_87_011r.jpg'
p972
aI3064
aI4085
aI1722
aI3265
aI228
aI232
asS'cod87-diag-0226'
p973
(lp974
S'bern_87_011r.jpg'
p975
aI3064
aI4085
aI2082
aI2433
aI132
aI140
asS'cod87-diag-0225'
p976
(lp977
S'bern_87_011r.jpg'
p978
aI3064
aI4085
aI2010
aI2273
aI592
aI208
asS'cod87-diag-0224'
p979
(lp980
S'bern_87_011r.jpg'
p981
aI3064
aI4085
aI2176
aI1328
aI340
aI280
asS'cod87-diag-0292'
p982
(lp983
S'bern_87_017r.jpg'
p984
aI3064
aI4085
aI1352
aI1281
aI90
aI70
asS'cod87-diag-0293'
p985
(lp986
S'bern_87_017r.jpg'
p987
aI3064
aI4085
aI1430
aI1275
aI238
aI78
asS'cod87-diag-0038'
p988
(lp989
S'bern_87_003r.jpg'
p990
aI3064
aI4085
aI614
aI2340
aI195
aI99
asS'cod87-diag-0039'
p991
(lp992
S'bern_87_003r.jpg'
p993
aI3064
aI4085
aI1199
aI2328
aI282
aI81
asS'cod87-diag-0036'
p994
(lp995
S'bern_87_003r.jpg'
p996
aI3064
aI4085
aI1403
aI2259
aI162
aI88
asS'cod87-diag-0037'
p997
(lp998
S'bern_87_003r.jpg'
p999
aI3064
aI4085
aI1883
aI2247
aI202
aI108
asS'cod87-diag-0034'
p1000
(lp1001
S'bern_87_003r.jpg'
p1002
aI3064
aI4085
aI2197
aI2157
aI84
aI102
asS'cod87-diag-0035'
p1003
(lp1004
S'bern_87_003r.jpg'
p1005
aI3064
aI4085
aI821
aI2261
aI162
aI96
asS'cod87-diag-0032'
p1006
(lp1007
S'bern_87_003r.jpg'
p1008
aI3064
aI4085
aI867
aI2179
aI250
aI120
asS'cod87-diag-0033'
p1009
(lp1010
S'bern_87_003r.jpg'
p1011
aI3064
aI4085
aI1595
aI2185
aI204
aI96
asS'cod87-diag-0030'
p1012
(lp1013
S'bern_87_003r.jpg'
p1014
aI3064
aI4085
aI1257
aI2103
aI138
aI144
asS'cod87-diag-0031'
p1015
(lp1016
S'bern_87_003r.jpg'
p1017
aI3064
aI4085
aI2015
aI2107
aI186
aI104
asS'cod87-diag-0137'
p1018
(lp1019
S'bern_87_006r.jpg'
p1020
aI3064
aI4085
aI1992
aI1624
aI480
aI216
asS'cod87-diag-0136'
p1021
(lp1022
S'bern_87_006r.jpg'
p1023
aI3064
aI4085
aI1452
aI1472
aI408
aI176
asS'cod87-diag-0135'
p1024
(lp1025
S'bern_87_006r.jpg'
p1026
aI3064
aI4085
aI2320
aI1424
aI372
aI176
asS'cod87-diag-0134'
p1027
(lp1028
S'bern_87_006r.jpg'
p1029
aI3064
aI4085
aI1504
aI1356
aI276
aI140
asS'cod87-diag-0133'
p1030
(lp1031
S'bern_87_006r.jpg'
p1032
aI3064
aI4085
aI1068
aI1248
aI396
aI140
asS'cod87-diag-0132'
p1033
(lp1034
S'bern_87_006r.jpg'
p1035
aI3064
aI4085
aI1116
aI1132
aI344
aI144
asS'cod87-diag-0131'
p1036
(lp1037
S'bern_87_006r.jpg'
p1038
aI3064
aI4085
aI1596
aI1076
aI352
aI148
asS'cod87-diag-0130'
p1039
(lp1040
S'bern_87_006r.jpg'
p1041
aI3064
aI4085
aI2012
aI932
aI460
aI164
asS'cod87-diag-0139'
p1042
(lp1043
S'bern_87_006r.jpg'
p1044
aI3064
aI4085
aI1672
aI1916
aI420
aI172
asS'cod87-diag-0138'
p1045
(lp1046
S'bern_87_006r.jpg'
p1047
aI3064
aI4085
aI668
aI1828
aI372
aI176
asS'cod87-diag-0353'
p1048
(lp1049
S'bern_87_017v.jpg'
p1050
aI3064
aI4085
aI2211
aI2345
aI129
aI165
asS'cod87-diag-0352'
p1051
(lp1052
S'bern_87_017v.jpg'
p1053
aI3064
aI4085
aI1428
aI2270
aI138
aI105
asS'cod87-diag-0351'
p1054
(lp1055
S'bern_87_017v.jpg'
p1056
aI3064
aI4085
aI1509
aI2231
aI168
aI72
asS'cod87-diag-0350'
p1057
(lp1058
S'bern_87_017v.jpg'
p1059
aI3064
aI4085
aI1830
aI2147
aI165
aI99
asS'cod87-diag-0356'
p1060
(lp1061
S'bern_87_017v.jpg'
p1062
aI3064
aI4085
aI1386
aI2558
aI306
aI303
asS'cod87-diag-0355'
p1063
(lp1064
S'bern_87_017v.jpg'
p1065
aI3064
aI4085
aI2586
aI2408
aI129
aI141
asS'cod87-diag-0354'
p1066
(lp1067
S'bern_87_017v.jpg'
p1068
aI3064
aI4085
aI2352
aI2348
aI243
aI108
as.