(lp0
S'ramus_1756_v1_1_0001.tif'
p1
aS'ramus_1756_v1_1_0002.tif'
p2
aS'ramus_1756_v1_1_0003.tif'
p3
aS'ramus_1756_v1_1_0004.tif'
p4
aS'ramus_1756_v1_1_0005.tif'
p5
aS'ramus_1756_v1_1_0006.tif'
p6
aS'ramus_1756_v1_1_0007.tif'
p7
aS'ramus_1756_v1_1_0008.tif'
p8
aS'ramus_1756_v1_1_0009.tif'
p9
aS'ramus_1756_v1_1_0010.tif'
p10
aS'ramus_1756_v1_1_0011.tif'
p11
aS'ramus_1756_v1_1_0012.tif'
p12
aS'ramus_1756_v1_1_0013.tif'
p13
aS'ramus_1756_v1_1_0014.tif'
p14
aS'ramus_1756_v1_1_0015.tif'
p15
aS'ramus_1756_v1_1_0016.tif'
p16
aS'ramus_1756_v1_1_0017.tif'
p17
aS'ramus_1756_v1_1_0018.tif'
p18
a.