(lp0
I27
aI19
aI11
aI33
aI20
aI27
aI39
aI26
aI13
aI24
aI35
aI24
aI38
aI30
aI21
aI24
aI15
aI25
aI39
aI13
aI17
aI19
aI11
aI46
aI61
aI55
aI15
aI34
aI32
aI15
aI12
aI15
aI17
aI9
aI21
aI49
aI32
aI26
aI30
aI23
aI27
aI15
aI21
aI28
aI16
aI21
aI13
aI13
aI18
aI15
aI16
aI23
aI52
aI35
aI18
aI18
aI28
aI11
aI14
aI23
aI27
aI47
aI23
aI13
aI18
aI11
aI22
aI29
aI23
aI28
aI15
aI10
aI34
aI12
aI9
aI9
aI12
aI13
aI36
aI32
aI18
aI23
aI25
aI11
aI20
aI11
aI9
aI21
aI35
aI36
aI22
aI19
aI51
aI62
aI17
aI25
aI27
aI23
aI23
aI21
aI14
aI13
aI23
aI15
aI26
aI43
aI9
aI25
aI9
aI32
aI17
aI13
aI27
aI19
aI61
aI21
aI51
aI31
aI15
aI23
aI26
aI25
aI23
aI20
aI23
aI28
aI31
aI27
aI30
aI22
aI35
aI24
aI33
aI23
aI18
aI33
aI19
aI20
aI41
aI31
aI34
aI29
aI36
aI13
aI17
aI46
aI29
aI20
aI33
aI25
aI9
aI7
aI31
aI32
aI14
aI17
aI37
aI21
aI18
aI24
aI19
aI10
aI21
aI13
aI20
aI6
aI25
aI11
aI15
aI29
aI39
aI24
aI20
aI12
aI15
aI43
aI52
aI47
aI17
aI11
aI44
aI56
aI33
aI39
aI43
aI43
aI28
aI17
aI46
aI31
aI36
aI27
aI21
aI50
aI58
aI22
aI29
aI25
aI25
aI31
aI17
aI13
aI55
aI38
aI37
aI33
aI62
aI42
aI30
aI53
aI29
aI13
aI13
aI7
aI18
aI25
aI7
aI33
aI25
aI21
aI19
aI24
aI23
aI25
aI17
aI19
aI23
aI13
aI9
aI7
aI8
aI2
aI35
aI20
aI22
aI13
aI20
aI11
aI9
aI23
aI33
aI27
aI21
aI13
aI33
aI30
aI49
aI23
aI20
aI26
aI21
aI8
aI27
aI28
aI19
aI64
aI29
aI33
aI40
aI47
aI43
aI53
aI57
aI44
aI44
aI41
aI37
aI37
aI26
aI35
aI35
aI33
aI33
aI40
aI29
aI35
aI39
aI54
aI29
aI33
aI40
aI29
aI14
aI33
aI91
aI34
aI39
aI35
aI23
aI41
aI47
aI34
aI30
aI33
aI36
aI22
aI17
aI13
aI9
aI27
aI13
aI9
aI12
aI15
aI19
aI29
aI25
aI22
aI14
aI39
aI11
aI30
aI29
aI110
aI15
aI17
aI55
aI32
aI43
aI47
aI37
aI37
aI43
aI26
aI41
aI44
aI18
aI11
aI28
aI23
aI23
aI30
aI59
aI96
aI38
aI31
aI25
aI30
aI27
aI19
aI32
aI42
aI46
aI11
aI47
aI24
aI32
aI32
aI26
aI56
aI39
aI13
aI17
aI38
aI20
aI28
aI21
aI36
aI34
aI47
aI41
aI47
aI22
aI29
aI34
aI27
aI35
aI35
aI44
aI115
aI47
aI35
aI21
aI30
aI36
aI27
aI35
aI49
aI37
aI10
aI19
aI32
aI53
aI45
aI39
aI53
aI35
aI37
aI31
aI30
aI32
aI19
aI33
aI17
aI17
aI30
aI29
aI27
aI30
aI49
aI21
aI35
aI25
aI43
aI39
aI37
aI24
aI13
aI41
aI35
aI36
aI39
aI45
aI33
aI34
aI40
aI31
aI29
aI33
aI29
aI33
aI33
aI19
aI15
aI17
aI39
aI29
aI21
aI25
aI29
aI35
aI27
aI63
aI46
aI33
aI29
aI29
aI18
aI42
a.