(dp0
S'ramus_1756_v1_1_0034'
p1
cnumpy.core.multiarray
scalar
p2
(cnumpy
dtype
p3
(S'f8'
p4
I0
I1
tp5
Rp6
(I3
S'<'
p7
NNNI-1
I-1
I0
tp8
bS'R\x10\xf9\xd5\x9f\xb9C?'
p9
tp10
Rp11
sS'ramus_1756_v1_1_0035'
p12
g2
(g6
S'\xca\xf0\xfcJ\xa7IB?'
p13
tp14
Rp15
sS'ramus_1756_v1_1_0036'
p16
g2
(g6
S'\xf9\xd8\xc5$\x90\x8fE?'
p17
tp18
Rp19
sS'ramus_1756_v1_1_0037'
p20
g2
(g6
S']\xc6vH\x1bR;?'
p21
tp22
Rp23
sS'ramus_1756_v1_1_0030'
p24
g2
(g6
S'a\xe9L]\x193D?'
p25
tp26
Rp27
sS'ramus_1756_v1_1_0031'
p28
g2
(g6
S'\xaa\xd2\xf9\x08\xf8EE?'
p29
tp30
Rp31
sS'ramus_1756_v1_1_0032'
p32
g2
(g6
S'\xf2\xb1\x02\xa2\xf7\x03G?'
p33
tp34
Rp35
sS'ramus_1756_v1_1_0033'
p36
g2
(g6
S' =\xfe7dpH?'
p37
tp38
Rp39
sS'ramus_1756_v1_1_0135'
p40
g2
(g6
S'/U\xee\xc1\xfb\xe6F?'
p41
tp42
Rp43
sS'ramus_1756_v1_1_0134'
p44
g2
(g6
S'\xa54sr\xafj9?'
p45
tp46
Rp47
sS'ramus_1756_v1_1_0137'
p48
g2
(g6
S'\xcc\x02\xc8\x97\xb2\x8dE?'
p49
tp50
Rp51
sS'ramus_1756_v1_1_0136'
p52
g2
(g6
S'd\xacB\xa7\xf8\xc3D?'
p53
tp54
Rp55
sS'ramus_1756_v1_1_0038'
p56
g2
(g6
S'\xb0\xc1\x18;\xe5\xf3B?'
p57
tp58
Rp59
sS'ramus_1756_v1_1_0039'
p60
g2
(g6
S'\xfd\xb4i\xf9\xa2[C?'
p61
tp62
Rp63
sS'ramus_1756_v1_1_0133'
p64
g2
(g6
S'\xfd\xf2\xac,G\xae)?'
p65
tp66
Rp67
sS'ramus_1756_v1_1_0132'
p68
g2
(g6
S'\x13\x03\x0bT5\x85F?'
p69
tp70
Rp71
sS'ramus_1756_v1_1_0139'
p72
g2
(g6
S'!^\x9dB\xbdzC?'
p73
tp74
Rp75
sS'ramus_1756_v1_1_0138'
p76
g2
(g6
S'\xb5T\xbf\x08\xb1hE?'
p77
tp78
Rp79
sS'ramus_1756_v1_1_0204'
p80
g2
(g6
S'\xb8^\x1d:3\xabA?'
p81
tp82
Rp83
sS'ramus_1756_v1_1_0027'
p84
g2
(g6
S'\x7fQ\xa2\x85j.C?'
p85
tp86
Rp87
sS'ramus_1756_v1_1_0026'
p88
g2
(g6
S'\x198D\x02\xe6\xfdC?'
p89
tp90
Rp91
sS'ramus_1756_v1_1_0025'
p92
g2
(g6
S'w\xc4:tZ<B?'
p93
tp94
Rp95
sS'ramus_1756_v1_1_0024'
p96
g2
(g6
S'\x1c\xd6\x8c\xe1\x08BG?'
p97
tp98
Rp99
sS'ramus_1756_v1_1_0023'
p100
g2
(g6
S'\xd8\xad\xfe)KTB?'
p101
tp102
Rp103
sS'ramus_1756_v1_1_0022'
p104
g2
(g6
S'\x0b.Y>\x124O?'
p105
tp106
Rp107
sS'ramus_1756_v1_1_0021'
p108
g2
(g6
S'\tC\x9e\xd2\x96\x15S?'
p109
tp110
Rp111
sS'ramus_1756_v1_1_0020'
p112
g2
(g6
S'6n5&\xf9\xe0O?'
p113
tp114
Rp115
sS'ramus_1756_v1_1_0140'
p116
g2
(g6
S'\xe0\xe1+m\x8e\xfdE?'
p117
tp118
Rp119
sS'ramus_1756_v1_1_0131'
p120
g2
(g6
S'%\x0c\x01\xeb\xf8"%?'
p121
tp122
Rp123
sS'ramus_1756_v1_1_0142'
p124
g2
(g6
S'0\xf3a\xf6\xd1~H?'
p125
tp126
Rp127
sS'ramus_1756_v1_1_0143'
p128
g2
(g6
S'F$\xea:\xdc\x0cG?'
p129
tp130
Rp131
sS'ramus_1756_v1_1_0144'
p132
g2
(g6
S'\t\xa5\r\xd0\xc1\xe7C?'
p133
tp134
Rp135
sS'ramus_1756_v1_1_0145'
p136
g2
(g6
S'\xab\xc0L\x86\xe7uE?'
p137
tp138
Rp139
sS'ramus_1756_v1_1_0029'
p140
g2
(g6
S'\xec\\?\xe1\x92\xefF?'
p141
tp142
Rp143
sS'ramus_1756_v1_1_0028'
p144
g2
(g6
S'"\xbc\xd4\xc8\xfabD?'
p145
tp146
Rp147
sS'ramus_1756_v1_1_0214'
p148
g2
(g6
S'\x02\xbc\xadH\x86\xdb>?'
p149
tp150
Rp151
sS'ramus_1756_v1_1_0150'
p152
g2
(g6
S'J\xa5]Mh\xf0A?'
p153
tp154
Rp155
sS'ramus_1756_v1_1_0195'
p156
g2
(g6
S'~6j\tl\x03B?'
p157
tp158
Rp159
sS'ramus_1756_v1_1_0213'
p160
g2
(g6
S'\xdc\xd1[\xd1\xb5\xe0C?'
p161
tp162
Rp163
sS'ramus_1756_v1_1_0159'
p164
g2
(g6
S'-\x05d,\xe3\x1cF?'
p165
tp166
Rp167
sS'ramus_1756_v1_1_0158'
p168
g2
(g6
S'\x7f\xf5\x82\xd5G}F?'
p169
tp170
Rp171
sS'ramus_1756_v1_1_0153'
p172
g2
(g6
S'\xe4\xfa\x9eH\xde\xc2F?'
p173
tp174
Rp175
sS'ramus_1756_v1_1_0152'
p176
g2
(g6
S'f\x86\x9dD{\x8bI?'
p177
tp178
Rp179
sS'ramus_1756_v1_1_0151'
p180
g2
(g6
S' \x1a\x0f\x16+\xa4M?'
p181
tp182
Rp183
sS'ramus_1756_v1_1_0019'
p184
g2
(g6
S':\x8e\x8b\xae\x9e\x85S?'
p185
tp186
Rp187
sS'ramus_1756_v1_1_0157'
p188
g2
(g6
S'8\xb5\xf5jW\x05C?'
p189
tp190
Rp191
sS'ramus_1756_v1_1_0156'
p192
g2
(g6
S'd\xd6\\5\x00\xf8B?'
p193
tp194
Rp195
sS'ramus_1756_v1_1_0155'
p196
g2
(g6
S'&\x8d|$\xf2\xd2D?'
p197
tp198
Rp199
sS'ramus_1756_v1_1_0154'
p200
g2
(g6
S'\xdb\xd0\xa0\xdf\xaaFF?'
p201
tp202
Rp203
sS'ramus_1756_v1_1_0098'
p204
g2
(g6
S'\xb0\xa2/\x94\x81\xbd??'
p205
tp206
Rp207
sS'ramus_1756_v1_1_0099'
p208
g2
(g6
S'#`\xd4LbQ!?'
p209
tp210
Rp211
sS'ramus_1756_v1_1_0092'
p212
g2
(g6
S'\xc4\xb7\x8b2\x18\xa4B?'
p213
tp214
Rp215
sS'ramus_1756_v1_1_0093'
p216
g2
(g6
S'\x1eq\xb5\x1au\xa3C?'
p217
tp218
Rp219
sS'ramus_1756_v1_1_0090'
p220
g2
(g6
S'\xbf\xbf\x95\xb5/iD?'
p221
tp222
Rp223
sS'ramus_1756_v1_1_0091'
p224
g2
(g6
S'+@e\x8f\x0f\xc8D?'
p225
tp226
Rp227
sS'ramus_1756_v1_1_0096'
p228
g2
(g6
S'\x87^p\x12\xe0DM?'
p229
tp230
Rp231
sS'ramus_1756_v1_1_0097'
p232
g2
(g6
S'\xea$\x9b\x90\xe7\x11F?'
p233
tp234
Rp235
sS'ramus_1756_v1_1_0094'
p236
g2
(g6
S')R\x13%\x06\xe2E?'
p237
tp238
Rp239
sS'ramus_1756_v1_1_0095'
p240
g2
(g6
S'L\xf3\xd9e\xe6\x82D?'
p241
tp242
Rp243
sS'ramus_1756_v1_1_0166'
p244
g2
(g6
S'\xee%X\xa3\x1c\xd9D?'
p245
tp246
Rp247
sS'ramus_1756_v1_1_0167'
p248
g2
(g6
S'\xad\x93z\xc7\x08\xc9F?'
p249
tp250
Rp251
sS'ramus_1756_v1_1_0164'
p252
g2
(g6
S'\xef\x8e\x11\xcb\xa7\xb5F?'
p253
tp254
Rp255
sS'ramus_1756_v1_1_0165'
p256
g2
(g6
S'\x0c\xe9\xdc\x86\xda%H?'
p257
tp258
Rp259
sS'ramus_1756_v1_1_0162'
p260
g2
(g6
S'5\xd5\x83\x96\xa9ME?'
p261
tp262
Rp263
sS'ramus_1756_v1_1_0163'
p264
g2
(g6
S'\xb8\x07Mi\x0c\x19D?'
p265
tp266
Rp267
sS'ramus_1756_v1_1_0160'
p268
g2
(g6
S'\x19\x8e}\xd8\xf6ID?'
p269
tp270
Rp271
sS'ramus_1756_v1_1_0161'
p272
g2
(g6
S'\xad\x945\xb9\x13cD?'
p273
tp274
Rp275
sS'ramus_1756_v1_1_0168'
p276
g2
(g6
S's\x1a\xa9f\x1c~H?'
p277
tp278
Rp279
sS'ramus_1756_v1_1_0169'
p280
g2
(g6
S'\xed\x84{\x84,\\G?'
p281
tp282
Rp283
sS'ramus_1756_v1_1_0207'
p284
g2
(g6
S'\xd3\x10\x17\x90\rAE?'
p285
tp286
Rp287
sS'ramus_1756_v1_1_0146'
p288
g2
(g6
S'\x14:;D\x96tA?'
p289
tp290
Rp291
sS'ramus_1756_v1_1_0212'
p292
g2
(g6
S'\xeb\x14\xcd\x159"E?'
p293
tp294
Rp295
sS'ramus_1756_v1_1_0078'
p296
g2
(g6
S'\xfft\xbb%\xe0\xb8@?'
p297
tp298
Rp299
sS'ramus_1756_v1_1_0079'
p300
g2
(g6
S'[\x1fW\x1e\xfd\x80G?'
p301
tp302
Rp303
sS'ramus_1756_v1_1_0209'
p304
g2
(g6
S'}\xca:\xa5\x90f%?'
p305
tp306
Rp307
sS'ramus_1756_v1_1_0070'
p308
g2
(g6
S'\xa7\x93\xd1K$\xf6K?'
p309
tp310
Rp311
sS'ramus_1756_v1_1_0071'
p312
g2
(g6
S'\x12\xa2\x05\xa6\xda~2?'
p313
tp314
Rp315
sS'ramus_1756_v1_1_0072'
p316
g2
(g6
S'd7\x8c\xb1U\xd5K?'
p317
tp318
Rp319
sS'ramus_1756_v1_1_0073'
p320
g2
(g6
S'\x1c\xd0\xd5<\xc4\x97M?'
p321
tp322
Rp323
sS'ramus_1756_v1_1_0074'
p324
g2
(g6
S'xz\xe8\x8d\xb8D@?'
p325
tp326
Rp327
sS'ramus_1756_v1_1_0075'
p328
g2
(g6
S'1\xc3(\x8e@e6?'
p329
tp330
Rp331
sS'ramus_1756_v1_1_0076'
p332
g2
(g6
S'+\xf92O$\xb3I?'
p333
tp334
Rp335
sS'ramus_1756_v1_1_0077'
p336
g2
(g6
S'\xc2\x9eY0\xf9\x17I?'
p337
tp338
Rp339
sS'ramus_1756_v1_1_0171'
p340
g2
(g6
S'\x0b\x17\x81\xdb\x8d\xb1G?'
p341
tp342
Rp343
sS'ramus_1756_v1_1_0170'
p344
g2
(g6
S'\xbb\xa9\x19M\xad]I?'
p345
tp346
Rp347
sS'ramus_1756_v1_1_0173'
p348
g2
(g6
S'\x01&GO\x17\xfbE?'
p349
tp350
Rp351
sS'ramus_1756_v1_1_0172'
p352
g2
(g6
S'\x1b\xf8N\xb0\x1dFG?'
p353
tp354
Rp355
sS'ramus_1756_v1_1_0175'
p356
g2
(g6
S'.\xbc1\x06q\x8fM?'
p357
tp358
Rp359
sS'ramus_1756_v1_1_0174'
p360
g2
(g6
S'\x98\x02\xdc\x9a\xea\x06E?'
p361
tp362
Rp363
sS'ramus_1756_v1_1_0177'
p364
g2
(g6
S'u\x05\xf6\xf1\xaa\xfcM?'
p365
tp366
Rp367
sS'ramus_1756_v1_1_0176'
p368
g2
(g6
S'\x9b\xb9S,\x8dSG?'
p369
tp370
Rp371
sS'ramus_1756_v1_1_0179'
p372
g2
(g6
S'R\xb8m\xfcw2>?'
p373
tp374
Rp375
sS'ramus_1756_v1_1_0178'
p376
g2
(g6
S'\x1a\xf8N\xb0\x1dFG?'
p377
tp378
Rp379
sS'ramus_1756_v1_1_0085'
p380
g2
(g6
S'\xccD\xf3C(\x96C?'
p381
tp382
Rp383
sS'ramus_1756_v1_1_0084'
p384
g2
(g6
S'\x95\x13^\x9a\x8c\xabG?'
p385
tp386
Rp387
sS'ramus_1756_v1_1_0087'
p388
g2
(g6
S'\x9aS\xa2>\x86\xc5D?'
p389
tp390
Rp391
sS'ramus_1756_v1_1_0086'
p392
g2
(g6
S'\x070#u\xbc3C?'
p393
tp394
Rp395
sS'ramus_1756_v1_1_0081'
p396
g2
(g6
S'\x19\x8bm3\x83\x82F?'
p397
tp398
Rp399
sS'ramus_1756_v1_1_0080'
p400
g2
(g6
S'T\xdcA\xf3\x8e\x86H?'
p401
tp402
Rp403
sS'ramus_1756_v1_1_0083'
p404
g2
(g6
S'\x97\x924+#\x9eC?'
p405
tp406
Rp407
sS'ramus_1756_v1_1_0082'
p408
g2
(g6
S'[\xb0\xdbD\x8a\x8dD?'
p409
tp410
Rp411
sS'ramus_1756_v1_1_0089'
p412
g2
(g6
S'R\xa4\x9d\xa2\xe3\xa8G?'
p413
tp414
Rp415
sS'ramus_1756_v1_1_0088'
p416
g2
(g6
S'=p\xcf\xb5\xc0pM?'
p417
tp418
Rp419
sS'ramus_1756_v1_1_0104'
p420
g2
(g6
S'\x9f\x94\xce\xba\xea-!?'
p421
tp422
Rp423
sS'ramus_1756_v1_1_0105'
p424
g2
(g6
S'@n|\xd7\xedU%?'
p425
tp426
Rp427
sS'ramus_1756_v1_1_0069'
p428
g2
(g6
S' \x15\xb5\x9e\xdc\x91 ?'
p429
tp430
Rp431
sS'ramus_1756_v1_1_0068'
p432
g2
(g6
S't\xc6\x8dR-WJ?'
p433
tp434
Rp435
sS'ramus_1756_v1_1_0100'
p436
g2
(g6
S'\xb7\r\x05\xb1N{"?'
p437
tp438
Rp439
sS'ramus_1756_v1_1_0101'
p440
g2
(g6
S'\xd8\xad\xfe)KTB?'
p441
tp442
Rp443
sS'ramus_1756_v1_1_0102'
p444
g2
(g6
S'\x9e\xa0\xc5\xab\x9c\x9dH?'
p445
tp446
Rp447
sS'ramus_1756_v1_1_0103'
p448
g2
(g6
S'\x07ULh\x8d/$?'
p449
tp450
Rp451
sS'ramus_1756_v1_1_0063'
p452
g2
(g6
S'\xbf\xe4\xbe\xa8\x00eE?'
p453
tp454
Rp455
sS'ramus_1756_v1_1_0062'
p456
g2
(g6
S'\x99\x80\x86\x95,\x84B?'
p457
tp458
Rp459
sS'ramus_1756_v1_1_0061'
p460
g2
(g6
S']\x9e-\xaf\x93sC?'
p461
tp462
Rp463
sS'ramus_1756_v1_1_0060'
p464
g2
(g6
S'\xcd\xf1\xc9\x12\x8b\x11A?'
p465
tp466
Rp467
sS'ramus_1756_v1_1_0067'
p468
g2
(g6
S'\xa2\x04\x17\\A\xe9B?'
p469
tp470
Rp471
sS'ramus_1756_v1_1_0066'
p472
g2
(g6
S'w\xc4:tZ<B?'
p473
tp474
Rp475
sS'ramus_1756_v1_1_0065'
p476
g2
(g6
S'\xe7\x86R\xb1\xc4\xcdB?'
p477
tp478
Rp479
sS'ramus_1756_v1_1_0064'
p480
g2
(g6
S'\x90FH\xb5\xb9\x16D?'
p481
tp482
Rp483
sS'ramus_1756_v1_1_0188'
p484
g2
(g6
S'\x9a\t\x18\xae\xcf&G?'
p485
tp486
Rp487
sS'ramus_1756_v1_1_0189'
p488
g2
(g6
S'\x85\xc3\x9d\xe6z`F?'
p489
tp490
Rp491
sS'ramus_1756_v1_1_0184'
p492
g2
(g6
S'V\xa3B\xe8\x0b~K?'
p493
tp494
Rp495
sS'ramus_1756_v1_1_0185'
p496
g2
(g6
S'\xedX\x9c\xccQ`I?'
p497
tp498
Rp499
sS'ramus_1756_v1_1_0186'
p500
g2
(g6
S'C\xab`wx\x13C?'
p501
tp502
Rp503
sS'ramus_1756_v1_1_0187'
p504
g2
(g6
S's\xbco\xc2F~A?'
p505
tp506
Rp507
sS'ramus_1756_v1_1_0180'
p508
g2
(g6
S'\xd7gD\x94\xfb^H?'
p509
tp510
Rp511
sS'ramus_1756_v1_1_0181'
p512
g2
(g6
S'$\xd2\xdf\xb2\x8f\x95D?'
p513
tp514
Rp515
sS'ramus_1756_v1_1_0182'
p516
g2
(g6
S'\xa0\x9f\x16\xe0,\xca5?'
p517
tp518
Rp519
sS'ramus_1756_v1_1_0183'
p520
g2
(g6
S'\x13\xd0\xc6*\x00\xfeA?'
p521
tp522
Rp523
sS'ramus_1756_v1_1_0130'
p524
g2
(g6
S'\xb8?*b\xc0\xa0\x1e?'
p525
tp526
Rp527
sS'ramus_1756_v1_1_0117'
p528
g2
(g6
S'GS2\xdd\xd0\xed0?'
p529
tp530
Rp531
sS'ramus_1756_v1_1_0116'
p532
g2
(g6
S'\xf2pT\xb6\x96\x8b,?'
p533
tp534
Rp535
sS'ramus_1756_v1_1_0115'
p536
g2
(g6
S'\xf1"\xa3k\xfdBE?'
p537
tp538
Rp539
sS'ramus_1756_v1_1_0114'
p540
g2
(g6
S'\xe9\xdd\x88H\r//?'
p541
tp542
Rp543
sS'ramus_1756_v1_1_0113'
p544
g2
(g6
S'=\x08\x08\x10\xfd\xd4&?'
p545
tp546
Rp547
sS'ramus_1756_v1_1_0112'
p548
g2
(g6
S'\x16|\x94\x17\x99~:?'
p549
tp550
Rp551
sS'ramus_1756_v1_1_0111'
p552
g2
(g6
S'\x97\xc6\xf41>\xd7A?'
p553
tp554
Rp555
sS'ramus_1756_v1_1_0110'
p556
g2
(g6
S'\x12\xae!\xad\xc5W!?'
p557
tp558
Rp559
sS'ramus_1756_v1_1_0148'
p560
g2
(g6
S'X>u\x87\xac\t@?'
p561
tp562
Rp563
sS'ramus_1756_v1_1_0198'
p564
g2
(g6
S'\xa4\x00\xc36Jp4?'
p565
tp566
Rp567
sS'ramus_1756_v1_1_0106'
p568
g2
(g6
S'\xd56\xee\xb0\xe0\x17"?'
p569
tp570
Rp571
sS'ramus_1756_v1_1_0119'
p572
g2
(g6
S'b\x06\xe7$\xb6\x1dB?'
p573
tp574
Rp575
sS'ramus_1756_v1_1_0118'
p576
g2
(g6
S'I\xd2-\x0b\x8b\xc1*?'
p577
tp578
Rp579
sS'ramus_1756_v1_1_0056'
p580
g2
(g6
S"\xcb(\xa1\x9bR'C?"
p581
tp582
Rp583
sS'ramus_1756_v1_1_0057'
p584
g2
(g6
S'\x955g\xe7\xa6\xc4A?'
p585
tp586
Rp587
sS'ramus_1756_v1_1_0054'
p588
g2
(g6
S'?-\x01<G\xebC?'
p589
tp590
Rp591
sS'ramus_1756_v1_1_0055'
p592
g2
(g6
S'\x95\xad\xb9\x0b\x15EE?'
p593
tp594
Rp595
sS'ramus_1756_v1_1_0052'
p596
g2
(g6
S'\x81?\xf4\xefs\x14B?'
p597
tp598
Rp599
sS'ramus_1756_v1_1_0053'
p600
g2
(g6
S'n\xaf%\x87\xb8\xcaD?'
p601
tp602
Rp603
sS'ramus_1756_v1_1_0050'
p604
g2
(g6
S'\xa3a\xe4\x9f\xbd\xc2D?'
p605
tp606
Rp607
sS'ramus_1756_v1_1_0051'
p608
g2
(g6
S'\xa3a\xe4\x9f\xbd\xc2D?'
p609
tp610
Rp611
sS'ramus_1756_v1_1_0197'
p612
g2
(g6
S'=)4t\x9dqP?'
p613
tp614
Rp615
sS'ramus_1756_v1_1_0196'
p616
g2
(g6
S'\x88\xb6\xc7\x16\xf0\x1c5?'
p617
tp618
Rp619
sS'ramus_1756_v1_1_0107'
p620
g2
(g6
S'\x0e\xa4X\x84\xad\x99\x1a?'
p621
tp622
Rp623
sS'ramus_1756_v1_1_0194'
p624
g2
(g6
S'\x92\xcd\xc8\xdf-Y+?'
p625
tp626
Rp627
sS'ramus_1756_v1_1_0193'
p628
g2
(g6
S'\xed\xf1X\x88\xdc\xb7B?'
p629
tp630
Rp631
sS'ramus_1756_v1_1_0192'
p632
g2
(g6
S'\xc5\x1aC\xb7\rXC?'
p633
tp634
Rp635
sS'ramus_1756_v1_1_0058'
p636
g2
(g6
S'\xca\xc5\x1c\xb3\x91\xa3G?'
p637
tp638
Rp639
sS'ramus_1756_v1_1_0059'
p640
g2
(g6
S'\xa3\x86\r\x93\x8e\xbeE?'
p641
tp642
Rp643
sS'ramus_1756_v1_1_0149'
p644
g2
(g6
S'\xde\x0e\xfe+m\xaaD?'
p645
tp646
Rp647
sS'ramus_1756_v1_1_0210'
p648
g2
(g6
S'\xccU\xf0\xe5\xd4"$?'
p649
tp650
Rp651
sS'ramus_1756_v1_1_0211'
p652
g2
(g6
S'\x13\xa5VXw\x11G?'
p653
tp654
Rp655
sS'ramus_1756_v1_1_0191'
p656
g2
(g6
S'\x9bF\xabQ\x03E\x19?'
p657
tp658
Rp659
sS'ramus_1756_v1_1_0208'
p660
g2
(g6
S'\xdc\x05[\xec\xf5\x01F?'
p661
tp662
Rp663
sS'ramus_1756_v1_1_0141'
p664
g2
(g6
S'\nw\x80\x1f\xd8\xa0G?'
p665
tp666
Rp667
sS'ramus_1756_v1_1_0190'
p668
g2
(g6
S'\x19$f}\xf1X8?'
p669
tp670
Rp671
sS'ramus_1756_v1_1_0122'
p672
g2
(g6
S'n\xa3\xfc\xe6\xf6\xb8@?'
p673
tp674
Rp675
sS'ramus_1756_v1_1_0123'
p676
g2
(g6
S'{t\x11\xc4wu1?'
p677
tp678
Rp679
sS'ramus_1756_v1_1_0120'
p680
g2
(g6
S'\xe5\x00\x11\xb34\x9d<?'
p681
tp682
Rp683
sS'ramus_1756_v1_1_0121'
p684
g2
(g6
S'\xb8\x98\x8e\xbf\xc9\xa6I?'
p685
tp686
Rp687
sS'ramus_1756_v1_1_0126'
p688
g2
(g6
S'\xb0\xfd\x0b\xc7\xdcZD?'
p689
tp690
Rp691
sS'ramus_1756_v1_1_0127'
p692
g2
(g6
S'\x159\x11K\x1f\xaf/?'
p693
tp694
Rp695
sS'ramus_1756_v1_1_0124'
p696
g2
(g6
S'4\xbc|\x80\xf0EG?'
p697
tp698
Rp699
sS'ramus_1756_v1_1_0125'
p700
g2
(g6
S'\xc4\xc7\x1ai\xeb\xc2D?'
p701
tp702
Rp703
sS'ramus_1756_v1_1_0108'
p704
g2
(g6
S'K}\xc0\xcd\xb0g\x1d?'
p705
tp706
Rp707
sS'ramus_1756_v1_1_0128'
p708
g2
(g6
S'\xc99\xf4\xdf\x17S\x1d?'
p709
tp710
Rp711
sS'ramus_1756_v1_1_0129'
p712
g2
(g6
S'U\xc1"\xa8I\xb3M?'
p713
tp714
Rp715
sS'ramus_1756_v1_1_0109'
p716
g2
(g6
S'\xc9\xdf\xeb\xcaxP!?'
p717
tp718
Rp719
sS'ramus_1756_v1_1_0041'
p720
g2
(g6
S'\xc0%:D\xa7\xcfF?'
p721
tp722
Rp723
sS'ramus_1756_v1_1_0040'
p724
g2
(g6
S'M=,L\x88zF?'
p725
tp726
Rp727
sS'ramus_1756_v1_1_0043'
p728
g2
(g6
S'\x08\x1eu\xdf\xc5\x19B?'
p729
tp730
Rp731
sS'ramus_1756_v1_1_0042'
p732
g2
(g6
S'\x08\x96\xc7\x034\x9aE?'
p733
tp734
Rp735
sS'ramus_1756_v1_1_0045'
p736
g2
(g6
S'\xc0ll\x84\x92\xe4A?'
p737
tp738
Rp739
sS'ramus_1756_v1_1_0044'
p740
g2
(g6
S'(d\xc1\xba\xfc\xfbF?'
p741
tp742
Rp743
sS'ramus_1756_v1_1_0047'
p744
g2
(g6
S'?\x80*m\xe4oF?'
p745
tp746
Rp747
sS'ramus_1756_v1_1_0046'
p748
g2
(g6
S'ZS\x0e\x01\x0e\xb4B?'
p749
tp750
Rp751
sS'ramus_1756_v1_1_0049'
p752
g2
(g6
S'\x15\xf0D\xfa\x16!J?'
p753
tp754
Rp755
sS'ramus_1756_v1_1_0048'
p756
g2
(g6
S'\xd8\x1cz\x03\xbeGE?'
p757
tp758
Rp759
sS'ramus_1756_v1_1_0205'
p760
g2
(g6
S'\xdf\xb3\x9e\xbc\xa4\xb6I?'
p761
tp762
Rp763
sS'ramus_1756_v1_1_0147'
p764
g2
(g6
S'\x88\x8a\x08\xa5o\x10F?'
p765
tp766
Rp767
sS'ramus_1756_v1_1_0203'
p768
g2
(g6
S'\xe6\x9a\x88`\xca\x8e3?'
p769
tp770
Rp771
sS'ramus_1756_v1_1_0202'
p772
g2
(g6
S'\xb9k\xbc\x00\xeb\xf9\x1a?'
p773
tp774
Rp775
sS'ramus_1756_v1_1_0201'
p776
g2
(g6
S"\xd0\xeaLxW\xc3'?"
p777
tp778
Rp779
sS'ramus_1756_v1_1_0200'
p780
g2
(g6
S'\x8fu\x96t\x82\x88H?'
p781
tp782
Rp783
sS'ramus_1756_v1_1_0206'
p784
g2
(g6
S'\xe4\x00\x11\xb34\x9d,?'
p785
tp786
Rp787
sS'ramus_1756_v1_1_0199'
p788
g2
(g6
S'\x81\x0b\xcdI\x16o\x1f?'
p789
tp790
Rp791
s.