(dp0
S'euclidiselement00ramugoog_0187'
p1
cnumpy.core.multiarray
scalar
p2
(cnumpy
dtype
p3
(S'f8'
p4
I0
I1
tp5
Rp6
(I3
S'<'
p7
NNNI-1
I-1
I0
tp8
bS's\xbco\xc2F~A?'
p9
tp10
Rp11
sS'euclidiselement00ramugoog_0186'
p12
g2
(g6
S'C\xab`wx\x13C?'
p13
tp14
Rp15
sS'euclidiselement00ramugoog_0185'
p16
g2
(g6
S'\xedX\x9c\xccQ`I?'
p17
tp18
Rp19
sS'euclidiselement00ramugoog_0184'
p20
g2
(g6
S'V\xa3B\xe8\x0b~K?'
p21
tp22
Rp23
sS'euclidiselement00ramugoog_0183'
p24
g2
(g6
S'\x8c2\x82\xaft\xe4A?'
p25
tp26
Rp27
sS'euclidiselement00ramugoog_0182'
p28
g2
(g6
S'\x18;U\x8a\xd4\xb45?'
p29
tp30
Rp31
sS'euclidiselement00ramugoog_0181'
p32
g2
(g6
S'$\xd2\xdf\xb2\x8f\x95D?'
p33
tp34
Rp35
sS'euclidiselement00ramugoog_0180'
p36
g2
(g6
S'\x86\xec\xe0\xbd\x9e)H?'
p37
tp38
Rp39
sS'euclidiselement00ramugoog_0189'
p40
g2
(g6
S'\x85\xc3\x9d\xe6z`F?'
p41
tp42
Rp43
sS'euclidiselement00ramugoog_0188'
p44
g2
(g6
S'\x9a\t\x18\xae\xcf&G?'
p45
tp46
Rp47
sS'euclidiselement00ramugoog_0110'
p48
g2
(g6
S'\x12\xae!\xad\xc5W!?'
p49
tp50
Rp51
sS'euclidiselement00ramugoog_0111'
p52
g2
(g6
S'\x97\xc6\xf41>\xd7A?'
p53
tp54
Rp55
sS'euclidiselement00ramugoog_0112'
p56
g2
(g6
S'\x16|\x94\x17\x99~:?'
p57
tp58
Rp59
sS'euclidiselement00ramugoog_0113'
p60
g2
(g6
S'w4<s3\xc3&?'
p61
tp62
Rp63
sS'euclidiselement00ramugoog_0114'
p64
g2
(g6
S'\xa1\x96K\x8b\xde\x83+?'
p65
tp66
Rp67
sS'euclidiselement00ramugoog_0115'
p68
g2
(g6
S'\xf1"\xa3k\xfdBE?'
p69
tp70
Rp71
sS'euclidiselement00ramugoog_0116'
p72
g2
(g6
S'\xf2pT\xb6\x96\x8b,?'
p73
tp74
Rp75
sS'euclidiselement00ramugoog_0117'
p76
g2
(g6
S'\xeaw\x14\xd3m$1?'
p77
tp78
Rp79
sS'euclidiselement00ramugoog_0118'
p80
g2
(g6
S'DOF\x16\xa5\x85*?'
p81
tp82
Rp83
sS'euclidiselement00ramugoog_0119'
p84
g2
(g6
S'b\x06\xe7$\xb6\x1dB?'
p85
tp86
Rp87
sS'euclidiselement00ramugoog_0178'
p88
g2
(g6
S'\x1a\xf8N\xb0\x1dFG?'
p89
tp90
Rp91
sS'euclidiselement00ramugoog_0059'
p92
g2
(g6
S'\xa3\x86\r\x93\x8e\xbeE?'
p93
tp94
Rp95
sS'euclidiselement00ramugoog_0058'
p96
g2
(g6
S'\x19\x8bm3\x83\x82F?'
p97
tp98
Rp99
sS'euclidiselement00ramugoog_0211'
p100
g2
(g6
S'\x13\xa5VXw\x11G?'
p101
tp102
Rp103
sS'euclidiselement00ramugoog_0179'
p104
g2
(g6
S'R\xb8m\xfcw2>?'
p105
tp106
Rp107
sS'euclidiselement00ramugoog_0214'
p108
g2
(g6
S'\x1d\xd1\xee[\x95s>?'
p109
tp110
Rp111
sS'euclidiselement00ramugoog_0051'
p112
g2
(g6
S'\xa3a\xe4\x9f\xbd\xc2D?'
p113
tp114
Rp115
sS'euclidiselement00ramugoog_0050'
p116
g2
(g6
S'\xa3a\xe4\x9f\xbd\xc2D?'
p117
tp118
Rp119
sS'euclidiselement00ramugoog_0053'
p120
g2
(g6
S'n\xaf%\x87\xb8\xcaD?'
p121
tp122
Rp123
sS'euclidiselement00ramugoog_0052'
p124
g2
(g6
S'\xcb\x03x\xa8\x81+B?'
p125
tp126
Rp127
sS'euclidiselement00ramugoog_0055'
p128
g2
(g6
S'\x95\xad\xb9\x0b\x15EE?'
p129
tp130
Rp131
sS'euclidiselement00ramugoog_0054'
p132
g2
(g6
S'h59\xd3\x82\xbaC?'
p133
tp134
Rp135
sS'euclidiselement00ramugoog_0057'
p136
g2
(g6
S'\x955g\xe7\xa6\xc4A?'
p137
tp138
Rp139
sS'euclidiselement00ramugoog_0056'
p140
g2
(g6
S"\xcb(\xa1\x9bR'C?"
p141
tp142
Rp143
sS'euclidiselement00ramugoog_0170'
p144
g2
(g6
S'\xbb\xa9\x19M\xad]I?'
p145
tp146
Rp147
sS'euclidiselement00ramugoog_0171'
p148
g2
(g6
S'\x0b\x17\x81\xdb\x8d\xb1G?'
p149
tp150
Rp151
sS'euclidiselement00ramugoog_0064'
p152
g2
(g6
S'\xbf\xbf\x95\xb5/iD?'
p153
tp154
Rp155
sS'euclidiselement00ramugoog_0065'
p156
g2
(g6
S'\xe7\x86R\xb1\xc4\xcdB?'
p157
tp158
Rp159
sS'euclidiselement00ramugoog_0066'
p160
g2
(g6
S'w\xc4:tZ<B?'
p161
tp162
Rp163
sS'euclidiselement00ramugoog_0067'
p164
g2
(g6
S'\xc4\xb7\x8b2\x18\xa4B?'
p165
tp166
Rp167
sS'euclidiselement00ramugoog_0060'
p168
g2
(g6
S'\x19\xc9\xc8(s\nA?'
p169
tp170
Rp171
sS'euclidiselement00ramugoog_0061'
p172
g2
(g6
S'\xe3D\nN:\x9bB?'
p173
tp174
Rp175
sS'euclidiselement00ramugoog_0062'
p176
g2
(g6
S'\x99\x80\x86\x95,\x84B?'
p177
tp178
Rp179
sS'euclidiselement00ramugoog_0063'
p180
g2
(g6
S'\xbf\xe4\xbe\xa8\x00eE?'
p181
tp182
Rp183
sS'euclidiselement00ramugoog_0107'
p184
g2
(g6
S'\x0e\xa4X\x84\xad\x99\x1a?'
p185
tp186
Rp187
sS'euclidiselement00ramugoog_0106'
p188
g2
(g6
S'\xd56\xee\xb0\xe0\x17"?'
p189
tp190
Rp191
sS'euclidiselement00ramugoog_0105'
p192
g2
(g6
S'\xd5\xd1ZU8\x88$?'
p193
tp194
Rp195
sS'euclidiselement00ramugoog_0104'
p196
g2
(g6
S'\x19\xc9\xc8(s\n!?'
p197
tp198
Rp199
sS'euclidiselement00ramugoog_0068'
p200
g2
(g6
S't\xc6\x8dR-WJ?'
p201
tp202
Rp203
sS'euclidiselement00ramugoog_0069'
p204
g2
(g6
S'\x16\x84\xe9\xc6Z\x10\x1e?'
p205
tp206
Rp207
sS'euclidiselement00ramugoog_0101'
p208
g2
(g6
S'\xd8\xad\xfe)KTB?'
p209
tp210
Rp211
sS'euclidiselement00ramugoog_0100'
p212
g2
(g6
S'\xb7\r\x05\xb1N{"?'
p213
tp214
Rp215
sS'euclidiselement00ramugoog_0213'
p216
g2
(g6
S'\xdc\xd1[\xd1\xb5\xe0C?'
p217
tp218
Rp219
sS'euclidiselement00ramugoog_0088'
p220
g2
(g6
S'=p\xcf\xb5\xc0pM?'
p221
tp222
Rp223
sS'euclidiselement00ramugoog_0089'
p224
g2
(g6
S'R\xa4\x9d\xa2\xe3\xa8G?'
p225
tp226
Rp227
sS'euclidiselement00ramugoog_0086'
p228
g2
(g6
S'@\x08\xd8Hv\xefB?'
p229
tp230
Rp231
sS'euclidiselement00ramugoog_0087'
p232
g2
(g6
S'\xf2Ul\x01y\xfeC?'
p233
tp234
Rp235
sS'euclidiselement00ramugoog_0084'
p236
g2
(g6
S'\x95\x13^\x9a\x8c\xabG?'
p237
tp238
Rp239
sS'euclidiselement00ramugoog_0085'
p240
g2
(g6
S'\xa43\xe4a\xf19C?'
p241
tp242
Rp243
sS'euclidiselement00ramugoog_0082'
p244
g2
(g6
S'[\xb0\xdbD\x8a\x8dD?'
p245
tp246
Rp247
sS'euclidiselement00ramugoog_0083'
p248
g2
(g6
S'YS\x0e\x01\x0e\xb4B?'
p249
tp250
Rp251
sS'euclidiselement00ramugoog_0080'
p252
g2
(g6
S'T\xdcA\xf3\x8e\x86H?'
p253
tp254
Rp255
sS'euclidiselement00ramugoog_0081'
p256
g2
(g6
S')R\x13%\x06\xe2E?'
p257
tp258
Rp259
sS'euclidiselement00ramugoog_0073'
p260
g2
(g6
S'\x1c\xd0\xd5<\xc4\x97M?'
p261
tp262
Rp263
sS'euclidiselement00ramugoog_0072'
p264
g2
(g6
S'd7\x8c\xb1U\xd5K?'
p265
tp266
Rp267
sS'euclidiselement00ramugoog_0071'
p268
g2
(g6
S'_B-3\xfba0?'
p269
tp270
Rp271
sS'euclidiselement00ramugoog_0070'
p272
g2
(g6
S'}J\x1e\x19B\xbcJ?'
p273
tp274
Rp275
sS'euclidiselement00ramugoog_0077'
p276
g2
(g6
S'\xc2\x9eY0\xf9\x17I?'
p277
tp278
Rp279
sS'euclidiselement00ramugoog_0076'
p280
g2
(g6
S'+\xf92O$\xb3I?'
p281
tp282
Rp283
sS'euclidiselement00ramugoog_0075'
p284
g2
(g6
S'\x8a\xe8\xad\xa9Yu3?'
p285
tp286
Rp287
sS'euclidiselement00ramugoog_0074'
p288
g2
(g6
S'xz\xe8\x8d\xb8D@?'
p289
tp290
Rp291
sS'euclidiselement00ramugoog_0172'
p292
g2
(g6
S'\x1b\xf8N\xb0\x1dFG?'
p293
tp294
Rp295
sS'euclidiselement00ramugoog_0173'
p296
g2
(g6
S'\xcd<\xe9\xcf\x1b\x1bF?'
p297
tp298
Rp299
sS'euclidiselement00ramugoog_0079'
p300
g2
(g6
S'[\x1fW\x1e\xfd\x80G?'
p301
tp302
Rp303
sS'euclidiselement00ramugoog_0078'
p304
g2
(g6
S'\xfft\xbb%\xe0\xb8@?'
p305
tp306
Rp307
sS'euclidiselement00ramugoog_0176'
p308
g2
(g6
S'\x9b\xb9S,\x8dSG?'
p309
tp310
Rp311
sS'euclidiselement00ramugoog_0177'
p312
g2
(g6
S'u\x05\xf6\xf1\xaa\xfcM?'
p313
tp314
Rp315
sS'euclidiselement00ramugoog_0174'
p316
g2
(g6
S'\x98\x02\xdc\x9a\xea\x06E?'
p317
tp318
Rp319
sS'euclidiselement00ramugoog_0175'
p320
g2
(g6
S'.\xbc1\x06q\x8fM?'
p321
tp322
Rp323
sS'euclidiselement00ramugoog_0109'
p324
g2
(g6
S'\xc9\xdf\xeb\xcaxP!?'
p325
tp326
Rp327
sS'euclidiselement00ramugoog_0108'
p328
g2
(g6
S'K}\xc0\xcd\xb0g\x1d?'
p329
tp330
Rp331
sS'euclidiselement00ramugoog_0099'
p332
g2
(g6
S'#`\xd4LbQ!?'
p333
tp334
Rp335
sS'euclidiselement00ramugoog_0098'
p336
g2
(g6
S'v\x89\xff$!\x97>?'
p337
tp338
Rp339
sS'euclidiselement00ramugoog_0095'
p340
g2
(g6
S'L\xf3\xd9e\xe6\x82D?'
p341
tp342
Rp343
sS'euclidiselement00ramugoog_0094'
p344
g2
(g6
S')R\x13%\x06\xe2E?'
p345
tp346
Rp347
sS'euclidiselement00ramugoog_0097'
p348
g2
(g6
S'\xea$\x9b\x90\xe7\x11F?'
p349
tp350
Rp351
sS'euclidiselement00ramugoog_0096'
p352
g2
(g6
S'g}\xf3]I(O?'
p353
tp354
Rp355
sS'euclidiselement00ramugoog_0091'
p356
g2
(g6
S'+@e\x8f\x0f\xc8D?'
p357
tp358
Rp359
sS'euclidiselement00ramugoog_0090'
p360
g2
(g6
S'#\xb3\xfd}\xff\xd5C?'
p361
tp362
Rp363
sS'euclidiselement00ramugoog_0093'
p364
g2
(g6
S'\xfd\xb4i\xf9\xa2[C?'
p365
tp366
Rp367
sS'euclidiselement00ramugoog_0092'
p368
g2
(g6
S'\xc4\xb7\x8b2\x18\xa4B?'
p369
tp370
Rp371
sS'euclidiselement00ramugoog_0210'
p372
g2
(g6
S'\xccU\xf0\xe5\xd4"$?'
p373
tp374
Rp375
sS'euclidiselement00ramugoog_0103'
p376
g2
(g6
S'\x07ULh\x8d/$?'
p377
tp378
Rp379
sS'euclidiselement00ramugoog_0102'
p380
g2
(g6
S'\x9e\xa0\xc5\xab\x9c\x9dH?'
p381
tp382
Rp383
sS'euclidiselement00ramugoog_0169'
p384
g2
(g6
S'\xb8\x9b\x1d\x051|G?'
p385
tp386
Rp387
sS'euclidiselement00ramugoog_0168'
p388
g2
(g6
S's\x1a\xa9f\x1c~H?'
p389
tp390
Rp391
sS'euclidiselement00ramugoog_0161'
p392
g2
(g6
S'\xad\x945\xb9\x13cD?'
p393
tp394
Rp395
sS'euclidiselement00ramugoog_0160'
p396
g2
(g6
S'\x19\x8e}\xd8\xf6ID?'
p397
tp398
Rp399
sS'euclidiselement00ramugoog_0163'
p400
g2
(g6
S'\xb8\x07Mi\x0c\x19D?'
p401
tp402
Rp403
sS'euclidiselement00ramugoog_0162'
p404
g2
(g6
S'5\xd5\x83\x96\xa9ME?'
p405
tp406
Rp407
sS'euclidiselement00ramugoog_0165'
p408
g2
(g6
S'\x0c\xe9\xdc\x86\xda%H?'
p409
tp410
Rp411
sS'euclidiselement00ramugoog_0164'
p412
g2
(g6
S'\xef\x8e\x11\xcb\xa7\xb5F?'
p413
tp414
Rp415
sS'euclidiselement00ramugoog_0167'
p416
g2
(g6
S'\xad\x93z\xc7\x08\xc9F?'
p417
tp418
Rp419
sS'euclidiselement00ramugoog_0166'
p420
g2
(g6
S'H\x8f\x19F}\x1dD?'
p421
tp422
Rp423
sS'euclidiselement00ramugoog_0015'
p424
g2
(g6
S'\x7fv\xcbx;*D?'
p425
tp426
Rp427
sS'euclidiselement00ramugoog_0014'
p428
g2
(g6
S'\xe2P\x01?\xec\nJ?'
p429
tp430
Rp431
sS'euclidiselement00ramugoog_0017'
p432
g2
(g6
S'\xf2\x8f\xf9T\xdd\xeaL?'
p433
tp434
Rp435
sS'euclidiselement00ramugoog_0016'
p436
g2
(g6
S'\xfa\xad\xe5\x8cz\xe9J?'
p437
tp438
Rp439
sS'euclidiselement00ramugoog_0212'
p440
g2
(g6
S'\xeb\x14\xcd\x159"E?'
p441
tp442
Rp443
sS'euclidiselement00ramugoog_0019'
p444
g2
(g6
S':\x8e\x8b\xae\x9e\x85S?'
p445
tp446
Rp447
sS'euclidiselement00ramugoog_0018'
p448
g2
(g6
S'\xe4\xc9 +>S<?'
p449
tp450
Rp451
sS'euclidiselement00ramugoog_0154'
p452
g2
(g6
S'\xdb\xd0\xa0\xdf\xaaFF?'
p453
tp454
Rp455
sS'euclidiselement00ramugoog_0155'
p456
g2
(g6
S'\xeb~A/\xcf\x98D?'
p457
tp458
Rp459
sS'euclidiselement00ramugoog_0156'
p460
g2
(g6
S'\xf3\xc8\xf3\x07BmB?'
p461
tp462
Rp463
sS'euclidiselement00ramugoog_0157'
p464
g2
(g6
S'\xb6Q\xc0\x0b]-C?'
p465
tp466
Rp467
sS'euclidiselement00ramugoog_0150'
p468
g2
(g6
S'J\xa5]Mh\xf0A?'
p469
tp470
Rp471
sS'euclidiselement00ramugoog_0151'
p472
g2
(g6
S'8/\x1dQ\xe8]M?'
p473
tp474
Rp475
sS'euclidiselement00ramugoog_0152'
p476
g2
(g6
S'f\x86\x9dD{\x8bI?'
p477
tp478
Rp479
sS'euclidiselement00ramugoog_0153'
p480
g2
(g6
S'\xe4\xfa\x9eH\xde\xc2F?'
p481
tp482
Rp483
sS'euclidiselement00ramugoog_0158'
p484
g2
(g6
S'Z\xe2Z&\xd9{G?'
p485
tp486
Rp487
sS'euclidiselement00ramugoog_0159'
p488
g2
(g6
S'-\x05d,\xe3\x1cF?'
p489
tp490
Rp491
sS'euclidiselement00ramugoog_0020'
p492
g2
(g6
S'6n5&\xf9\xe0O?'
p493
tp494
Rp495
sS'euclidiselement00ramugoog_0021'
p496
g2
(g6
S'T#t3z\x9bS?'
p497
tp498
Rp499
sS'euclidiselement00ramugoog_0022'
p500
g2
(g6
S'\x0b.Y>\x124O?'
p501
tp502
Rp503
sS'euclidiselement00ramugoog_0023'
p504
g2
(g6
S'L\x8d5\xd7n\x1cB?'
p505
tp506
Rp507
sS'euclidiselement00ramugoog_0024'
p508
g2
(g6
S'\x1c\xd6\x8c\xe1\x08BG?'
p509
tp510
Rp511
sS'euclidiselement00ramugoog_0025'
p512
g2
(g6
S'\xc0ll\x84\x92\xe4A?'
p513
tp514
Rp515
sS'euclidiselement00ramugoog_0026'
p516
g2
(g6
S'\xc2\xc99\xc8\x0e\xbeC?'
p517
tp518
Rp519
sS'euclidiselement00ramugoog_0027'
p520
g2
(g6
S'\nV\x190q\xf7B?'
p521
tp522
Rp523
sS'euclidiselement00ramugoog_0028'
p524
g2
(g6
S'"\xbc\xd4\xc8\xfabD?'
p525
tp526
Rp527
sS'euclidiselement00ramugoog_0029'
p528
g2
(g6
S'\xec\\?\xe1\x92\xefF?'
p529
tp530
Rp531
sS'euclidiselement00ramugoog_0143'
p532
g2
(g6
S'=\xc51\xc5]\xd5F?'
p533
tp534
Rp535
sS'euclidiselement00ramugoog_0142'
p536
g2
(g6
S'O\xe4s\x8ay\x12H?'
p537
tp538
Rp539
sS'euclidiselement00ramugoog_0141'
p540
g2
(g6
S'\nw\x80\x1f\xd8\xa0G?'
p541
tp542
Rp543
sS'euclidiselement00ramugoog_0140'
p544
g2
(g6
S'\xe0\xe1+m\x8e\xfdE?'
p545
tp546
Rp547
sS'euclidiselement00ramugoog_0147'
p548
g2
(g6
S'\xdb\x89\x00V\x86\xe7E?'
p549
tp550
Rp551
sS'euclidiselement00ramugoog_0146'
p552
g2
(g6
S',s\xab\xd6\x0c\x11A?'
p553
tp554
Rp555
sS'euclidiselement00ramugoog_0145'
p556
g2
(g6
S'\xab\xc0L\x86\xe7uE?'
p557
tp558
Rp559
sS'euclidiselement00ramugoog_0144'
p560
g2
(g6
S'\t\xa5\r\xd0\xc1\xe7C?'
p561
tp562
Rp563
sS'euclidiselement00ramugoog_0149'
p564
g2
(g6
S'\xde\x0e\xfe+m\xaaD?'
p565
tp566
Rp567
sS'euclidiselement00ramugoog_0148'
p568
g2
(g6
S'\xbag\xc0y\xaaS@?'
p569
tp570
Rp571
sS'euclidiselement00ramugoog_0136'
p572
g2
(g6
S'\xf16\xe30\x00\x90D?'
p573
tp574
Rp575
sS'euclidiselement00ramugoog_0137'
p576
g2
(g6
S'd{\x0b2j\x1fE?'
p577
tp578
Rp579
sS'euclidiselement00ramugoog_0134'
p580
g2
(g6
S'\x14J\x05U\xe189?'
p581
tp582
Rp583
sS'euclidiselement00ramugoog_0135'
p584
g2
(g6
S'/U\xee\xc1\xfb\xe6F?'
p585
tp586
Rp587
sS'euclidiselement00ramugoog_0132'
p588
g2
(g6
S'\x13\x03\x0bT5\x85F?'
p589
tp590
Rp591
sS'euclidiselement00ramugoog_0133'
p592
g2
(g6
S'\xc0\xce\xa1~\x84\x03)?'
p593
tp594
Rp595
sS'euclidiselement00ramugoog_0130'
p596
g2
(g6
S'\xb8?*b\xc0\xa0\x1e?'
p597
tp598
Rp599
sS'euclidiselement00ramugoog_0131'
p600
g2
(g6
S'%\x0c\x01\xeb\xf8"%?'
p601
tp602
Rp603
sS'euclidiselement00ramugoog_0206'
p604
g2
(g6
S'\xd4\xb5\xb7 EM*?'
p605
tp606
Rp607
sS'euclidiselement00ramugoog_0138'
p608
g2
(g6
S'\xb5T\xbf\x08\xb1hE?'
p609
tp610
Rp611
sS'euclidiselement00ramugoog_0139'
p612
g2
(g6
S'\x08\xcd#\xe2\xb9bC?'
p613
tp614
Rp615
sS'euclidiselement00ramugoog_0207'
p616
g2
(g6
S'\xd3\x10\x17\x90\rAE?'
p617
tp618
Rp619
sS'euclidiselement00ramugoog_0039'
p620
g2
(g6
S"d\xce\xc7|'\x8cB?"
p621
tp622
Rp623
sS'euclidiselement00ramugoog_0038'
p624
g2
(g6
S'YS\x0e\x01\x0e\xb4B?'
p625
tp626
Rp627
sS'euclidiselement00ramugoog_0037'
p628
g2
(g6
S'o\xa9n\xe2s ;?'
p629
tp630
Rp631
sS'euclidiselement00ramugoog_0036'
p632
g2
(g6
S'\xf9\xd8\xc5$\x90\x8fE?'
p633
tp634
Rp635
sS'euclidiselement00ramugoog_0035'
p636
g2
(g6
S'\xca\xf0\xfcJ\xa7IB?'
p637
tp638
Rp639
sS'euclidiselement00ramugoog_0034'
p640
g2
(g6
S'R\x10\xf9\xd5\x9f\xb9C?'
p641
tp642
Rp643
sS'euclidiselement00ramugoog_0033'
p644
g2
(g6
S' =\xfe7dpH?'
p645
tp646
Rp647
sS'euclidiselement00ramugoog_0032'
p648
g2
(g6
S'\xf2\xb1\x02\xa2\xf7\x03G?'
p649
tp650
Rp651
sS'euclidiselement00ramugoog_0031'
p652
g2
(g6
S'\xaa\xd2\xf9\x08\xf8EE?'
p653
tp654
Rp655
sS'euclidiselement00ramugoog_0030'
p656
g2
(g6
S'a\xe9L]\x193D?'
p657
tp658
Rp659
sS'euclidiselement00ramugoog_0198'
p660
g2
(g6
S'\xbd\xab\x8f0\xc3\x914?'
p661
tp662
Rp663
sS'euclidiselement00ramugoog_0199'
p664
g2
(g6
S'\x81\x0b\xcdI\x16o\x1f?'
p665
tp666
Rp667
sS'euclidiselement00ramugoog_0190'
p668
g2
(g6
S'\x99\xd5\t\xdc\x0bZ6?'
p669
tp670
Rp671
sS'euclidiselement00ramugoog_0191'
p672
g2
(g6
S'\x9bF\xabQ\x03E\x19?'
p673
tp674
Rp675
sS'euclidiselement00ramugoog_0192'
p676
g2
(g6
S'\xc5\x1aC\xb7\rXC?'
p677
tp678
Rp679
sS'euclidiselement00ramugoog_0193'
p680
g2
(g6
S'a\xfe\xfe\xd6I\x0fA?'
p681
tp682
Rp683
sS'euclidiselement00ramugoog_0194'
p684
g2
(g6
S'J\xd8\x11\xd1F@+?'
p685
tp686
Rp687
sS'euclidiselement00ramugoog_0195'
p688
g2
(g6
S'~6j\tl\x03B?'
p689
tp690
Rp691
sS'euclidiselement00ramugoog_0196'
p692
g2
(g6
S'\x88\xb6\xc7\x16\xf0\x1c5?'
p693
tp694
Rp695
sS'euclidiselement00ramugoog_0197'
p696
g2
(g6
S'=)4t\x9dqP?'
p697
tp698
Rp699
sS'euclidiselement00ramugoog_0125'
p700
g2
(g6
S'\xc4\xc7\x1ai\xeb\xc2D?'
p701
tp702
Rp703
sS'euclidiselement00ramugoog_0124'
p704
g2
(g6
S'4\xbc|\x80\xf0EG?'
p705
tp706
Rp707
sS'euclidiselement00ramugoog_0127'
p708
g2
(g6
S'\xae\xb9}\x9aJ\x84.?'
p709
tp710
Rp711
sS'euclidiselement00ramugoog_0126'
p712
g2
(g6
S'\xb0\xfd\x0b\xc7\xdcZD?'
p713
tp714
Rp715
sS'euclidiselement00ramugoog_0121'
p716
g2
(g6
S'\xf6\xec\x0eO\x1bSI?'
p717
tp718
Rp719
sS'euclidiselement00ramugoog_0120'
p720
g2
(g6
S'\xfc\x05\x82*k\x18:?'
p721
tp722
Rp723
sS'euclidiselement00ramugoog_0123'
p724
g2
(g6
S'|\x13@\xeaX\xa70?'
p725
tp726
Rp727
sS'euclidiselement00ramugoog_0122'
p728
g2
(g6
S'\x0c\xafk\x01D*@?'
p729
tp730
Rp731
sS'euclidiselement00ramugoog_0208'
p732
g2
(g6
S'\x19\x1d9!\x90\xe4D?'
p733
tp734
Rp735
sS'euclidiselement00ramugoog_0129'
p736
g2
(g6
S'\n\x16\xdf;\xb3\xaeL?'
p737
tp738
Rp739
sS'euclidiselement00ramugoog_0128'
p740
g2
(g6
S'\xc99\xf4\xdf\x17S\x1d?'
p741
tp742
Rp743
sS'euclidiselement00ramugoog_0209'
p744
g2
(g6
S'\xf0"\xa3k\xfdB%?'
p745
tp746
Rp747
sS'euclidiselement00ramugoog_0204'
p748
g2
(g6
S'\x1c\xf2\xdcE\xc7kA?'
p749
tp750
Rp751
sS'euclidiselement00ramugoog_0205'
p752
g2
(g6
S'\xab\xf3\x90\xaf\x1c\xfdI?'
p753
tp754
Rp755
sS'euclidiselement00ramugoog_0048'
p756
g2
(g6
S'\xd8\x1cz\x03\xbeGE?'
p757
tp758
Rp759
sS'euclidiselement00ramugoog_0049'
p760
g2
(g6
S'\x15\xf0D\xfa\x16!J?'
p761
tp762
Rp763
sS'euclidiselement00ramugoog_0200'
p764
g2
(g6
S'\x8fu\x96t\x82\x88H?'
p765
tp766
Rp767
sS'euclidiselement00ramugoog_0201'
p768
g2
(g6
S"\xd0\xeaLxW\xc3'?"
p769
tp770
Rp771
sS'euclidiselement00ramugoog_0202'
p772
g2
(g6
S'\xeb\xe6?eO\xdb\x18?'
p773
tp774
Rp775
sS'euclidiselement00ramugoog_0203'
p776
g2
(g6
S'\x07\xfe\xf6[t\xa73?'
p777
tp778
Rp779
sS'euclidiselement00ramugoog_0042'
p780
g2
(g6
S'\x08\x96\xc7\x034\x9aE?'
p781
tp782
Rp783
sS'euclidiselement00ramugoog_0043'
p784
g2
(g6
S'\x08\x1eu\xdf\xc5\x19B?'
p785
tp786
Rp787
sS'euclidiselement00ramugoog_0040'
p788
g2
(g6
S'M=,L\x88zF?'
p789
tp790
Rp791
sS'euclidiselement00ramugoog_0041'
p792
g2
(g6
S'\xc0%:D\xa7\xcfF?'
p793
tp794
Rp795
sS'euclidiselement00ramugoog_0046'
p796
g2
(g6
S'\x08\x1eu\xdf\xc5\x19B?'
p797
tp798
Rp799
sS'euclidiselement00ramugoog_0047'
p800
g2
(g6
S'?\x80*m\xe4oF?'
p801
tp802
Rp803
sS'euclidiselement00ramugoog_0044'
p804
g2
(g6
S'(d\xc1\xba\xfc\xfbF?'
p805
tp806
Rp807
sS'euclidiselement00ramugoog_0045'
p808
g2
(g6
S'\xc0ll\x84\x92\xe4A?'
p809
tp810
Rp811
s.