(dp0
S'ramus_1756_v1_1_0051.tif'
p1
(I2364
I4002
tp2
sS'ramus_1756_v1_1_0133.tif'
p3
(I2358
I4000
tp4
sS'ramus_1756_v1_1_0130.tif'
p5
(I2358
I4000
tp6
sS'ramus_1756_v1_1_0140.tif'
p7
(I2382
I3998
tp8
sS'ramus_1756_v1_1_0157.tif'
p9
(I2358
I4000
tp10
sS'ramus_1756_v1_1_0125.tif'
p11
(I2358
I4000
tp12
sS'ramus_1756_v1_1_0185.tif'
p13
(I2382
I3998
tp14
sS'ramus_1756_v1_1_0120.tif'
p15
(I2382
I3998
tp16
sS'ramus_1756_v1_1_0066.tif'
p17
(I2364
I4002
tp18
sS'ramus_1756_v1_1_0199.tif'
p19
(I2358
I4000
tp20
sS'ramus_1756_v1_1_0095.tif'
p21
(I2364
I4002
tp22
sS'ramus_1756_v1_1_0160.tif'
p23
(I2358
I4000
tp24
sS'ramus_1756_v1_1_0213.tif'
p25
(I2382
I3998
tp26
sS'ramus_1756_v1_1_0207.tif'
p27
(I2382
I3998
tp28
sS'ramus_1756_v1_1_0071.tif'
p29
(I2364
I4002
tp30
sS'ramus_1756_v1_1_0198.tif'
p31
(I2382
I3998
tp32
sS'ramus_1756_v1_1_0028.tif'
p33
(I2364
I4002
tp34
sS'ramus_1756_v1_1_0032.tif'
p35
(I2364
I4002
tp36
sS'ramus_1756_v1_1_0109.tif'
p37
(I2382
I3998
tp38
sS'ramus_1756_v1_1_0117.tif'
p39
(I2382
I3998
tp40
sS'ramus_1756_v1_1_0197.tif'
p41
(I2382
I3998
tp42
sS'ramus_1756_v1_1_0195.tif'
p43
(I2358
I4000
tp44
sS'ramus_1756_v1_1_0097.tif'
p45
(I2364
I4002
tp46
sS'ramus_1756_v1_1_0138.tif'
p47
(I2382
I3998
tp48
sS'ramus_1756_v1_1_0026.tif'
p49
(I2364
I4002
tp50
sS'ramus_1756_v1_1_0135.tif'
p51
(I2382
I3998
tp52
sS'ramus_1756_v1_1_0172.tif'
p53
(I2382
I3998
tp54
sS'ramus_1756_v1_1_0061.tif'
p55
(I2364
I4002
tp56
sS'ramus_1756_v1_1_0067.tif'
p57
(I2364
I4002
tp58
sS'ramus_1756_v1_1_0110.tif'
p59
(I2358
I4000
tp60
sS'ramus_1756_v1_1_0178.tif'
p61
(I2382
I3998
tp62
sS'ramus_1756_v1_1_0193.tif'
p63
(I2382
I3998
tp64
sS'ramus_1756_v1_1_0159.tif'
p65
(I2358
I4000
tp66
sS'ramus_1756_v1_1_0039.tif'
p67
(I2364
I4002
tp68
sS'ramus_1756_v1_1_0126.tif'
p69
(I2358
I4000
tp70
sS'ramus_1756_v1_1_0183.tif'
p71
(I2382
I3998
tp72
sS'ramus_1756_v1_1_0050.tif'
p73
(I2364
I4002
tp74
sS'ramus_1756_v1_1_0158.tif'
p75
(I2382
I3998
tp76
sS'ramus_1756_v1_1_0132.tif'
p77
(I2382
I3998
tp78
sS'ramus_1756_v1_1_0027.tif'
p79
(I2364
I4002
tp80
sS'ramus_1756_v1_1_0019.tif'
p81
(I590
I1000
tp82
sS'ramus_1756_v1_1_0087.tif'
p83
(I590
I1000
tp84
sS'ramus_1756_v1_1_0167.tif'
p85
(I2382
I3998
tp86
sS'ramus_1756_v1_1_0184.tif'
p87
(I2382
I3998
tp88
sS'ramus_1756_v1_1_0101.tif'
p89
(I2364
I4002
tp90
sS'ramus_1756_v1_1_0096.tif'
p91
(I590
I1000
tp92
sS'ramus_1756_v1_1_0155.tif'
p93
(I2382
I3998
tp94
sS'ramus_1756_v1_1_0043.tif'
p95
(I2364
I4002
tp96
sS'ramus_1756_v1_1_0181.tif'
p97
(I2358
I4000
tp98
sS'ramus_1756_v1_1_0146.tif'
p99
(I2382
I3998
tp100
sS'ramus_1756_v1_1_0079.tif'
p101
(I2364
I4002
tp102
sS'ramus_1756_v1_1_0139.tif'
p103
(I2358
I4000
tp104
sS'ramus_1756_v1_1_0042.tif'
p105
(I2364
I4002
tp106
sS'ramus_1756_v1_1_0137.tif'
p107
(I2358
I4000
tp108
sS'ramus_1756_v1_1_0074.tif'
p109
(I2364
I4002
tp110
sS'ramus_1756_v1_1_0020.tif'
p111
(I2364
I4002
tp112
sS'ramus_1756_v1_1_0190.tif'
p113
(I2382
I3998
tp114
sS'ramus_1756_v1_1_0048.tif'
p115
(I2364
I4002
tp116
sS'ramus_1756_v1_1_0025.tif'
p117
(I2364
I4002
tp118
sS'ramus_1756_v1_1_0113.tif'
p119
(I2358
I4000
tp120
sS'ramus_1756_v1_1_0068.tif'
p121
(I2364
I4002
tp122
sS'ramus_1756_v1_1_0171.tif'
p123
(I2358
I4000
tp124
sS'ramus_1756_v1_1_0174.tif'
p125
(I2382
I3998
tp126
sS'ramus_1756_v1_1_0168.tif'
p127
(I2358
I4000
tp128
sS'ramus_1756_v1_1_0034.tif'
p129
(I2364
I4002
tp130
sS'ramus_1756_v1_1_0060.tif'
p131
(I2364
I4002
tp132
sS'ramus_1756_v1_1_0150.tif'
p133
(I590
I1000
tp134
sS'ramus_1756_v1_1_0180.tif'
p135
(I2358
I4000
tp136
sS'ramus_1756_v1_1_0046.tif'
p137
(I2364
I4002
tp138
sS'ramus_1756_v1_1_0065.tif'
p139
(I2364
I4002
tp140
sS'ramus_1756_v1_1_0098.tif'
p141
(I2364
I4002
tp142
sS'ramus_1756_v1_1_0188.tif'
p143
(I2358
I4000
tp144
sS'ramus_1756_v1_1_0153.tif'
p145
(I2382
I3998
tp146
sS'ramus_1756_v1_1_0055.tif'
p147
(I2364
I4002
tp148
sS'ramus_1756_v1_1_0128.tif'
p149
(I590
I1000
tp150
sS'ramus_1756_v1_1_0033.tif'
p151
(I2364
I4002
tp152
sS'ramus_1756_v1_1_0196.tif'
p153
(I2382
I3998
tp154
sS'ramus_1756_v1_1_0156.tif'
p155
(I2358
I4000
tp156
sS'ramus_1756_v1_1_0023.tif'
p157
(I2364
I4002
tp158
sS'ramus_1756_v1_1_0200.tif'
p159
(I2382
I3998
tp160
sS'ramus_1756_v1_1_0080.tif'
p161
(I2364
I4002
tp162
sS'ramus_1756_v1_1_0141.tif'
p163
(I2382
I3998
tp164
sS'ramus_1756_v1_1_0041.tif'
p165
(I2364
I4002
tp166
sS'ramus_1756_v1_1_0091.tif'
p167
(I2364
I4002
tp168
sS'ramus_1756_v1_1_0154.tif'
p169
(I2382
I3998
tp170
sS'ramus_1756_v1_1_0102.tif'
p171
(I2364
I4002
tp172
sS'ramus_1756_v1_1_0163.tif'
p173
(I2358
I4000
tp174
sS'ramus_1756_v1_1_0094.tif'
p175
(I2364
I4002
tp176
sS'ramus_1756_v1_1_0073.tif'
p177
(I2364
I4002
tp178
sS'ramus_1756_v1_1_0049.tif'
p179
(I2364
I4002
tp180
sS'ramus_1756_v1_1_0127.tif'
p181
(I2358
I4000
tp182
sS'ramus_1756_v1_1_0076.tif'
p183
(I2364
I4002
tp184
sS'ramus_1756_v1_1_0212.tif'
p185
(I2382
I3998
tp186
sS'ramus_1756_v1_1_0202.tif'
p187
(I2382
I3998
tp188
sS'ramus_1756_v1_1_0175.tif'
p189
(I2382
I3998
tp190
sS'ramus_1756_v1_1_0116.tif'
p191
(I2382
I3998
tp192
sS'ramus_1756_v1_1_0063.tif'
p193
(I2364
I4002
tp194
sS'ramus_1756_v1_1_0151.tif'
p195
(I2358
I4000
tp196
sS'ramus_1756_v1_1_0145.tif'
p197
(I2382
I3998
tp198
sS'ramus_1756_v1_1_0030.tif'
p199
(I2364
I4002
tp200
sS'ramus_1756_v1_1_0059.tif'
p201
(I2364
I4002
tp202
sS'ramus_1756_v1_1_0047.tif'
p203
(I2364
I4002
tp204
sS'ramus_1756_v1_1_0121.tif'
p205
(I2382
I3998
tp206
sS'ramus_1756_v1_1_0134.tif'
p207
(I2358
I4000
tp208
sS'ramus_1756_v1_1_0056.tif'
p209
(I2364
I4002
tp210
sS'ramus_1756_v1_1_0187.tif'
p211
(I2382
I3998
tp212
sS'ramus_1756_v1_1_0064.tif'
p213
(I2364
I4002
tp214
sS'ramus_1756_v1_1_0053.tif'
p215
(I2364
I4002
tp216
sS'ramus_1756_v1_1_0089.tif'
p217
(I2364
I4002
tp218
sS'ramus_1756_v1_1_0182.tif'
p219
(I2358
I4000
tp220
sS'ramus_1756_v1_1_0129.tif'
p221
(I2358
I4000
tp222
sS'ramus_1756_v1_1_0081.tif'
p223
(I2364
I4002
tp224
sS'ramus_1756_v1_1_0170.tif'
p225
(I2382
I3998
tp226
sS'ramus_1756_v1_1_0092.tif'
p227
(I2364
I4002
tp228
sS'ramus_1756_v1_1_0090.tif'
p229
(I2364
I4002
tp230
sS'ramus_1756_v1_1_0112.tif'
p231
(I2382
I3998
tp232
sS'ramus_1756_v1_1_0203.tif'
p233
(I2382
I3998
tp234
sS'ramus_1756_v1_1_0173.tif'
p235
(I2358
I4000
tp236
sS'ramus_1756_v1_1_0192.tif'
p237
(I2358
I4000
tp238
sS'ramus_1756_v1_1_0045.tif'
p239
(I2364
I4002
tp240
sS'ramus_1756_v1_1_0083.tif'
p241
(I2364
I4002
tp242
sS'ramus_1756_v1_1_0105.tif'
p243
(I2364
I4002
tp244
sS'ramus_1756_v1_1_0070.tif'
p245
(I2364
I4002
tp246
sS'ramus_1756_v1_1_0142.tif'
p247
(I2382
I3998
tp248
sS'ramus_1756_v1_1_0144.tif'
p249
(I2382
I3998
tp250
sS'ramus_1756_v1_1_0115.tif'
p251
(I2358
I4000
tp252
sS'ramus_1756_v1_1_0075.tif'
p253
(I2364
I4002
tp254
sS'ramus_1756_v1_1_0147.tif'
p255
(I2358
I4000
tp256
sS'ramus_1756_v1_1_0131.tif'
p257
(I2358
I4000
tp258
sS'ramus_1756_v1_1_0114.tif'
p259
(I2358
I4000
tp260
sS'ramus_1756_v1_1_0208.tif'
p261
(I2382
I3998
tp262
sS'ramus_1756_v1_1_0210.tif'
p263
(I2358
I4000
tp264
sS'ramus_1756_v1_1_0077.tif'
p265
(I2364
I4002
tp266
sS'ramus_1756_v1_1_0124.tif'
p267
(I2358
I4000
tp268
sS'ramus_1756_v1_1_0206.tif'
p269
(I2382
I3998
tp270
sS'ramus_1756_v1_1_0189.tif'
p271
(I2358
I4000
tp272
sS'ramus_1756_v1_1_0148.tif'
p273
(I2382
I3998
tp274
sS'ramus_1756_v1_1_0104.tif'
p275
(I2364
I4002
tp276
sS'ramus_1756_v1_1_0040.tif'
p277
(I2364
I4002
tp278
sS'ramus_1756_v1_1_0086.tif'
p279
(I2364
I4002
tp280
sS'ramus_1756_v1_1_0186.tif'
p281
(I2382
I3998
tp282
sS'ramus_1756_v1_1_0022.tif'
p283
(I2364
I4002
tp284
sS'ramus_1756_v1_1_0106.tif'
p285
(I2358
I4000
tp286
sS'ramus_1756_v1_1_0176.tif'
p287
(I590
I1000
tp288
sS'ramus_1756_v1_1_0119.tif'
p289
(I2382
I3998
tp290
sS'ramus_1756_v1_1_0164.tif'
p291
(I2382
I3998
tp292
sS'ramus_1756_v1_1_0052.tif'
p293
(I2364
I4002
tp294
sS'ramus_1756_v1_1_0035.tif'
p295
(I2364
I4002
tp296
sS'ramus_1756_v1_1_0165.tif'
p297
(I2382
I3998
tp298
sS'ramus_1756_v1_1_0072.tif'
p299
(I2364
I4002
tp300
sS'ramus_1756_v1_1_0038.tif'
p301
(I2364
I4002
tp302
sS'ramus_1756_v1_1_0103.tif'
p303
(I2364
I4002
tp304
sS'ramus_1756_v1_1_0069.tif'
p305
(I2364
I4002
tp306
sS'ramus_1756_v1_1_0024.tif'
p307
(I2364
I4002
tp308
sS'ramus_1756_v1_1_0152.tif'
p309
(I2382
I3998
tp310
sS'ramus_1756_v1_1_0204.tif'
p311
(I2382
I3998
tp312
sS'ramus_1756_v1_1_0211.tif'
p313
(I2358
I4000
tp314
sS'ramus_1756_v1_1_0191.tif'
p315
(I2382
I3998
tp316
sS'ramus_1756_v1_1_0107.tif'
p317
(I2364
I4002
tp318
sS'ramus_1756_v1_1_0084.tif'
p319
(I2364
I4002
tp320
sS'ramus_1756_v1_1_0162.tif'
p321
(I2358
I4000
tp322
sS'ramus_1756_v1_1_0201.tif'
p323
(I2358
I4000
tp324
sS'ramus_1756_v1_1_0078.tif'
p325
(I2364
I4002
tp326
sS'ramus_1756_v1_1_0143.tif'
p327
(I2382
I3998
tp328
sS'ramus_1756_v1_1_0057.tif'
p329
(I2364
I4002
tp330
sS'ramus_1756_v1_1_0179.tif'
p331
(I2358
I4000
tp332
sS'ramus_1756_v1_1_0149.tif'
p333
(I2382
I3998
tp334
sS'ramus_1756_v1_1_0031.tif'
p335
(I2364
I4002
tp336
sS'ramus_1756_v1_1_0161.tif'
p337
(I2382
I3998
tp338
sS'ramus_1756_v1_1_0029.tif'
p339
(I2364
I4002
tp340
sS'ramus_1756_v1_1_0054.tif'
p341
(I2364
I4002
tp342
sS'ramus_1756_v1_1_0123.tif'
p343
(I2382
I3998
tp344
sS'ramus_1756_v1_1_0099.tif'
p345
(I2364
I4002
tp346
sS'ramus_1756_v1_1_0214.tif'
p347
(I2382
I3998
tp348
sS'ramus_1756_v1_1_0093.tif'
p349
(I2364
I4002
tp350
sS'ramus_1756_v1_1_0085.tif'
p351
(I2364
I4002
tp352
sS'ramus_1756_v1_1_0036.tif'
p353
(I2364
I4002
tp354
sS'ramus_1756_v1_1_0100.tif'
p355
(I2364
I4002
tp356
sS'ramus_1756_v1_1_0169.tif'
p357
(I2358
I4000
tp358
sS'ramus_1756_v1_1_0177.tif'
p359
(I2382
I3998
tp360
sS'ramus_1756_v1_1_0108.tif'
p361
(I2358
I4000
tp362
sS'ramus_1756_v1_1_0037.tif'
p363
(I2364
I4002
tp364
sS'ramus_1756_v1_1_0062.tif'
p365
(I2364
I4002
tp366
sS'ramus_1756_v1_1_0166.tif'
p367
(I2382
I3998
tp368
sS'ramus_1756_v1_1_0194.tif'
p369
(I2358
I4000
tp370
sS'ramus_1756_v1_1_0118.tif'
p371
(I2382
I3998
tp372
sS'ramus_1756_v1_1_0021.tif'
p373
(I2364
I4002
tp374
sS'ramus_1756_v1_1_0044.tif'
p375
(I2364
I4002
tp376
sS'ramus_1756_v1_1_0082.tif'
p377
(I2364
I4002
tp378
sS'ramus_1756_v1_1_0058.tif'
p379
(I2364
I4002
tp380
sS'ramus_1756_v1_1_0122.tif'
p381
(I2382
I3998
tp382
sS'ramus_1756_v1_1_0136.tif'
p383
(I2382
I3998
tp384
sS'ramus_1756_v1_1_0088.tif'
p385
(I2364
I4002
tp386
sS'ramus_1756_v1_1_0111.tif'
p387
(I2382
I3998
tp388
sS'ramus_1756_v1_1_0209.tif'
p389
(I2358
I4000
tp390
sS'ramus_1756_v1_1_0205.tif'
p391
(I2382
I3998
tp392
s.