(dp0
S'ramus_1756_v1_1_0034'
p1
cnumpy.core.multiarray
scalar
p2
(cnumpy
dtype
p3
(S'f8'
p4
I0
I1
tp5
Rp6
(I3
S'<'
p7
NNNI-1
I-1
I0
tp8
bS'\x1f\xd1\xa2\x04\xa8_|>'
p9
tp10
Rp11
sS'ramus_1756_v1_1_0035'
p12
g2
(g6
S'\xd7\x1cz\x03\xbeG\x95>'
p13
tp14
Rp15
sS'ramus_1756_v1_1_0036'
p16
g2
(g6
S'\x1f\xd1\xa2\x04\xa8_|>'
p17
tp18
Rp19
sS'ramus_1756_v1_1_0037'
p20
g2
(g6
S'\x1f\xd1\xa2\x04\xa8_|>'
p21
tp22
Rp23
sS'ramus_1756_v1_1_0030'
p24
g2
(g6
S'\x1f\xd1\xa2\x04\xa8_\x8c>'
p25
tp26
Rp27
sS'ramus_1756_v1_1_0031'
p28
g2
(g6
S'\x1f\xd1\xa2\x04\xa8_\x8c>'
p29
tp30
Rp31
sS'ramus_1756_v1_1_0032'
p32
g2
(g6
S'\x1f\xd1\xa2\x04\xa8_|>'
p33
tp34
Rp35
sS'ramus_1756_v1_1_0033'
p36
g2
(g6
S'\x1f\xd1\xa2\x04\xa8_\x8c>'
p37
tp38
Rp39
sS'ramus_1756_v1_1_0135'
p40
g2
(g6
S'\x9c\xb7L\xc7\xfa/\x8c>'
p41
tp42
Rp43
sS'ramus_1756_v1_1_0134'
p44
g2
(g6
S'\xf6\t\x86\xac\xc7u\x8c>'
p45
tp46
Rp47
sS'ramus_1756_v1_1_0137'
p48
g2
(g6
S'\xf6\t\x86\xac\xc7u|>'
p49
tp50
Rp51
sS'ramus_1756_v1_1_0136'
p52
g2
(g6
S'\x9c\xb7L\xc7\xfa/|>'
p53
tp54
Rp55
sS'ramus_1756_v1_1_0038'
p56
g2
(g6
S'\x1f\xd1\xa2\x04\xa8_|>'
p57
tp58
Rp59
sS'ramus_1756_v1_1_0039'
p60
g2
(g6
S'\x1f\xd1\xa2\x04\xa8_|>'
p61
tp62
Rp63
sS'ramus_1756_v1_1_0133'
p64
g2
(g6
S'\xf6\t\x86\xac\xc7u|>'
p65
tp66
Rp67
sS'ramus_1756_v1_1_0132'
p68
g2
(g6
S'\x9c\xb7L\xc7\xfa/\x9c>'
p69
tp70
Rp71
sS'ramus_1756_v1_1_0139'
p72
g2
(g6
S'\xf6\t\x86\xac\xc7u|>'
p73
tp74
Rp75
sS'ramus_1756_v1_1_0138'
p76
g2
(g6
S'\x9c\xb7L\xc7\xfa/|>'
p77
tp78
Rp79
sS'ramus_1756_v1_1_0204'
p80
g2
(g6
S'\x9c\xb7L\xc7\xfa/\x8c>'
p81
tp82
Rp83
sS'ramus_1756_v1_1_0027'
p84
g2
(g6
S'\x1f\xd1\xa2\x04\xa8_\x8c>'
p85
tp86
Rp87
sS'ramus_1756_v1_1_0026'
p88
g2
(g6
S'\x1f\xd1\xa2\x04\xa8_\x8c>'
p89
tp90
Rp91
sS'ramus_1756_v1_1_0025'
p92
g2
(g6
S'\x1f\xd1\xa2\x04\xa8_|>'
p93
tp94
Rp95
sS'ramus_1756_v1_1_0024'
p96
g2
(g6
S'\x1f\xd1\xa2\x04\xa8_\x8c>'
p97
tp98
Rp99
sS'ramus_1756_v1_1_0023'
p100
g2
(g6
S'\x1f\xd1\xa2\x04\xa8_|>'
p101
tp102
Rp103
sS'ramus_1756_v1_1_0022'
p104
g2
(g6
S'\x1f\xd1\xa2\x04\xa8_\x8c>'
p105
tp106
Rp107
sS'ramus_1756_v1_1_0021'
p108
g2
(g6
S'\x1f\xd1\xa2\x04\xa8_\x9c>'
p109
tp110
Rp111
sS'ramus_1756_v1_1_0020'
p112
g2
(g6
S'\x1f\xd1\xa2\x04\xa8_|>'
p113
tp114
Rp115
sS'ramus_1756_v1_1_0140'
p116
g2
(g6
S'\xb5\x89y\x15\xfc#\x95>'
p117
tp118
Rp119
sS'ramus_1756_v1_1_0131'
p120
g2
(g6
S'\xf6\t\x86\xac\xc7u|>'
p121
tp122
Rp123
sS'ramus_1756_v1_1_0142'
p124
g2
(g6
S'\xb5\x89y\x15\xfc#\x95>'
p125
tp126
Rp127
sS'ramus_1756_v1_1_0143'
p128
g2
(g6
S'\x9c\xb7L\xc7\xfa/|>'
p129
tp130
Rp131
sS'ramus_1756_v1_1_0144'
p132
g2
(g6
S'\x9c\xb7L\xc7\xfa/\x8c>'
p133
tp134
Rp135
sS'ramus_1756_v1_1_0145'
p136
g2
(g6
S'\x9c\xb7L\xc7\xfa/\x8c>'
p137
tp138
Rp139
sS'ramus_1756_v1_1_0029'
p140
g2
(g6
S'\x1f\xd1\xa2\x04\xa8_\x9c>'
p141
tp142
Rp143
sS'ramus_1756_v1_1_0028'
p144
g2
(g6
S'\x1f\xd1\xa2\x04\xa8_|>'
p145
tp146
Rp147
sS'ramus_1756_v1_1_0214'
p148
g2
(g6
S'\x9c\xb7L\xc7\xfa/|>'
p149
tp150
Rp151
sS'ramus_1756_v1_1_0150'
p152
g2
(g6
S'\x9d\x85\xb6\x07\x9bo\xbc>'
p153
tp154
Rp155
sS'ramus_1756_v1_1_0195'
p156
g2
(g6
S'\xf6\t\x86\xac\xc7u\x8c>'
p157
tp158
Rp159
sS'ramus_1756_v1_1_0213'
p160
g2
(g6
S'\x9c\xb7L\xc7\xfa/\x8c>'
p161
tp162
Rp163
sS'ramus_1756_v1_1_0159'
p164
g2
(g6
S'x\x87d\xc1UX\x95>'
p165
tp166
Rp167
sS'ramus_1756_v1_1_0158'
p168
g2
(g6
S'\xb5\x89y\x15\xfc#\x95>'
p169
tp170
Rp171
sS'ramus_1756_v1_1_0153'
p172
g2
(g6
S'\x9c\xb7L\xc7\xfa/\x8c>'
p173
tp174
Rp175
sS'ramus_1756_v1_1_0152'
p176
g2
(g6
S'\x9c\xb7L\xc7\xfa/|>'
p177
tp178
Rp179
sS'ramus_1756_v1_1_0151'
p180
g2
(g6
S'\xf6\t\x86\xac\xc7u|>'
p181
tp182
Rp183
sS'ramus_1756_v1_1_0019'
p184
g2
(g6
S'\x9d\x85\xb6\x07\x9bo\xbc>'
p185
tp186
Rp187
sS'ramus_1756_v1_1_0157'
p188
g2
(g6
S'\xf6\t\x86\xac\xc7u\x8c>'
p189
tp190
Rp191
sS'ramus_1756_v1_1_0156'
p192
g2
(g6
S'\xf6\t\x86\xac\xc7u|>'
p193
tp194
Rp195
sS'ramus_1756_v1_1_0155'
p196
g2
(g6
S'\x9c\xb7L\xc7\xfa/\x9c>'
p197
tp198
Rp199
sS'ramus_1756_v1_1_0154'
p200
g2
(g6
S'\x9c\xb7L\xc7\xfa/|>'
p201
tp202
Rp203
sS'ramus_1756_v1_1_0098'
p204
g2
(g6
S'\x1f\xd1\xa2\x04\xa8_|>'
p205
tp206
Rp207
sS'ramus_1756_v1_1_0099'
p208
g2
(g6
S'\x1f\xd1\xa2\x04\xa8_|>'
p209
tp210
Rp211
sS'ramus_1756_v1_1_0092'
p212
g2
(g6
S'\x1f\xd1\xa2\x04\xa8_|>'
p213
tp214
Rp215
sS'ramus_1756_v1_1_0093'
p216
g2
(g6
S'\x1f\xd1\xa2\x04\xa8_|>'
p217
tp218
Rp219
sS'ramus_1756_v1_1_0090'
p220
g2
(g6
S'\xd7\x1cz\x03\xbeG\x95>'
p221
tp222
Rp223
sS'ramus_1756_v1_1_0091'
p224
g2
(g6
S'\x1f\xd1\xa2\x04\xa8_\x8c>'
p225
tp226
Rp227
sS'ramus_1756_v1_1_0096'
p228
g2
(g6
S'\x9d\x85\xb6\x07\x9bo\xbc>'
p229
tp230
Rp231
sS'ramus_1756_v1_1_0097'
p232
g2
(g6
S'\x1f\xd1\xa2\x04\xa8_\x8c>'
p233
tp234
Rp235
sS'ramus_1756_v1_1_0094'
p236
g2
(g6
S'\x1f\xd1\xa2\x04\xa8_\x8c>'
p237
tp238
Rp239
sS'ramus_1756_v1_1_0095'
p240
g2
(g6
S'\x1f\xd1\xa2\x04\xa8_|>'
p241
tp242
Rp243
sS'ramus_1756_v1_1_0166'
p244
g2
(g6
S'\x9c\xb7L\xc7\xfa/\x8c>'
p245
tp246
Rp247
sS'ramus_1756_v1_1_0167'
p248
g2
(g6
S'\x9c\xb7L\xc7\xfa/\x8c>'
p249
tp250
Rp251
sS'ramus_1756_v1_1_0164'
p252
g2
(g6
S'\x9c\xb7L\xc7\xfa/\x8c>'
p253
tp254
Rp255
sS'ramus_1756_v1_1_0165'
p256
g2
(g6
S'\x9c\xb7L\xc7\xfa/\x8c>'
p257
tp258
Rp259
sS'ramus_1756_v1_1_0162'
p260
g2
(g6
S'\xf6\t\x86\xac\xc7u\x9c>'
p261
tp262
Rp263
sS'ramus_1756_v1_1_0163'
p264
g2
(g6
S'\xf6\t\x86\xac\xc7u\x8c>'
p265
tp266
Rp267
sS'ramus_1756_v1_1_0160'
p268
g2
(g6
S'\xf6\t\x86\xac\xc7u|>'
p269
tp270
Rp271
sS'ramus_1756_v1_1_0161'
p272
g2
(g6
S'\x9c\xb7L\xc7\xfa/|>'
p273
tp274
Rp275
sS'ramus_1756_v1_1_0168'
p276
g2
(g6
S'\xf6\t\x86\xac\xc7u|>'
p277
tp278
Rp279
sS'ramus_1756_v1_1_0169'
p280
g2
(g6
S'\xf6\t\x86\xac\xc7u|>'
p281
tp282
Rp283
sS'ramus_1756_v1_1_0207'
p284
g2
(g6
S'\x9c\xb7L\xc7\xfa/\x8c>'
p285
tp286
Rp287
sS'ramus_1756_v1_1_0146'
p288
g2
(g6
S'\x9c\xb7L\xc7\xfa/\x8c>'
p289
tp290
Rp291
sS'ramus_1756_v1_1_0212'
p292
g2
(g6
S'\x9c\xb7L\xc7\xfa/\x8c>'
p293
tp294
Rp295
sS'ramus_1756_v1_1_0078'
p296
g2
(g6
S'\x1f\xd1\xa2\x04\xa8_|>'
p297
tp298
Rp299
sS'ramus_1756_v1_1_0079'
p300
g2
(g6
S'\x1f\xd1\xa2\x04\xa8_|>'
p301
tp302
Rp303
sS'ramus_1756_v1_1_0209'
p304
g2
(g6
S'\xf6\t\x86\xac\xc7u|>'
p305
tp306
Rp307
sS'ramus_1756_v1_1_0070'
p308
g2
(g6
S'\x1f\xd1\xa2\x04\xa8_\x8c>'
p309
tp310
Rp311
sS'ramus_1756_v1_1_0071'
p312
g2
(g6
S'\x1f\xd1\xa2\x04\xa8_|>'
p313
tp314
Rp315
sS'ramus_1756_v1_1_0072'
p316
g2
(g6
S'\xd8\x1cz\x03\xbeG\x95>'
p317
tp318
Rp319
sS'ramus_1756_v1_1_0073'
p320
g2
(g6
S'\x1f\xd1\xa2\x04\xa8_\x8c>'
p321
tp322
Rp323
sS'ramus_1756_v1_1_0074'
p324
g2
(g6
S'\x1f\xd1\xa2\x04\xa8_\x8c>'
p325
tp326
Rp327
sS'ramus_1756_v1_1_0075'
p328
g2
(g6
S'\x1f\xd1\xa2\x04\xa8_|>'
p329
tp330
Rp331
sS'ramus_1756_v1_1_0076'
p332
g2
(g6
S'\x1f\xd1\xa2\x04\xa8_\x8c>'
p333
tp334
Rp335
sS'ramus_1756_v1_1_0077'
p336
g2
(g6
S'\x1f\xd1\xa2\x04\xa8_\x9c>'
p337
tp338
Rp339
sS'ramus_1756_v1_1_0171'
p340
g2
(g6
S'y\x87d\xc1UX\x95>'
p341
tp342
Rp343
sS'ramus_1756_v1_1_0170'
p344
g2
(g6
S'\x9c\xb7L\xc7\xfa/|>'
p345
tp346
Rp347
sS'ramus_1756_v1_1_0173'
p348
g2
(g6
S'\xf6\t\x86\xac\xc7u\x9c>'
p349
tp350
Rp351
sS'ramus_1756_v1_1_0172'
p352
g2
(g6
S'\x9c\xb7L\xc7\xfa/\x8c>'
p353
tp354
Rp355
sS'ramus_1756_v1_1_0175'
p356
g2
(g6
S'\x9c\xb7L\xc7\xfa/\x9c>'
p357
tp358
Rp359
sS'ramus_1756_v1_1_0174'
p360
g2
(g6
S'\x9c\xb7L\xc7\xfa/|>'
p361
tp362
Rp363
sS'ramus_1756_v1_1_0177'
p364
g2
(g6
S'\x9c\xb7L\xc7\xfa/|>'
p365
tp366
Rp367
sS'ramus_1756_v1_1_0176'
p368
g2
(g6
S'\x9d\x85\xb6\x07\x9bo\xbc>'
p369
tp370
Rp371
sS'ramus_1756_v1_1_0179'
p372
g2
(g6
S'\xf6\t\x86\xac\xc7u\x8c>'
p373
tp374
Rp375
sS'ramus_1756_v1_1_0178'
p376
g2
(g6
S'\x9c\xb7L\xc7\xfa/\x8c>'
p377
tp378
Rp379
sS'ramus_1756_v1_1_0085'
p380
g2
(g6
S'\x1f\xd1\xa2\x04\xa8_|>'
p381
tp382
Rp383
sS'ramus_1756_v1_1_0084'
p384
g2
(g6
S'\x1f\xd1\xa2\x04\xa8_\x8c>'
p385
tp386
Rp387
sS'ramus_1756_v1_1_0087'
p388
g2
(g6
S'\x9d\x85\xb6\x07\x9bo\xbc>'
p389
tp390
Rp391
sS'ramus_1756_v1_1_0086'
p392
g2
(g6
S'\x1f\xd1\xa2\x04\xa8_\x8c>'
p393
tp394
Rp395
sS'ramus_1756_v1_1_0081'
p396
g2
(g6
S'\x1f\xd1\xa2\x04\xa8_|>'
p397
tp398
Rp399
sS'ramus_1756_v1_1_0080'
p400
g2
(g6
S'\x1f\xd1\xa2\x04\xa8_|>'
p401
tp402
Rp403
sS'ramus_1756_v1_1_0083'
p404
g2
(g6
S'\x1f\xd1\xa2\x04\xa8_|>'
p405
tp406
Rp407
sS'ramus_1756_v1_1_0082'
p408
g2
(g6
S'\x1f\xd1\xa2\x04\xa8_|>'
p409
tp410
Rp411
sS'ramus_1756_v1_1_0089'
p412
g2
(g6
S'\x1f\xd1\xa2\x04\xa8_\x9c>'
p413
tp414
Rp415
sS'ramus_1756_v1_1_0088'
p416
g2
(g6
S'\x1f\xd1\xa2\x04\xa8_\x9c>'
p417
tp418
Rp419
sS'ramus_1756_v1_1_0104'
p420
g2
(g6
S'\x1f\xd1\xa2\x04\xa8_\x8c>'
p421
tp422
Rp423
sS'ramus_1756_v1_1_0105'
p424
g2
(g6
S'\x1f\xd1\xa2\x04\xa8_|>'
p425
tp426
Rp427
sS'ramus_1756_v1_1_0069'
p428
g2
(g6
S'\x1f\xd1\xa2\x04\xa8_|>'
p429
tp430
Rp431
sS'ramus_1756_v1_1_0068'
p432
g2
(g6
S'\x1f\xd1\xa2\x04\xa8_|>'
p433
tp434
Rp435
sS'ramus_1756_v1_1_0100'
p436
g2
(g6
S'\x1f\xd1\xa2\x04\xa8_|>'
p437
tp438
Rp439
sS'ramus_1756_v1_1_0101'
p440
g2
(g6
S'\x1f\xd1\xa2\x04\xa8_|>'
p441
tp442
Rp443
sS'ramus_1756_v1_1_0102'
p444
g2
(g6
S'\x1f\xd1\xa2\x04\xa8_\x8c>'
p445
tp446
Rp447
sS'ramus_1756_v1_1_0103'
p448
g2
(g6
S'\x1f\xd1\xa2\x04\xa8_\x8c>'
p449
tp450
Rp451
sS'ramus_1756_v1_1_0063'
p452
g2
(g6
S'\x1f\xd1\xa2\x04\xa8_\x8c>'
p453
tp454
Rp455
sS'ramus_1756_v1_1_0062'
p456
g2
(g6
S'\x1f\xd1\xa2\x04\xa8_\x8c>'
p457
tp458
Rp459
sS'ramus_1756_v1_1_0061'
p460
g2
(g6
S'\x1f\xd1\xa2\x04\xa8_\x8c>'
p461
tp462
Rp463
sS'ramus_1756_v1_1_0060'
p464
g2
(g6
S'\x1f\xd1\xa2\x04\xa8_|>'
p465
tp466
Rp467
sS'ramus_1756_v1_1_0067'
p468
g2
(g6
S'\x1f\xd1\xa2\x04\xa8_|>'
p469
tp470
Rp471
sS'ramus_1756_v1_1_0066'
p472
g2
(g6
S'\x1f\xd1\xa2\x04\xa8_|>'
p473
tp474
Rp475
sS'ramus_1756_v1_1_0065'
p476
g2
(g6
S'\x1f\xd1\xa2\x04\xa8_\x8c>'
p477
tp478
Rp479
sS'ramus_1756_v1_1_0064'
p480
g2
(g6
S'\x1f\xd1\xa2\x04\xa8_\x8c>'
p481
tp482
Rp483
sS'ramus_1756_v1_1_0188'
p484
g2
(g6
S'\xf6\t\x86\xac\xc7u\x8c>'
p485
tp486
Rp487
sS'ramus_1756_v1_1_0189'
p488
g2
(g6
S'\xf6\t\x86\xac\xc7u\x9c>'
p489
tp490
Rp491
sS'ramus_1756_v1_1_0184'
p492
g2
(g6
S'\x9c\xb7L\xc7\xfa/\x8c>'
p493
tp494
Rp495
sS'ramus_1756_v1_1_0185'
p496
g2
(g6
S'\x9c\xb7L\xc7\xfa/|>'
p497
tp498
Rp499
sS'ramus_1756_v1_1_0186'
p500
g2
(g6
S'\x9c\xb7L\xc7\xfa/|>'
p501
tp502
Rp503
sS'ramus_1756_v1_1_0187'
p504
g2
(g6
S'\x9c\xb7L\xc7\xfa/\x8c>'
p505
tp506
Rp507
sS'ramus_1756_v1_1_0180'
p508
g2
(g6
S'\xf6\t\x86\xac\xc7u\x9c>'
p509
tp510
Rp511
sS'ramus_1756_v1_1_0181'
p512
g2
(g6
S'\xf6\t\x86\xac\xc7u|>'
p513
tp514
Rp515
sS'ramus_1756_v1_1_0182'
p516
g2
(g6
S'\xf6\t\x86\xac\xc7u\x8c>'
p517
tp518
Rp519
sS'ramus_1756_v1_1_0183'
p520
g2
(g6
S'\x9c\xb7L\xc7\xfa/|>'
p521
tp522
Rp523
sS'ramus_1756_v1_1_0130'
p524
g2
(g6
S'\xf6\t\x86\xac\xc7u|>'
p525
tp526
Rp527
sS'ramus_1756_v1_1_0117'
p528
g2
(g6
S'\x9c\xb7L\xc7\xfa/|>'
p529
tp530
Rp531
sS'ramus_1756_v1_1_0116'
p532
g2
(g6
S'\x9c\xb7L\xc7\xfa/|>'
p533
tp534
Rp535
sS'ramus_1756_v1_1_0115'
p536
g2
(g6
S'\xf6\t\x86\xac\xc7u\x8c>'
p537
tp538
Rp539
sS'ramus_1756_v1_1_0114'
p540
g2
(g6
S'\xf6\t\x86\xac\xc7u|>'
p541
tp542
Rp543
sS'ramus_1756_v1_1_0113'
p544
g2
(g6
S'\xf6\t\x86\xac\xc7u|>'
p545
tp546
Rp547
sS'ramus_1756_v1_1_0112'
p548
g2
(g6
S'\x9c\xb7L\xc7\xfa/\x8c>'
p549
tp550
Rp551
sS'ramus_1756_v1_1_0111'
p552
g2
(g6
S'\x9c\xb7L\xc7\xfa/|>'
p553
tp554
Rp555
sS'ramus_1756_v1_1_0110'
p556
g2
(g6
S'\xf6\t\x86\xac\xc7u|>'
p557
tp558
Rp559
sS'ramus_1756_v1_1_0148'
p560
g2
(g6
S'\x9c\xb7L\xc7\xfa/|>'
p561
tp562
Rp563
sS'ramus_1756_v1_1_0198'
p564
g2
(g6
S'\x9c\xb7L\xc7\xfa/\x8c>'
p565
tp566
Rp567
sS'ramus_1756_v1_1_0106'
p568
g2
(g6
S'\xf6\t\x86\xac\xc7u|>'
p569
tp570
Rp571
sS'ramus_1756_v1_1_0119'
p572
g2
(g6
S'\x9c\xb7L\xc7\xfa/|>'
p573
tp574
Rp575
sS'ramus_1756_v1_1_0118'
p576
g2
(g6
S'\x9c\xb7L\xc7\xfa/|>'
p577
tp578
Rp579
sS'ramus_1756_v1_1_0056'
p580
g2
(g6
S'\x1f\xd1\xa2\x04\xa8_|>'
p581
tp582
Rp583
sS'ramus_1756_v1_1_0057'
p584
g2
(g6
S'\x1f\xd1\xa2\x04\xa8_\x8c>'
p585
tp586
Rp587
sS'ramus_1756_v1_1_0054'
p588
g2
(g6
S'\x1f\xd1\xa2\x04\xa8_|>'
p589
tp590
Rp591
sS'ramus_1756_v1_1_0055'
p592
g2
(g6
S'\x1f\xd1\xa2\x04\xa8_\x8c>'
p593
tp594
Rp595
sS'ramus_1756_v1_1_0052'
p596
g2
(g6
S'\x1f\xd1\xa2\x04\xa8_|>'
p597
tp598
Rp599
sS'ramus_1756_v1_1_0053'
p600
g2
(g6
S'\x1f\xd1\xa2\x04\xa8_|>'
p601
tp602
Rp603
sS'ramus_1756_v1_1_0050'
p604
g2
(g6
S'\x1f\xd1\xa2\x04\xa8_\x9c>'
p605
tp606
Rp607
sS'ramus_1756_v1_1_0051'
p608
g2
(g6
S'\x1f\xd1\xa2\x04\xa8_|>'
p609
tp610
Rp611
sS'ramus_1756_v1_1_0197'
p612
g2
(g6
S'\x9c\xb7L\xc7\xfa/\x8c>'
p613
tp614
Rp615
sS'ramus_1756_v1_1_0196'
p616
g2
(g6
S'\x9c\xb7L\xc7\xfa/|>'
p617
tp618
Rp619
sS'ramus_1756_v1_1_0107'
p620
g2
(g6
S'\x1f\xd1\xa2\x04\xa8_|>'
p621
tp622
Rp623
sS'ramus_1756_v1_1_0194'
p624
g2
(g6
S'\xf6\t\x86\xac\xc7u|>'
p625
tp626
Rp627
sS'ramus_1756_v1_1_0193'
p628
g2
(g6
S'\x9c\xb7L\xc7\xfa/|>'
p629
tp630
Rp631
sS'ramus_1756_v1_1_0192'
p632
g2
(g6
S'\xf6\t\x86\xac\xc7u|>'
p633
tp634
Rp635
sS'ramus_1756_v1_1_0058'
p636
g2
(g6
S'\x1f\xd1\xa2\x04\xa8_|>'
p637
tp638
Rp639
sS'ramus_1756_v1_1_0059'
p640
g2
(g6
S'\x1f\xd1\xa2\x04\xa8_\x9c>'
p641
tp642
Rp643
sS'ramus_1756_v1_1_0149'
p644
g2
(g6
S'\x9c\xb7L\xc7\xfa/|>'
p645
tp646
Rp647
sS'ramus_1756_v1_1_0210'
p648
g2
(g6
S'\xf6\t\x86\xac\xc7u|>'
p649
tp650
Rp651
sS'ramus_1756_v1_1_0211'
p652
g2
(g6
S'\xf6\t\x86\xac\xc7u\x9c>'
p653
tp654
Rp655
sS'ramus_1756_v1_1_0191'
p656
g2
(g6
S'\x9c\xb7L\xc7\xfa/\x9c>'
p657
tp658
Rp659
sS'ramus_1756_v1_1_0208'
p660
g2
(g6
S'\x9c\xb7L\xc7\xfa/|>'
p661
tp662
Rp663
sS'ramus_1756_v1_1_0141'
p664
g2
(g6
S'\x9c\xb7L\xc7\xfa/\x9c>'
p665
tp666
Rp667
sS'ramus_1756_v1_1_0190'
p668
g2
(g6
S'\x9c\xb7L\xc7\xfa/|>'
p669
tp670
Rp671
sS'ramus_1756_v1_1_0122'
p672
g2
(g6
S'\x9c\xb7L\xc7\xfa/|>'
p673
tp674
Rp675
sS'ramus_1756_v1_1_0123'
p676
g2
(g6
S'\x9c\xb7L\xc7\xfa/\x8c>'
p677
tp678
Rp679
sS'ramus_1756_v1_1_0120'
p680
g2
(g6
S'\x9c\xb7L\xc7\xfa/|>'
p681
tp682
Rp683
sS'ramus_1756_v1_1_0121'
p684
g2
(g6
S'\x9c\xb7L\xc7\xfa/\x8c>'
p685
tp686
Rp687
sS'ramus_1756_v1_1_0126'
p688
g2
(g6
S'\xf6\t\x86\xac\xc7u\x8c>'
p689
tp690
Rp691
sS'ramus_1756_v1_1_0127'
p692
g2
(g6
S'\xf6\t\x86\xac\xc7u|>'
p693
tp694
Rp695
sS'ramus_1756_v1_1_0124'
p696
g2
(g6
S'\xf6\t\x86\xac\xc7u\x8c>'
p697
tp698
Rp699
sS'ramus_1756_v1_1_0125'
p700
g2
(g6
S'\xf6\t\x86\xac\xc7u\x8c>'
p701
tp702
Rp703
sS'ramus_1756_v1_1_0108'
p704
g2
(g6
S'\xf6\t\x86\xac\xc7u|>'
p705
tp706
Rp707
sS'ramus_1756_v1_1_0128'
p708
g2
(g6
S'\x9d\x85\xb6\x07\x9bo\xbc>'
p709
tp710
Rp711
sS'ramus_1756_v1_1_0129'
p712
g2
(g6
S'\xf6\t\x86\xac\xc7u|>'
p713
tp714
Rp715
sS'ramus_1756_v1_1_0109'
p716
g2
(g6
S'\x9c\xb7L\xc7\xfa/\x8c>'
p717
tp718
Rp719
sS'ramus_1756_v1_1_0041'
p720
g2
(g6
S'\x1f\xd1\xa2\x04\xa8_|>'
p721
tp722
Rp723
sS'ramus_1756_v1_1_0040'
p724
g2
(g6
S'\x1f\xd1\xa2\x04\xa8_|>'
p725
tp726
Rp727
sS'ramus_1756_v1_1_0043'
p728
g2
(g6
S'\x1f\xd1\xa2\x04\xa8_|>'
p729
tp730
Rp731
sS'ramus_1756_v1_1_0042'
p732
g2
(g6
S'\x1f\xd1\xa2\x04\xa8_|>'
p733
tp734
Rp735
sS'ramus_1756_v1_1_0045'
p736
g2
(g6
S'\x1f\xd1\xa2\x04\xa8_\x8c>'
p737
tp738
Rp739
sS'ramus_1756_v1_1_0044'
p740
g2
(g6
S'\x1f\xd1\xa2\x04\xa8_\x8c>'
p741
tp742
Rp743
sS'ramus_1756_v1_1_0047'
p744
g2
(g6
S'\x1f\xd1\xa2\x04\xa8_|>'
p745
tp746
Rp747
sS'ramus_1756_v1_1_0046'
p748
g2
(g6
S'\x1f\xd1\xa2\x04\xa8_|>'
p749
tp750
Rp751
sS'ramus_1756_v1_1_0049'
p752
g2
(g6
S'\x1f\xd1\xa2\x04\xa8_\x9c>'
p753
tp754
Rp755
sS'ramus_1756_v1_1_0048'
p756
g2
(g6
S'\x1f\xd1\xa2\x04\xa8_|>'
p757
tp758
Rp759
sS'ramus_1756_v1_1_0205'
p760
g2
(g6
S'\x9c\xb7L\xc7\xfa/\x8c>'
p761
tp762
Rp763
sS'ramus_1756_v1_1_0147'
p764
g2
(g6
S'\xf6\t\x86\xac\xc7u\x8c>'
p765
tp766
Rp767
sS'ramus_1756_v1_1_0203'
p768
g2
(g6
S'\x9c\xb7L\xc7\xfa/|>'
p769
tp770
Rp771
sS'ramus_1756_v1_1_0202'
p772
g2
(g6
S'\x9c\xb7L\xc7\xfa/|>'
p773
tp774
Rp775
sS'ramus_1756_v1_1_0201'
p776
g2
(g6
S'\xf6\t\x86\xac\xc7u\x8c>'
p777
tp778
Rp779
sS'ramus_1756_v1_1_0200'
p780
g2
(g6
S'\x9c\xb7L\xc7\xfa/|>'
p781
tp782
Rp783
sS'ramus_1756_v1_1_0206'
p784
g2
(g6
S'\x9c\xb7L\xc7\xfa/|>'
p785
tp786
Rp787
sS'ramus_1756_v1_1_0199'
p788
g2
(g6
S'\xf6\t\x86\xac\xc7u|>'
p789
tp790
Rp791
s.