(lp0
I26
aI23
aI25
aI22
aI27
aI21
aI2
aI38
aI29
aI36
aI29
aI42
aI42
aI20
aI26
aI26
aI31
aI23
aI29
aI31
aI39
aI32
aI34
aI29
aI31
aI31
aI25
aI18
aI24
aI27
aI27
aI33
aI31
aI35
aI28
aI21
aI31
aI28
aI29
aI31
aI25
aI38
aI43
aI38
aI33
aI40
aI39
aI33
aI65
aI31
aI39
aI31
aI33
aI35
aI32
aI28
aI34
aI32
aI26
aI27
aI29
aI34
aI39
aI36
aI33
aI33
aI35
aI29
aI38
aI37
aI31
aI35
aI32
aI11
aI8
aI8
aI37
aI10
aI35
aI1
aI5
aI11
aI2
aI3
aI2
aI13
aI6
aI5
a.