(dp0
S'heiberg-diag-0017'
p1
(lp2
S'heiberg_1883_v1_1_0059.jpg'
p3
aI1956
aI3074
aI36
aI1044
aI738
aI474
asS'heiberg-diag-0016'
p4
(lp5
S'heiberg_1883_v1_1_0057.jpg'
p6
aI1956
aI3074
aI12
aI636
aI576
aI606
asS'heiberg-diag-0015'
p7
(lp8
S'heiberg_1883_v1_1_0055.jpg'
p9
aI1956
aI3074
aI18
aI1218
aI696
aI534
asS'heiberg-diag-0014'
p10
(lp11
S'heiberg_1883_v1_1_0053.jpg'
p12
aI1956
aI3074
aI30
aI972
aI648
aI366
asS'heiberg-diag-0013'
p13
(lp14
S'heiberg_1883_v1_1_0051.jpg'
p15
aI1956
aI3074
aI12
aI894
aI594
aI552
asS'heiberg-diag-0012'
p16
(lp17
S'heiberg_1883_v1_1_0049.jpg'
p18
aI1956
aI3074
aI0
aI1026
aI828
aI630
asS'heiberg-diag-0011'
p19
(lp20
S'heiberg_1883_v1_1_0047.jpg'
p21
aI1956
aI3074
aI24
aI912
aI750
aI516
asS'heiberg-diag-0010'
p22
(lp23
S'heiberg_1883_v1_1_0045.jpg'
p24
aI1956
aI3074
aI24
aI1524
aI558
aI522
asS'heiberg-diag-0019'
p25
(lp26
S'heiberg_1883_v1_1_0061.jpg'
p27
aI1956
aI3074
aI24
aI1854
aI438
aI750
asS'heiberg-diag-0018'
p28
(lp29
S'heiberg_1883_v1_1_0061.jpg'
p30
aI1956
aI3074
aI48
aI738
aI816
aI486
asS'heiberg-diag-0099'
p31
(lp32
S'heiberg_1883_v1_1_0271.jpg'
p33
aI1956
aI3074
aI72
aI516
aI852
aI702
asS'heiberg-diag-0098'
p34
(lp35
S'heiberg_1883_v1_1_0269.jpg'
p36
aI1956
aI3074
aI48
aI480
aI600
aI690
asS'heiberg-diag-0097'
p37
(lp38
S'heiberg_1883_v1_1_0267.jpg'
p39
aI1956
aI3074
aI60
aI1356
aI540
aI624
asS'heiberg-diag-0096'
p40
(lp41
S'heiberg_1883_v1_1_0265.jpg'
p42
aI1956
aI3074
aI42
aI1056
aI528
aI726
asS'heiberg-diag-0095'
p43
(lp44
S'heiberg_1883_v1_1_0261.jpg'
p45
aI1956
aI3074
aI60
aI1098
aI666
aI588
asS'heiberg-diag-0094'
p46
(lp47
S'heiberg_1883_v1_1_0257.jpg'
p48
aI1956
aI3074
aI90
aI498
aI678
aI624
asS'heiberg-diag-0093'
p49
(lp50
S'heiberg_1883_v1_1_0255.jpg'
p51
aI1956
aI3074
aI462
aI384
aI1026
aI426
asS'heiberg-diag-0092'
p52
(lp53
S'heiberg_1883_v1_1_0253.jpg'
p54
aI1956
aI3074
aI300
aI834
aI1248
aI528
asS'heiberg-diag-0091'
p55
(lp56
S'heiberg_1883_v1_1_0251.jpg'
p57
aI1956
aI3074
aI258
aI372
aI1314
aI594
asS'heiberg-diag-0090'
p58
(lp59
S'heiberg_1883_v1_1_0247.jpg'
p60
aI1956
aI3074
aI60
aI1794
aI816
aI456
asS'heiberg-diag-0080'
p61
(lp62
S'heiberg_1883_v1_1_0231.jpg'
p63
aI1956
aI3074
aI48
aI828
aI732
aI684
asS'heiberg-diag-0081'
p64
(lp65
S'heiberg_1883_v1_1_0233.jpg'
p66
aI1956
aI3074
aI24
aI720
aI660
aI522
asS'heiberg-diag-0082'
p67
(lp68
S'heiberg_1883_v1_1_0235.jpg'
p69
aI1956
aI3074
aI72
aI552
aI684
aI678
asS'heiberg-diag-0083'
p70
(lp71
S'heiberg_1883_v1_1_0235.jpg'
p72
aI1956
aI3074
aI78
aI1818
aI474
aI468
asS'heiberg-diag-0084'
p73
(lp74
S'heiberg_1883_v1_1_0237.jpg'
p75
aI1956
aI3074
aI66
aI1656
aI462
aI444
asS'heiberg-diag-0085'
p76
(lp77
S'heiberg_1883_v1_1_0239.jpg'
p78
aI1956
aI3074
aI54
aI1062
aI288
aI744
asS'heiberg-diag-0086'
p79
(lp80
S'heiberg_1883_v1_1_0241.jpg'
p81
aI1956
aI3074
aI114
aI768
aI588
aI510
asS'heiberg-diag-0087'
p82
(lp83
S'heiberg_1883_v1_1_0243.jpg'
p84
aI1956
aI3074
aI102
aI834
aI408
aI432
asS'heiberg-diag-0088'
p85
(lp86
S'heiberg_1883_v1_1_0245.jpg'
p87
aI1956
aI3074
aI84
aI360
aI738
aI504
asS'heiberg-diag-0089'
p88
(lp89
S'heiberg_1883_v1_1_0245.jpg'
p90
aI1956
aI3074
aI102
aI1596
aI804
aI444
asS'heiberg-diag-0122'
p91
(lp92
S'heiberg_1883_v1_1_0334.jpg'
p93
aI1956
aI3074
aI930
aI1224
aI1026
aI1038
asS'heiberg-diag-0008'
p94
(lp95
S'heiberg_1883_v1_1_0041.jpg'
p96
aI1956
aI3074
aI36
aI1602
aI696
aI540
asS'heiberg-diag-0009'
p97
(lp98
S'heiberg_1883_v1_1_0045.jpg'
p99
aI1956
aI3074
aI30
aI312
aI408
aI768
asS'heiberg-diag-0001'
p100
(lp101
S'heiberg_1883_v1_1_0027.jpg'
p102
aI1956
aI3074
aI42
aI192
aI924
aI672
asS'heiberg-diag-0002'
p103
(lp104
S'heiberg_1883_v1_1_0029.jpg'
p105
aI1956
aI3074
aI24
aI546
aI786
aI792
asS'heiberg-diag-0003'
p106
(lp107
S'heiberg_1883_v1_1_0029.jpg'
p108
aI1956
aI3074
aI18
aI2088
aI708
aI636
asS'heiberg-diag-0004'
p109
(lp110
S'heiberg_1883_v1_1_0031.jpg'
p111
aI1956
aI3074
aI30
aI1434
aI534
aI846
asS'heiberg-diag-0005'
p112
(lp113
S'heiberg_1883_v1_1_0035.jpg'
p114
aI1956
aI3074
aI36
aI696
aI552
aI708
asS'heiberg-diag-0006'
p115
(lp116
S'heiberg_1883_v1_1_0037.jpg'
p117
aI1956
aI3074
aI27
aI1770
aI507
aI519
asS'heiberg-diag-0007'
p118
(lp119
S'heiberg_1883_v1_1_0039.jpg'
p120
aI1956
aI3074
aI15
aI1674
aI669
aI537
asS'heiberg-diag-0079'
p121
(lp122
S'heiberg_1883_v1_1_0229.jpg'
p123
aI1956
aI3074
aI66
aI510
aI564
aI564
asS'heiberg-diag-0078'
p124
(lp125
S'heiberg_1883_v1_1_0223.jpg'
p126
aI1956
aI3074
aI72
aI1830
aI612
aI516
asS'heiberg-diag-0045'
p127
(lp128
S'heiberg_1883_v1_1_0119.jpg'
p129
aI1956
aI3074
aI60
aI1704
aI540
aI738
asS'heiberg-diag-0075'
p130
(lp131
S'heiberg_1883_v1_1_0215.jpg'
p132
aI1956
aI3074
aI48
aI414
aI732
aI624
asS'heiberg-diag-0074'
p133
(lp134
S'heiberg_1883_v1_1_0213.jpg'
p135
aI1956
aI3074
aI54
aI798
aI666
aI792
asS'heiberg-diag-0077'
p136
(lp137
S'heiberg_1883_v1_1_0221.jpg'
p138
aI1956
aI3074
aI72
aI1404
aI450
aI558
asS'heiberg-diag-0076'
p139
(lp140
S'heiberg_1883_v1_1_0217.jpg'
p141
aI1956
aI3074
aI102
aI1176
aI570
aI600
asS'heiberg-diag-0071'
p142
(lp143
S'heiberg_1883_v1_1_0205.jpg'
p144
aI1956
aI3074
aI78
aI1638
aI912
aI894
asS'heiberg-diag-0070'
p145
(lp146
S'heiberg_1883_v1_1_0199.jpg'
p147
aI1956
aI3074
aI78
aI960
aI666
aI906
asS'heiberg-diag-0073'
p148
(lp149
S'heiberg_1883_v1_1_0211.jpg'
p150
aI1956
aI3074
aI54
aI762
aI648
aI648
asS'heiberg-diag-0072'
p151
(lp152
S'heiberg_1883_v1_1_0207.jpg'
p153
aI1956
aI3074
aI96
aI1854
aI1014
aI852
asS'heiberg-diag-0101'
p154
(lp155
S'heiberg_1883_v1_1_0273.jpg'
p156
aI1956
aI3074
aI48
aI1452
aI648
aI624
asS'heiberg-diag-0100'
p157
(lp158
S'heiberg_1883_v1_1_0273.jpg'
p159
aI1956
aI3074
aI60
aI648
aI534
aI456
asS'heiberg-diag-0103'
p160
(lp161
S'heiberg_1883_v1_1_0277.jpg'
p162
aI1956
aI3074
aI90
aI1914
aI606
aI510
asS'heiberg-diag-0102'
p163
(lp164
S'heiberg_1883_v1_1_0277.jpg'
p165
aI1956
aI3074
aI66
aI834
aI450
aI546
asS'heiberg-diag-0105'
p166
(lp167
S'heiberg_1883_v1_1_0287.jpg'
p168
aI1956
aI3074
aI54
aI1074
aI612
aI540
asS'heiberg-diag-0104'
p169
(lp170
S'heiberg_1883_v1_1_0281.jpg'
p171
aI1956
aI3074
aI54
aI678
aI726
aI612
asS'heiberg-diag-0107'
p172
(lp173
S'heiberg_1883_v1_1_0291.jpg'
p174
aI1956
aI3074
aI54
aI792
aI828
aI546
asS'heiberg-diag-0069'
p175
(lp176
S'heiberg_1883_v1_1_0195.jpg'
p177
aI1956
aI3074
aI144
aI558
aI654
aI636
asS'heiberg-diag-0066'
p178
(lp179
S'heiberg_1883_v1_1_0189.jpg'
p180
aI1956
aI3074
aI120
aI984
aI558
aI498
asS'heiberg-diag-0108'
p181
(lp182
S'heiberg_1883_v1_1_0293.jpg'
p183
aI1956
aI3074
aI60
aI1026
aI690
aI600
asS'heiberg-diag-0064'
p184
(lp185
S'heiberg_1883_v1_1_0185.jpg'
p186
aI1956
aI3074
aI66
aI420
aI594
aI612
asS'heiberg-diag-0065'
p187
(lp188
S'heiberg_1883_v1_1_0187.jpg'
p189
aI1956
aI3074
aI120
aI1326
aI498
aI558
asS'heiberg-diag-0062'
p190
(lp191
S'heiberg_1883_v1_1_0175.jpg'
p192
aI1956
aI3074
aI36
aI1854
aI648
aI504
asS'heiberg-diag-0063'
p193
(lp194
S'heiberg_1883_v1_1_0181.jpg'
p195
aI1956
aI3074
aI72
aI1566
aI522
aI600
asS'heiberg-diag-0060'
p196
(lp197
S'heiberg_1883_v1_1_0171.jpg'
p198
aI1956
aI3074
aI72
aI834
aI474
aI408
asS'heiberg-diag-0061'
p199
(lp200
S'heiberg_1883_v1_1_0173.jpg'
p201
aI1956
aI3074
aI42
aI900
aI438
aI528
asS'heiberg-diag-0067'
p202
(lp203
S'heiberg_1883_v1_1_0191.jpg'
p204
aI1956
aI3074
aI84
aI738
aI570
aI516
asS'heiberg-diag-0112'
p205
(lp206
S'heiberg_1883_v1_1_0301.jpg'
p207
aI1956
aI3074
aI78
aI702
aI456
aI486
asS'heiberg-diag-0113'
p208
(lp209
S'heiberg_1883_v1_1_0303.jpg'
p210
aI1956
aI3074
aI84
aI1188
aI486
aI516
asS'heiberg-diag-0110'
p211
(lp212
S'heiberg_1883_v1_1_0297.jpg'
p213
aI1956
aI3074
aI678
aI978
aI546
aI462
asS'heiberg-diag-0111'
p214
(lp215
S'heiberg_1883_v1_1_0297.jpg'
p216
aI1956
aI3074
aI1332
aI978
aI504
aI468
asS'heiberg-diag-0116'
p217
(lp218
S'heiberg_1883_v1_1_0309.jpg'
p219
aI1956
aI3074
aI96
aI1524
aI642
aI654
asS'heiberg-diag-0117'
p220
(lp221
S'heiberg_1883_v1_1_0313.jpg'
p222
aI1956
aI3074
aI60
aI1794
aI666
aI480
asS'heiberg-diag-0114'
p223
(lp224
S'heiberg_1883_v1_1_0305.jpg'
p225
aI1956
aI3074
aI90
aI1308
aI468
aI528
asS'heiberg-diag-0115'
p226
(lp227
S'heiberg_1883_v1_1_0307.jpg'
p228
aI1956
aI3074
aI108
aI1356
aI480
aI480
asS'heiberg-diag-0118'
p229
(lp230
S'heiberg_1883_v1_1_0317.jpg'
p231
aI1956
aI3074
aI60
aI1686
aI540
aI540
asS'heiberg-diag-0119'
p232
(lp233
S'heiberg_1883_v1_1_0323.jpg'
p234
aI1956
aI3074
aI102
aI780
aI558
aI540
asS'heiberg-diag-0053'
p235
(lp236
S'heiberg_1883_v1_1_0145.jpg'
p237
aI1956
aI3074
aI60
aI1002
aI990
aI636
asS'heiberg-diag-0052'
p238
(lp239
S'heiberg_1883_v1_1_0141.jpg'
p240
aI1956
aI3074
aI60
aI930
aI498
aI528
asS'heiberg-diag-0051'
p241
(lp242
S'heiberg_1883_v1_1_0139.jpg'
p243
aI1956
aI3074
aI66
aI528
aI504
aI408
asS'heiberg-diag-0050'
p244
(lp245
S'heiberg_1883_v1_1_0137.jpg'
p246
aI1956
aI3074
aI84
aI600
aI396
aI432
asS'heiberg-diag-0057'
p247
(lp248
S'heiberg_1883_v1_1_0157.jpg'
p249
aI1956
aI3074
aI30
aI1068
aI624
aI408
asS'heiberg-diag-0056'
p250
(lp251
S'heiberg_1883_v1_1_0153.jpg'
p252
aI1956
aI3074
aI54
aI1146
aI636
aI666
asS'heiberg-diag-0055'
p253
(lp254
S'heiberg_1883_v1_1_0151.jpg'
p255
aI1956
aI3074
aI30
aI666
aI504
aI528
asS'heiberg-diag-0054'
p256
(lp257
S'heiberg_1883_v1_1_0147.jpg'
p258
aI1956
aI3074
aI48
aI1278
aI630
aI444
asS'heiberg-diag-0059'
p259
(lp260
S'heiberg_1883_v1_1_0167.jpg'
p261
aI1956
aI3074
aI48
aI1320
aI378
aI516
asS'heiberg-diag-0058'
p262
(lp263
S'heiberg_1883_v1_1_0161.jpg'
p264
aI1956
aI3074
aI84
aI1806
aI636
aI438
asS'heiberg-diag-0125'
p265
(lp266
S'heiberg_1883_v1_1_0347.jpg'
p267
aI1956
aI3074
aI150
aI264
aI654
aI630
asS'heiberg-diag-0124'
p268
(lp269
S'heiberg_1883_v1_1_0345.jpg'
p270
aI1956
aI3074
aI156
aI1248
aI822
aI780
asS'heiberg-diag-0123'
p271
(lp272
S'heiberg_1883_v1_1_0343.jpg'
p273
aI1956
aI3074
aI102
aI1554
aI684
aI690
asS'heiberg-diag-0068'
p274
(lp275
S'heiberg_1883_v1_1_0193.jpg'
p276
aI1956
aI3074
aI84
aI582
aI558
aI606
asS'heiberg-diag-0121'
p277
(lp278
S'heiberg_1883_v1_1_0329.jpg'
p279
aI1956
aI3074
aI48
aI300
aI438
aI648
asS'heiberg-diag-0120'
p280
(lp281
S'heiberg_1883_v1_1_0327.jpg'
p282
aI1956
aI3074
aI60
aI1092
aI504
aI474
asS'heiberg-diag-0106'
p283
(lp284
S'heiberg_1883_v1_1_0289.jpg'
p285
aI1956
aI3074
aI66
aI552
aI714
aI528
asS'heiberg-diag-0044'
p286
(lp287
S'heiberg_1883_v1_1_0117.jpg'
p288
aI1956
aI3074
aI78
aI1440
aI612
aI804
asS'heiberg-diag-0109'
p289
(lp290
S'heiberg_1883_v1_1_0297.jpg'
p291
aI1956
aI3074
aI90
aI996
aI474
aI456
asS'heiberg-diag-0046'
p292
(lp293
S'heiberg_1883_v1_1_0123.jpg'
p294
aI1956
aI3074
aI96
aI1632
aI408
aI726
asS'heiberg-diag-0047'
p295
(lp296
S'heiberg_1883_v1_1_0127.jpg'
p297
aI1956
aI3074
aI60
aI354
aI720
aI804
asS'heiberg-diag-0040'
p298
(lp299
S'heiberg_1883_v1_1_0109.jpg'
p300
aI1956
aI3074
aI30
aI1116
aI648
aI408
asS'heiberg-diag-0041'
p301
(lp302
S'heiberg_1883_v1_1_0111.jpg'
p303
aI1956
aI3074
aI66
aI1008
aI636
aI420
asS'heiberg-diag-0042'
p304
(lp305
S'heiberg_1883_v1_1_0113.jpg'
p306
aI1956
aI3074
aI90
aI1206
aI714
aI360
asS'heiberg-diag-0043'
p307
(lp308
S'heiberg_1883_v1_1_0115.jpg'
p309
aI1956
aI3074
aI132
aI942
aI672
aI456
asS'heiberg-diag-0048'
p310
(lp311
S'heiberg_1883_v1_1_0129.jpg'
p312
aI1956
aI3074
aI96
aI1686
aI438
aI636
asS'heiberg-diag-0049'
p313
(lp314
S'heiberg_1883_v1_1_0135.jpg'
p315
aI1956
aI3074
aI60
aI588
aI546
aI486
asS'heiberg-diag-0031'
p316
(lp317
S'heiberg_1883_v1_1_0089.jpg'
p318
aI1956
aI3074
aI24
aI2274
aI690
aI342
asS'heiberg-diag-0030'
p319
(lp320
S'heiberg_1883_v1_1_0089.jpg'
p321
aI1956
aI3074
aI18
aI978
aI690
aI504
asS'heiberg-diag-0033'
p322
(lp323
S'heiberg_1883_v1_1_0095.jpg'
p324
aI1956
aI3074
aI54
aI216
aI654
aI420
asS'heiberg-diag-0032'
p325
(lp326
S'heiberg_1883_v1_1_0091.jpg'
p327
aI1956
aI3074
aI30
aI1644
aI552
aI450
asS'heiberg-diag-0035'
p328
(lp329
S'heiberg_1883_v1_1_0099.jpg'
p330
aI1956
aI3074
aI72
aI1260
aI732
aI396
asS'heiberg-diag-0034'
p331
(lp332
S'heiberg_1883_v1_1_0097.jpg'
p333
aI1956
aI3074
aI42
aI486
aI654
aI360
asS'heiberg-diag-0037'
p334
(lp335
S'heiberg_1883_v1_1_0103.jpg'
p336
aI1956
aI3074
aI30
aI1206
aI726
aI336
asS'heiberg-diag-0036'
p337
(lp338
S'heiberg_1883_v1_1_0101.jpg'
p339
aI1956
aI3074
aI102
aI1116
aI978
aI426
asS'heiberg-diag-0039'
p340
(lp341
S'heiberg_1883_v1_1_0107.jpg'
p342
aI1956
aI3074
aI66
aI1566
aI552
aI420
asS'heiberg-diag-0038'
p343
(lp344
S'heiberg_1883_v1_1_0105.jpg'
p345
aI1956
aI3074
aI30
aI906
aI744
aI372
asS'heiberg-diag-0022'
p346
(lp347
S'heiberg_1883_v1_1_0069.jpg'
p348
aI1956
aI3074
aI330
aI660
aI1326
aI672
asS'heiberg-diag-0023'
p349
(lp350
S'heiberg_1883_v1_1_0071.jpg'
p351
aI1956
aI3074
aI18
aI600
aI654
aI708
asS'heiberg-diag-0020'
p352
(lp353
S'heiberg_1883_v1_1_0063.jpg'
p354
aI1956
aI3074
aI12
aI1266
aI600
aI726
asS'heiberg-diag-0021'
p355
(lp356
S'heiberg_1883_v1_1_0065.jpg'
p357
aI1956
aI3074
aI24
aI1452
aI924
aI588
asS'heiberg-diag-0026'
p358
(lp359
S'heiberg_1883_v1_1_0077.jpg'
p360
aI1956
aI3074
aI18
aI1182
aI792
aI516
asS'heiberg-diag-0027'
p361
(lp362
S'heiberg_1883_v1_1_0083.jpg'
p363
aI1956
aI3074
aI360
aI354
aI1182
aI438
asS'heiberg-diag-0024'
p364
(lp365
S'heiberg_1883_v1_1_0073.jpg'
p366
aI1956
aI3074
aI42
aI1128
aI672
aI534
asS'heiberg-diag-0025'
p367
(lp368
S'heiberg_1883_v1_1_0075.jpg'
p369
aI1956
aI3074
aI24
aI648
aI624
aI546
asS'heiberg-diag-0028'
p370
(lp371
S'heiberg_1883_v1_1_0085.jpg'
p372
aI1956
aI3074
aI72
aI870
aI666
aI594
asS'heiberg-diag-0029'
p373
(lp374
S'heiberg_1883_v1_1_0087.jpg'
p375
aI1956
aI3074
aI24
aI684
aI684
aI612
as.