(dp0
S'commandinus_1715_v1_1_0244'
p1
cnumpy.core.multiarray
scalar
p2
(cnumpy
dtype
p3
(S'f8'
p4
I0
I1
tp5
Rp6
(I3
S'<'
p7
NNNI-1
I-1
I0
tp8
bS'\xe2\xa7\xdfh}\xe5\x87>'
p9
tp10
Rp11
sS'commandinus_1715_v1_1_0245'
p12
g2
(g6
S'\xe2\xa7\xdfh}\xe5w>'
p13
tp14
Rp15
sS'commandinus_1715_v1_1_0178'
p16
g2
(g6
S'WO\xbd\xc0i|\x87>'
p17
tp18
Rp19
sS'commandinus_1715_v1_1_0247'
p20
g2
(g6
S'\x16\x9e\xd1\xf7\xc7\xb1\xb3>'
p21
tp22
Rp23
sS'commandinus_1715_v1_1_0240'
p24
g2
(g6
S'\xea\xbd\xa7\x0e\x1e\xec\x91>'
p25
tp26
Rp27
sS'commandinus_1715_v1_1_0241'
p28
g2
(g6
S'\xa2\x84\x96\x80\xc6V\x97>'
p29
tp30
Rp31
sS'commandinus_1715_v1_1_0242'
p32
g2
(g6
S'\xe9\xbd\xa7\x0e\x1e\xec\xa1>'
p33
tp34
Rp35
sS'commandinus_1715_v1_1_0243'
p36
g2
(g6
S'\xe2\xa7\xdfh}\xe5w>'
p37
tp38
Rp39
sS'commandinus_1715_v1_1_0312'
p40
g2
(g6
S'\xe2\xa7\xdfh}\xe5\x87>'
p41
tp42
Rp43
sS'commandinus_1715_v1_1_0313'
p44
g2
(g6
S'a\x81&\xb9\xaf\xcd\x97>'
p45
tp46
Rp47
sS'commandinus_1715_v1_1_0306'
p48
g2
(g6
S'\xe2\xa7\xdfh}\xe5\x97>'
p49
tp50
Rp51
sS'commandinus_1715_v1_1_0311'
p52
g2
(g6
S'\xe9\xbd\xa7\x0e\x1e\xec\x91>'
p53
tp54
Rp55
sS'commandinus_1715_v1_1_0248'
p56
g2
(g6
S'\xe2\xa7\xdfh}\xe5w>'
p57
tp58
Rp59
sS'commandinus_1715_v1_1_0123'
p60
g2
(g6
S'WO\xbd\xc0i|\x87>'
p61
tp62
Rp63
sS'commandinus_1715_v1_1_0314'
p64
g2
(g6
S'\xe2\xa7\xdfh}\xe5\x97>'
p65
tp66
Rp67
sS'commandinus_1715_v1_1_0315'
p68
g2
(g6
S'a\x81&\xb9\xaf\xcd\x87>'
p69
tp70
Rp71
sS'commandinus_1715_v1_1_0233'
p72
g2
(g6
S'\xe2\xa7\xdfh}\xe5\x87>'
p73
tp74
Rp75
sS'commandinus_1715_v1_1_0253'
p76
g2
(g6
S'\xe2\xa7\xdfh}\xe5\x87>'
p77
tp78
Rp79
sS'commandinus_1715_v1_1_0246'
p80
g2
(g6
S'\xe2\xa7\xdfh}\xe5w>'
p81
tp82
Rp83
sS'commandinus_1715_v1_1_0319'
p84
g2
(g6
S'\xe2\xa7\xdfh}\xe5\x97>'
p85
tp86
Rp87
sS'commandinus_1715_v1_1_0169'
p88
g2
(g6
S'\xa2\x84\x96\x80\xc6Vw>'
p89
tp90
Rp91
sS'commandinus_1715_v1_1_0168'
p92
g2
(g6
S'WO\xbd\xc0i|w>'
p93
tp94
Rp95
sS'commandinus_1715_v1_1_0252'
p96
g2
(g6
S'\xe2\xa7\xdfh}\xe5\x87>'
p97
tp98
Rp99
sS'commandinus_1715_v1_1_0165'
p100
g2
(g6
S'WO\xbd\xc0i|\x87>'
p101
tp102
Rp103
sS'commandinus_1715_v1_1_0164'
p104
g2
(g6
S'WO\xbd\xc0i|w>'
p105
tp106
Rp107
sS'commandinus_1715_v1_1_0167'
p108
g2
(g6
S'WO\xbd\xc0i|\x87>'
p109
tp110
Rp111
sS'commandinus_1715_v1_1_0166'
p112
g2
(g6
S'WO\xbd\xc0i|w>'
p113
tp114
Rp115
sS'commandinus_1715_v1_1_0161'
p116
g2
(g6
S'WO\xbd\xc0i|\x87>'
p117
tp118
Rp119
sS'commandinus_1715_v1_1_0160'
p120
g2
(g6
S'WO\xbd\xc0i|\x97>'
p121
tp122
Rp123
sS'commandinus_1715_v1_1_0163'
p124
g2
(g6
S'WO\xbd\xc0i|w>'
p125
tp126
Rp127
sS'commandinus_1715_v1_1_0162'
p128
g2
(g6
S'WO\xbd\xc0i|w>'
p129
tp130
Rp131
sS'commandinus_1715_v1_1_0232'
p132
g2
(g6
S'\xe2\xa7\xdfh}\xe5\x87>'
p133
tp134
Rp135
sS'commandinus_1715_v1_1_0280'
p136
g2
(g6
S'\xe2\xa7\xdfh}\xe5\x87>'
p137
tp138
Rp139
sS'commandinus_1715_v1_1_0088'
p140
g2
(g6
S'\xe7\x16d\xf3Lq\x87>'
p141
tp142
Rp143
sS'commandinus_1715_v1_1_0089'
p144
g2
(g6
S'\xe7\x16d\xf3Lq\x87>'
p145
tp146
Rp147
sS'commandinus_1715_v1_1_0219'
p148
g2
(g6
S'\x16\x9e\xd1\xf7\xc7\xb1\xb3>'
p149
tp150
Rp151
sS'commandinus_1715_v1_1_0281'
p152
g2
(g6
S'\xe2\xa7\xdfh}\xe5\x87>'
p153
tp154
Rp155
sS'commandinus_1715_v1_1_0082'
p156
g2
(g6
S'\xe7\x16d\xf3Lq\x87>'
p157
tp158
Rp159
sS'commandinus_1715_v1_1_0083'
p160
g2
(g6
S'\xe7\x16d\xf3Lq\x87>'
p161
tp162
Rp163
sS'commandinus_1715_v1_1_0080'
p164
g2
(g6
S'\xe7\x16d\xf3Lqw>'
p165
tp166
Rp167
sS'commandinus_1715_v1_1_0081'
p168
g2
(g6
S'-\x11\x8b\xb6\xf9\x94\x91>'
p169
tp170
Rp171
sS'commandinus_1715_v1_1_0086'
p172
g2
(g6
S'\xe7\x16d\xf3Lq\x87>'
p173
tp174
Rp175
sS'commandinus_1715_v1_1_0087'
p176
g2
(g6
S'-\x11\x8b\xb6\xf9\x94\x91>'
p177
tp178
Rp179
sS'commandinus_1715_v1_1_0084'
p180
g2
(g6
S'\xe7\x16d\xf3Lq\x97>'
p181
tp182
Rp183
sS'commandinus_1715_v1_1_0085'
p184
g2
(g6
S'\xe7\x16d\xf3Lq\x87>'
p185
tp186
Rp187
sS'commandinus_1715_v1_1_0309'
p188
g2
(g6
S'\xe2\xa7\xdfh}\xe5\x97>'
p189
tp190
Rp191
sS'commandinus_1715_v1_1_0308'
p192
g2
(g6
S'\xe2\xa7\xdfh}\xe5\x97>'
p193
tp194
Rp195
sS'commandinus_1715_v1_1_0283'
p196
g2
(g6
S'\xe2\xa7\xdfh}\xe5\x97>'
p197
tp198
Rp199
sS'commandinus_1715_v1_1_0015'
p200
g2
(g6
S'\xe7\x16d\xf3Lqw>'
p201
tp202
Rp203
sS'commandinus_1715_v1_1_0017'
p204
g2
(g6
S'\xe7\x16d\xf3Lq\x87>'
p205
tp206
Rp207
sS'commandinus_1715_v1_1_0016'
p208
g2
(g6
S'\xe7\x16d\xf3Lq\x87>'
p209
tp210
Rp211
sS'commandinus_1715_v1_1_0019'
p212
g2
(g6
S'\xe7\x16d\xf3Lqw>'
p213
tp214
Rp215
sS'commandinus_1715_v1_1_0018'
p216
g2
(g6
S'\xe7\x16d\xf3Lqw>'
p217
tp218
Rp219
sS'commandinus_1715_v1_1_0303'
p220
g2
(g6
S'\xe2\xa7\xdfh}\xe5\x97>'
p221
tp222
Rp223
sS'commandinus_1715_v1_1_0302'
p224
g2
(g6
S'\xe2\xa7\xdfh}\xe5\x97>'
p225
tp226
Rp227
sS'commandinus_1715_v1_1_0305'
p228
g2
(g6
S'\xea\xbd\xa7\x0e\x1e\xec\x91>'
p229
tp230
Rp231
sS'commandinus_1715_v1_1_0304'
p232
g2
(g6
S'\xe2\xa7\xdfh}\xe5\x97>'
p233
tp234
Rp235
sS'commandinus_1715_v1_1_0307'
p236
g2
(g6
S'\xe2\xa7\xdfh}\xe5w>'
p237
tp238
Rp239
sS'commandinus_1715_v1_1_0249'
p240
g2
(g6
S'\xe2\xa7\xdfh}\xe5\x97>'
p241
tp242
Rp243
sS'commandinus_1715_v1_1_0150'
p244
g2
(g6
S'WO\xbd\xc0i|\x87>'
p245
tp246
Rp247
sS'commandinus_1715_v1_1_0151'
p248
g2
(g6
S'WO\xbd\xc0i|w>'
p249
tp250
Rp251
sS'commandinus_1715_v1_1_0152'
p252
g2
(g6
S'WO\xbd\xc0i|\x87>'
p253
tp254
Rp255
sS'commandinus_1715_v1_1_0153'
p256
g2
(g6
S'\x81\xfb\x8dPO\x9d\x91>'
p257
tp258
Rp259
sS'commandinus_1715_v1_1_0154'
p260
g2
(g6
S'WO\xbd\xc0i|\x87>'
p261
tp262
Rp263
sS'commandinus_1715_v1_1_0155'
p264
g2
(g6
S'\x81\xfb\x8dPO\x9d\x91>'
p265
tp266
Rp267
sS'commandinus_1715_v1_1_0156'
p268
g2
(g6
S'WO\xbd\xc0i|\x87>'
p269
tp270
Rp271
sS'commandinus_1715_v1_1_0157'
p272
g2
(g6
S'WO\xbd\xc0i|\x97>'
p273
tp274
Rp275
sS'commandinus_1715_v1_1_0158'
p276
g2
(g6
S'WO\xbd\xc0i|w>'
p277
tp278
Rp279
sS'commandinus_1715_v1_1_0159'
p280
g2
(g6
S'WO\xbd\xc0i|\x97>'
p281
tp282
Rp283
sS'commandinus_1715_v1_1_0251'
p284
g2
(g6
S'\xe2\xa7\xdfh}\xe5\x97>'
p285
tp286
Rp287
sS'commandinus_1715_v1_1_0250'
p288
g2
(g6
S'\xe2\xa7\xdfh}\xe5\x97>'
p289
tp290
Rp291
sS'commandinus_1715_v1_1_0257'
p292
g2
(g6
S'\xa2\x84\x96\x80\xc6V\x87>'
p293
tp294
Rp295
sS'commandinus_1715_v1_1_0256'
p296
g2
(g6
S'\xe2\xa7\xdfh}\xe5w>'
p297
tp298
Rp299
sS'commandinus_1715_v1_1_0255'
p300
g2
(g6
S'\xe9\xbd\xa7\x0e\x1e\xec\x91>'
p301
tp302
Rp303
sS'commandinus_1715_v1_1_0254'
p304
g2
(g6
S'\xe2\xa7\xdfh}\xe5w>'
p305
tp306
Rp307
sS'commandinus_1715_v1_1_0099'
p308
g2
(g6
S'\xe7\x16d\xf3Lqw>'
p309
tp310
Rp311
sS'commandinus_1715_v1_1_0098'
p312
g2
(g6
S'\xe7\x16d\xf3Lq\x87>'
p313
tp314
Rp315
sS'commandinus_1715_v1_1_0091'
p316
g2
(g6
S'\xe7\x16d\xf3Lqw>'
p317
tp318
Rp319
sS'commandinus_1715_v1_1_0090'
p320
g2
(g6
S'\xe7\x16d\xf3Lq\x87>'
p321
tp322
Rp323
sS'commandinus_1715_v1_1_0093'
p324
g2
(g6
S':z\xf7D\x7fZ\x87>'
p325
tp326
Rp327
sS'commandinus_1715_v1_1_0092'
p328
g2
(g6
S'\xe7\x16d\xf3Lqw>'
p329
tp330
Rp331
sS'commandinus_1715_v1_1_0095'
p332
g2
(g6
S'\xe7\x16d\xf3Lq\x87>'
p333
tp334
Rp335
sS'commandinus_1715_v1_1_0094'
p336
g2
(g6
S'\xe7\x16d\xf3Lq\x87>'
p337
tp338
Rp339
sS'commandinus_1715_v1_1_0097'
p340
g2
(g6
S'\xe7\x16d\xf3Lq\x97>'
p341
tp342
Rp343
sS'commandinus_1715_v1_1_0096'
p344
g2
(g6
S'\xe7\x16d\xf3Lq\x87>'
p345
tp346
Rp347
sS'commandinus_1715_v1_1_0024'
p348
g2
(g6
S'-\x11\x8b\xb6\xf9\x94\x91>'
p349
tp350
Rp351
sS'commandinus_1715_v1_1_0025'
p352
g2
(g6
S'\xe7\x16d\xf3Lq\x87>'
p353
tp354
Rp355
sS'commandinus_1715_v1_1_0026'
p356
g2
(g6
S'\xe7\x16d\xf3Lq\x87>'
p357
tp358
Rp359
sS'commandinus_1715_v1_1_0027'
p360
g2
(g6
S'\xe7\x16d\xf3Lqw>'
p361
tp362
Rp363
sS'commandinus_1715_v1_1_0020'
p364
g2
(g6
S'\xe7\x16d\xf3Lq\x87>'
p365
tp366
Rp367
sS'commandinus_1715_v1_1_0021'
p368
g2
(g6
S'\xe7\x16d\xf3Lqw>'
p369
tp370
Rp371
sS'commandinus_1715_v1_1_0022'
p372
g2
(g6
S'\xe7\x16d\xf3Lq\x87>'
p373
tp374
Rp375
sS'commandinus_1715_v1_1_0023'
p376
g2
(g6
S'\xe7\x16d\xf3Lq\x87>'
p377
tp378
Rp379
sS'commandinus_1715_v1_1_0293'
p380
g2
(g6
S'a\x81&\xb9\xaf\xcd\x87>'
p381
tp382
Rp383
sS'commandinus_1715_v1_1_0207'
p384
g2
(g6
S'\xa2\x84\x96\x80\xc6V\x87>'
p385
tp386
Rp387
sS'commandinus_1715_v1_1_0028'
p388
g2
(g6
S'\xcdA\x9a\x0bF\xcd\x87>'
p389
tp390
Rp391
sS'commandinus_1715_v1_1_0029'
p392
g2
(g6
S'\xe7\x16d\xf3Lqw>'
p393
tp394
Rp395
sS'commandinus_1715_v1_1_0147'
p396
g2
(g6
S'WO\xbd\xc0i|\x97>'
p397
tp398
Rp399
sS'commandinus_1715_v1_1_0146'
p400
g2
(g6
S'WO\xbd\xc0i|\x97>'
p401
tp402
Rp403
sS'commandinus_1715_v1_1_0145'
p404
g2
(g6
S'WO\xbd\xc0i|w>'
p405
tp406
Rp407
sS'commandinus_1715_v1_1_0144'
p408
g2
(g6
S'WO\xbd\xc0i|\x97>'
p409
tp410
Rp411
sS'commandinus_1715_v1_1_0143'
p412
g2
(g6
S'\x81\xfb\x8dPO\x9d\x91>'
p413
tp414
Rp415
sS'commandinus_1715_v1_1_0142'
p416
g2
(g6
S'\x81\xfb\x8dPO\x9d\x91>'
p417
tp418
Rp419
sS'commandinus_1715_v1_1_0141'
p420
g2
(g6
S'WO\xbd\xc0i|w>'
p421
tp422
Rp423
sS'commandinus_1715_v1_1_0140'
p424
g2
(g6
S'WO\xbd\xc0i|\x97>'
p425
tp426
Rp427
sS'commandinus_1715_v1_1_0226'
p428
g2
(g6
S'\xe2\xa7\xdfh}\xe5\x87>'
p429
tp430
Rp431
sS'commandinus_1715_v1_1_0227'
p432
g2
(g6
S'\xe2\xa7\xdfh}\xe5\x97>'
p433
tp434
Rp435
sS'commandinus_1715_v1_1_0224'
p436
g2
(g6
S'\xe2\xa7\xdfh}\xe5\x97>'
p437
tp438
Rp439
sS'commandinus_1715_v1_1_0225'
p440
g2
(g6
S'\xe2\xa7\xdfh}\xe5w>'
p441
tp442
Rp443
sS'commandinus_1715_v1_1_0221'
p444
g2
(g6
S'\x16\x9e\xd1\xf7\xc7\xb1\xb3>'
p445
tp446
Rp447
sS'commandinus_1715_v1_1_0223'
p448
g2
(g6
S'\xea\xbd\xa7\x0e\x1e\xec\x91>'
p449
tp450
Rp451
sS'commandinus_1715_v1_1_0149'
p452
g2
(g6
S'\x81\xfb\x8dPO\x9d\x91>'
p453
tp454
Rp455
sS'commandinus_1715_v1_1_0148'
p456
g2
(g6
S'\x81\xfb\x8dPO\x9d\x91>'
p457
tp458
Rp459
sS'commandinus_1715_v1_1_0297'
p460
g2
(g6
S'\xea\xbd\xa7\x0e\x1e\xec\x91>'
p461
tp462
Rp463
sS'commandinus_1715_v1_1_0206'
p464
g2
(g6
S'WO\xbd\xc0i|\x97>'
p465
tp466
Rp467
sS'commandinus_1715_v1_1_0132'
p468
g2
(g6
S'WO\xbd\xc0i|\x97>'
p469
tp470
Rp471
sS'commandinus_1715_v1_1_0133'
p472
g2
(g6
S'WO\xbd\xc0i|\x97>'
p473
tp474
Rp475
sS'commandinus_1715_v1_1_0130'
p476
g2
(g6
S'WO\xbd\xc0i|\x97>'
p477
tp478
Rp479
sS'commandinus_1715_v1_1_0131'
p480
g2
(g6
S'WO\xbd\xc0i|\x97>'
p481
tp482
Rp483
sS'commandinus_1715_v1_1_0136'
p484
g2
(g6
S'WO\xbd\xc0i|\x87>'
p485
tp486
Rp487
sS'commandinus_1715_v1_1_0137'
p488
g2
(g6
S'\x16\x9e\xd1\xf7\xc7\xb1\xb3>'
p489
tp490
Rp491
sS'commandinus_1715_v1_1_0134'
p492
g2
(g6
S'WO\xbd\xc0i|\x97>'
p493
tp494
Rp495
sS'commandinus_1715_v1_1_0135'
p496
g2
(g6
S'WO\xbd\xc0i|\x97>'
p497
tp498
Rp499
sS'commandinus_1715_v1_1_0237'
p500
g2
(g6
S'\x16\x9e\xd1\xf7\xc7\xb1\xb3>'
p501
tp502
Rp503
sS'commandinus_1715_v1_1_0138'
p504
g2
(g6
S'WO\xbd\xc0i|w>'
p505
tp506
Rp507
sS'commandinus_1715_v1_1_0139'
p508
g2
(g6
S'WO\xbd\xc0i|w>'
p509
tp510
Rp511
sS'commandinus_1715_v1_1_0039'
p512
g2
(g6
S'\xe7\x16d\xf3Lq\x87>'
p513
tp514
Rp515
sS'commandinus_1715_v1_1_0038'
p516
g2
(g6
S'\xe7\x16d\xf3Lq\x87>'
p517
tp518
Rp519
sS'commandinus_1715_v1_1_0239'
p520
g2
(g6
S'\xe2\xa7\xdfh}\xe5\x97>'
p521
tp522
Rp523
sS'commandinus_1715_v1_1_0238'
p524
g2
(g6
S'\xe2\xa7\xdfh}\xe5\x97>'
p525
tp526
Rp527
sS'commandinus_1715_v1_1_0033'
p528
g2
(g6
S'\xe7\x16d\xf3Lq\x87>'
p529
tp530
Rp531
sS'commandinus_1715_v1_1_0032'
p532
g2
(g6
S'\xe7\x16d\xf3Lq\x97>'
p533
tp534
Rp535
sS'commandinus_1715_v1_1_0031'
p536
g2
(g6
S'\xe7\x16d\xf3Lq\x87>'
p537
tp538
Rp539
sS'commandinus_1715_v1_1_0030'
p540
g2
(g6
S'\xe7\x16d\xf3Lq\x87>'
p541
tp542
Rp543
sS'commandinus_1715_v1_1_0037'
p544
g2
(g6
S'\xe7\x16d\xf3Lqw>'
p545
tp546
Rp547
sS'commandinus_1715_v1_1_0036'
p548
g2
(g6
S'\xe7\x16d\xf3Lqw>'
p549
tp550
Rp551
sS'commandinus_1715_v1_1_0035'
p552
g2
(g6
S'\xe7\x16d\xf3Lqw>'
p553
tp554
Rp555
sS'commandinus_1715_v1_1_0034'
p556
g2
(g6
S'\xe7\x16d\xf3Lqw>'
p557
tp558
Rp559
sS'commandinus_1715_v1_1_0322'
p560
g2
(g6
S'\xe2\xa7\xdfh}\xe5\x87>'
p561
tp562
Rp563
sS'commandinus_1715_v1_1_0208'
p564
g2
(g6
S'WO\xbd\xc0i|w>'
p565
tp566
Rp567
sS'commandinus_1715_v1_1_0318'
p568
g2
(g6
S'\xe2\xa7\xdfh}\xe5\x97>'
p569
tp570
Rp571
sS'commandinus_1715_v1_1_0284'
p572
g2
(g6
S'\xe2\xa7\xdfh}\xe5w>'
p573
tp574
Rp575
sS'commandinus_1715_v1_1_0121'
p576
g2
(g6
S'WO\xbd\xc0i|\x97>'
p577
tp578
Rp579
sS'commandinus_1715_v1_1_0120'
p580
g2
(g6
S'WO\xbd\xc0i|\x97>'
p581
tp582
Rp583
sS'commandinus_1715_v1_1_0103'
p584
g2
(g6
S'\xe7\x16d\xf3Lq\x97>'
p585
tp586
Rp587
sS'commandinus_1715_v1_1_0122'
p588
g2
(g6
S'\x81\xfb\x8dPO\x9d\xa1>'
p589
tp590
Rp591
sS'commandinus_1715_v1_1_0125'
p592
g2
(g6
S'WO\xbd\xc0i|w>'
p593
tp594
Rp595
sS'commandinus_1715_v1_1_0124'
p596
g2
(g6
S'WO\xbd\xc0i|\x97>'
p597
tp598
Rp599
sS'commandinus_1715_v1_1_0127'
p600
g2
(g6
S'WO\xbd\xc0i|\x87>'
p601
tp602
Rp603
sS'commandinus_1715_v1_1_0126'
p604
g2
(g6
S'WO\xbd\xc0i|\x87>'
p605
tp606
Rp607
sS'commandinus_1715_v1_1_0129'
p608
g2
(g6
S'WO\xbd\xc0i|w>'
p609
tp610
Rp611
sS'commandinus_1715_v1_1_0128'
p612
g2
(g6
S'WO\xbd\xc0i|\x97>'
p613
tp614
Rp615
sS'commandinus_1715_v1_1_0282'
p616
g2
(g6
S'\xe9\xbd\xa7\x0e\x1e\xec\x91>'
p617
tp618
Rp619
sS'commandinus_1715_v1_1_0179'
p620
g2
(g6
S'WO\xbd\xc0i|w>'
p621
tp622
Rp623
sS'commandinus_1715_v1_1_0209'
p624
g2
(g6
S'WO\xbd\xc0i|w>'
p625
tp626
Rp627
sS'commandinus_1715_v1_1_0285'
p628
g2
(g6
S'\xe2\xa7\xdfh}\xe5\x87>'
p629
tp630
Rp631
sS'commandinus_1715_v1_1_0286'
p632
g2
(g6
S'\xea\xbd\xa7\x0e\x1e\xec\x91>'
p633
tp634
Rp635
sS'commandinus_1715_v1_1_0287'
p636
g2
(g6
S'\xe2\xa7\xdfh}\xe5w>'
p637
tp638
Rp639
sS'commandinus_1715_v1_1_0200'
p640
g2
(g6
S'WO\xbd\xc0i|\x87>'
p641
tp642
Rp643
sS'commandinus_1715_v1_1_0201'
p644
g2
(g6
S'\x16\x9e\xd1\xf7\xc7\xb1\xb3>'
p645
tp646
Rp647
sS'commandinus_1715_v1_1_0202'
p648
g2
(g6
S'WO\xbd\xc0i|\x97>'
p649
tp650
Rp651
sS'commandinus_1715_v1_1_0203'
p652
g2
(g6
S'WO\xbd\xc0i|\x87>'
p653
tp654
Rp655
sS'commandinus_1715_v1_1_0204'
p656
g2
(g6
S'WO\xbd\xc0i|\x97>'
p657
tp658
Rp659
sS'commandinus_1715_v1_1_0205'
p660
g2
(g6
S'\x16\x9e\xd1\xf7\xc7\xb1\xb3>'
p661
tp662
Rp663
sS'commandinus_1715_v1_1_0048'
p664
g2
(g6
S'\xe7\x16d\xf3Lq\x87>'
p665
tp666
Rp667
sS'commandinus_1715_v1_1_0049'
p668
g2
(g6
S'\xe7\x16d\xf3Lqw>'
p669
tp670
Rp671
sS'commandinus_1715_v1_1_0046'
p672
g2
(g6
S'\xe7\x16d\xf3Lq\x87>'
p673
tp674
Rp675
sS'commandinus_1715_v1_1_0047'
p676
g2
(g6
S'\xe7\x16d\xf3Lqw>'
p677
tp678
Rp679
sS'commandinus_1715_v1_1_0044'
p680
g2
(g6
S'-\x11\x8b\xb6\xf9\x94\x91>'
p681
tp682
Rp683
sS'commandinus_1715_v1_1_0045'
p684
g2
(g6
S'\xe7\x16d\xf3Lqw>'
p685
tp686
Rp687
sS'commandinus_1715_v1_1_0042'
p688
g2
(g6
S'\xe7\x16d\xf3Lq\x97>'
p689
tp690
Rp691
sS'commandinus_1715_v1_1_0043'
p692
g2
(g6
S'\xe7\x16d\xf3Lqw>'
p693
tp694
Rp695
sS'commandinus_1715_v1_1_0040'
p696
g2
(g6
S'\xe7\x16d\xf3Lqw>'
p697
tp698
Rp699
sS'commandinus_1715_v1_1_0041'
p700
g2
(g6
S'\xe7\x16d\xf3Lq\x97>'
p701
tp702
Rp703
sS'commandinus_1715_v1_1_0102'
p704
g2
(g6
S'-\x11\x8b\xb6\xf9\x94\x91>'
p705
tp706
Rp707
sS'commandinus_1715_v1_1_0236'
p708
g2
(g6
S'\xe2\xa7\xdfh}\xe5\x97>'
p709
tp710
Rp711
sS'commandinus_1715_v1_1_0234'
p712
g2
(g6
S'\xe2\xa7\xdfh}\xe5\x87>'
p713
tp714
Rp715
sS'commandinus_1715_v1_1_0316'
p716
g2
(g6
S'\xe2\xa7\xdfh}\xe5\x87>'
p717
tp718
Rp719
sS'commandinus_1715_v1_1_0231'
p720
g2
(g6
S'\xe2\xa7\xdfh}\xe5\x87>'
p721
tp722
Rp723
sS'commandinus_1715_v1_1_0235'
p724
g2
(g6
S'\xa2\x84\x96\x80\xc6V\x97>'
p725
tp726
Rp727
sS'commandinus_1715_v1_1_0230'
p728
g2
(g6
S'\xe2\xa7\xdfh}\xe5\x87>'
p729
tp730
Rp731
sS'commandinus_1715_v1_1_0170'
p732
g2
(g6
S'WO\xbd\xc0i|\x97>'
p733
tp734
Rp735
sS'commandinus_1715_v1_1_0320'
p736
g2
(g6
S'\xe2\xa7\xdfh}\xe5\x97>'
p737
tp738
Rp739
sS'commandinus_1715_v1_1_0301'
p740
g2
(g6
S'a\x81&\xb9\xaf\xcd\x87>'
p741
tp742
Rp743
sS'commandinus_1715_v1_1_0171'
p744
g2
(g6
S'\xa2\x84\x96\x80\xc6V\x87>'
p745
tp746
Rp747
sS'commandinus_1715_v1_1_0114'
p748
g2
(g6
S'WO\xbd\xc0i|w>'
p749
tp750
Rp751
sS'commandinus_1715_v1_1_0115'
p752
g2
(g6
S'WO\xbd\xc0i|\x97>'
p753
tp754
Rp755
sS'commandinus_1715_v1_1_0116'
p756
g2
(g6
S'WO\xbd\xc0i|\x97>'
p757
tp758
Rp759
sS'commandinus_1715_v1_1_0117'
p760
g2
(g6
S'WO\xbd\xc0i|\x97>'
p761
tp762
Rp763
sS'commandinus_1715_v1_1_0110'
p764
g2
(g6
S'WO\xbd\xc0i|\x87>'
p765
tp766
Rp767
sS'commandinus_1715_v1_1_0111'
p768
g2
(g6
S'WO\xbd\xc0i|\x97>'
p769
tp770
Rp771
sS'commandinus_1715_v1_1_0112'
p772
g2
(g6
S'WO\xbd\xc0i|\x97>'
p773
tp774
Rp775
sS'commandinus_1715_v1_1_0113'
p776
g2
(g6
S'WO\xbd\xc0i|\x87>'
p777
tp778
Rp779
sS'commandinus_1715_v1_1_0267'
p780
g2
(g6
S'\xe2\xa7\xdfh}\xe5\x87>'
p781
tp782
Rp783
sS'commandinus_1715_v1_1_0296'
p784
g2
(g6
S'\xe2\xa7\xdfh}\xe5\x97>'
p785
tp786
Rp787
sS'commandinus_1715_v1_1_0295'
p788
g2
(g6
S'a\x81&\xb9\xaf\xcdw>'
p789
tp790
Rp791
sS'commandinus_1715_v1_1_0294'
p792
g2
(g6
S'\xe2\xa7\xdfh}\xe5\x87>'
p793
tp794
Rp795
sS'commandinus_1715_v1_1_0118'
p796
g2
(g6
S'WO\xbd\xc0i|\x87>'
p797
tp798
Rp799
sS'commandinus_1715_v1_1_0119'
p800
g2
(g6
S'WO\xbd\xc0i|\x97>'
p801
tp802
Rp803
sS'commandinus_1715_v1_1_0291'
p804
g2
(g6
S'a\x81&\xb9\xaf\xcd\x97>'
p805
tp806
Rp807
sS'commandinus_1715_v1_1_0290'
p808
g2
(g6
S'\xe2\xa7\xdfh}\xe5\x87>'
p809
tp810
Rp811
sS'commandinus_1715_v1_1_0217'
p812
g2
(g6
S'\x16\x9e\xd1\xf7\xc7\xb1\xb3>'
p813
tp814
Rp815
sS'commandinus_1715_v1_1_0216'
p816
g2
(g6
S'WO\xbd\xc0i|\x97>'
p817
tp818
Rp819
sS'commandinus_1715_v1_1_0215'
p820
g2
(g6
S'WO\xbd\xc0i|\x97>'
p821
tp822
Rp823
sS'commandinus_1715_v1_1_0214'
p824
g2
(g6
S'WO\xbd\xc0i|\x97>'
p825
tp826
Rp827
sS'commandinus_1715_v1_1_0059'
p828
g2
(g6
S'\x16\x9e\xd1\xf7\xc7\xb1\xb3>'
p829
tp830
Rp831
sS'commandinus_1715_v1_1_0058'
p832
g2
(g6
S'\x16\x9e\xd1\xf7\xc7\xb1\xb3>'
p833
tp834
Rp835
sS'commandinus_1715_v1_1_0211'
p836
g2
(g6
S'WO\xbd\xc0i|\x97>'
p837
tp838
Rp839
sS'commandinus_1715_v1_1_0210'
p840
g2
(g6
S'WO\xbd\xc0i|w>'
p841
tp842
Rp843
sS'commandinus_1715_v1_1_0055'
p844
g2
(g6
S'\xe7\x16d\xf3Lqw>'
p845
tp846
Rp847
sS'commandinus_1715_v1_1_0054'
p848
g2
(g6
S'\xe7\x16d\xf3Lq\x87>'
p849
tp850
Rp851
sS'commandinus_1715_v1_1_0057'
p852
g2
(g6
S'\xe7\x16d\xf3Lq\x87>'
p853
tp854
Rp855
sS'commandinus_1715_v1_1_0056'
p856
g2
(g6
S'\xe7\x16d\xf3Lq\x87>'
p857
tp858
Rp859
sS'commandinus_1715_v1_1_0051'
p860
g2
(g6
S'\xe7\x16d\xf3Lq\x87>'
p861
tp862
Rp863
sS'commandinus_1715_v1_1_0050'
p864
g2
(g6
S'-\x11\x8b\xb6\xf9\x94\x91>'
p865
tp866
Rp867
sS'commandinus_1715_v1_1_0053'
p868
g2
(g6
S'\xe7\x16d\xf3Lqw>'
p869
tp870
Rp871
sS'commandinus_1715_v1_1_0052'
p872
g2
(g6
S'\xe7\x16d\xf3Lq\x97>'
p873
tp874
Rp875
sS'commandinus_1715_v1_1_0300'
p876
g2
(g6
S'\xe2\xa7\xdfh}\xe5\x97>'
p877
tp878
Rp879
sS'commandinus_1715_v1_1_0323'
p880
g2
(g6
S'\xe2\xa7\xdfh}\xe5\x97>'
p881
tp882
Rp883
sS'commandinus_1715_v1_1_0109'
p884
g2
(g6
S'WO\xbd\xc0i|\x97>'
p885
tp886
Rp887
sS'commandinus_1715_v1_1_0108'
p888
g2
(g6
S'WO\xbd\xc0i|w>'
p889
tp890
Rp891
sS'commandinus_1715_v1_1_0198'
p892
g2
(g6
S'WO\xbd\xc0i|\x87>'
p893
tp894
Rp895
sS'commandinus_1715_v1_1_0199'
p896
g2
(g6
S'WO\xbd\xc0i|w>'
p897
tp898
Rp899
sS'commandinus_1715_v1_1_0220'
p900
g2
(g6
S'\xe2\xa7\xdfh}\xe5\x97>'
p901
tp902
Rp903
sS'commandinus_1715_v1_1_0194'
p904
g2
(g6
S'WO\xbd\xc0i|\x97>'
p905
tp906
Rp907
sS'commandinus_1715_v1_1_0195'
p908
g2
(g6
S'WO\xbd\xc0i|\x97>'
p909
tp910
Rp911
sS'commandinus_1715_v1_1_0196'
p912
g2
(g6
S'WO\xbd\xc0i|w>'
p913
tp914
Rp915
sS'commandinus_1715_v1_1_0197'
p916
g2
(g6
S'WO\xbd\xc0i|\x87>'
p917
tp918
Rp919
sS'commandinus_1715_v1_1_0190'
p920
g2
(g6
S'WO\xbd\xc0i|w>'
p921
tp922
Rp923
sS'commandinus_1715_v1_1_0191'
p924
g2
(g6
S'\xa2\x84\x96\x80\xc6V\x97>'
p925
tp926
Rp927
sS'commandinus_1715_v1_1_0192'
p928
g2
(g6
S'WO\xbd\xc0i|\x87>'
p929
tp930
Rp931
sS'commandinus_1715_v1_1_0193'
p932
g2
(g6
S'WO\xbd\xc0i|\x87>'
p933
tp934
Rp935
sS'commandinus_1715_v1_1_0262'
p936
g2
(g6
S'\xe2\xa7\xdfh}\xe5\x97>'
p937
tp938
Rp939
sS'commandinus_1715_v1_1_0263'
p940
g2
(g6
S'\xe2\xa7\xdfh}\xe5\x87>'
p941
tp942
Rp943
sS'commandinus_1715_v1_1_0260'
p944
g2
(g6
S'\xe2\xa7\xdfh}\xe5\x97>'
p945
tp946
Rp947
sS'commandinus_1715_v1_1_0261'
p948
g2
(g6
S'\xe2\xa7\xdfh}\xe5w>'
p949
tp950
Rp951
sS'commandinus_1715_v1_1_0266'
p952
g2
(g6
S'\xe2\xa7\xdfh}\xe5\x87>'
p953
tp954
Rp955
sS'commandinus_1715_v1_1_0228'
p956
g2
(g6
S'\xe2\xa7\xdfh}\xe5\x97>'
p957
tp958
Rp959
sS'commandinus_1715_v1_1_0264'
p960
g2
(g6
S'\xe2\xa7\xdfh}\xe5\x97>'
p961
tp962
Rp963
sS'commandinus_1715_v1_1_0265'
p964
g2
(g6
S'\xe2\xa7\xdfh}\xe5w>'
p965
tp966
Rp967
sS'commandinus_1715_v1_1_0268'
p968
g2
(g6
S'\xe2\xa7\xdfh}\xe5\x97>'
p969
tp970
Rp971
sS'commandinus_1715_v1_1_0229'
p972
g2
(g6
S'\xe2\xa7\xdfh}\xe5\x87>'
p973
tp974
Rp975
sS'commandinus_1715_v1_1_0288'
p976
g2
(g6
S'\xe2\xa7\xdfh}\xe5w>'
p977
tp978
Rp979
sS'commandinus_1715_v1_1_0060'
p980
g2
(g6
S'\xe7\x16d\xf3Lqw>'
p981
tp982
Rp983
sS'commandinus_1715_v1_1_0061'
p984
g2
(g6
S'\xe7\x16d\xf3Lqw>'
p985
tp986
Rp987
sS'commandinus_1715_v1_1_0062'
p988
g2
(g6
S'\xe7\x16d\xf3Lqw>'
p989
tp990
Rp991
sS'commandinus_1715_v1_1_0063'
p992
g2
(g6
S'\xe7\x16d\xf3Lqw>'
p993
tp994
Rp995
sS'commandinus_1715_v1_1_0064'
p996
g2
(g6
S'\x16\x9e\xd1\xf7\xc7\xb1\xb3>'
p997
tp998
Rp999
sS'commandinus_1715_v1_1_0065'
p1000
g2
(g6
S'\xe7\x16d\xf3Lq\x97>'
p1001
tp1002
Rp1003
sS'commandinus_1715_v1_1_0066'
p1004
g2
(g6
S'\xe7\x16d\xf3Lq\x87>'
p1005
tp1006
Rp1007
sS'commandinus_1715_v1_1_0067'
p1008
g2
(g6
S'\xe7\x16d\xf3Lq\x87>'
p1009
tp1010
Rp1011
sS'commandinus_1715_v1_1_0068'
p1012
g2
(g6
S'\xe7\x16d\xf3Lq\x87>'
p1013
tp1014
Rp1015
sS'commandinus_1715_v1_1_0069'
p1016
g2
(g6
S'\xe7\x16d\xf3Lq\x97>'
p1017
tp1018
Rp1019
sS'commandinus_1715_v1_1_0101'
p1020
g2
(g6
S'\xe7\x16d\xf3Lqw>'
p1021
tp1022
Rp1023
sS'commandinus_1715_v1_1_0100'
p1024
g2
(g6
S'\xe7\x16d\xf3Lq\x87>'
p1025
tp1026
Rp1027
sS'commandinus_1715_v1_1_0107'
p1028
g2
(g6
S'\xe7\x16d\xf3Lqw>'
p1029
tp1030
Rp1031
sS'commandinus_1715_v1_1_0106'
p1032
g2
(g6
S'\xe7\x16d\xf3Lq\x87>'
p1033
tp1034
Rp1035
sS'commandinus_1715_v1_1_0105'
p1036
g2
(g6
S'\xe7\x16d\xf3Lqw>'
p1037
tp1038
Rp1039
sS'commandinus_1715_v1_1_0104'
p1040
g2
(g6
S'\xe7\x16d\xf3Lqw>'
p1041
tp1042
Rp1043
sS'commandinus_1715_v1_1_0218'
p1044
g2
(g6
S'WO\xbd\xc0i|\x87>'
p1045
tp1046
Rp1047
sS'commandinus_1715_v1_1_0299'
p1048
g2
(g6
S'a\x81&\xb9\xaf\xcd\x87>'
p1049
tp1050
Rp1051
sS'commandinus_1715_v1_1_0321'
p1052
g2
(g6
S'\xe2\xa7\xdfh}\xe5\x97>'
p1053
tp1054
Rp1055
sS'commandinus_1715_v1_1_0222'
p1056
g2
(g6
S'\xe2\xa7\xdfh}\xe5\x87>'
p1057
tp1058
Rp1059
sS'commandinus_1715_v1_1_0298'
p1060
g2
(g6
S'\xe2\xa7\xdfh}\xe5\x97>'
p1061
tp1062
Rp1063
sS'commandinus_1715_v1_1_0289'
p1064
g2
(g6
S'\xe2\xa7\xdfh}\xe5\x87>'
p1065
tp1066
Rp1067
sS'commandinus_1715_v1_1_0183'
p1068
g2
(g6
S'WO\xbd\xc0i|\x87>'
p1069
tp1070
Rp1071
sS'commandinus_1715_v1_1_0182'
p1072
g2
(g6
S'WO\xbd\xc0i|\x87>'
p1073
tp1074
Rp1075
sS'commandinus_1715_v1_1_0181'
p1076
g2
(g6
S'WO\xbd\xc0i|\x97>'
p1077
tp1078
Rp1079
sS'commandinus_1715_v1_1_0180'
p1080
g2
(g6
S'WO\xbd\xc0i|\x87>'
p1081
tp1082
Rp1083
sS'commandinus_1715_v1_1_0187'
p1084
g2
(g6
S'\xa2\x84\x96\x80\xc6V\x87>'
p1085
tp1086
Rp1087
sS'commandinus_1715_v1_1_0186'
p1088
g2
(g6
S'\x81\xfb\x8dPO\x9d\x91>'
p1089
tp1090
Rp1091
sS'commandinus_1715_v1_1_0185'
p1092
g2
(g6
S'WO\xbd\xc0i|\x87>'
p1093
tp1094
Rp1095
sS'commandinus_1715_v1_1_0184'
p1096
g2
(g6
S'WO\xbd\xc0i|w>'
p1097
tp1098
Rp1099
sS'commandinus_1715_v1_1_0189'
p1100
g2
(g6
S'WO\xbd\xc0i|\x87>'
p1101
tp1102
Rp1103
sS'commandinus_1715_v1_1_0188'
p1104
g2
(g6
S'WO\xbd\xc0i|\x97>'
p1105
tp1106
Rp1107
sS'commandinus_1715_v1_1_0271'
p1108
g2
(g6
S'\xe2\xa7\xdfh}\xe5w>'
p1109
tp1110
Rp1111
sS'commandinus_1715_v1_1_0270'
p1112
g2
(g6
S'\xe2\xa7\xdfh}\xe5\x97>'
p1113
tp1114
Rp1115
sS'commandinus_1715_v1_1_0273'
p1116
g2
(g6
S'\xe2\xa7\xdfh}\xe5\x97>'
p1117
tp1118
Rp1119
sS'commandinus_1715_v1_1_0272'
p1120
g2
(g6
S'\xe2\xa7\xdfh}\xe5\x87>'
p1121
tp1122
Rp1123
sS'commandinus_1715_v1_1_0275'
p1124
g2
(g6
S'\xe2\xa7\xdfh}\xe5\x87>'
p1125
tp1126
Rp1127
sS'commandinus_1715_v1_1_0274'
p1128
g2
(g6
S'\xe9\xbd\xa7\x0e\x1e\xec\x91>'
p1129
tp1130
Rp1131
sS'commandinus_1715_v1_1_0277'
p1132
g2
(g6
S'a\x81&\xb9\xaf\xcd\x97>'
p1133
tp1134
Rp1135
sS'commandinus_1715_v1_1_0276'
p1136
g2
(g6
S'\xe2\xa7\xdfh}\xe5\x97>'
p1137
tp1138
Rp1139
sS'commandinus_1715_v1_1_0279'
p1140
g2
(g6
S'\x08\xe1\xdc\xcaC\xda\x91>'
p1141
tp1142
Rp1143
sS'commandinus_1715_v1_1_0278'
p1144
g2
(g6
S'\xe9\xbd\xa7\x0e\x1e\xec\xa1>'
p1145
tp1146
Rp1147
sS'commandinus_1715_v1_1_0317'
p1148
g2
(g6
S'\xe2\xa7\xdfh}\xe5\x87>'
p1149
tp1150
Rp1151
sS'commandinus_1715_v1_1_0292'
p1152
g2
(g6
S'\xe2\xa7\xdfh}\xe5\x87>'
p1153
tp1154
Rp1155
sS'commandinus_1715_v1_1_0077'
p1156
g2
(g6
S'\xe7\x16d\xf3Lq\x97>'
p1157
tp1158
Rp1159
sS'commandinus_1715_v1_1_0076'
p1160
g2
(g6
S'\xe7\x16d\xf3Lq\x87>'
p1161
tp1162
Rp1163
sS'commandinus_1715_v1_1_0075'
p1164
g2
(g6
S'\xe7\x16d\xf3Lq\x87>'
p1165
tp1166
Rp1167
sS'commandinus_1715_v1_1_0074'
p1168
g2
(g6
S'\xe7\x16d\xf3Lq\x87>'
p1169
tp1170
Rp1171
sS'commandinus_1715_v1_1_0073'
p1172
g2
(g6
S'\xe7\x16d\xf3Lq\x87>'
p1173
tp1174
Rp1175
sS'commandinus_1715_v1_1_0072'
p1176
g2
(g6
S'\xe7\x16d\xf3Lqw>'
p1177
tp1178
Rp1179
sS'commandinus_1715_v1_1_0071'
p1180
g2
(g6
S'\xe7\x16d\xf3Lqw>'
p1181
tp1182
Rp1183
sS'commandinus_1715_v1_1_0070'
p1184
g2
(g6
S'\xe7\x16d\xf3Lq\x87>'
p1185
tp1186
Rp1187
sS'commandinus_1715_v1_1_0176'
p1188
g2
(g6
S'WO\xbd\xc0i|w>'
p1189
tp1190
Rp1191
sS'commandinus_1715_v1_1_0177'
p1192
g2
(g6
S'WO\xbd\xc0i|\x97>'
p1193
tp1194
Rp1195
sS'commandinus_1715_v1_1_0174'
p1196
g2
(g6
S'WO\xbd\xc0i|\x97>'
p1197
tp1198
Rp1199
sS'commandinus_1715_v1_1_0175'
p1200
g2
(g6
S'\xa2\x84\x96\x80\xc6V\x97>'
p1201
tp1202
Rp1203
sS'commandinus_1715_v1_1_0172'
p1204
g2
(g6
S'WO\xbd\xc0i|w>'
p1205
tp1206
Rp1207
sS'commandinus_1715_v1_1_0173'
p1208
g2
(g6
S'WO\xbd\xc0i|\x87>'
p1209
tp1210
Rp1211
sS'commandinus_1715_v1_1_0079'
p1212
g2
(g6
S'\x16\x9e\xd1\xf7\xc7\xb1\xb3>'
p1213
tp1214
Rp1215
sS'commandinus_1715_v1_1_0078'
p1216
g2
(g6
S'\xe7\x16d\xf3Lq\x87>'
p1217
tp1218
Rp1219
sS'commandinus_1715_v1_1_0310'
p1220
g2
(g6
S'\xe2\xa7\xdfh}\xe5\x97>'
p1221
tp1222
Rp1223
sS'commandinus_1715_v1_1_0259'
p1224
g2
(g6
S'\xe2\xa7\xdfh}\xe5\x87>'
p1225
tp1226
Rp1227
sS'commandinus_1715_v1_1_0258'
p1228
g2
(g6
S'\xe2\xa7\xdfh}\xe5w>'
p1229
tp1230
Rp1231
sS'commandinus_1715_v1_1_0213'
p1232
g2
(g6
S'WO\xbd\xc0i|\x97>'
p1233
tp1234
Rp1235
sS'commandinus_1715_v1_1_0269'
p1236
g2
(g6
S'\xe2\xa7\xdfh}\xe5\x87>'
p1237
tp1238
Rp1239
sS'commandinus_1715_v1_1_0212'
p1240
g2
(g6
S'WO\xbd\xc0i|\x97>'
p1241
tp1242
Rp1243
s.