(dp0
S'commandinus_1715_v1_1_0244'
p1
cnumpy.core.multiarray
scalar
p2
(cnumpy
dtype
p3
(S'f8'
p4
I0
I1
tp5
Rp6
(I3
S'<'
p7
NNNI-1
I-1
I0
tp8
bS',$=*\xf3~P?'
p9
tp10
Rp11
sS'commandinus_1715_v1_1_0245'
p12
g2
(g6
S'\xa5}\xec\xe9\x9c\x96I?'
p13
tp14
Rp15
sS'commandinus_1715_v1_1_0178'
p16
g2
(g6
S'\xc7b-\x03I\x8c@?'
p17
tp18
Rp19
sS'commandinus_1715_v1_1_0247'
p20
g2
(g6
S'\xacx\x07\xb6\xab\x00X?'
p21
tp22
Rp23
sS'commandinus_1715_v1_1_0240'
p24
g2
(g6
S'\x94\xbba\xda\xfd%J?'
p25
tp26
Rp27
sS'commandinus_1715_v1_1_0241'
p28
g2
(g6
S'\xccp_\x91\xb8\xc2C?'
p29
tp30
Rp31
sS'commandinus_1715_v1_1_0242'
p32
g2
(g6
S'\xae\xecU\xab\xad\xf3G?'
p33
tp34
Rp35
sS'commandinus_1715_v1_1_0243'
p36
g2
(g6
S'd\x85n\xc0YQE?'
p37
tp38
Rp39
sS'commandinus_1715_v1_1_0312'
p40
g2
(g6
S'\x07\xaa\xb9\x8e\x86\x91J?'
p41
tp42
Rp43
sS'commandinus_1715_v1_1_0313'
p44
g2
(g6
S'\x01\xa6\xf5G\xf0\xa6A?'
p45
tp46
Rp47
sS'commandinus_1715_v1_1_0306'
p48
g2
(g6
S'\x1e\x1b\xc7\xee\x94\rA?'
p49
tp50
Rp51
sS'commandinus_1715_v1_1_0311'
p52
g2
(g6
S'\xeb\xdb\xf8\\\x18\x0eJ?'
p53
tp54
Rp55
sS'commandinus_1715_v1_1_0248'
p56
g2
(g6
S'\x851g\xb1cH\xf5>'
p57
tp58
Rp59
sS'commandinus_1715_v1_1_0123'
p60
g2
(g6
S'\xe1\x00\x96\xcf\x03\x1dB?'
p61
tp62
Rp63
sS'commandinus_1715_v1_1_0314'
p64
g2
(g6
S'\xff\xd5\x13S\xbc\x11D?'
p65
tp66
Rp67
sS'commandinus_1715_v1_1_0315'
p68
g2
(g6
S'\xd4<~:8\x06H?'
p69
tp70
Rp71
sS'commandinus_1715_v1_1_0233'
p72
g2
(g6
S'\xfa\xdd\x9c\xfb\x15-B?'
p73
tp74
Rp75
sS'commandinus_1715_v1_1_0253'
p76
g2
(g6
S'\xee\xaeL\xc9c~L?'
p77
tp78
Rp79
sS'commandinus_1715_v1_1_0246'
p80
g2
(g6
S'\x8f\xdd)\x1bb\xb2\xea>'
p81
tp82
Rp83
sS'commandinus_1715_v1_1_0319'
p84
g2
(g6
S'\x00q\xd7\xd8\x02\xefK?'
p85
tp86
Rp87
sS'commandinus_1715_v1_1_0169'
p88
g2
(g6
S'\xf20\x8e+ \x91C?'
p89
tp90
Rp91
sS'commandinus_1715_v1_1_0168'
p92
g2
(g6
S'%7,*\x18\x9bF?'
p93
tp94
Rp95
sS'commandinus_1715_v1_1_0252'
p96
g2
(g6
S'j\xae\xa3a\xa4vJ?'
p97
tp98
Rp99
sS'commandinus_1715_v1_1_0165'
p100
g2
(g6
S'\x02\xb5d\xfc\x97-E?'
p101
tp102
Rp103
sS'commandinus_1715_v1_1_0164'
p104
g2
(g6
S'\x8eQ\x9cbwh!?'
p105
tp106
Rp107
sS'commandinus_1715_v1_1_0167'
p108
g2
(g6
S'\xd8U\x18\x19\x1d\xe6B?'
p109
tp110
Rp111
sS'commandinus_1715_v1_1_0166'
p112
g2
(g6
S'\xa4\xd4\x9a&6 >?'
p113
tp114
Rp115
sS'commandinus_1715_v1_1_0161'
p116
g2
(g6
S'\x8fXv\x0eBk@?'
p117
tp118
Rp119
sS'commandinus_1715_v1_1_0160'
p120
g2
(g6
S'\xf5\xec\x93\x94\xb2\x16D?'
p121
tp122
Rp123
sS'commandinus_1715_v1_1_0163'
p124
g2
(g6
S'N\xec\xd2\xb3%#>?'
p125
tp126
Rp127
sS'commandinus_1715_v1_1_0162'
p128
g2
(g6
S'R\xa4,e(\xe8F?'
p129
tp130
Rp131
sS'commandinus_1715_v1_1_0232'
p132
g2
(g6
S'\xf0\xa4\xbaE\x92\x8aC?'
p133
tp134
Rp135
sS'commandinus_1715_v1_1_0280'
p136
g2
(g6
S'\x8e\xeb\xcdT#WI?'
p137
tp138
Rp139
sS'commandinus_1715_v1_1_0088'
p140
g2
(g6
S'\xdb\xb71\xc0~ A?'
p141
tp142
Rp143
sS'commandinus_1715_v1_1_0089'
p144
g2
(g6
S'\x17l#\x9d\x96\x96E?'
p145
tp146
Rp147
sS'commandinus_1715_v1_1_0219'
p148
g2
(g6
S'\xf6e"\x95\x1d(J?'
p149
tp150
Rp151
sS'commandinus_1715_v1_1_0281'
p152
g2
(g6
S't\xa5c\xadQ\x92E?'
p153
tp154
Rp155
sS'commandinus_1715_v1_1_0082'
p156
g2
(g6
S'\x17\x17\xd0\xd5\xe2{F?'
p157
tp158
Rp159
sS'commandinus_1715_v1_1_0083'
p160
g2
(g6
S'\x01.\xe2\xf1\xdf\x86F?'
p161
tp162
Rp163
sS'commandinus_1715_v1_1_0080'
p164
g2
(g6
S'-\x02\xca\r\xaf\xd0;?'
p165
tp166
Rp167
sS'commandinus_1715_v1_1_0081'
p168
g2
(g6
S'\x1b\xcaZ\x87\x04zE?'
p169
tp170
Rp171
sS'commandinus_1715_v1_1_0086'
p172
g2
(g6
S'\xde\x9co\x95GAF?'
p173
tp174
Rp175
sS'commandinus_1715_v1_1_0087'
p176
g2
(g6
S'\xc3\x99\xd0\x91v_J?'
p177
tp178
Rp179
sS'commandinus_1715_v1_1_0084'
p180
g2
(g6
S'Vig\xbfu\x0cD?'
p181
tp182
Rp183
sS'commandinus_1715_v1_1_0085'
p184
g2
(g6
S'\xe8\xe5\xb6y\x8a\xfeC?'
p185
tp186
Rp187
sS'commandinus_1715_v1_1_0309'
p188
g2
(g6
S'\x94\x19\xcc\xb7V\xf6J?'
p189
tp190
Rp191
sS'commandinus_1715_v1_1_0308'
p192
g2
(g6
S'{\xce\x98N\x9c\xb7J?'
p193
tp194
Rp195
sS'commandinus_1715_v1_1_0283'
p196
g2
(g6
S'm\x96m\xa4\x11\xdeB?'
p197
tp198
Rp199
sS'commandinus_1715_v1_1_0015'
p200
g2
(g6
S'"1v\x94,&&?'
p201
tp202
Rp203
sS'commandinus_1715_v1_1_0017'
p204
g2
(g6
S'j\xd7O:\n\xdf\x03?'
p205
tp206
Rp207
sS'commandinus_1715_v1_1_0016'
p208
g2
(g6
S'\xe3b\xd3\x97F\xc3E?'
p209
tp210
Rp211
sS'commandinus_1715_v1_1_0019'
p212
g2
(g6
S'\x16\x07\t\x83\xb3\x07>?'
p213
tp214
Rp215
sS'commandinus_1715_v1_1_0018'
p216
g2
(g6
S'\x93B\x05\x94c\xdaF?'
p217
tp218
Rp219
sS'commandinus_1715_v1_1_0303'
p220
g2
(g6
S'\x90Y\xe5F\xb5\xa4C?'
p221
tp222
Rp223
sS'commandinus_1715_v1_1_0302'
p224
g2
(g6
S'\x89<K\x04\xb4KB?'
p225
tp226
Rp227
sS'commandinus_1715_v1_1_0305'
p228
g2
(g6
S'm\xcc\xf4\xaf\x9e\x98B?'
p229
tp230
Rp231
sS'commandinus_1715_v1_1_0304'
p232
g2
(g6
S'\xfa\xf7\xdb\x93 \x9eD?'
p233
tp234
Rp235
sS'commandinus_1715_v1_1_0307'
p236
g2
(g6
S'\xf8\xa5\x0c\x15\x11\x9aG?'
p237
tp238
Rp239
sS'commandinus_1715_v1_1_0249'
p240
g2
(g6
S'\x9f\x04\xf1\xa4\xbaEB?'
p241
tp242
Rp243
sS'commandinus_1715_v1_1_0150'
p244
g2
(g6
S"x\xe5'\xf0u\x1d@?"
p245
tp246
Rp247
sS'commandinus_1715_v1_1_0151'
p248
g2
(g6
S'8\xebF\xeb\x16!??'
p249
tp250
Rp251
sS'commandinus_1715_v1_1_0152'
p252
g2
(g6
S'\xd6q\x93m\xa2N@?'
p253
tp254
Rp255
sS'commandinus_1715_v1_1_0153'
p256
g2
(g6
S'\xd2\xba7c\xce\xbb>?'
p257
tp258
Rp259
sS'commandinus_1715_v1_1_0154'
p260
g2
(g6
S'\xe4\x82\xf5%Yu>?'
p261
tp262
Rp263
sS'commandinus_1715_v1_1_0155'
p264
g2
(g6
S'5i\xe7\x94\xc1\xc8B?'
p265
tp266
Rp267
sS'commandinus_1715_v1_1_0156'
p268
g2
(g6
S'\xa5\x8b\t\xd6d\x10A?'
p269
tp270
Rp271
sS'commandinus_1715_v1_1_0157'
p272
g2
(g6
S'\xee\xf3\x93\x8a2\xd4E?'
p273
tp274
Rp275
sS'commandinus_1715_v1_1_0158'
p276
g2
(g6
S'\xc7\xb9r\xab\xaf\xa1;?'
p277
tp278
Rp279
sS'commandinus_1715_v1_1_0159'
p280
g2
(g6
S'\x80\xf4\xb3\xa4\x84\x9aB?'
p281
tp282
Rp283
sS'commandinus_1715_v1_1_0251'
p284
g2
(g6
S'\xcb\xe6\x0be\xd7=O?'
p285
tp286
Rp287
sS'commandinus_1715_v1_1_0250'
p288
g2
(g6
S'K\xc0\x88\x06\xc4\xf8F?'
p289
tp290
Rp291
sS'commandinus_1715_v1_1_0257'
p292
g2
(g6
S'\x8ak7\x0e\x08\xd2K?'
p293
tp294
Rp295
sS'commandinus_1715_v1_1_0256'
p296
g2
(g6
S'\xb6\xc0\xfb\xe6wsN?'
p297
tp298
Rp299
sS'commandinus_1715_v1_1_0255'
p300
g2
(g6
S'g\xc4\xd0C\xbf6G?'
p301
tp302
Rp303
sS'commandinus_1715_v1_1_0254'
p304
g2
(g6
S'e\xc9\x99\x05\xa8\xb0C?'
p305
tp306
Rp307
sS'commandinus_1715_v1_1_0099'
p308
g2
(g6
S'\xac\x88$\xb8\xef\x02D?'
p309
tp310
Rp311
sS'commandinus_1715_v1_1_0098'
p312
g2
(g6
S'\x7f)p\xe0\x82"F?'
p313
tp314
Rp315
sS'commandinus_1715_v1_1_0091'
p316
g2
(g6
S'\xce7k=m7G?'
p317
tp318
Rp319
sS'commandinus_1715_v1_1_0090'
p320
g2
(g6
S'\xedi\xa0\x05\xb3\xe9D?'
p321
tp322
Rp323
sS'commandinus_1715_v1_1_0093'
p324
g2
(g6
S'\xb16I\x13\x89\x8e=?'
p325
tp326
Rp327
sS'commandinus_1715_v1_1_0092'
p328
g2
(g6
S'\x88>J$\xa5\xc3??'
p329
tp330
Rp331
sS'commandinus_1715_v1_1_0095'
p332
g2
(g6
S'\xf8\x08A[\x8eqD?'
p333
tp334
Rp335
sS'commandinus_1715_v1_1_0094'
p336
g2
(g6
S'\x04ea\x90\xae\xb2B?'
p337
tp338
Rp339
sS'commandinus_1715_v1_1_0097'
p340
g2
(g6
S'-\x15\xa3^\x8cT<?'
p341
tp342
Rp343
sS'commandinus_1715_v1_1_0096'
p344
g2
(g6
S'j\xee@3z"??'
p345
tp346
Rp347
sS'commandinus_1715_v1_1_0024'
p348
g2
(g6
S'\xdc\xcb\x10\xbb@TD?'
p349
tp350
Rp351
sS'commandinus_1715_v1_1_0025'
p352
g2
(g6
S'\xb2\x0c\x0eD\x18\xeeD?'
p353
tp354
Rp355
sS'commandinus_1715_v1_1_0026'
p356
g2
(g6
S'\x19\xfb\x07\x01\xc7\xecH?'
p357
tp358
Rp359
sS'commandinus_1715_v1_1_0027'
p360
g2
(g6
S'\xbc\x02\x0e\xb5p\xf0H?'
p361
tp362
Rp363
sS'commandinus_1715_v1_1_0020'
p364
g2
(g6
S'\xdf\x17u\xfe\xb5cF?'
p365
tp366
Rp367
sS'commandinus_1715_v1_1_0021'
p368
g2
(g6
S'b\x83\r~\xbf\xb6C?'
p369
tp370
Rp371
sS'commandinus_1715_v1_1_0022'
p372
g2
(g6
S'\xa5\xe0\x94\xde\xd5oG?'
p373
tp374
Rp375
sS'commandinus_1715_v1_1_0023'
p376
g2
(g6
S'Z.\xc5\x17\x90\xde@?'
p377
tp378
Rp379
sS'commandinus_1715_v1_1_0293'
p380
g2
(g6
S'\xd0\t\xbe\xe0\xed{M?'
p381
tp382
Rp383
sS'commandinus_1715_v1_1_0207'
p384
g2
(g6
S'\x08\xa7\xf23\x19\xc7A?'
p385
tp386
Rp387
sS'commandinus_1715_v1_1_0028'
p388
g2
(g6
S'\x9a\xc1\xa7P\xe7\xadH?'
p389
tp390
Rp391
sS'commandinus_1715_v1_1_0029'
p392
g2
(g6
S'4\xbb&\xe4\xdc\x87C?'
p393
tp394
Rp395
sS'commandinus_1715_v1_1_0147'
p396
g2
(g6
S'\rvn]\r\x9fH?'
p397
tp398
Rp399
sS'commandinus_1715_v1_1_0146'
p400
g2
(g6
S'{X\xd5G\x07>G?'
p401
tp402
Rp403
sS'commandinus_1715_v1_1_0145'
p404
g2
(g6
S'\xa6\x92\xe3\x81/\x13@?'
p405
tp406
Rp407
sS'commandinus_1715_v1_1_0144'
p408
g2
(g6
S'v\t{\x97\xf4\xbaC?'
p409
tp410
Rp411
sS'commandinus_1715_v1_1_0143'
p412
g2
(g6
S'\x89m*\\W.@?'
p413
tp414
Rp415
sS'commandinus_1715_v1_1_0142'
p416
g2
(g6
S'\x8a\x83\xb6\x06\xe6hD?'
p417
tp418
Rp419
sS'commandinus_1715_v1_1_0141'
p420
g2
(g6
S'\xb7?$\x97c\x96I?'
p421
tp422
Rp423
sS'commandinus_1715_v1_1_0140'
p424
g2
(g6
S'\xe3\xa5J&\xa9\xe0J?'
p425
tp426
Rp427
sS'commandinus_1715_v1_1_0226'
p428
g2
(g6
S'\x8b\x1dC\xaa\xc0`C?'
p429
tp430
Rp431
sS'commandinus_1715_v1_1_0227'
p432
g2
(g6
S'+t\x03\xce\x8a\xaaB?'
p433
tp434
Rp435
sS'commandinus_1715_v1_1_0224'
p436
g2
(g6
S'B\xbd-\\\xcd\x10H?'
p437
tp438
Rp439
sS'commandinus_1715_v1_1_0225'
p440
g2
(g6
S'\x8af7\xb1\xf79N?'
p441
tp442
Rp443
sS'commandinus_1715_v1_1_0221'
p444
g2
(g6
S'\xf8\xb7Nw\xe4\xecD?'
p445
tp446
Rp447
sS'commandinus_1715_v1_1_0223'
p448
g2
(g6
S'\x18\xf9c\xea\xaa:C?'
p449
tp450
Rp451
sS'commandinus_1715_v1_1_0149'
p452
g2
(g6
S'\xe6$\xc3,\xcd\xffB?'
p453
tp454
Rp455
sS'commandinus_1715_v1_1_0148'
p456
g2
(g6
S'\x80\xb6\xe1\xf6\xdd\xf8??'
p457
tp458
Rp459
sS'commandinus_1715_v1_1_0297'
p460
g2
(g6
S'y\xb2P\xdb\x19nM?'
p461
tp462
Rp463
sS'commandinus_1715_v1_1_0206'
p464
g2
(g6
S"\xaf\x85\xf4\xe1\xb8'E?"
p465
tp466
Rp467
sS'commandinus_1715_v1_1_0132'
p468
g2
(g6
S'\xf6\xc9>\x94b\xabG?'
p469
tp470
Rp471
sS'commandinus_1715_v1_1_0133'
p472
g2
(g6
S'\xd5Hbh\xb6\x12L?'
p473
tp474
Rp475
sS'commandinus_1715_v1_1_0130'
p476
g2
(g6
S'\xddW\xee\x1c\xc5\x8f>?'
p477
tp478
Rp479
sS'commandinus_1715_v1_1_0131'
p480
g2
(g6
S'\xe3\x80\x0c}VnA?'
p481
tp482
Rp483
sS'commandinus_1715_v1_1_0136'
p484
g2
(g6
S'Y\x17\xc7\x17_\xab\x0c?'
p485
tp486
Rp487
sS'commandinus_1715_v1_1_0137'
p488
g2
(g6
S'x\xa3\xc3\xbe\xb2;F?'
p489
tp490
Rp491
sS'commandinus_1715_v1_1_0134'
p492
g2
(g6
S'\xa8/\xc0\x85\xdb\xa1B?'
p493
tp494
Rp495
sS'commandinus_1715_v1_1_0135'
p496
g2
(g6
S'/\xc6.\x8cyiH?'
p497
tp498
Rp499
sS'commandinus_1715_v1_1_0237'
p500
g2
(g6
S'\xb3\x1d\x9d\xdd\xb2\x00I?'
p501
tp502
Rp503
sS'commandinus_1715_v1_1_0138'
p504
g2
(g6
S'G8\x7f\x03\x17\x85A?'
p505
tp506
Rp507
sS'commandinus_1715_v1_1_0139'
p508
g2
(g6
S'_\xc83x<\x10E?'
p509
tp510
Rp511
sS'commandinus_1715_v1_1_0039'
p512
g2
(g6
S'\x1b\x88\xe0\x10.\xe3F?'
p513
tp514
Rp515
sS'commandinus_1715_v1_1_0038'
p516
g2
(g6
S'\x18=\x82w\x9d\x83G?'
p517
tp518
Rp519
sS'commandinus_1715_v1_1_0239'
p520
g2
(g6
S'\x86\xe1\xa0\r\xcc\x1cC?'
p521
tp522
Rp523
sS'commandinus_1715_v1_1_0238'
p524
g2
(g6
S'\x89<K\x04\xb4KB?'
p525
tp526
Rp527
sS'commandinus_1715_v1_1_0033'
p528
g2
(g6
S'2\x85\xad\xef\xf2\x0bJ?'
p529
tp530
Rp531
sS'commandinus_1715_v1_1_0032'
p532
g2
(g6
S'3S\xfa\xcbK\xe9C?'
p533
tp534
Rp535
sS'commandinus_1715_v1_1_0031'
p536
g2
(g6
S'\x95{\x90\x86\xfbeH?'
p537
tp538
Rp539
sS'commandinus_1715_v1_1_0030'
p540
g2
(g6
S'\x82\x1eu\x08{\xb7C?'
p541
tp542
Rp543
sS'commandinus_1715_v1_1_0037'
p544
g2
(g6
S'q,\x98\xa09\xb7F?'
p545
tp546
Rp547
sS'commandinus_1715_v1_1_0036'
p548
g2
(g6
S'\xec\xef\xa0F)wG?'
p549
tp550
Rp551
sS'commandinus_1715_v1_1_0035'
p552
g2
(g6
S'\x9b\xec\xa0\xc1F\xcdH?'
p553
tp554
Rp555
sS'commandinus_1715_v1_1_0034'
p556
g2
(g6
S'\xb7\x14\xec\xbc\xed\x06C?'
p557
tp558
Rp559
sS'commandinus_1715_v1_1_0322'
p560
g2
(g6
S'p\xeaE\xfe\x98\xbaJ?'
p561
tp562
Rp563
sS'commandinus_1715_v1_1_0208'
p564
g2
(g6
S'\x14L\x19g=vJ?'
p565
tp566
Rp567
sS'commandinus_1715_v1_1_0318'
p568
g2
(g6
S'\x00\xeb\x89)\xde\x08J?'
p569
tp570
Rp571
sS'commandinus_1715_v1_1_0284'
p572
g2
(g6
S'p\xf6\xe0\\\xe2\x86N?'
p573
tp574
Rp575
sS'commandinus_1715_v1_1_0121'
p576
g2
(g6
S'Uz\xea\x13\xb3\x1cJ?'
p577
tp578
Rp579
sS'commandinus_1715_v1_1_0120'
p580
g2
(g6
S'\xfb\xde\xb9\xf2gVC?'
p581
tp582
Rp583
sS'commandinus_1715_v1_1_0103'
p584
g2
(g6
S'q\x81\xebg\xed\xd1E?'
p585
tp586
Rp587
sS'commandinus_1715_v1_1_0122'
p588
g2
(g6
S'o:\xaa9\x8f\xe6@?'
p589
tp590
Rp591
sS'commandinus_1715_v1_1_0125'
p592
g2
(g6
S'\xa3\x0c\x91\xcf@\xf1H?'
p593
tp594
Rp595
sS'commandinus_1715_v1_1_0124'
p596
g2
(g6
S'\x0f/\xc6\xb5>\x96H?'
p597
tp598
Rp599
sS'commandinus_1715_v1_1_0127'
p600
g2
(g6
S'V\xe4\xd4\x16w3E?'
p601
tp602
Rp603
sS'commandinus_1715_v1_1_0126'
p604
g2
(g6
S'\x81\xfb\x8dPO\x9dA?'
p605
tp606
Rp607
sS'commandinus_1715_v1_1_0129'
p608
g2
(g6
S'8?\xa5CL\xfdE?'
p609
tp610
Rp611
sS'commandinus_1715_v1_1_0128'
p612
g2
(g6
S'&>\x06\xd6\xe2\x9dE?'
p613
tp614
Rp615
sS'commandinus_1715_v1_1_0282'
p616
g2
(g6
S'\xd4\xac\rg\xe0\x18G?'
p617
tp618
Rp619
sS'commandinus_1715_v1_1_0179'
p620
g2
(g6
S'[V\x84\xc7\xd9!E?'
p621
tp622
Rp623
sS'commandinus_1715_v1_1_0209'
p624
g2
(g6
S'6\x1beA(\xbdC?'
p625
tp626
Rp627
sS'commandinus_1715_v1_1_0285'
p628
g2
(g6
S'U\xcc\xbe(\x93\x0bP?'
p629
tp630
Rp631
sS'commandinus_1715_v1_1_0286'
p632
g2
(g6
S'`\xb0\x11y\x96\x08H?'
p633
tp634
Rp635
sS'commandinus_1715_v1_1_0287'
p636
g2
(g6
S'+\x0f\xc7S\xd1\x87J?'
p637
tp638
Rp639
sS'commandinus_1715_v1_1_0200'
p640
g2
(g6
S'\x0c\xd2\xa4\x08<\xb0E?'
p641
tp642
Rp643
sS'commandinus_1715_v1_1_0201'
p644
g2
(g6
S'#\x96\xd0d\x0f\xedJ?'
p645
tp646
Rp647
sS'commandinus_1715_v1_1_0202'
p648
g2
(g6
S'G8\x7f\x03\x17\x85A?'
p649
tp650
Rp651
sS'commandinus_1715_v1_1_0203'
p652
g2
(g6
S've\xb1B#\xcc@?'
p653
tp654
Rp655
sS'commandinus_1715_v1_1_0204'
p656
g2
(g6
S'\xb0pS9\xfe\xc1F?'
p657
tp658
Rp659
sS'commandinus_1715_v1_1_0205'
p660
g2
(g6
S'6\xc7Q\x00S\x1eL?'
p661
tp662
Rp663
sS'commandinus_1715_v1_1_0048'
p664
g2
(g6
S'4\xbb&\xe4\xdc\x87C?'
p665
tp666
Rp667
sS'commandinus_1715_v1_1_0049'
p668
g2
(g6
S'b\x83\r~\xbf\xb6C?'
p669
tp670
Rp671
sS'commandinus_1715_v1_1_0046'
p672
g2
(g6
S'\x18+\xaf\xd0\xa4\xafI?'
p673
tp674
Rp675
sS'commandinus_1715_v1_1_0047'
p676
g2
(g6
S'\xccf\x0ccfJE?'
p677
tp678
Rp679
sS'commandinus_1715_v1_1_0044'
p680
g2
(g6
S'q,\x98\xa09\xb7F?'
p681
tp682
Rp683
sS'commandinus_1715_v1_1_0045'
p684
g2
(g6
S'\xa2\xeb\x8f\xb6\xdd\xdaI?'
p685
tp686
Rp687
sS'commandinus_1715_v1_1_0042'
p688
g2
(g6
S'\xc6%\xa3\xf7\xf8\xa5E?'
p689
tp690
Rp691
sS'commandinus_1715_v1_1_0043'
p692
g2
(g6
S'&|\xd4-\xbd\x85E?'
p693
tp694
Rp695
sS'commandinus_1715_v1_1_0040'
p696
g2
(g6
S'\xab\x0e%\xf9e\x90F?'
p697
tp698
Rp699
sS'commandinus_1715_v1_1_0041'
p700
g2
(g6
S'\xbd\x01\x08\x0b\x8c@F?'
p701
tp702
Rp703
sS'commandinus_1715_v1_1_0102'
p704
g2
(g6
S'<x\x9bb\x9d\xfeE?'
p705
tp706
Rp707
sS'commandinus_1715_v1_1_0236'
p708
g2
(g6
S'\xe3\x9bD\n4\x19D?'
p709
tp710
Rp711
sS'commandinus_1715_v1_1_0234'
p712
g2
(g6
S'\xe2j\x86\xc0\x8f\xd8@?'
p713
tp714
Rp715
sS'commandinus_1715_v1_1_0316'
p716
g2
(g6
S'\xba\xaa\xce\x04]\xb3A?'
p717
tp718
Rp719
sS'commandinus_1715_v1_1_0231'
p720
g2
(g6
S'\xf4\x87\xbb\xc6\x16x??'
p721
tp722
Rp723
sS'commandinus_1715_v1_1_0235'
p724
g2
(g6
S'p3\xe5\xf9z\x8dA?'
p725
tp726
Rp727
sS'commandinus_1715_v1_1_0230'
p728
g2
(g6
S'\x86?\x0b\xeb$\xedC?'
p729
tp730
Rp731
sS'commandinus_1715_v1_1_0170'
p732
g2
(g6
S'\x96a&\xbe\xb4\x17;?'
p733
tp734
Rp735
sS'commandinus_1715_v1_1_0320'
p736
g2
(g6
S'\xd3+\x89y\xa4\xacA?'
p737
tp738
Rp739
sS'commandinus_1715_v1_1_0301'
p740
g2
(g6
S'\xeemf|\x18ZC?'
p741
tp742
Rp743
sS'commandinus_1715_v1_1_0171'
p744
g2
(g6
S'\n\x84\xdb\x17(\x1d(?'
p745
tp746
Rp747
sS'commandinus_1715_v1_1_0114'
p748
g2
(g6
S'\xa1\xf0( \x16\xe6L?'
p749
tp750
Rp751
sS'commandinus_1715_v1_1_0115'
p752
g2
(g6
S'W$\x90m \xdcD?'
p753
tp754
Rp755
sS'commandinus_1715_v1_1_0116'
p756
g2
(g6
S'\xae\xa9G\x897\xc5H?'
p757
tp758
Rp759
sS'commandinus_1715_v1_1_0117'
p760
g2
(g6
S'z\x1f\xf4\x9c(\x98F?'
p761
tp762
Rp763
sS'commandinus_1715_v1_1_0110'
p764
g2
(g6
S'\x9dp\xb2r\xc3\x94=?'
p765
tp766
Rp767
sS'commandinus_1715_v1_1_0111'
p768
g2
(g6
S'\xbe\xb8\xad\xf3\x90\x87H?'
p769
tp770
Rp771
sS'commandinus_1715_v1_1_0112'
p772
g2
(g6
S'n%\x1c6/\xdeC?'
p773
tp774
Rp775
sS'commandinus_1715_v1_1_0113'
p776
g2
(g6
S'\x89\x9f1[k\xd1Q?'
p777
tp778
Rp779
sS'commandinus_1715_v1_1_0267'
p780
g2
(g6
S'\x95\xd7\xa9M\x80oG?'
p781
tp782
Rp783
sS'commandinus_1715_v1_1_0296'
p784
g2
(g6
S'D\xd4\xac\rg\xe0H?'
p785
tp786
Rp787
sS'commandinus_1715_v1_1_0295'
p788
g2
(g6
S'\xf0\xf9\xa9\xbe\xb7[??'
p789
tp790
Rp791
sS'commandinus_1715_v1_1_0294'
p792
g2
(g6
S'\xa3\x89\x87H\xe6b=?'
p793
tp794
Rp795
sS'commandinus_1715_v1_1_0118'
p796
g2
(g6
S'\x0f\xf5\xe6c1\xbe@?'
p797
tp798
Rp799
sS'commandinus_1715_v1_1_0119'
p800
g2
(g6
S'\x9b\xa0\xd0\xc8\xd40B?'
p801
tp802
Rp803
sS'commandinus_1715_v1_1_0291'
p804
g2
(g6
S'\x05\xe9\x15\xfdo\x8b>?'
p805
tp806
Rp807
sS'commandinus_1715_v1_1_0290'
p808
g2
(g6
S'\xe7\x85\x17(\x19YG?'
p809
tp810
Rp811
sS'commandinus_1715_v1_1_0217'
p812
g2
(g6
S'\x08+\x907VOD?'
p813
tp814
Rp815
sS'commandinus_1715_v1_1_0216'
p816
g2
(g6
S'G8\x7f\x03\x17\x85A?'
p817
tp818
Rp819
sS'commandinus_1715_v1_1_0215'
p820
g2
(g6
S'\x8b\xbc\x97\xb1\xc4\x0eE?'
p821
tp822
Rp823
sS'commandinus_1715_v1_1_0214'
p824
g2
(g6
S'\x13\xdaV\x11\x80*I?'
p825
tp826
Rp827
sS'commandinus_1715_v1_1_0059'
p828
g2
(g6
S"\xd3,6\xcf\xf9'E?"
p829
tp830
Rp831
sS'commandinus_1715_v1_1_0058'
p832
g2
(g6
S'\xf7\x8e8\x06\x81\x8aG?'
p833
tp834
Rp835
sS'commandinus_1715_v1_1_0211'
p836
g2
(g6
S'\x9cRNu;%C?'
p837
tp838
Rp839
sS'commandinus_1715_v1_1_0210'
p840
g2
(g6
S']A\xe3\x1e\x1f\xbcF?'
p841
tp842
Rp843
sS'commandinus_1715_v1_1_0055'
p844
g2
(g6
S'\xd5\xe3\x12\xbf\x19\x8a\x1e?'
p845
tp846
Rp847
sS'commandinus_1715_v1_1_0054'
p848
g2
(g6
S'\xe9\xfa\x9b\x1e1\xe2I?'
p849
tp850
Rp851
sS'commandinus_1715_v1_1_0057'
p852
g2
(g6
S'\x1e\xbf_\xaf\xfc\x0eC?'
p853
tp854
Rp855
sS'commandinus_1715_v1_1_0056'
p856
g2
(g6
S'\xdb\xb71\xc0~ A?'
p857
tp858
Rp859
sS'commandinus_1715_v1_1_0051'
p860
g2
(g6
S'-\x11\x8b\xb6\xf9\x94A?'
p861
tp862
Rp863
sS'commandinus_1715_v1_1_0050'
p864
g2
(g6
S'\x0b\xfc#m\xb4!D?'
p865
tp866
Rp867
sS'commandinus_1715_v1_1_0053'
p868
g2
(g6
S'\xffH\xa4\x1c\x17fA?'
p869
tp870
Rp871
sS'commandinus_1715_v1_1_0052'
p872
g2
(g6
S'\xa5\xf5y\x83|S=?'
p873
tp874
Rp875
sS'commandinus_1715_v1_1_0300'
p876
g2
(g6
S'|~\xd2\xaa\x04\x8cH?'
p877
tp878
Rp879
sS'commandinus_1715_v1_1_0323'
p880
g2
(g6
S'\x84\xd1\xf3\xf8\x92\x9f\t?'
p881
tp882
Rp883
sS'commandinus_1715_v1_1_0109'
p884
g2
(g6
S'\xb8\xd4;\xedpMG?'
p885
tp886
Rp887
sS'commandinus_1715_v1_1_0108'
p888
g2
(g6
S'\xf8\x81\x98Eep@?'
p889
tp890
Rp891
sS'commandinus_1715_v1_1_0198'
p892
g2
(g6
S'\xf8\xb3\x9fDy\x13B?'
p893
tp894
Rp895
sS'commandinus_1715_v1_1_0199'
p896
g2
(g6
S'\xd4#$\xbfc\xa0B?'
p897
tp898
Rp899
sS'commandinus_1715_v1_1_0220'
p900
g2
(g6
S"Ld'\x04\xe3\x00A?"
p901
tp902
Rp903
sS'commandinus_1715_v1_1_0194'
p904
g2
(g6
S'\xd0\xf1/e\xaaZB?'
p905
tp906
Rp907
sS'commandinus_1715_v1_1_0195'
p908
g2
(g6
S'\x07LRVM\x8e>?'
p909
tp910
Rp911
sS'commandinus_1715_v1_1_0196'
p912
g2
(g6
S'\xea:<2\x01\xddE?'
p913
tp914
Rp915
sS'commandinus_1715_v1_1_0197'
p916
g2
(g6
S'\x17\x13%\x17\x04sH?'
p917
tp918
Rp919
sS'commandinus_1715_v1_1_0190'
p920
g2
(g6
S'\xf2:\x16\xe8K"C?'
p921
tp922
Rp923
sS'commandinus_1715_v1_1_0191'
p924
g2
(g6
S"Bk\xbd'\r\xda??"
p925
tp926
Rp927
sS'commandinus_1715_v1_1_0192'
p928
g2
(g6
S'L\xeb\xe7\xb1QNH?'
p929
tp930
Rp931
sS'commandinus_1715_v1_1_0193'
p932
g2
(g6
S'O\xb2\xf3a\x18KF?'
p933
tp934
Rp935
sS'commandinus_1715_v1_1_0262'
p936
g2
(g6
S')Q\xe9\xbd\xa7\x0eN?'
p937
tp938
Rp939
sS'commandinus_1715_v1_1_0263'
p940
g2
(g6
S'\t\xe9\x1b\x12\xecvL?'
p941
tp942
Rp943
sS'commandinus_1715_v1_1_0260'
p944
g2
(g6
S' \xb1\xc1\xb2\xf2pL?'
p945
tp946
Rp947
sS'commandinus_1715_v1_1_0261'
p948
g2
(g6
S'`\xd8\xf4Jb\x1eI?'
p949
tp950
Rp951
sS'commandinus_1715_v1_1_0266'
p952
g2
(g6
S'OE\x1f\xaa\xef\x15"?'
p953
tp954
Rp955
sS'commandinus_1715_v1_1_0228'
p956
g2
(g6
S'\x9e\xe8\xa818\xfcD?'
p957
tp958
Rp959
sS'commandinus_1715_v1_1_0264'
p960
g2
(g6
S' \xb1\xc1\xb2\xf2pL?'
p961
tp962
Rp963
sS'commandinus_1715_v1_1_0265'
p964
g2
(g6
S'\x13f)\r\xbexI?'
p965
tp966
Rp967
sS'commandinus_1715_v1_1_0268'
p968
g2
(g6
S'\xd7\x05\xaf\x82PoK?'
p969
tp970
Rp971
sS'commandinus_1715_v1_1_0229'
p972
g2
(g6
S'\xa27\xb8\xc9\xd6^@?'
p973
tp974
Rp975
sS'commandinus_1715_v1_1_0288'
p976
g2
(g6
S'W\xad\xb6\xce\x9f I?'
p977
tp978
Rp979
sS'commandinus_1715_v1_1_0060'
p980
g2
(g6
S'\x97\x90u+\xa2I>?'
p981
tp982
Rp983
sS'commandinus_1715_v1_1_0061'
p984
g2
(g6
S'\xc0\xa0\xb3\xc1\xeb\nB?'
p985
tp986
Rp987
sS'commandinus_1715_v1_1_0062'
p988
g2
(g6
S'\xac\x88$\xb8\xef\x02D?'
p989
tp990
Rp991
sS'commandinus_1715_v1_1_0063'
p992
g2
(g6
S'\x1c\x99\xad\rB\x07B?'
p993
tp994
Rp995
sS'commandinus_1715_v1_1_0064'
p996
g2
(g6
S'\x9fW\xf2\xd7\x00cC?'
p997
tp998
Rp999
sS'commandinus_1715_v1_1_0065'
p1000
g2
(g6
S'\x15\xf1\x1d4(tE?'
p1001
tp1002
Rp1003
sS'commandinus_1715_v1_1_0066'
p1004
g2
(g6
S'%\xabuS\xb6\x98C?'
p1005
tp1006
Rp1007
sS'commandinus_1715_v1_1_0067'
p1008
g2
(g6
S'\x1b#\xc6\xf6JT??'
p1009
tp1010
Rp1011
sS'commandinus_1715_v1_1_0068'
p1012
g2
(g6
S']gP\n(jB?'
p1013
tp1014
Rp1015
sS'commandinus_1715_v1_1_0069'
p1016
g2
(g6
S'\xad4\xd7\x9a \x98G?'
p1017
tp1018
Rp1019
sS'commandinus_1715_v1_1_0101'
p1020
g2
(g6
S'\x0b\x10\x03hvUG?'
p1021
tp1022
Rp1023
sS'commandinus_1715_v1_1_0100'
p1024
g2
(g6
S'j\xee@3z"??'
p1025
tp1026
Rp1027
sS'commandinus_1715_v1_1_0107'
p1028
g2
(g6
S'\xd2\x80\xbd\x8247A?'
p1029
tp1030
Rp1031
sS'commandinus_1715_v1_1_0106'
p1032
g2
(g6
S'\x99`\xce[\xc4\x86=?'
p1033
tp1034
Rp1035
sS'commandinus_1715_v1_1_0105'
p1036
g2
(g6
S'j\xd7O:\n\xdfC?'
p1037
tp1038
Rp1039
sS'commandinus_1715_v1_1_0104'
p1040
g2
(g6
S'\xc4\xa9\x97\xe4\xa5\xd3B?'
p1041
tp1042
Rp1043
sS'commandinus_1715_v1_1_0218'
p1044
g2
(g6
S'\xe2;`#\xe5\xc9??'
p1045
tp1046
Rp1047
sS'commandinus_1715_v1_1_0299'
p1048
g2
(g6
S'\xb8t\xe5\xdeV)@?'
p1049
tp1050
Rp1051
sS'commandinus_1715_v1_1_0321'
p1052
g2
(g6
S'\xd5\xdb\xc2\xd5\x0c\x81??'
p1053
tp1054
Rp1055
sS'commandinus_1715_v1_1_0222'
p1056
g2
(g6
S'O\x1d<\xd8#\x00A?'
p1057
tp1058
Rp1059
sS'commandinus_1715_v1_1_0298'
p1060
g2
(g6
S'\xce\x1e\x9cK\xdc\xd0I?'
p1061
tp1062
Rp1063
sS'commandinus_1715_v1_1_0289'
p1064
g2
(g6
S'|~\xd2\xaa\x04\x8cH?'
p1065
tp1066
Rp1067
sS'commandinus_1715_v1_1_0183'
p1068
g2
(g6
S'\x90!~\x0cf\xccL?'
p1069
tp1070
Rp1071
sS'commandinus_1715_v1_1_0182'
p1072
g2
(g6
S"\x7f'\xb9J\xc7oK?"
p1073
tp1074
Rp1075
sS'commandinus_1715_v1_1_0181'
p1076
g2
(g6
S'g4\xf4~\xa8\xd0;?'
p1077
tp1078
Rp1079
sS'commandinus_1715_v1_1_0180'
p1080
g2
(g6
S'\x07LRVM\x8e>?'
p1081
tp1082
Rp1083
sS'commandinus_1715_v1_1_0187'
p1084
g2
(g6
S'>"7\xa0QUD?'
p1085
tp1086
Rp1087
sS'commandinus_1715_v1_1_0186'
p1088
g2
(g6
S'\xd3\xf9\xf4\x12I2G?'
p1089
tp1090
Rp1091
sS'commandinus_1715_v1_1_0185'
p1092
g2
(g6
S'd\x96\x19\xd4\xcd\x0fB?'
p1093
tp1094
Rp1095
sS'commandinus_1715_v1_1_0184'
p1096
g2
(g6
S'\xd3\x8f\n\x10\x85\x1b<?'
p1097
tp1098
Rp1099
sS'commandinus_1715_v1_1_0189'
p1100
g2
(g6
S'\xd8\xac]\xc1\x83\xfb=?'
p1101
tp1102
Rp1103
sS'commandinus_1715_v1_1_0188'
p1104
g2
(g6
S'Y\x89\x89m\x1c\xf7=?'
p1105
tp1106
Rp1107
sS'commandinus_1715_v1_1_0271'
p1108
g2
(g6
S'#\xf2,\x11\xd0.I?'
p1109
tp1110
Rp1111
sS'commandinus_1715_v1_1_0270'
p1112
g2
(g6
S'\x83WA\xa8\xb7\x85K?'
p1113
tp1114
Rp1115
sS'commandinus_1715_v1_1_0273'
p1116
g2
(g6
S'\xf8\x97h\xdbO\xf5H?'
p1117
tp1118
Rp1119
sS'commandinus_1715_v1_1_0272'
p1120
g2
(g6
S'\xcd\x10\xf8\x11\x1b,K?'
p1121
tp1122
Rp1123
sS'commandinus_1715_v1_1_0275'
p1124
g2
(g6
S'\x84\xf9\xd6\xca^\xb5J?'
p1125
tp1126
Rp1127
sS'commandinus_1715_v1_1_0274'
p1128
g2
(g6
S'B\xaf\x89"\x0clI?'
p1129
tp1130
Rp1131
sS'commandinus_1715_v1_1_0277'
p1132
g2
(g6
S'!J\x01oS\x0fM?'
p1133
tp1134
Rp1135
sS'commandinus_1715_v1_1_0276'
p1136
g2
(g6
S'\xbb\xfc\x9d\x83l\xb7N?'
p1137
tp1138
Rp1139
sS'commandinus_1715_v1_1_0279'
p1140
g2
(g6
S"w\xa0\x95'k-J?"
p1141
tp1142
Rp1143
sS'commandinus_1715_v1_1_0278'
p1144
g2
(g6
S'E\xe9"\xe4\x88\xd7N?'
p1145
tp1146
Rp1147
sS'commandinus_1715_v1_1_0317'
p1148
g2
(g6
S'M\x06\xbd&\x8a0@?'
p1149
tp1150
Rp1151
sS'commandinus_1715_v1_1_0292'
p1152
g2
(g6
S'\xe1\\\xe2\x86\xce3B?'
p1153
tp1154
Rp1155
sS'commandinus_1715_v1_1_0077'
p1156
g2
(g6
S'\x92q\xa6\xb9\\\xedD?'
p1157
tp1158
Rp1159
sS'commandinus_1715_v1_1_0076'
p1160
g2
(g6
S'\x0b\x0f\xfd\xbd\x91\xa5D?'
p1161
tp1162
Rp1163
sS'commandinus_1715_v1_1_0075'
p1164
g2
(g6
S'\xd0\xb2p\xa6\xdbYG?'
p1165
tp1166
Rp1167
sS'commandinus_1715_v1_1_0074'
p1168
g2
(g6
S'\x80\xe5\xe9\x15\xe3+B?'
p1169
tp1170
Rp1171
sS'commandinus_1715_v1_1_0073'
p1172
g2
(g6
S'\xc3\x98\xca\xe7\x91\xafG?'
p1173
tp1174
Rp1175
sS'commandinus_1715_v1_1_0072'
p1176
g2
(g6
S'\x08\xb1\xc5\xd3#\xc2D?'
p1177
tp1178
Rp1179
sS'commandinus_1715_v1_1_0071'
p1180
g2
(g6
S'\x0f\xb0\xb4\xc8\xba\xcfE?'
p1181
tp1182
Rp1183
sS'commandinus_1715_v1_1_0070'
p1184
g2
(g6
S'\xff\xf8n\xa7\xda\xba??'
p1185
tp1186
Rp1187
sS'commandinus_1715_v1_1_0176'
p1188
g2
(g6
S'\x07LRVM\x8e>?'
p1189
tp1190
Rp1191
sS'commandinus_1715_v1_1_0177'
p1192
g2
(g6
S'\xcd\xd6\xc5\\\xae\x81=?'
p1193
tp1194
Rp1195
sS'commandinus_1715_v1_1_0174'
p1196
g2
(g6
S'\xc9\x00\x08\xae#MJ?'
p1197
tp1198
Rp1199
sS'commandinus_1715_v1_1_0175'
p1200
g2
(g6
S'\x1d[S\xd8\x96\xb5H?'
p1201
tp1202
Rp1203
sS'commandinus_1715_v1_1_0172'
p1204
g2
(g6
S' \xbf\xa0t\x19\xdc>?'
p1205
tp1206
Rp1207
sS'commandinus_1715_v1_1_0173'
p1208
g2
(g6
S'\x98n\xdcn\x1b\xebA?'
p1209
tp1210
Rp1211
sS'commandinus_1715_v1_1_0079'
p1212
g2
(g6
S'\x193\xfba6\x1eH?'
p1213
tp1214
Rp1215
sS'commandinus_1715_v1_1_0078'
p1216
g2
(g6
S'\xffH\xa4\x1c\x17fA?'
p1217
tp1218
Rp1219
sS'commandinus_1715_v1_1_0310'
p1220
g2
(g6
S'm\xcc\xf4\xaf\x9e\x98B?'
p1221
tp1222
Rp1223
sS'commandinus_1715_v1_1_0259'
p1224
g2
(g6
S'\x1f\xd9\xa4\x84\xbe\x86M?'
p1225
tp1226
Rp1227
sS'commandinus_1715_v1_1_0258'
p1228
g2
(g6
S'\xba\xbd;\x00\x07\xd2L?'
p1229
tp1230
Rp1231
sS'commandinus_1715_v1_1_0213'
p1232
g2
(g6
S'H\xb9\xf3W\x98\x08H?'
p1233
tp1234
Rp1235
sS'commandinus_1715_v1_1_0269'
p1236
g2
(g6
S'l\x0e\x17\x1au\x1fF?'
p1237
tp1238
Rp1239
sS'commandinus_1715_v1_1_0212'
p1240
g2
(g6
S'1\xdb\xbc\x8f\xd9qE?'
p1241
tp1242
Rp1243
s.