(dp0
S'elementorumlibr02euclgoog_0279'
p1
cnumpy.core.multiarray
scalar
p2
(cnumpy
dtype
p3
(S'f8'
p4
I0
I1
tp5
Rp6
(I3
S'<'
p7
NNNI-1
I-1
I0
tp8
bS'%\xa9u&%\xb7I?'
p9
tp10
Rp11
sS'elementorumlibr02euclgoog_0278'
p12
g2
(g6
S'E\xe9"\xe4\x88\xd7N?'
p13
tp14
Rp15
sS'elementorumlibr02euclgoog_0223'
p16
g2
(g6
S'\x18\xf9c\xea\xaa:C?'
p17
tp18
Rp19
sS'elementorumlibr02euclgoog_0271'
p20
g2
(g6
S'#\xf2,\x11\xd0.I?'
p21
tp22
Rp23
sS'elementorumlibr02euclgoog_0270'
p24
g2
(g6
S'\x83WA\xa8\xb7\x85K?'
p25
tp26
Rp27
sS'elementorumlibr02euclgoog_0273'
p28
g2
(g6
S'\x08\xb8]\xc8G6I?'
p29
tp30
Rp31
sS'elementorumlibr02euclgoog_0272'
p32
g2
(g6
S'9\xd4\x11J\xe1\x99K?'
p33
tp34
Rp35
sS'elementorumlibr02euclgoog_0275'
p36
g2
(g6
S'\x84\xf9\xd6\xca^\xb5J?'
p37
tp38
Rp39
sS'elementorumlibr02euclgoog_0274'
p40
g2
(g6
S'\x08LO\xb1-\xc1I?'
p41
tp42
Rp43
sS'elementorumlibr02euclgoog_0277'
p44
g2
(g6
S'!J\x01oS\x0fM?'
p45
tp46
Rp47
sS'elementorumlibr02euclgoog_0276'
p48
g2
(g6
S'\xbb\xfc\x9d\x83l\xb7N?'
p49
tp50
Rp51
sS'elementorumlibr02euclgoog_0299'
p52
g2
(g6
S'\xb8t\xe5\xdeV)@?'
p53
tp54
Rp55
sS'elementorumlibr02euclgoog_0298'
p56
g2
(g6
S'\xce\x1e\x9cK\xdc\xd0I?'
p57
tp58
Rp59
sS'elementorumlibr02euclgoog_0077'
p60
g2
(g6
S'\x92q\xa6\xb9\\\xedD?'
p61
tp62
Rp63
sS'elementorumlibr02euclgoog_0076'
p64
g2
(g6
S'\x0b\x0f\xfd\xbd\x91\xa5D?'
p65
tp66
Rp67
sS'elementorumlibr02euclgoog_0075'
p68
g2
(g6
S'\xd0\xb2p\xa6\xdbYG?'
p69
tp70
Rp71
sS'elementorumlibr02euclgoog_0074'
p72
g2
(g6
S'&h\xf52\xfbQB?'
p73
tp74
Rp75
sS'elementorumlibr02euclgoog_0073'
p76
g2
(g6
S'\xc3\x98\xca\xe7\x91\xafG?'
p77
tp78
Rp79
sS'elementorumlibr02euclgoog_0072'
p80
g2
(g6
S'\x1b\xcaZ\x87\x04zE?'
p81
tp82
Rp83
sS'elementorumlibr02euclgoog_0071'
p84
g2
(g6
S'\x0f\xb0\xb4\xc8\xba\xcfE?'
p85
tp86
Rp87
sS'elementorumlibr02euclgoog_0070'
p88
g2
(g6
S'\xff\xf8n\xa7\xda\xba??'
p89
tp90
Rp91
sS'elementorumlibr02euclgoog_0176'
p92
g2
(g6
S'Ml\\\x06\xd3\xd1>?'
p93
tp94
Rp95
sS'elementorumlibr02euclgoog_0177'
p96
g2
(g6
S'\xcd\xd6\xc5\\\xae\x81=?'
p97
tp98
Rp99
sS'elementorumlibr02euclgoog_0174'
p100
g2
(g6
S'\xc9\x00\x08\xae#MJ?'
p101
tp102
Rp103
sS'elementorumlibr02euclgoog_0175'
p104
g2
(g6
S'\x1d[S\xd8\x96\xb5H?'
p105
tp106
Rp107
sS'elementorumlibr02euclgoog_0172'
p108
g2
(g6
S'I\xec\xe5X\x80\x80??'
p109
tp110
Rp111
sS'elementorumlibr02euclgoog_0173'
p112
g2
(g6
S'\xbdw\xf4\xf5\xb8\xacA?'
p113
tp114
Rp115
sS'elementorumlibr02euclgoog_0079'
p116
g2
(g6
S'\x193\xfba6\x1eH?'
p117
tp118
Rp119
sS'elementorumlibr02euclgoog_0078'
p120
g2
(g6
S'\xffH\xa4\x1c\x17fA?'
p121
tp122
Rp123
sS'elementorumlibr02euclgoog_0312'
p124
g2
(g6
S'\x07\xaa\xb9\x8e\x86\x91J?'
p125
tp126
Rp127
sS'elementorumlibr02euclgoog_0289'
p128
g2
(g6
S'|~\xd2\xaa\x04\x8cH?'
p129
tp130
Rp131
sS'elementorumlibr02euclgoog_0244'
p132
g2
(g6
S',$=*\xf3~P?'
p133
tp134
Rp135
sS'elementorumlibr02euclgoog_0245'
p136
g2
(g6
S'\xa5}\xec\xe9\x9c\x96I?'
p137
tp138
Rp139
sS'elementorumlibr02euclgoog_0088'
p140
g2
(g6
S'\xdb\xb71\xc0~ A?'
p141
tp142
Rp143
sS'elementorumlibr02euclgoog_0089'
p144
g2
(g6
S'\x17l#\x9d\x96\x96E?'
p145
tp146
Rp147
sS'elementorumlibr02euclgoog_0240'
p148
g2
(g6
S'\xee^\x86%\xccRJ?'
p149
tp150
Rp151
sS'elementorumlibr02euclgoog_0241'
p152
g2
(g6
S'\xccp_\x91\xb8\xc2C?'
p153
tp154
Rp155
sS'elementorumlibr02euclgoog_0242'
p156
g2
(g6
S'\xae\xecU\xab\xad\xf3G?'
p157
tp158
Rp159
sS'elementorumlibr02euclgoog_0243'
p160
g2
(g6
S'd\x85n\xc0YQE?'
p161
tp162
Rp163
sS'elementorumlibr02euclgoog_0082'
p164
g2
(g6
S'\xf7\x8eA\x9c\x04\xffF?'
p165
tp166
Rp167
sS'elementorumlibr02euclgoog_0083'
p168
g2
(g6
S'\x01.\xe2\xf1\xdf\x86F?'
p169
tp170
Rp171
sS'elementorumlibr02euclgoog_0080'
p172
g2
(g6
S'\xe0,Z\xa3\\G<?'
p173
tp174
Rp175
sS'elementorumlibr02euclgoog_0081'
p176
g2
(g6
S'\x1b\xcaZ\x87\x04zE?'
p177
tp178
Rp179
sS'elementorumlibr02euclgoog_0086'
p180
g2
(g6
S'$DO\xe5\t\xaaF?'
p181
tp182
Rp183
sS'elementorumlibr02euclgoog_0087'
p184
g2
(g6
S'\x87)e\x7f\xfe\xdfI?'
p185
tp186
Rp187
sS'elementorumlibr02euclgoog_0084'
p188
g2
(g6
S'v\x9c\xa21\xa0nD?'
p189
tp190
Rp191
sS'elementorumlibr02euclgoog_0085'
p192
g2
(g6
S'\xe8\xe5\xb6y\x8a\xfeC?'
p193
tp194
Rp195
sS'elementorumlibr02euclgoog_0268'
p196
g2
(g6
S'\xd7\x05\xaf\x82PoK?'
p197
tp198
Rp199
sS'elementorumlibr02euclgoog_0284'
p200
g2
(g6
S'p\xf6\xe0\\\xe2\x86N?'
p201
tp202
Rp203
sS'elementorumlibr02euclgoog_0313'
p204
g2
(g6
S'\x01\xa6\xf5G\xf0\xa6A?'
p205
tp206
Rp207
sS'elementorumlibr02euclgoog_0290'
p208
g2
(g6
S'\xe7\x85\x17(\x19YG?'
p209
tp210
Rp211
sS'elementorumlibr02euclgoog_0320'
p212
g2
(g6
S"\nj\xa0\xff'\xe3A?"
p213
tp214
Rp215
sS'elementorumlibr02euclgoog_0168'
p216
g2
(g6
S'\x14=ghy>E?'
p217
tp218
Rp219
sS'elementorumlibr02euclgoog_0169'
p220
g2
(g6
S'\xf20\x8e+ \x91C?'
p221
tp222
Rp223
sS'elementorumlibr02euclgoog_0127'
p224
g2
(g6
S'V\xe4\xd4\x16w3E?'
p225
tp226
Rp227
sS'elementorumlibr02euclgoog_0239'
p228
g2
(g6
S'\xd8Y\x87\xdc\xd7KC?'
p229
tp230
Rp231
sS'elementorumlibr02euclgoog_0165'
p232
g2
(g6
S'\x02\xb5d\xfc\x97-E?'
p233
tp234
Rp235
sS'elementorumlibr02euclgoog_0164'
p236
g2
(g6
S'\x8eQ\x9cbwh!?'
p237
tp238
Rp239
sS'elementorumlibr02euclgoog_0167'
p240
g2
(g6
S'\x19\xbd\xcapq2C?'
p241
tp242
Rp243
sS'elementorumlibr02euclgoog_0126'
p244
g2
(g6
S'\xce\xff\xf6a\x9a\xbdA?'
p245
tp246
Rp247
sS'elementorumlibr02euclgoog_0161'
p248
g2
(g6
S'\xe1\x0eJ\'\x99"@?'
p249
tp250
Rp251
sS'elementorumlibr02euclgoog_0160'
p252
g2
(g6
S'\xf5\xec\x93\x94\xb2\x16D?'
p253
tp254
Rp255
sS'elementorumlibr02euclgoog_0163'
p256
g2
(g6
S'N\xec\xd2\xb3%#>?'
p257
tp258
Rp259
sS'elementorumlibr02euclgoog_0162'
p260
g2
(g6
S'R\xa4,e(\xe8F?'
p261
tp262
Rp263
sS'elementorumlibr02euclgoog_0129'
p264
g2
(g6
S'\xed,u5\x11zF?'
p265
tp266
Rp267
sS'elementorumlibr02euclgoog_0310'
p268
g2
(g6
S'm\xcc\xf4\xaf\x9e\x98B?'
p269
tp270
Rp271
sS'elementorumlibr02euclgoog_0128'
p272
g2
(g6
S'&>\x06\xd6\xe2\x9dE?'
p273
tp274
Rp275
sS'elementorumlibr02euclgoog_0178'
p276
g2
(g6
S'\xc7b-\x03I\x8c@?'
p277
tp278
Rp279
sS'elementorumlibr02euclgoog_0282'
p280
g2
(g6
S'\xd4\xac\rg\xe0\x18G?'
p281
tp282
Rp283
sS'elementorumlibr02euclgoog_0099'
p284
g2
(g6
S'\xc6\xe2"\xd7=_D?'
p285
tp286
Rp287
sS'elementorumlibr02euclgoog_0098'
p288
g2
(g6
S'\x7f)p\xe0\x82"F?'
p289
tp290
Rp291
sS'elementorumlibr02euclgoog_0251'
p292
g2
(g6
S'\xcb\xe6\x0be\xd7=O?'
p293
tp294
Rp295
sS'elementorumlibr02euclgoog_0166'
p296
g2
(g6
S'\xa4\xd4\x9a&6 >?'
p297
tp298
Rp299
sS'elementorumlibr02euclgoog_0257'
p300
g2
(g6
S'\x8ak7\x0e\x08\xd2K?'
p301
tp302
Rp303
sS'elementorumlibr02euclgoog_0238'
p304
g2
(g6
S'\x89<K\x04\xb4KB?'
p305
tp306
Rp307
sS'elementorumlibr02euclgoog_0255'
p308
g2
(g6
S'\xd6\xf9\x13$\x07\xa3G?'
p309
tp310
Rp311
sS'elementorumlibr02euclgoog_0254'
p312
g2
(g6
S'e\xc9\x99\x05\xa8\xb0C?'
p313
tp314
Rp315
sS'elementorumlibr02euclgoog_0091'
p316
g2
(g6
S'\xce7k=m7G?'
p317
tp318
Rp319
sS'elementorumlibr02euclgoog_0090'
p320
g2
(g6
S'\xedi\xa0\x05\xb3\xe9D?'
p321
tp322
Rp323
sS'elementorumlibr02euclgoog_0093'
p324
g2
(g6
S'\x8e\x03\xe7\x0e\xa8\x1a>?'
p325
tp326
Rp327
sS'elementorumlibr02euclgoog_0092'
p328
g2
(g6
S'\x06\xdf`O8%@?'
p329
tp330
Rp331
sS'elementorumlibr02euclgoog_0095'
p332
g2
(g6
S'\xf8\x08A[\x8eqD?'
p333
tp334
Rp335
sS'elementorumlibr02euclgoog_0094'
p336
g2
(g6
S'\x04ea\x90\xae\xb2B?'
p337
tp338
Rp339
sS'elementorumlibr02euclgoog_0097'
p340
g2
(g6
S'\xd6J9-\xc6x;?'
p341
tp342
Rp343
sS'elementorumlibr02euclgoog_0096'
p344
g2
(g6
S'\xb3\xcd\xa5\xcb\xeff>?'
p345
tp346
Rp347
sS'elementorumlibr02euclgoog_0281'
p348
g2
(g6
S't\xa5c\xadQ\x92E?'
p349
tp350
Rp351
sS'elementorumlibr02euclgoog_0269'
p352
g2
(g6
S'\x8c\x84\x88\xff\xf1[F?'
p353
tp354
Rp355
sS'elementorumlibr02euclgoog_0311'
p356
g2
(g6
S'\xeb\xdb\xf8\\\x18\x0eJ?'
p357
tp358
Rp359
sS'elementorumlibr02euclgoog_0286'
p360
g2
(g6
S'`\xb0\x11y\x96\x08H?'
p361
tp362
Rp363
sS'elementorumlibr02euclgoog_0287'
p364
g2
(g6
S'+\x0f\xc7S\xd1\x87J?'
p365
tp366
Rp367
sS'elementorumlibr02euclgoog_0158'
p368
g2
(g6
S'\x9f\xf0( \x16\xe6<?'
p369
tp370
Rp371
sS'elementorumlibr02euclgoog_0159'
p372
g2
(g6
S'\x80\xf4\xb3\xa4\x84\x9aB?'
p373
tp374
Rp375
sS'elementorumlibr02euclgoog_0015'
p376
g2
(g6
S"&j\x01\x87\xc4\xb1'?"
p377
tp378
Rp379
sS'elementorumlibr02euclgoog_0017'
p380
g2
(g6
S'\xf2\xc8\xdd\x99\x05}\x07?'
p381
tp382
Rp383
sS'elementorumlibr02euclgoog_0016'
p384
g2
(g6
S'\xe3b\xd3\x97F\xc3E?'
p385
tp386
Rp387
sS'elementorumlibr02euclgoog_0019'
p388
g2
(g6
S'h\x85\x0eq\x04\xd4<?'
p389
tp390
Rp391
sS'elementorumlibr02euclgoog_0018'
p392
g2
(g6
S'\x93B\x05\x94c\xdaF?'
p393
tp394
Rp395
sS'elementorumlibr02euclgoog_0152'
p396
g2
(g6
S'\xd6q\x93m\xa2N@?'
p397
tp398
Rp399
sS'elementorumlibr02euclgoog_0153'
p400
g2
(g6
S'\xd2\xba7c\xce\xbb>?'
p401
tp402
Rp403
sS'elementorumlibr02euclgoog_0154'
p404
g2
(g6
S'zR\xf9Bkm??'
p405
tp406
Rp407
sS'elementorumlibr02euclgoog_0155'
p408
g2
(g6
S'5i\xe7\x94\xc1\xc8B?'
p409
tp410
Rp411
sS'elementorumlibr02euclgoog_0156'
p412
g2
(g6
S'\xa5\x8b\t\xd6d\x10A?'
p413
tp414
Rp415
sS'elementorumlibr02euclgoog_0157'
p416
g2
(g6
S'\xee\xf3\x93\x8a2\xd4E?'
p417
tp418
Rp419
sS'elementorumlibr02euclgoog_0316'
p420
g2
(g6
S"\nj\xa0\xff'\xe3A?"
p421
tp422
Rp423
sS'elementorumlibr02euclgoog_0263'
p424
g2
(g6
S'\t\xe9\x1b\x12\xecvL?'
p425
tp426
Rp427
sS'elementorumlibr02euclgoog_0260'
p428
g2
(g6
S' \xb1\xc1\xb2\xf2pL?'
p429
tp430
Rp431
sS'elementorumlibr02euclgoog_0309'
p432
g2
(g6
S'\x94\x19\xcc\xb7V\xf6J?'
p433
tp434
Rp435
sS'elementorumlibr02euclgoog_0308'
p436
g2
(g6
S'{\xce\x98N\x9c\xb7J?'
p437
tp438
Rp439
sS'elementorumlibr02euclgoog_0261'
p440
g2
(g6
S'BQ\x1fE\xb3\x9bH?'
p441
tp442
Rp443
sS'elementorumlibr02euclgoog_0301'
p444
g2
(g6
S'\xeemf|\x18ZC?'
p445
tp446
Rp447
sS'elementorumlibr02euclgoog_0300'
p448
g2
(g6
S'|~\xd2\xaa\x04\x8cH?'
p449
tp450
Rp451
sS'elementorumlibr02euclgoog_0303'
p452
g2
(g6
S'\xf9\x99q\xb6\xc7\xcdC?'
p453
tp454
Rp455
sS'elementorumlibr02euclgoog_0302'
p456
g2
(g6
S'\x89<K\x04\xb4KB?'
p457
tp458
Rp459
sS'elementorumlibr02euclgoog_0305'
p460
g2
(g6
S'm\xcc\xf4\xaf\x9e\x98B?'
p461
tp462
Rp463
sS'elementorumlibr02euclgoog_0304'
p464
g2
(g6
S'\xfa\xf7\xdb\x93 \x9eD?'
p465
tp466
Rp467
sS'elementorumlibr02euclgoog_0307'
p468
g2
(g6
S'\xf8\xa5\x0c\x15\x11\x9aG?'
p469
tp470
Rp471
sS'elementorumlibr02euclgoog_0306'
p472
g2
(g6
S'\x1e\x1b\xc7\xee\x94\rA?'
p473
tp474
Rp475
sS'elementorumlibr02euclgoog_0317'
p476
g2
(g6
S'M\x06\xbd&\x8a0@?'
p477
tp478
Rp479
sS'elementorumlibr02euclgoog_0265'
p480
g2
(g6
S'\x13f)\r\xbexI?'
p481
tp482
Rp483
sS'elementorumlibr02euclgoog_0147'
p484
g2
(g6
S'\rvn]\r\x9fH?'
p485
tp486
Rp487
sS'elementorumlibr02euclgoog_0146'
p488
g2
(g6
S'{X\xd5G\x07>G?'
p489
tp490
Rp491
sS'elementorumlibr02euclgoog_0145'
p492
g2
(g6
S'7\xf07\xee\xde\x1cA?'
p493
tp494
Rp495
sS'elementorumlibr02euclgoog_0144'
p496
g2
(g6
S'v\t{\x97\xf4\xbaC?'
p497
tp498
Rp499
sS'elementorumlibr02euclgoog_0143'
p500
g2
(g6
S'\x89m*\\W.@?'
p501
tp502
Rp503
sS'elementorumlibr02euclgoog_0142'
p504
g2
(g6
S'\x8a\x83\xb6\x06\xe6hD?'
p505
tp506
Rp507
sS'elementorumlibr02euclgoog_0141'
p508
g2
(g6
S'41\x04\x91\x11UI?'
p509
tp510
Rp511
sS'elementorumlibr02euclgoog_0140'
p512
g2
(g6
S'I\xd6Y\xae\xf1EK?'
p513
tp514
Rp515
sS'elementorumlibr02euclgoog_0179'
p516
g2
(g6
S'[V\x84\xc7\xd9!E?'
p517
tp518
Rp519
sS'elementorumlibr02euclgoog_0149'
p520
g2
(g6
S'\x0cg\xbc^IgC?'
p521
tp522
Rp523
sS'elementorumlibr02euclgoog_0148'
p524
g2
(g6
S'\xe3;`#\xe5\xc9??'
p525
tp526
Rp527
sS'elementorumlibr02euclgoog_0226'
p528
g2
(g6
S'\n\xf0\xed\xaeL\xc9C?'
p529
tp530
Rp531
sS'elementorumlibr02euclgoog_0227'
p532
g2
(g6
S'+t\x03\xce\x8a\xaaB?'
p533
tp534
Rp535
sS'elementorumlibr02euclgoog_0224'
p536
g2
(g6
S'\xcf,@\x85\x9duH?'
p537
tp538
Rp539
sS'elementorumlibr02euclgoog_0225'
p540
g2
(g6
S'J\xc7Z\xa3$KN?'
p541
tp542
Rp543
sS'elementorumlibr02euclgoog_0028'
p544
g2
(g6
S'\xd6^\x9f\x06\x86\xbdH?'
p545
tp546
Rp547
sS'elementorumlibr02euclgoog_0029'
p548
g2
(g6
S'4\xbb&\xe4\xdc\x87C?'
p549
tp550
Rp551
sS'elementorumlibr02euclgoog_0220'
p552
g2
(g6
S"Ld'\x04\xe3\x00A?"
p553
tp554
Rp555
sS'elementorumlibr02euclgoog_0221'
p556
g2
(g6
S'\xf8\xb7Nw\xe4\xecD?'
p557
tp558
Rp559
sS'elementorumlibr02euclgoog_0024'
p560
g2
(g6
S'\xd3\x0f\xa2\xe6d\x8dD?'
p561
tp562
Rp563
sS'elementorumlibr02euclgoog_0025'
p564
g2
(g6
S'\xab\xb8\xcb\x87\xcd\xc5D?'
p565
tp566
Rp567
sS'elementorumlibr02euclgoog_0026'
p568
g2
(g6
S'\x19\xfb\x07\x01\xc7\xecH?'
p569
tp570
Rp571
sS'elementorumlibr02euclgoog_0027'
p572
g2
(g6
S'\xbc\x02\x0e\xb5p\xf0H?'
p573
tp574
Rp575
sS'elementorumlibr02euclgoog_0020'
p576
g2
(g6
S'FG\xe3\x87VIF?'
p577
tp578
Rp579
sS'elementorumlibr02euclgoog_0021'
p580
g2
(g6
S'b\x83\r~\xbf\xb6C?'
p581
tp582
Rp583
sS'elementorumlibr02euclgoog_0022'
p584
g2
(g6
S'\xa5\xe0\x94\xde\xd5oG?'
p585
tp586
Rp587
sS'elementorumlibr02euclgoog_0023'
p588
g2
(g6
S'\xf2px\xd4\xa3R@?'
p589
tp590
Rp591
sS'elementorumlibr02euclgoog_0253'
p592
g2
(g6
S'\xee\xaeL\xc9c~L?'
p593
tp594
Rp595
sS'elementorumlibr02euclgoog_0252'
p596
g2
(g6
S'j\xae\xa3a\xa4vJ?'
p597
tp598
Rp599
sS'elementorumlibr02euclgoog_0318'
p600
g2
(g6
S'\x00\xeb\x89)\xde\x08J?'
p601
tp602
Rp603
sS'elementorumlibr02euclgoog_0280'
p604
g2
(g6
S'\x8e\xeb\xcdT#WI?'
p605
tp606
Rp607
sS'elementorumlibr02euclgoog_0250'
p608
g2
(g6
S'*\xde\x08\n-GG?'
p609
tp610
Rp611
sS'elementorumlibr02euclgoog_0170'
p612
g2
(g6
S'2\xean\x8e\x9d\xa9:?'
p613
tp614
Rp615
sS'elementorumlibr02euclgoog_0171'
p616
g2
(g6
S'\n\x84\xdb\x17(\x1d(?'
p617
tp618
Rp619
sS'elementorumlibr02euclgoog_0256'
p620
g2
(g6
S'\xb6\xc0\xfb\xe6wsN?'
p621
tp622
Rp623
sS'elementorumlibr02euclgoog_0132'
p624
g2
(g6
S'\xf6\xc9>\x94b\xabG?'
p625
tp626
Rp627
sS'elementorumlibr02euclgoog_0133'
p628
g2
(g6
S'\xd5Hbh\xb6\x12L?'
p629
tp630
Rp631
sS'elementorumlibr02euclgoog_0130'
p632
g2
(g6
S'\xddW\xee\x1c\xc5\x8f>?'
p633
tp634
Rp635
sS'elementorumlibr02euclgoog_0131'
p636
g2
(g6
S'\x1fv\x0f$H\xccA?'
p637
tp638
Rp639
sS'elementorumlibr02euclgoog_0136'
p640
g2
(g6
S'Y\x17\xc7\x17_\xab\x0c?'
p641
tp642
Rp643
sS'elementorumlibr02euclgoog_0137'
p644
g2
(g6
S'x\xa3\xc3\xbe\xb2;F?'
p645
tp646
Rp647
sS'elementorumlibr02euclgoog_0134'
p648
g2
(g6
S'7"?\xed\xf2\xbfB?'
p649
tp650
Rp651
sS'elementorumlibr02euclgoog_0135'
p652
g2
(g6
S'\xba\xffU\x9b_\x90H?'
p653
tp654
Rp655
sS'elementorumlibr02euclgoog_0138'
p656
g2
(g6
S'G8\x7f\x03\x17\x85A?'
p657
tp658
Rp659
sS'elementorumlibr02euclgoog_0139'
p660
g2
(g6
S'_\xc83x<\x10E?'
p661
tp662
Rp663
sS'elementorumlibr02euclgoog_0237'
p664
g2
(g6
S'\xb3\x1d\x9d\xdd\xb2\x00I?'
p665
tp666
Rp667
sS'elementorumlibr02euclgoog_0229'
p668
g2
(g6
S'M\xd05\x1b\xfdu@?'
p669
tp670
Rp671
sS'elementorumlibr02euclgoog_0235'
p672
g2
(g6
S'\xfe\xf0Q\x9a\xa6IB?'
p673
tp674
Rp675
sS'elementorumlibr02euclgoog_0234'
p676
g2
(g6
S'\xe2j\x86\xc0\x8f\xd8@?'
p677
tp678
Rp679
sS'elementorumlibr02euclgoog_0039'
p680
g2
(g6
S'#DO\xe5\t\xaaF?'
p681
tp682
Rp683
sS'elementorumlibr02euclgoog_0038'
p684
g2
(g6
S'\x18=\x82w\x9d\x83G?'
p685
tp686
Rp687
sS'elementorumlibr02euclgoog_0231'
p688
g2
(g6
S'\xc9\xf7o\x85\t\x84??'
p689
tp690
Rp691
sS'elementorumlibr02euclgoog_0230'
p692
g2
(g6
S'\x86?\x0b\xeb$\xedC?'
p693
tp694
Rp695
sS'elementorumlibr02euclgoog_0219'
p696
g2
(g6
S'\xf6e"\x95\x1d(J?'
p697
tp698
Rp699
sS'elementorumlibr02euclgoog_0232'
p700
g2
(g6
S'u\xb3\x07\xe7\x127D?'
p701
tp702
Rp703
sS'elementorumlibr02euclgoog_0033'
p704
g2
(g6
S'2\x85\xad\xef\xf2\x0bJ?'
p705
tp706
Rp707
sS'elementorumlibr02euclgoog_0032'
p708
g2
(g6
S'\xc6\xe2"\xd7=_D?'
p709
tp710
Rp711
sS'elementorumlibr02euclgoog_0031'
p712
g2
(g6
S'\x95{\x90\x86\xfbeH?'
p713
tp714
Rp715
sS'elementorumlibr02euclgoog_0030'
p716
g2
(g6
S'\x82\x1eu\x08{\xb7C?'
p717
tp718
Rp719
sS'elementorumlibr02euclgoog_0037'
p720
g2
(g6
S'\xd8+_Z\xfc\xd9E?'
p721
tp722
Rp723
sS'elementorumlibr02euclgoog_0036'
p724
g2
(g6
S'%DO\xe5\t\xaaF?'
p725
tp726
Rp727
sS'elementorumlibr02euclgoog_0035'
p728
g2
(g6
S'\x9b\xec\xa0\xc1F\xcdH?'
p729
tp730
Rp731
sS'elementorumlibr02euclgoog_0034'
p732
g2
(g6
S'`\xa0\xdb\xfc\xbf\xf5C?'
p733
tp734
Rp735
sS'elementorumlibr02euclgoog_0323'
p736
g2
(g6
S'|p.qC\xe7\t?'
p737
tp738
Rp739
sS'elementorumlibr02euclgoog_0322'
p740
g2
(g6
S'j\xe4*m11J?'
p741
tp742
Rp743
sS'elementorumlibr02euclgoog_0321'
p744
g2
(g6
S'\xd5\xdb\xc2\xd5\x0c\x81??'
p745
tp746
Rp747
sS'elementorumlibr02euclgoog_0258'
p748
g2
(g6
S'\xba\xbd;\x00\x07\xd2L?'
p749
tp750
Rp751
sS'elementorumlibr02euclgoog_0233'
p752
g2
(g6
S'\xfa\xdd\x9c\xfb\x15-B?'
p753
tp754
Rp755
sS'elementorumlibr02euclgoog_0213'
p756
g2
(g6
S'H\xb9\xf3W\x98\x08H?'
p757
tp758
Rp759
sS'elementorumlibr02euclgoog_0288'
p760
g2
(g6
S'W\xad\xb6\xce\x9f I?'
p761
tp762
Rp763
sS'elementorumlibr02euclgoog_0212'
p764
g2
(g6
S'1\xdb\xbc\x8f\xd9qE?'
p765
tp766
Rp767
sS'elementorumlibr02euclgoog_0218'
p768
g2
(g6
S'\xe2;`#\xe5\xc9??'
p769
tp770
Rp771
sS'elementorumlibr02euclgoog_0314'
p772
g2
(g6
S'\xff\xd5\x13S\xbc\x11D?'
p773
tp774
Rp775
sS'elementorumlibr02euclgoog_0236'
p776
g2
(g6
S'\xe3\x9bD\n4\x19D?'
p777
tp778
Rp779
sS'elementorumlibr02euclgoog_0315'
p780
g2
(g6
S'\xd4<~:8\x06H?'
p781
tp782
Rp783
sS'elementorumlibr02euclgoog_0121'
p784
g2
(g6
S'Uz\xea\x13\xb3\x1cJ?'
p785
tp786
Rp787
sS'elementorumlibr02euclgoog_0120'
p788
g2
(g6
S'\xfb\xde\xb9\xf2gVC?'
p789
tp790
Rp791
sS'elementorumlibr02euclgoog_0123'
p792
g2
(g6
S'\x80\xf4\xb3\xa4\x84\x9aB?'
p793
tp794
Rp795
sS'elementorumlibr02euclgoog_0122'
p796
g2
(g6
S'\xc2\xb0\xc2\xfb<\xf5@?'
p797
tp798
Rp799
sS'elementorumlibr02euclgoog_0125'
p800
g2
(g6
S'\xa3\x0c\x91\xcf@\xf1H?'
p801
tp802
Rp803
sS'elementorumlibr02euclgoog_0124'
p804
g2
(g6
S'f\xc9\x0b\xd5\xb5\x87I?'
p805
tp806
Rp807
sS'elementorumlibr02euclgoog_0048'
p808
g2
(g6
S'4\xbb&\xe4\xdc\x87C?'
p809
tp810
Rp811
sS'elementorumlibr02euclgoog_0049'
p812
g2
(g6
S'b\x83\r~\xbf\xb6C?'
p813
tp814
Rp815
sS'elementorumlibr02euclgoog_0046'
p816
g2
(g6
S'f&\xd1\xdc\xb1@J?'
p817
tp818
Rp819
sS'elementorumlibr02euclgoog_0047'
p820
g2
(g6
S'\x83\xdc\xfa\x91\xa4 E?'
p821
tp822
Rp823
sS'elementorumlibr02euclgoog_0044'
p824
g2
(g6
S'q,\x98\xa09\xb7F?'
p825
tp826
Rp827
sS'elementorumlibr02euclgoog_0045'
p828
g2
(g6
S'\xa2\xeb\x8f\xb6\xdd\xdaI?'
p829
tp830
Rp831
sS'elementorumlibr02euclgoog_0042'
p832
g2
(g6
S'\xc6%\xa3\xf7\xf8\xa5E?'
p833
tp834
Rp835
sS'elementorumlibr02euclgoog_0043'
p836
g2
(g6
S'&|\xd4-\xbd\x85E?'
p837
tp838
Rp839
sS'elementorumlibr02euclgoog_0040'
p840
g2
(g6
S'k@\x82\xfc\x7f-F?'
p841
tp842
Rp843
sS'elementorumlibr02euclgoog_0041'
p844
g2
(g6
S'\xbd\x01\x08\x0b\x8c@F?'
p845
tp846
Rp847
sS'elementorumlibr02euclgoog_0200'
p848
g2
(g6
S'\x0c\xd2\xa4\x08<\xb0E?'
p849
tp850
Rp851
sS'elementorumlibr02euclgoog_0201'
p852
g2
(g6
S'#\x96\xd0d\x0f\xedJ?'
p853
tp854
Rp855
sS'elementorumlibr02euclgoog_0202'
p856
g2
(g6
S'\x81\xfb\x8dPO\x9dA?'
p857
tp858
Rp859
sS'elementorumlibr02euclgoog_0203'
p860
g2
(g6
S've\xb1B#\xcc@?'
p861
tp862
Rp863
sS'elementorumlibr02euclgoog_0204'
p864
g2
(g6
S'\xb0pS9\xfe\xc1F?'
p865
tp866
Rp867
sS'elementorumlibr02euclgoog_0205'
p868
g2
(g6
S'6\xc7Q\x00S\x1eL?'
p869
tp870
Rp871
sS'elementorumlibr02euclgoog_0206'
p872
g2
(g6
S'Bc\xbf\xfb\xba\x82E?'
p873
tp874
Rp875
sS'elementorumlibr02euclgoog_0207'
p876
g2
(g6
S'\x08\xa7\xf23\x19\xc7A?'
p877
tp878
Rp879
sS'elementorumlibr02euclgoog_0208'
p880
g2
(g6
S'\x14L\x19g=vJ?'
p881
tp882
Rp883
sS'elementorumlibr02euclgoog_0209'
p884
g2
(g6
S'/\xb0\xa2\xe1\xea.D?'
p885
tp886
Rp887
sS'elementorumlibr02euclgoog_0194'
p888
g2
(g6
S'\xd0\xf1/e\xaaZB?'
p889
tp890
Rp891
sS'elementorumlibr02euclgoog_0195'
p892
g2
(g6
S'\x07LRVM\x8e>?'
p893
tp894
Rp895
sS'elementorumlibr02euclgoog_0196'
p896
g2
(g6
S'\x06 :\x010\x19F?'
p897
tp898
Rp899
sS'elementorumlibr02euclgoog_0197'
p900
g2
(g6
S'\x17\x13%\x17\x04sH?'
p901
tp902
Rp903
sS'elementorumlibr02euclgoog_0190'
p904
g2
(g6
S'\xf2:\x16\xe8K"C?'
p905
tp906
Rp907
sS'elementorumlibr02euclgoog_0191'
p908
g2
(g6
S"Bk\xbd'\r\xda??"
p909
tp910
Rp911
sS'elementorumlibr02euclgoog_0192'
p912
g2
(g6
S'L\xeb\xe7\xb1QNH?'
p913
tp914
Rp915
sS'elementorumlibr02euclgoog_0193'
p916
g2
(g6
S'1\r\xc4\x8e\xed\x14G?'
p917
tp918
Rp919
sS'elementorumlibr02euclgoog_0217'
p920
g2
(g6
S'\x08+\x907VOD?'
p921
tp922
Rp923
sS'elementorumlibr02euclgoog_0216'
p924
g2
(g6
S'G8\x7f\x03\x17\x85A?'
p925
tp926
Rp927
sS'elementorumlibr02euclgoog_0215'
p928
g2
(g6
S'\x8b\xbc\x97\xb1\xc4\x0eE?'
p929
tp930
Rp931
sS'elementorumlibr02euclgoog_0214'
p932
g2
(g6
S'\x02Kz\xf9\xd3\x16J?'
p933
tp934
Rp935
sS'elementorumlibr02euclgoog_0198'
p936
g2
(g6
S')\x93O0\xecNB?'
p937
tp938
Rp939
sS'elementorumlibr02euclgoog_0199'
p940
g2
(g6
S'\x8d\x83\xa3a\x8b\x0bC?'
p941
tp942
Rp943
sS'elementorumlibr02euclgoog_0211'
p944
g2
(g6
S'\x9cRNu;%C?'
p945
tp946
Rp947
sS'elementorumlibr02euclgoog_0210'
p948
g2
(g6
S'1\r\xc4\x8e\xed\x14G?'
p949
tp950
Rp951
sS'elementorumlibr02euclgoog_0247'
p952
g2
(g6
S'\xacx\x07\xb6\xab\x00X?'
p953
tp954
Rp955
sS'elementorumlibr02euclgoog_0283'
p956
g2
(g6
S'm\x96m\xa4\x11\xdeB?'
p957
tp958
Rp959
sS'elementorumlibr02euclgoog_0297'
p960
g2
(g6
S'y\xb2P\xdb\x19nM?'
p961
tp962
Rp963
sS'elementorumlibr02euclgoog_0296'
p964
g2
(g6
S'D\xd4\xac\rg\xe0H?'
p965
tp966
Rp967
sS'elementorumlibr02euclgoog_0295'
p968
g2
(g6
S'\xf0\xf9\xa9\xbe\xb7[??'
p969
tp970
Rp971
sS'elementorumlibr02euclgoog_0294'
p972
g2
(g6
S'\xa3\x89\x87H\xe6b=?'
p973
tp974
Rp975
sS'elementorumlibr02euclgoog_0059'
p976
g2
(g6
S"\xd3,6\xcf\xf9'E?"
p977
tp978
Rp979
sS'elementorumlibr02euclgoog_0058'
p980
g2
(g6
S'\xf7\x8e8\x06\x81\x8aG?'
p981
tp982
Rp983
sS'elementorumlibr02euclgoog_0291'
p984
g2
(g6
S'\x05\xe9\x15\xfdo\x8b>?'
p985
tp986
Rp987
sS'elementorumlibr02euclgoog_0285'
p988
g2
(g6
S'\xf8\nI\x8f\xca\xbcO?'
p989
tp990
Rp991
sS'elementorumlibr02euclgoog_0055'
p992
g2
(g6
S'\xd5\xe3\x12\xbf\x19\x8a\x1e?'
p993
tp994
Rp995
sS'elementorumlibr02euclgoog_0054'
p996
g2
(g6
S'\xe9\xfa\x9b\x1e1\xe2I?'
p997
tp998
Rp999
sS'elementorumlibr02euclgoog_0057'
p1000
g2
(g6
S'\x1e\xbf_\xaf\xfc\x0eC?'
p1001
tp1002
Rp1003
sS'elementorumlibr02euclgoog_0056'
p1004
g2
(g6
S'?\x04n\xc8\x1fEA?'
p1005
tp1006
Rp1007
sS'elementorumlibr02euclgoog_0051'
p1008
g2
(g6
S'\xb9Lq\x05\xa1\xe2A?'
p1009
tp1010
Rp1011
sS'elementorumlibr02euclgoog_0050'
p1012
g2
(g6
S'\x0b\xfc#m\xb4!D?'
p1013
tp1014
Rp1015
sS'elementorumlibr02euclgoog_0053'
p1016
g2
(g6
S'\xa3\xb8\xd6\xe8Q\x08A?'
p1017
tp1018
Rp1019
sS'elementorumlibr02euclgoog_0052'
p1020
g2
(g6
S'\xe0,Z\xa3\\G<?'
p1021
tp1022
Rp1023
sS'elementorumlibr02euclgoog_0246'
p1024
g2
(g6
S'\x9a\x94\xd0\xd7\xb0\x1f\xed>'
p1025
tp1026
Rp1027
sS'elementorumlibr02euclgoog_0118'
p1028
g2
(g6
S'\x0f\xf5\xe6c1\xbe@?'
p1029
tp1030
Rp1031
sS'elementorumlibr02euclgoog_0119'
p1032
g2
(g6
S'}\xc2\xbfJ\xcbTB?'
p1033
tp1034
Rp1035
sS'elementorumlibr02euclgoog_0319'
p1036
g2
(g6
S'\x00q\xd7\xd8\x02\xefK?'
p1037
tp1038
Rp1039
sS'elementorumlibr02euclgoog_0114'
p1040
g2
(g6
S'\xa1\xf0( \x16\xe6L?'
p1041
tp1042
Rp1043
sS'elementorumlibr02euclgoog_0115'
p1044
g2
(g6
S'ymv\xf0\xc1\xa3E?'
p1045
tp1046
Rp1047
sS'elementorumlibr02euclgoog_0116'
p1048
g2
(g6
S'\xae\xa9G\x897\xc5H?'
p1049
tp1050
Rp1051
sS'elementorumlibr02euclgoog_0117'
p1052
g2
(g6
S'z\x1f\xf4\x9c(\x98F?'
p1053
tp1054
Rp1055
sS'elementorumlibr02euclgoog_0110'
p1056
g2
(g6
S'j\x98\xef\xd7u\xb9=?'
p1057
tp1058
Rp1059
sS'elementorumlibr02euclgoog_0111'
p1060
g2
(g6
S'\xbe\xb8\xad\xf3\x90\x87H?'
p1061
tp1062
Rp1063
sS'elementorumlibr02euclgoog_0112'
p1064
g2
(g6
S'"an{\x8dfC?'
p1065
tp1066
Rp1067
sS'elementorumlibr02euclgoog_0113'
p1068
g2
(g6
S'H\x11\xbeYJ\xffQ?'
p1069
tp1070
Rp1071
sS'elementorumlibr02euclgoog_0183'
p1072
g2
(g6
S'\x90!~\x0cf\xccL?'
p1073
tp1074
Rp1075
sS'elementorumlibr02euclgoog_0182'
p1076
g2
(g6
S"\x7f'\xb9J\xc7oK?"
p1077
tp1078
Rp1079
sS'elementorumlibr02euclgoog_0181'
p1080
g2
(g6
S'g4\xf4~\xa8\xd0;?'
p1081
tp1082
Rp1083
sS'elementorumlibr02euclgoog_0180'
p1084
g2
(g6
S'\x07LRVM\x8e>?'
p1085
tp1086
Rp1087
sS'elementorumlibr02euclgoog_0187'
p1088
g2
(g6
S'\xde\xc2Eg\x9d\xbdD?'
p1089
tp1090
Rp1091
sS'elementorumlibr02euclgoog_0186'
p1092
g2
(g6
S'\xd3\xf9\xf4\x12I2G?'
p1093
tp1094
Rp1095
sS'elementorumlibr02euclgoog_0185'
p1096
g2
(g6
S'd\x96\x19\xd4\xcd\x0fB?'
p1097
tp1098
Rp1099
sS'elementorumlibr02euclgoog_0184'
p1100
g2
(g6
S'\xd3\x8f\n\x10\x85\x1b<?'
p1101
tp1102
Rp1103
sS'elementorumlibr02euclgoog_0262'
p1104
g2
(g6
S')Q\xe9\xbd\xa7\x0eN?'
p1105
tp1106
Rp1107
sS'elementorumlibr02euclgoog_0248'
p1108
g2
(g6
S'\x851g\xb1cH\xf5>'
p1109
tp1110
Rp1111
sS'elementorumlibr02euclgoog_0189'
p1112
g2
(g6
S'\x16\xa2`huY>?'
p1113
tp1114
Rp1115
sS'elementorumlibr02euclgoog_0188'
p1116
g2
(g6
S'\xd8\xac]\xc1\x83\xfb=?'
p1117
tp1118
Rp1119
sS'elementorumlibr02euclgoog_0266'
p1120
g2
(g6
S'\xde\xd9T\xbe\x1a\xef!?'
p1121
tp1122
Rp1123
sS'elementorumlibr02euclgoog_0267'
p1124
g2
(g6
S'\x95\xd7\xa9M\x80oG?'
p1125
tp1126
Rp1127
sS'elementorumlibr02euclgoog_0264'
p1128
g2
(g6
S' \xb1\xc1\xb2\xf2pL?'
p1129
tp1130
Rp1131
sS'elementorumlibr02euclgoog_0249'
p1132
g2
(g6
S'\x13\xf3HYC\xb1B?'
p1133
tp1134
Rp1135
sS'elementorumlibr02euclgoog_0293'
p1136
g2
(g6
S'\xd0\t\xbe\xe0\xed{M?'
p1137
tp1138
Rp1139
sS'elementorumlibr02euclgoog_0292'
p1140
g2
(g6
S'<\x00\x07\xd2\x9c`B?'
p1141
tp1142
Rp1143
sS'elementorumlibr02euclgoog_0068'
p1144
g2
(g6
S'S\xda\x82[E\xb6@?'
p1145
tp1146
Rp1147
sS'elementorumlibr02euclgoog_0069'
p1148
g2
(g6
S'\xccg\x12\rK\xfaG?'
p1149
tp1150
Rp1151
sS'elementorumlibr02euclgoog_0222'
p1152
g2
(g6
S'M.\xa0\xf8UFA?'
p1153
tp1154
Rp1155
sS'elementorumlibr02euclgoog_0060'
p1156
g2
(g6
S'\x97\x90u+\xa2I>?'
p1157
tp1158
Rp1159
sS'elementorumlibr02euclgoog_0061'
p1160
g2
(g6
S'l\xfc\xfb1\xe06B?'
p1161
tp1162
Rp1163
sS'elementorumlibr02euclgoog_0062'
p1164
g2
(g6
S'\xac\x88$\xb8\xef\x02D?'
p1165
tp1166
Rp1167
sS'elementorumlibr02euclgoog_0063'
p1168
g2
(g6
S')\xc6,\x1di5B?'
p1169
tp1170
Rp1171
sS'elementorumlibr02euclgoog_0064'
p1172
g2
(g6
S'\x9fW\xf2\xd7\x00cC?'
p1173
tp1174
Rp1175
sS'elementorumlibr02euclgoog_0065'
p1176
g2
(g6
S'\x15\xf1\x1d4(tE?'
p1177
tp1178
Rp1179
sS'elementorumlibr02euclgoog_0066'
p1180
g2
(g6
S'\xe0\x16oT\xd1\xb3C?'
p1181
tp1182
Rp1183
sS'elementorumlibr02euclgoog_0067'
p1184
g2
(g6
S'\xc9Dri>\x02??'
p1185
tp1186
Rp1187
sS'elementorumlibr02euclgoog_0150'
p1188
g2
(g6
S"x\xe5'\xf0u\x1d@?"
p1189
tp1190
Rp1191
sS'elementorumlibr02euclgoog_0109'
p1192
g2
(g6
S'\xb8\xd4;\xedpMG?'
p1193
tp1194
Rp1195
sS'elementorumlibr02euclgoog_0108'
p1196
g2
(g6
S'\x95C\xc2\xc0,\xa8@?'
p1197
tp1198
Rp1199
sS'elementorumlibr02euclgoog_0228'
p1200
g2
(g6
S'\x9e\xe8\xa818\xfcD?'
p1201
tp1202
Rp1203
sS'elementorumlibr02euclgoog_0259'
p1204
g2
(g6
S'r\xbd\x99j\xe4*M?'
p1205
tp1206
Rp1207
sS'elementorumlibr02euclgoog_0151'
p1208
g2
(g6
S'zR\xf9Bkm??'
p1209
tp1210
Rp1211
sS'elementorumlibr02euclgoog_0103'
p1212
g2
(g6
S'\xfbA\xccM&\xfdE?'
p1213
tp1214
Rp1215
sS'elementorumlibr02euclgoog_0102'
p1216
g2
(g6
S'<x\x9bb\x9d\xfeE?'
p1217
tp1218
Rp1219
sS'elementorumlibr02euclgoog_0101'
p1220
g2
(g6
S'\x0b\x10\x03hvUG?'
p1221
tp1222
Rp1223
sS'elementorumlibr02euclgoog_0100'
p1224
g2
(g6
S'j\xee@3z"??'
p1225
tp1226
Rp1227
sS'elementorumlibr02euclgoog_0107'
p1228
g2
(g6
S'\xd2\x80\xbd\x8247A?'
p1229
tp1230
Rp1231
sS'elementorumlibr02euclgoog_0106'
p1232
g2
(g6
S'\x99`\xce[\xc4\x86=?'
p1233
tp1234
Rp1235
sS'elementorumlibr02euclgoog_0105'
p1236
g2
(g6
S'j\xd7O:\n\xdfC?'
p1237
tp1238
Rp1239
sS'elementorumlibr02euclgoog_0104'
p1240
g2
(g6
S'k\xa7\xa8j,\x1cC?'
p1241
tp1242
Rp1243
s.