(lp0
I15
aI15
aI19
aI13
aI12
aI7
aI12
aI3
aI4
aI16
aI3
aI4
aI20
aI15
aI17
aI23
aI17
aI15
aI2
aI12
aI3
aI1
aI1
aI1
aI1
aI1
aI1
aI3
aI3
aI2
aI2
aI1
aI15
aI19
aI47
aI17
aI1
aI1
aI2
aI1
aI2
aI2
aI4
aI19
aI21
aI15
aI14
aI13
aI11
aI1
aI1
aI2
aI4
aI20
aI17
aI23
aI19
aI25
aI21
aI19
aI22
aI15
aI20
aI15
aI20
aI19
aI15
aI15
aI21
aI23
aI21
aI17
aI17
aI20
aI16
aI17
aI15
aI15
aI16
aI18
aI17
aI15
aI20
aI17
aI19
aI19
aI15
aI21
aI21
aI19
aI16
aI24
aI19
aI24
aI14
aI16
aI17
aI19
aI14
aI14
aI14
aI15
aI15
aI16
aI15
aI15
aI16
aI15
aI15
aI13
aI19
aI17
aI15
aI16
aI15
aI23
aI18
aI18
aI15
aI19
aI24
aI19
aI23
aI15
aI23
aI19
aI19
aI18
aI17
aI17
aI17
aI17
aI13
aI15
aI20
aI15
aI15
aI14
aI21
aI15
aI15
aI23
aI22
aI21
aI23
aI23
aI21
aI23
aI19
aI17
aI25
aI24
aI18
aI22
aI25
aI25
aI23
aI23
aI24
aI29
aI24
aI25
aI25
aI14
aI24
aI14
aI19
aI15
aI19
aI18
aI15
aI13
aI23
aI15
aI13
aI15
aI17
aI13
aI17
aI16
aI22
aI15
aI17
aI2
aI3
aI1
aI147
aI18
aI21
aI18
aI18
aI17
aI19
aI17
aI21
aI8
aI7
aI15
aI14
aI12
aI15
aI21
aI1
aI2
aI15
aI23
aI15
aI17
aI19
aI14
aI23
aI14
aI1
aI4
aI2
aI2
aI21
aI3
aI2
aI4
aI2
aI1
aI1
aI21
aI17
aI4
aI1
aI1
aI2
aI2
aI19
aI4
aI2
aI5
aI11
aI20
aI21
aI27
aI34
aI58
aI3
aI13
aI26
aI16
aI17
aI21
aI19
aI16
aI21
aI13
aI11
aI129
aI19
aI81
aI11
aI22
aI19
aI11
aI91
aI61
aI33
aI27
aI44
aI29
aI29
aI65
aI88
aI24
aI17
aI24
aI11
aI13
aI35
aI32
aI43
aI17
aI17
aI11
a.