(dp0
S'heiberg-diag-0255'
p1
(lp2
S'heiberg_1884_v2_1_0366.jpg'
p3
aI2430
aI3840
aI150
aI534
aI1218
aI366
asS'heiberg-diag-0254'
p4
(lp5
S'heiberg_1884_v2_1_0364.jpg'
p6
aI2430
aI3840
aI570
aI1566
aI1296
aI462
asS'heiberg-diag-0257'
p7
(lp8
S'heiberg_1884_v2_1_0368.jpg'
p9
aI2430
aI3840
aI138
aI1362
aI1050
aI498
asS'heiberg-diag-0256'
p10
(lp11
S'heiberg_1884_v2_1_0366.jpg'
p12
aI2430
aI3840
aI348
aI2370
aI1680
aI378
asS'heiberg-diag-0251'
p13
(lp14
S'heiberg_1884_v2_1_0360.jpg'
p15
aI2430
aI3840
aI150
aI2136
aI642
aI360
asS'heiberg-diag-0250'
p16
(lp17
S'heiberg_1884_v2_1_0357.jpg'
p18
aI850
aI1113
aI268
aI234
aI342
aI198
asS'heiberg-diag-0253'
p19
(lp20
S'heiberg_1884_v2_1_0362.jpg'
p21
aI2430
aI3840
aI144
aI2616
aI750
aI486
asS'heiberg-diag-0252'
p22
(lp23
S'heiberg_1884_v2_1_0362.jpg'
p24
aI2430
aI3840
aI150
aI912
aI594
aI498
asS'heiberg-diag-0259'
p25
(lp26
S'heiberg_1884_v2_1_0372.jpg'
p27
aI850
aI1113
aI138
aI180
aI198
aI98
asS'heiberg-diag-0258'
p28
(lp29
S'heiberg_1884_v2_1_0370.jpg'
p30
aI2430
aI3840
aI156
aI1218
aI618
aI444
asS'heiberg-diag-0158'
p31
(lp32
S'heiberg_1884_v2_1_0122.jpg'
p33
aI850
aI1113
aI138
aI664
aI188
aI188
asS'heiberg-diag-0159'
p34
(lp35
S'heiberg_1884_v2_1_0126.jpg'
p36
aI850
aI1113
aI160
aI274
aI178
aI202
asS'heiberg-diag-0156'
p37
(lp38
S'heiberg_1884_v2_1_0116.jpg'
p39
aI2430
aI3840
aI192
aI1404
aI780
aI714
asS'heiberg-diag-0157'
p40
(lp41
S'heiberg_1884_v2_1_0120.jpg'
p42
aI850
aI1113
aI136
aI268
aI202
aI184
asS'heiberg-diag-0154'
p43
(lp44
S'heiberg_1884_v2_1_0110.jpg'
p45
aI850
aI1113
aI174
aI164
aI246
aI154
asS'heiberg-diag-0155'
p46
(lp47
S'heiberg_1884_v2_1_0114.jpg'
p48
aI850
aI1113
aI155
aI147
aI238
aI180
asS'heiberg-diag-0152'
p49
(lp50
S'heiberg_1884_v2_1_0102.jpg'
p51
aI2430
aI3840
aI90
aI378
aI1098
aI612
asS'heiberg-diag-0153'
p52
(lp53
S'heiberg_1884_v2_1_0106.jpg'
p54
aI2430
aI3840
aI186
aI468
aI840
aI600
asS'heiberg-diag-0150'
p55
(lp56
S'heiberg_1884_v2_1_0096.jpg'
p57
aI2430
aI3840
aI144
aI228
aI894
aI546
asS'heiberg-diag-0151'
p58
(lp59
S'heiberg_1884_v2_1_0098.jpg'
p60
aI2430
aI3840
aI126
aI222
aI702
aI570
asS'heiberg-diag-0283'
p61
(lp62
S'heiberg_1884_v2_1_0424.jpg'
p63
aI850
aI1113
aI282
aI430
aI268
aI62
asS'heiberg-diag-0246'
p64
(lp65
S'heiberg_1884_v2_1_0344.jpg'
p66
aI2430
aI3840
aI150
aI1452
aI750
aI432
asS'heiberg-diag-0127'
p67
(lp68
S'heiberg_1884_v2_1_0038.jpg'
p69
aI2430
aI3840
aI144
aI978
aI1098
aI594
asS'heiberg-diag-0244'
p70
(lp71
S'heiberg_1884_v2_1_0340.jpg'
p72
aI850
aI1113
aI152
aI594
aI222
aI194
asS'heiberg-diag-0245'
p73
(lp74
S'heiberg_1884_v2_1_0342.jpg'
p75
aI850
aI1113
aI168
aI646
aI160
aI118
asS'heiberg-diag-0242'
p76
(lp77
S'heiberg_1884_v2_1_0336.jpg'
p78
aI2430
aI3840
aI264
aI2148
aI1764
aI918
asS'heiberg-diag-0243'
p79
(lp80
S'heiberg_1884_v2_1_0338.jpg'
p81
aI850
aI1113
aI144
aI598
aI210
aI112
asS'heiberg-diag-0240'
p82
(lp83
S'heiberg_1884_v2_1_0330.jpg'
p84
aI850
aI1113
aI306
aI664
aI214
aI124
asS'heiberg-diag-0241'
p85
(lp86
S'heiberg_1884_v2_1_0332.jpg'
p87
aI2430
aI3840
aI150
aI1992
aI1320
aI540
asS'heiberg-diag-0248'
p88
(lp89
S'heiberg_1884_v2_1_0348.jpg'
p90
aI2430
aI3840
aI396
aI1764
aI1626
aI954
asS'heiberg-diag-0249'
p91
(lp92
S'heiberg_1884_v2_1_0354.jpg'
p93
aI850
aI1113
aI154
aI472
aI252
aI168
asS'heiberg-diag-0281'
p94
(lp95
S'heiberg_1884_v2_1_0422.jpg'
p96
aI850
aI1113
aI304
aI586
aI220
aI58
asS'heiberg-diag-0197'
p97
(lp98
S'heiberg_1884_v2_1_0244.jpg'
p99
aI2430
aI3840
aI180
aI264
aI324
aI702
asS'heiberg-diag-0163'
p100
(lp101
S'heiberg_1884_v2_1_0136.jpg'
p102
aI2430
aI3840
aI174
aI564
aI960
aI1044
asS'heiberg-diag-0162'
p103
(lp104
S'heiberg_1884_v2_1_0134.jpg'
p105
aI2430
aI3840
aI174
aI492
aI918
aI792
asS'heiberg-diag-0161'
p106
(lp107
S'heiberg_1884_v2_1_0132.jpg'
p108
aI2430
aI3840
aI156
aI1026
aI930
aI576
asS'heiberg-diag-0160'
p109
(lp110
S'heiberg_1884_v2_1_0128.jpg'
p111
aI850
aI1113
aI156
aI358
aI258
aI156
asS'heiberg-diag-0167'
p112
(lp113
S'heiberg_1884_v2_1_0144.jpg'
p114
aI850
aI1113
aI156
aI144
aI252
aI200
asS'heiberg-diag-0166'
p115
(lp116
S'heiberg_1884_v2_1_0140.jpg'
p117
aI850
aI1113
aI156
aI260
aI212
aI212
asS'heiberg-diag-0165'
p118
(lp119
S'heiberg_1884_v2_1_0138.jpg'
p120
aI2430
aI3840
aI108
aI1398
aI846
aI558
asS'heiberg-diag-0164'
p121
(lp122
S'heiberg_1884_v2_1_0136.jpg'
p123
aI2430
aI3840
aI186
aI2454
aI798
aI666
asS'heiberg-diag-0169'
p124
(lp125
S'heiberg_1884_v2_1_0150.jpg'
p126
aI850
aI1113
aI286
aI370
aI280
aI88
asS'heiberg-diag-0168'
p127
(lp128
S'heiberg_1884_v2_1_0146.jpg'
p129
aI850
aI1113
aI218
aI446
aI406
aI146
asS'heiberg-diag-0279'
p130
(lp131
S'heiberg_1884_v2_1_0420.jpg'
p132
aI850
aI1113
aI300
aI716
aI224
aI64
asS'heiberg-diag-0278'
p133
(lp134
S'heiberg_1884_v2_1_0420.jpg'
p135
aI850
aI1113
aI254
aI316
aI316
aI62
asS'heiberg-diag-0273'
p136
(lp137
S'heiberg_1884_v2_1_0408.jpg'
p138
aI2430
aI3840
aI144
aI798
aI1020
aI408
asS'heiberg-diag-0272'
p139
(lp140
S'heiberg_1884_v2_1_0406.jpg'
p141
aI850
aI1113
aI160
aI502
aI132
aI86
asS'heiberg-diag-0271'
p142
(lp143
S'heiberg_1884_v2_1_0402.jpg'
p144
aI850
aI1113
aI150
aI600
aI222
aI104
asS'heiberg-diag-0270'
p145
(lp146
S'heiberg_1884_v2_1_0400.jpg'
p147
aI850
aI1113
aI142
aI592
aI228
aI96
asS'heiberg-diag-0277'
p148
(lp149
S'heiberg_1884_v2_1_0418.jpg'
p150
aI850
aI1113
aI262
aI664
aI324
aI60
asS'heiberg-diag-0276'
p151
(lp152
S'heiberg_1884_v2_1_0416.jpg'
p153
aI850
aI1113
aI286
aI696
aI296
aI124
asS'heiberg-diag-0275'
p154
(lp155
S'heiberg_1884_v2_1_0414.jpg'
p156
aI850
aI1113
aI156
aI210
aI192
aI150
asS'heiberg-diag-0274'
p157
(lp158
S'heiberg_1884_v2_1_0410.jpg'
p159
aI850
aI1113
aI142
aI328
aI288
aI82
asS'heiberg-diag-0174'
p160
(lp161
S'heiberg_1884_v2_1_0170.jpg'
p162
aI850
aI1113
aI148
aI144
aI176
aI170
asS'heiberg-diag-0175'
p163
(lp164
S'heiberg_1884_v2_1_0170.jpg'
p165
aI850
aI1113
aI144
aI372
aI98
aI108
asS'heiberg-diag-0176'
p166
(lp167
S'heiberg_1884_v2_1_0174.jpg'
p168
aI2430
aI3840
aI192
aI618
aI894
aI672
asS'heiberg-diag-0177'
p169
(lp170
S'heiberg_1884_v2_1_0178.jpg'
p171
aI850
aI1113
aI162
aI202
aI168
aI140
asS'heiberg-diag-0170'
p172
(lp173
S'heiberg_1884_v2_1_0152.jpg'
p174
aI850
aI1113
aI302
aI556
aI244
aI126
asS'heiberg-diag-0171'
p175
(lp176
S'heiberg_1884_v2_1_0156.jpg'
p177
aI850
aI1113
aI298
aI196
aI234
aI144
asS'heiberg-diag-0172'
p178
(lp179
S'heiberg_1884_v2_1_0160.jpg'
p180
aI850
aI1113
aI160
aI142
aI210
aI160
asS'heiberg-diag-0173'
p181
(lp182
S'heiberg_1884_v2_1_0168.jpg'
p183
aI2430
aI3840
aI138
aI612
aI648
aI720
asS'heiberg-diag-0178'
p184
(lp185
S'heiberg_1884_v2_1_0182.jpg'
p186
aI850
aI1113
aI224
aI194
aI370
aI156
asS'heiberg-diag-0179'
p187
(lp188
S'heiberg_1884_v2_1_0184.jpg'
p189
aI2430
aI3840
aI168
aI1614
aI1008
aI654
asS'heiberg-diag-0268'
p190
(lp191
S'heiberg_1884_v2_1_0390.jpg'
p192
aI850
aI1113
aI142
aI728
aI286
aI136
asS'heiberg-diag-0269'
p193
(lp194
S'heiberg_1884_v2_1_0393.jpg'
p195
aI850
aI1113
aI142
aI634
aI302
aI118
asS'heiberg-diag-0264'
p196
(lp197
S'heiberg_1884_v2_1_0380.jpg'
p198
aI2430
aI3840
aI138
aI864
aI906
aI702
asS'heiberg-diag-0265'
p199
(lp200
S'heiberg_1884_v2_1_0381.jpg'
p201
aI850
aI1113
aI256
aI654
aI366
aI164
asS'heiberg-diag-0266'
p202
(lp203
S'heiberg_1884_v2_1_0386.jpg'
p204
aI850
aI1113
aI150
aI318
aI254
aI170
asS'heiberg-diag-0267'
p205
(lp206
S'heiberg_1884_v2_1_0390.jpg'
p207
aI850
aI1113
aI144
aI192
aI194
aI142
asS'heiberg-diag-0260'
p208
(lp209
S'heiberg_1884_v2_1_0374.jpg'
p210
aI2430
aI3840
aI144
aI522
aI642
aI366
asS'heiberg-diag-0261'
p211
(lp212
S'heiberg_1884_v2_1_0374.jpg'
p213
aI2430
aI3840
aI144
aI2022
aI816
aI444
asS'heiberg-diag-0262'
p214
(lp215
S'heiberg_1884_v2_1_0376.jpg'
p216
aI2430
aI3840
aI138
aI1470
aI648
aI360
asS'heiberg-diag-0263'
p217
(lp218
S'heiberg_1884_v2_1_0378.jpg'
p219
aI2430
aI3840
aI102
aI1104
aI744
aI462
asS'heiberg-diag-0189'
p220
(lp221
S'heiberg_1884_v2_1_0222.jpg'
p222
aI2430
aI3840
aI186
aI2130
aI870
aI558
asS'heiberg-diag-0188'
p223
(lp224
S'heiberg_1884_v2_1_0220.jpg'
p225
aI2430
aI3840
aI168
aI1008
aI468
aI582
asS'heiberg-diag-0181'
p226
(lp227
S'heiberg_1884_v2_1_0189.jpg'
p228
aI2430
aI3840
aI450
aI1770
aI1602
aI864
asS'heiberg-diag-0180'
p229
(lp230
S'heiberg_1884_v2_1_0188.jpg'
p231
aI2430
aI3840
aI174
aI312
aI738
aI480
asS'heiberg-diag-0183'
p232
(lp233
S'heiberg_1884_v2_1_0198.jpg'
p234
aI2430
aI3840
aI168
aI1386
aI552
aI738
asS'heiberg-diag-0182'
p235
(lp236
S'heiberg_1884_v2_1_0196.jpg'
p237
aI850
aI1113
aI218
aI228
aI386
aI244
asS'heiberg-diag-0185'
p238
(lp239
S'heiberg_1884_v2_1_0204.jpg'
p240
aI2430
aI3840
aI174
aI318
aI678
aI570
asS'heiberg-diag-0184'
p241
(lp242
S'heiberg_1884_v2_1_0200.jpg'
p243
aI2430
aI3840
aI174
aI1986
aI852
aI714
asS'heiberg-diag-0187'
p244
(lp245
S'heiberg_1884_v2_1_0216.jpg'
p246
aI2430
aI3840
aI150
aI1848
aI456
aI786
asS'heiberg-diag-0186'
p247
(lp248
S'heiberg_1884_v2_1_0206.jpg'
p249
aI2430
aI3840
aI462
aI1494
aI1458
aI780
asS'heiberg-diag-0291'
p250
(lp251
S'heiberg_1884_v2_1_0434.jpg'
p252
aI2430
aI3840
aI540
aI774
aI1332
aI606
asS'heiberg-diag-0290'
p253
(lp254
S'heiberg_1884_v2_1_0432.jpg'
p255
aI2430
aI3840
aI138
aI924
aI570
aI186
asS'heiberg-diag-0293'
p256
(lp257
S'heiberg_1884_v2_1_0436.jpg'
p258
aI2430
aI3840
aI150
aI1776
aI2130
aI534
asS'heiberg-diag-0292'
p259
(lp260
S'heiberg_1884_v2_1_0436.jpg'
p261
aI2430
aI3840
aI138
aI990
aI702
aI390
asS'heiberg-diag-0295'
p262
(lp263
S'heiberg_1884_v2_1_0450.jpg'
p264
aI2430
aI3840
aI138
aI852
aI792
aI636
asS'heiberg-diag-0294'
p265
(lp266
S'heiberg_1884_v2_1_0448.jpg'
p267
aI2430
aI3840
aI450
aI816
aI1512
aI780
asS'heiberg-diag-0297'
p268
(lp269
S'heiberg_1884_v2_1_0458.jpg'
p270
aI2430
aI3840
aI684
aI570
aI1008
aI348
asS'heiberg-diag-0296'
p271
(lp272
S'heiberg_1884_v2_1_0450.jpg'
p273
aI2430
aI3840
aI864
aI2322
aI666
aI222
asS'heiberg-diag-0299'
p274
(lp275
S'heiberg_1884_v2_1_0460.jpg'
p276
aI2430
aI3840
aI402
aI2076
aI1602
aI162
asS'heiberg-diag-0298'
p277
(lp278
S'heiberg_1884_v2_1_0460.jpg'
p279
aI2430
aI3840
aI162
aI414
aI744
aI666
asS'heiberg-diag-0219'
p280
(lp281
S'heiberg_1884_v2_1_0280.jpg'
p282
aI850
aI1113
aI136
aI500
aI46
aI114
asS'heiberg-diag-0218'
p283
(lp284
S'heiberg_1884_v2_1_0278.jpg'
p285
aI850
aI1113
aI142
aI542
aI160
aI96
asS'heiberg-diag-0198'
p286
(lp287
S'heiberg_1884_v2_1_0244.jpg'
p288
aI2430
aI3840
aI162
aI1464
aI612
aI666
asS'heiberg-diag-0199'
p289
(lp290
S'heiberg_1884_v2_1_0246.jpg'
p291
aI2430
aI3840
aI150
aI618
aI474
aI714
asS'heiberg-diag-0192'
p292
(lp293
S'heiberg_1884_v2_1_0232.jpg'
p294
aI2430
aI3840
aI132
aI840
aI618
aI570
asS'heiberg-diag-0193'
p295
(lp296
S'heiberg_1884_v2_1_0234.jpg'
p297
aI2430
aI3840
aI180
aI648
aI1284
aI336
asS'heiberg-diag-0213'
p298
(lp299
S'heiberg_1884_v2_1_0270.jpg'
p300
aI2430
aI3840
aI624
aI642
aI1182
aI480
asS'heiberg-diag-0191'
p301
(lp302
S'heiberg_1884_v2_1_0228.jpg'
p303
aI2430
aI3840
aI138
aI2454
aI630
aI522
asS'heiberg-diag-0196'
p304
(lp305
S'heiberg_1884_v2_1_0240.jpg'
p306
aI850
aI1113
aI153
aI624
aI157
aI200
asS'heiberg-diag-0214'
p307
(lp308
S'heiberg_1884_v2_1_0272.jpg'
p309
aI850
aI1113
aI146
aI260
aI172
aI164
asS'heiberg-diag-0194'
p310
(lp311
S'heiberg_1884_v2_1_0236.jpg'
p312
aI2430
aI3840
aI156
aI942
aI786
aI492
asS'heiberg-diag-0195'
p313
(lp314
S'heiberg_1884_v2_1_0238.jpg'
p315
aI2430
aI3840
aI136
aI1856
aI632
aI708
asS'heiberg-diag-0211'
p316
(lp317
S'heiberg_1884_v2_1_0266.jpg'
p318
aI2430
aI3840
aI198
aI756
aI456
aI666
asS'heiberg-diag-0210'
p319
(lp320
S'heiberg_1884_v2_1_0264.jpg'
p321
aI2430
aI3840
aI144
aI1494
aI486
aI690
asS'heiberg-diag-0190'
p322
(lp323
S'heiberg_1884_v2_1_0228.jpg'
p324
aI2430
aI3840
aI156
aI390
aI456
aI744
asS'heiberg-diag-0282'
p325
(lp326
S'heiberg_1884_v2_1_0422.jpg'
p327
aI850
aI1113
aI314
aI864
aI200
aI56
asS'heiberg-diag-0126'
p328
(lp329
S'heiberg_1884_v2_1_0036.jpg'
p330
aI2430
aI3840
aI162
aI510
aI1140
aI360
asS'heiberg-diag-0280'
p331
(lp332
S'heiberg_1884_v2_1_0422.jpg'
p333
aI850
aI1113
aI332
aI274
aI172
aI56
asS'heiberg-diag-0212'
p334
(lp335
S'heiberg_1884_v2_1_0268.jpg'
p336
aI2430
aI3840
aI192
aI1290
aI306
aI618
asS'heiberg-diag-0286'
p337
(lp338
S'heiberg_1884_v2_1_0426.jpg'
p339
aI850
aI1113
aI140
aI690
aI88
aI164
asS'heiberg-diag-0287'
p340
(lp341
S'heiberg_1884_v2_1_0428.jpg'
p342
aI2430
aI3840
aI138
aI1368
aI648
aI450
asS'heiberg-diag-0284'
p343
(lp344
S'heiberg_1884_v2_1_0424.jpg'
p345
aI850
aI1113
aI150
aI686
aI166
aI94
asS'heiberg-diag-0285'
p346
(lp347
S'heiberg_1884_v2_1_0426.jpg'
p348
aI850
aI1113
aI142
aI268
aI194
aI108
asS'heiberg-diag-0215'
p349
(lp350
S'heiberg_1884_v2_1_0274.jpg'
p351
aI2430
aI3840
aI156
aI708
aI810
aI336
asS'heiberg-diag-0288'
p352
(lp353
S'heiberg_1884_v2_1_0430.jpg'
p354
aI2430
aI3840
aI144
aI444
aI1014
aI486
asS'heiberg-diag-0289'
p355
(lp356
S'heiberg_1884_v2_1_0430.jpg'
p357
aI2430
aI3840
aI912
aI2400
aI540
aI210
asS'heiberg-diag-0129'
p358
(lp359
S'heiberg_1884_v2_1_0042.jpg'
p360
aI2430
aI3840
aI168
aI2004
aI1296
aI1326
asS'heiberg-diag-0128'
p361
(lp362
S'heiberg_1884_v2_1_0040.jpg'
p363
aI2430
aI3840
aI132
aI936
aI1050
aI858
asS'heiberg-diag-0216'
p364
(lp365
S'heiberg_1884_v2_1_0276.jpg'
p366
aI2430
aI3840
aI168
aI504
aI654
aI408
asS'heiberg-diag-0208'
p367
(lp368
S'heiberg_1884_v2_1_0260.jpg'
p369
aI850
aI1113
aI150
aI468
aI106
aI234
asS'heiberg-diag-0209'
p370
(lp371
S'heiberg_1884_v2_1_0262.jpg'
p372
aI2430
aI3840
aI96
aI2094
aI618
aI420
asS'heiberg-diag-0217'
p373
(lp374
S'heiberg_1884_v2_1_0276.jpg'
p375
aI2430
aI3840
aI156
aI2148
aI810
aI564
asS'heiberg-diag-0203'
p376
(lp377
S'heiberg_1884_v2_1_0250.jpg'
p378
aI2430
aI3840
aI174
aI1614
aI864
aI564
asS'heiberg-diag-0200'
p379
(lp380
S'heiberg_1884_v2_1_0246.jpg'
p381
aI2430
aI3840
aI648
aI2196
aI1158
aI474
asS'heiberg-diag-0201'
p382
(lp383
S'heiberg_1884_v2_1_0248.jpg'
p384
aI2430
aI3840
aI150
aI1344
aI1122
aI504
asS'heiberg-diag-0206'
p385
(lp386
S'heiberg_1884_v2_1_0254.jpg'
p387
aI2430
aI3840
aI126
aI2178
aI762
aI870
asS'heiberg-diag-0207'
p388
(lp389
S'heiberg_1884_v2_1_0258.jpg'
p390
aI2430
aI3840
aI126
aI756
aI336
aI1458
asS'heiberg-diag-0204'
p391
(lp392
S'heiberg_1884_v2_1_0252.jpg'
p393
aI2430
aI3840
aI588
aI1248
aI1290
aI522
asS'heiberg-diag-0205'
p394
(lp395
S'heiberg_1884_v2_1_0254.jpg'
p396
aI2430
aI3840
aI186
aI492
aI1026
aI504
asS'heiberg-diag-0247'
p397
(lp398
S'heiberg_1884_v2_1_0346.jpg'
p399
aI2430
aI3840
aI414
aI1344
aI1572
aI492
asS'heiberg-diag-0138'
p400
(lp401
S'heiberg_1884_v2_1_0064.jpg'
p402
aI2430
aI3840
aI474
aI2106
aI1500
aI576
asS'heiberg-diag-0139'
p403
(lp404
S'heiberg_1884_v2_1_0066.jpg'
p405
aI2430
aI3840
aI144
aI2772
aI2124
aI216
asS'heiberg-diag-0130'
p406
(lp407
S'heiberg_1884_v2_1_0046.jpg'
p408
aI2430
aI3840
aI156
aI372
aI1002
aI330
asS'heiberg-diag-0131'
p409
(lp410
S'heiberg_1884_v2_1_0048.jpg'
p411
aI850
aI1113
aI147
aI428
aI154
aI131
asS'heiberg-diag-0132'
p412
(lp413
S'heiberg_1884_v2_1_0050.jpg'
p414
aI2430
aI3840
aI150
aI1464
aI1170
aI360
asS'heiberg-diag-0133'
p415
(lp416
S'heiberg_1884_v2_1_0054.jpg'
p417
aI2430
aI3840
aI168
aI348
aI882
aI1020
asS'heiberg-diag-0134'
p418
(lp419
S'heiberg_1884_v2_1_0056.jpg'
p420
aI850
aI1113
aI152
aI458
aI222
aI246
asS'heiberg-diag-0135'
p421
(lp422
S'heiberg_1884_v2_1_0058.jpg'
p423
aI2430
aI3840
aI342
aI1764
aI846
aI246
asS'heiberg-diag-0136'
p424
(lp425
S'heiberg_1884_v2_1_0060.jpg'
p426
aI2430
aI3840
aI168
aI738
aI918
aI234
asS'heiberg-diag-0137'
p427
(lp428
S'heiberg_1884_v2_1_0062.jpg'
p429
aI2430
aI3840
aI156
aI996
aI1422
aI474
asS'heiberg-diag-0239'
p430
(lp431
S'heiberg_1884_v2_1_0326.jpg'
p432
aI2430
aI3840
aI144
aI1968
aI924
aI870
asS'heiberg-diag-0238'
p433
(lp434
S'heiberg_1884_v2_1_0324.jpg'
p435
aI2430
aI3840
aI132
aI432
aI1344
aI1068
asS'heiberg-diag-0237'
p436
(lp437
S'heiberg_1884_v2_1_0320.jpg'
p438
aI850
aI1113
aI164
aI140
aI308
aI230
asS'heiberg-diag-0236'
p439
(lp440
S'heiberg_1884_v2_1_0318.jpg'
p441
aI850
aI1113
aI168
aI416
aI146
aI114
asS'heiberg-diag-0235'
p442
(lp443
S'heiberg_1884_v2_1_0316.jpg'
p444
aI2430
aI3840
aI156
aI1416
aI1098
aI954
asS'heiberg-diag-0234'
p445
(lp446
S'heiberg_1884_v2_1_0314.jpg'
p447
aI2430
aI3840
aI126
aI996
aI990
aI900
asS'heiberg-diag-0233'
p448
(lp449
S'heiberg_1884_v2_1_0310.jpg'
p450
aI2430
aI3840
aI402
aI1302
aI1596
aI870
asS'heiberg-diag-0232'
p451
(lp452
S'heiberg_1884_v2_1_0308.jpg'
p453
aI2430
aI3840
aI480
aI666
aI1554
aI900
asS'heiberg-diag-0231'
p454
(lp455
S'heiberg_1884_v2_1_0304.jpg'
p456
aI2430
aI3840
aI168
aI2064
aI1188
aI822
asS'heiberg-diag-0230'
p457
(lp458
S'heiberg_1884_v2_1_0300.jpg'
p459
aI2430
aI3840
aI540
aI1794
aI1314
aI714
asS'heiberg-diag-0220'
p460
(lp461
S'heiberg_1884_v2_1_0282.jpg'
p462
aI2430
aI3840
aI162
aI486
aI630
aI786
asS'heiberg-diag-0221'
p463
(lp464
S'heiberg_1884_v2_1_0284.jpg'
p465
aI2430
aI3840
aI822
aI2340
aI798
aI468
asS'heiberg-diag-0222'
p466
(lp467
S'heiberg_1884_v2_1_0286.jpg'
p468
aI850
aI1113
aI164
aI512
aI192
aI168
asS'heiberg-diag-0223'
p469
(lp470
S'heiberg_1884_v2_1_0288.jpg'
p471
aI850
aI1113
aI162
aI584
aI216
aI108
asS'heiberg-diag-0224'
p472
(lp473
S'heiberg_1884_v2_1_0290.jpg'
p474
aI850
aI1113
aI166
aI368
aI208
aI152
asS'heiberg-diag-0225'
p475
(lp476
S'heiberg_1884_v2_1_0292.jpg'
p477
aI850
aI1113
aI152
aI210
aI166
aI176
asS'heiberg-diag-0226'
p478
(lp479
S'heiberg_1884_v2_1_0294.jpg'
p480
aI2430
aI3840
aI180
aI504
aI594
aI480
asS'heiberg-diag-0227'
p481
(lp482
S'heiberg_1884_v2_1_0294.jpg'
p483
aI2430
aI3840
aI168
aI2328
aI804
aI474
asS'heiberg-diag-0228'
p484
(lp485
S'heiberg_1884_v2_1_0296.jpg'
p486
aI2430
aI3840
aI168
aI1014
aI858
aI630
asS'heiberg-diag-0229'
p487
(lp488
S'heiberg_1884_v2_1_0298.jpg'
p489
aI2430
aI3840
aI546
aI1668
aI1272
aI462
asS'heiberg-diag-0149'
p490
(lp491
S'heiberg_1884_v2_1_0092.jpg'
p492
aI2430
aI3840
aI150
aI372
aI1272
aI492
asS'heiberg-diag-0148'
p493
(lp494
S'heiberg_1884_v2_1_0088.jpg'
p495
aI2430
aI3840
aI402
aI2292
aI1590
aI438
asS'heiberg-diag-0145'
p496
(lp497
S'heiberg_1884_v2_1_0082.jpg'
p498
aI2430
aI3840
aI606
aI1068
aI1044
aI378
asS'heiberg-diag-0144'
p499
(lp500
S'heiberg_1884_v2_1_0080.jpg'
p501
aI2430
aI3840
aI168
aI654
aI900
aI378
asS'heiberg-diag-0147'
p502
(lp503
S'heiberg_1884_v2_1_0086.jpg'
p504
aI2430
aI3840
aI150
aI2298
aI990
aI390
asS'heiberg-diag-0146'
p505
(lp506
S'heiberg_1884_v2_1_0084.jpg'
p507
aI2430
aI3840
aI150
aI1566
aI858
aI372
asS'heiberg-diag-0141'
p508
(lp509
S'heiberg_1884_v2_1_0070.jpg'
p510
aI2430
aI3840
aI162
aI1218
aI834
aI204
asS'heiberg-diag-0140'
p511
(lp512
S'heiberg_1884_v2_1_0068.jpg'
p513
aI2430
aI3840
aI144
aI360
aI798
aI510
asS'heiberg-diag-0143'
p514
(lp515
S'heiberg_1884_v2_1_0074.jpg'
p516
aI2430
aI3840
aI144
aI726
aI996
aI474
asS'heiberg-diag-0142'
p517
(lp518
S'heiberg_1884_v2_1_0072.jpg'
p519
aI2430
aI3840
aI150
aI1050
aI822
aI360
asS'heiberg-diag-0300'
p520
(lp521
S'heiberg_1884_v2_1_0464.jpg'
p522
aI2430
aI3840
aI522
aI1836
aI1386
aI216
as.