(dp0
S'24'
p1
(lp2
S'grynaeus_1533_v1_1_015.jpg'
p3
aI1000
aI1562
aI405
aI781
aI140
aI114
asS'25'
p4
(lp5
S'grynaeus_1533_v1_1_015.jpg'
p6
aI1000
aI1562
aI539
aI781
aI101
aI100
asS'26'
p7
(lp8
S'grynaeus_1533_v1_1_015.jpg'
p9
aI1000
aI1562
aI625
aI783
aI145
aI102
asS'27'
p10
(lp11
S'grynaeus_1533_v1_1_015.jpg'
p12
aI1000
aI1562
aI760
aI783
aI110
aI111
asS'20'
p13
(lp14
S'grynaeus_1533_v1_1_015.jpg'
p15
aI1000
aI1562
aI596
aI523
aI101
aI137
asS'21'
p16
(lp17
S'grynaeus_1533_v1_1_015.jpg'
p18
aI1000
aI1562
aI699
aI507
aI104
aI156
asS'22'
p19
(lp20
S'grynaeus_1533_v1_1_015.jpg'
p21
aI1000
aI1562
aI742
aI508
aI144
aI159
asS'23'
p22
(lp23
S'grynaeus_1533_v1_1_015.jpg'
p24
aI1000
aI1562
aI268
aI779
aI137
aI152
asS'28'
p25
(lp26
S'grynaeus_1533_v1_1_015.jpg'
p27
aI1000
aI1562
aI487
aI949
aI224
aI93
asS'29'
p28
(lp29
S'grynaeus_1533_v1_1_015.jpg'
p30
aI1000
aI1562
aI484
aI1034
aI229
aI144
asS'4'
p31
(lp32
S'grynaeus_1533_v1_1_014.jpg'
p33
aI1000
aI1573
aI171
aI701
aI104
aI128
asS'8'
p34
(lp35
S'grynaeus_1533_v1_1_014.jpg'
p36
aI1000
aI1573
aI186
aI955
aI137
aI133
asS'59'
p37
(lp38
S'grynaeus_1533_v1_1_026.jpg'
p39
aI1000
aI1562
aI524
aI420
aI215
aI140
asS'58'
p40
(lp41
S'grynaeus_1533_v1_1_025.jpg'
p42
aI1000
aI1562
aI699
aI980
aI183
aI187
asS'55'
p43
(lp44
S'grynaeus_1533_v1_1_024.jpg'
p45
aI1000
aI1562
aI513
aI515
aI241
aI198
asS'54'
p46
(lp47
S'grynaeus_1533_v1_1_023.jpg'
p48
aI1000
aI1562
aI673
aI1003
aI199
aI229
asS'57'
p49
(lp50
S'grynaeus_1533_v1_1_025.jpg'
p51
aI1000
aI1562
aI657
aI491
aI224
aI187
asS'56'
p52
(lp53
S'grynaeus_1533_v1_1_024.jpg'
p54
aI1000
aI1562
aI492
aI890
aI270
aI191
asS'51'
p55
(lp56
S'grynaeus_1533_v1_1_022.jpg'
p57
aI1000
aI1562
aI586
aI807
aI168
aI211
asS'50'
p58
(lp59
S'grynaeus_1533_v1_1_022.jpg'
p60
aI1000
aI1562
aI611
aI663
aI145
aI122
asS'53'
p61
(lp62
S'grynaeus_1533_v1_1_023.jpg'
p63
aI1000
aI1562
aI576
aI597
aI307
aI234
asS'52'
p64
(lp65
S'grynaeus_1533_v1_1_023.jpg'
p66
aI1000
aI1562
aI750
aI303
aI138
aI209
asS'88'
p67
(lp68
S'grynaeus_1533_v1_1_038.jpg'
p69
aI1000
aI1562
aI535
aI977
aI209
aI169
asS'89'
p70
(lp71
S'grynaeus_1533_v1_1_039.jpg'
p72
aI1000
aI1562
aI651
aI905
aI246
aI194
asS'82'
p73
(lp74
S'grynaeus_1533_v1_1_035.jpg'
p75
aI1000
aI1562
aI706
aI279
aI169
aI187
asS'83'
p76
(lp77
S'grynaeus_1533_v1_1_035.jpg'
p78
aI1000
aI1562
aI666
aI736
aI206
aI210
asS'80'
p79
(lp80
S'grynaeus_1533_v1_1_034.jpg'
p81
aI1000
aI1562
aI541
aI631
aI203
aI204
asS'81'
p82
(lp83
S'grynaeus_1533_v1_1_034.jpg'
p84
aI1000
aI1562
aI621
aI977
aI126
aI188
asS'86'
p85
(lp86
S'grynaeus_1533_v1_1_037.jpg'
p87
aI1000
aI1562
aI717
aI730
aI187
aI199
asS'87'
p88
(lp89
S'grynaeus_1533_v1_1_038.jpg'
p90
aI1000
aI1562
aI496
aI356
aI245
aI274
asS'84'
p91
(lp92
S'grynaeus_1533_v1_1_036.jpg'
p93
aI1000
aI1562
aI486
aI756
aI251
aI203
asS'85'
p94
(lp95
S'grynaeus_1533_v1_1_037.jpg'
p96
aI1000
aI1562
aI691
aI223
aI208
aI200
asS'3'
p97
(lp98
S'grynaeus_1533_v1_1_014.jpg'
p99
aI1000
aI1573
aI369
aI389
aI438
aI120
asS'7'
p100
(lp101
S'grynaeus_1533_v1_1_014.jpg'
p102
aI1000
aI1573
aI503
aI679
aI327
aI136
asS'102'
p103
(lp104
S'grynaeus_1533_v1_1_043.jpg'
p105
aI1000
aI1562
aI733
aI667
aI154
aI238
asS'103'
p106
(lp107
S'grynaeus_1533_v1_1_043.jpg'
p108
aI1000
aI1562
aI721
aI942
aI175
aI251
asS'100'
p109
(lp110
S'grynaeus_1533_v1_1_042.jpg'
p111
aI1000
aI1562
aI575
aI1067
aI170
aI91
asS'101'
p112
(lp113
S'grynaeus_1533_v1_1_043.jpg'
p114
aI1000
aI1562
aI703
aI294
aI183
aI249
asS'106'
p115
(lp116
S'grynaeus_1533_v1_1_044.jpg'
p117
aI1000
aI1562
aI538
aI951
aI208
aI231
asS'104'
p118
(lp119
S'grynaeus_1533_v1_1_044.jpg'
p120
aI1000
aI1562
aI549
aI436
aI174
aI213
asS'105'
p121
(lp122
S'grynaeus_1533_v1_1_044.jpg'
p123
aI1000
aI1562
aI537
aI734
aI191
aI207
asS'39'
p124
(lp125
S'grynaeus_1533_v1_1_019.jpg'
p126
aI1000
aI1562
aI692
aI619
aI188
aI253
asS'38'
p127
(lp128
S'grynaeus_1533_v1_1_019.jpg'
p129
aI1000
aI1562
aI493
aI360
aI381
aI209
asS'33'
p130
(lp131
S'grynaeus_1533_v1_1_017.jpg'
p132
aI1000
aI1562
aI729
aI208
aI151
aI239
asS'32'
p133
(lp134
S'grynaeus_1533_v1_1_016.jpg'
p135
aI1000
aI1562
aI544
aI949
aI226
aI272
asS'31'
p136
(lp137
S'grynaeus_1533_v1_1_016.jpg'
p138
aI1000
aI1562
aI519
aI613
aI240
aI173
asS'30'
p139
(lp140
S'grynaeus_1533_v1_1_015.jpg'
p141
aI1000
aI1562
aI705
aI949
aI172
aI190
asS'37'
p142
(lp143
S'grynaeus_1533_v1_1_018.jpg'
p144
aI1000
aI1562
aI553
aI978
aI219
aI201
asS'36'
p145
(lp146
S'grynaeus_1533_v1_1_018.jpg'
p147
aI1000
aI1562
aI575
aI717
aI182
aI226
asS'35'
p148
(lp149
S'grynaeus_1533_v1_1_018.jpg'
p150
aI1000
aI1562
aI503
aI254
aI255
aI242
asS'34'
p151
(lp152
S'grynaeus_1533_v1_1_017.jpg'
p153
aI1000
aI1562
aI621
aI787
aI242
aI203
asS'60'
p154
(lp155
S'grynaeus_1533_v1_1_026.jpg'
p156
aI1000
aI1562
aI547
aI780
aI203
aI167
asS'61'
p157
(lp158
S'grynaeus_1533_v1_1_026.jpg'
p159
aI1000
aI1562
aI547
aI1055
aI200
aI168
asS'62'
p160
(lp161
S'grynaeus_1533_v1_1_027.jpg'
p162
aI1000
aI1562
aI659
aI279
aI208
aI120
asS'63'
p163
(lp164
S'grynaeus_1533_v1_1_027.jpg'
p165
aI1000
aI1562
aI667
aI617
aI213
aI183
asS'64'
p166
(lp167
S'grynaeus_1533_v1_1_027.jpg'
p168
aI1000
aI1562
aI714
aI984
aI173
aI152
asS'65'
p169
(lp170
S'grynaeus_1533_v1_1_028.jpg'
p171
aI1000
aI1562
aI584
aI392
aI177
aI155
asS'66'
p172
(lp173
S'grynaeus_1533_v1_1_028.jpg'
p174
aI1000
aI1562
aI570
aI694
aI182
aI182
asS'67'
p175
(lp176
S'grynaeus_1533_v1_1_028.jpg'
p177
aI1000
aI1562
aI555
aI1020
aI203
aI158
asS'68'
p178
(lp179
S'grynaeus_1533_v1_1_029.jpg'
p180
aI1000
aI1562
aI661
aI326
aI210
aI201
asS'69'
p181
(lp182
S'grynaeus_1533_v1_1_029.jpg'
p183
aI1000
aI1562
aI652
aI656
aI219
aI200
asS'2'
p184
(lp185
S'grynaeus_1533_v1_1_014.jpg'
p186
aI1000
aI1573
aI206
aI406
aI153
aI92
asS'6'
p187
(lp188
S'grynaeus_1533_v1_1_014.jpg'
p189
aI1000
aI1573
aI392
aI691
aI132
aI128
asS'99'
p190
(lp191
S'grynaeus_1533_v1_1_042.jpg'
p192
aI1000
aI1562
aI479
aI834
aI244
aI101
asS'98'
p193
(lp194
S'grynaeus_1533_v1_1_042.jpg'
p195
aI1000
aI1562
aI645
aI753
aI100
aI83
asS'91'
p196
(lp197
S'grynaeus_1533_v1_1_040.jpg'
p198
aI1000
aI1562
aI563
aI968
aI160
aI178
asS'90'
p199
(lp200
S'grynaeus_1533_v1_1_040.jpg'
p201
aI1000
aI1562
aI584
aI529
aI153
aI236
asS'93'
p202
(lp203
S'grynaeus_1533_v1_1_041.jpg'
p204
aI1000
aI1562
aI615
aI858
aI273
aI222
asS'92'
p205
(lp206
S'grynaeus_1533_v1_1_041.jpg'
p207
aI1000
aI1562
aI713
aI516
aI179
aI176
asS'95'
p208
(lp209
S'grynaeus_1533_v1_1_042.jpg'
p210
aI1000
aI1562
aI541
aI372
aI192
aI102
asS'94'
p211
(lp212
S'grynaeus_1533_v1_1_042.jpg'
p213
aI1000
aI1562
aI538
aI270
aI189
aI100
asS'97'
p214
(lp215
S'grynaeus_1533_v1_1_042.jpg'
p216
aI1000
aI1562
aI556
aI647
aI169
aI118
asS'96'
p217
(lp218
S'grynaeus_1533_v1_1_042.jpg'
p219
aI1000
aI1562
aI540
aI511
aI194
aI119
asS'11'
p220
(lp221
S'grynaeus_1533_v1_1_014.jpg'
p222
aI1000
aI1573
aI398
aI940
aI152
aI198
asS'10'
p223
(lp224
S'grynaeus_1533_v1_1_014.jpg'
p225
aI1000
aI1573
aI303
aI947
aI124
aI170
asS'13'
p226
(lp227
S'grynaeus_1533_v1_1_014.jpg'
p228
aI1000
aI1573
aI680
aI933
aI130
aI127
asS'12'
p229
(lp230
S'grynaeus_1533_v1_1_014.jpg'
p231
aI1000
aI1573
aI557
aI935
aI122
aI170
asS'15'
p232
(lp233
S'grynaeus_1533_v1_1_015.jpg'
p234
aI1000
aI1562
aI429
aI319
aI101
aI118
asS'14'
p235
(lp236
S'grynaeus_1533_v1_1_014.jpg'
p237
aI1000
aI1573
aI686
aI1067
aI118
aI106
asS'17'
p238
(lp239
S'grynaeus_1533_v1_1_015.jpg'
p240
aI1000
aI1562
aI647
aI320
aI127
aI119
asS'16'
p241
(lp242
S'grynaeus_1533_v1_1_015.jpg'
p243
aI1000
aI1562
aI529
aI319
aI113
aI122
asS'19'
p244
(lp245
S'grynaeus_1533_v1_1_015.jpg'
p246
aI1000
aI1562
aI266
aI526
aI367
aI134
asS'18'
p247
(lp248
S'grynaeus_1533_v1_1_015.jpg'
p249
aI1000
aI1562
aI783
aI321
aI113
aI121
asS'48'
p250
(lp251
S'grynaeus_1533_v1_1_022.jpg'
p252
aI1000
aI1562
aI576
aI212
aI170
aI174
asS'49'
p253
(lp254
S'grynaeus_1533_v1_1_022.jpg'
p255
aI1000
aI1562
aI559
aI420
aI191
aI163
asS'46'
p256
(lp257
S'grynaeus_1533_v1_1_021.jpg'
p258
aI1000
aI1562
aI638
aI596
aI248
aI204
asS'47'
p259
(lp260
S'grynaeus_1533_v1_1_021.jpg'
p261
aI1000
aI1562
aI708
aI924
aI174
aI260
asS'44'
p262
(lp263
S'grynaeus_1533_v1_1_021.jpg'
p264
aI1000
aI1562
aI691
aI247
aI192
aI155
asS'42'
p265
(lp266
S'grynaeus_1533_v1_1_020.jpg'
p267
aI1000
aI1562
aI573
aI559
aI192
aI213
asS'43'
p268
(lp269
S'grynaeus_1533_v1_1_020.jpg'
p270
aI1000
aI1562
aI558
aI944
aI199
aI187
asS'40'
p271
(lp272
S'grynaeus_1533_v1_1_019.jpg'
p273
aI1000
aI1562
aI695
aI872
aI171
aI164
asS'41'
p274
(lp275
S'grynaeus_1533_v1_1_020.jpg'
p276
aI1000
aI1562
aI480
aI182
aI276
aI170
asS'1'
p277
(lp278
S'grynaeus_1533_v1_1_014.jpg'
p279
aI1000
aI1573
aI163
aI410
aI63
aI51
asS'5'
p280
(lp281
S'grynaeus_1533_v1_1_014.jpg'
p282
aI1000
aI1573
aI255
aI698
aI155
aI123
asS'9'
p283
(lp284
S'grynaeus_1533_v1_1_014.jpg'
p285
aI1000
aI1573
aI190
aI1081
aI140
aI105
asS'77'
p286
(lp287
S'grynaeus_1533_v1_1_032.jpg'
p288
aI1000
aI1562
aI620
aI602
aI123
aI196
asS'76'
p289
(lp290
S'grynaeus_1533_v1_1_031.jpg'
p291
aI1000
aI1562
aI539
aI959
aI348
aI186
asS'75'
p292
(lp293
S'grynaeus_1533_v1_1_031.jpg'
p294
aI1000
aI1562
aI489
aI574
aI395
aI233
asS'74'
p295
(lp296
S'grynaeus_1533_v1_1_031.jpg'
p297
aI1000
aI1562
aI677
aI158
aI204
aI206
asS'73'
p298
(lp299
S'grynaeus_1533_v1_1_030.jpg'
p300
aI1000
aI1562
aI551
aI885
aI207
aI189
asS'72'
p301
(lp302
S'grynaeus_1533_v1_1_030.jpg'
p303
aI1000
aI1562
aI543
aI566
aI200
aI159
asS'71'
p304
(lp305
S'grynaeus_1533_v1_1_030.jpg'
p306
aI1000
aI1562
aI591
aI302
aI153
aI172
asS'70'
p307
(lp308
S'grynaeus_1533_v1_1_029.jpg'
p309
aI1000
aI1562
aI703
aI980
aI167
aI167
asS'79'
p310
(lp311
S'grynaeus_1533_v1_1_033.jpg'
p312
aI1000
aI1562
aI717
aI474
aI174
aI213
asS'78'
p313
(lp314
S'grynaeus_1533_v1_1_032.jpg'
p315
aI1000
aI1562
aI563
aI928
aI178
aI243
as.