(dp0
S'heath-diag-0443'
p1
(lp2
S'heath_1908_v2_1_0284.jpg'
p3
aI3917
aI5750
aI2117
aI2892
aI1256
aI704
asS'heath-diag-0237'
p4
(lp5
S'heath_1908_v2_1_0024.jpg'
p6
aI3917
aI5750
aI2328
aI2148
aI948
aI936
asS'heath-diag-0257'
p7
(lp8
S'heath_1908_v2_1_0042.jpg'
p9
aI3917
aI5750
aI2040
aI2316
aI1320
aI696
asS'heath-diag-0242'
p10
(lp11
S'heath_1908_v2_1_0029.jpg'
p12
aI3917
aI5750
aI2460
aI1116
aI816
aI768
asS'heath-diag-0359'
p13
(lp14
S'heath_1908_v2_1_0185.jpg'
p15
aI3917
aI5750
aI2837
aI1120
aI320
aI944
asS'heath-diag-0393'
p16
(lp17
S'heath_1908_v2_1_0228.jpg'
p18
aI3917
aI5750
aI2477
aI1967
aI876
aI588
asS'heath-diag-0423'
p19
(lp20
S'heath_1908_v2_1_0259.jpg'
p21
aI3917
aI5750
aI1040
aI3630
aI1896
aI560
asS'heath-diag-0472'
p22
(lp23
S'heath_1908_v2_1_0339.jpg'
p24
aI3917
aI5750
aI1868
aI2564
aI1312
aI528
asS'heath-diag-0287'
p25
(lp26
S'heath_1908_v2_1_0073.jpg'
p27
aI3917
aI5750
aI2365
aI1976
aI952
aI560
asS'heath-diag-0256'
p28
(lp29
S'heath_1908_v2_1_0041.jpg'
p30
aI3917
aI5750
aI2280
aI1128
aI972
aI720
asS'heath-diag-0550'
p31
(lp32
S'heath_1908_v2_1_0434.jpg'
p33
aI3917
aI5750
aI704
aI1700
aI2528
aI736
asS'heath-diag-0428'
p34
(lp35
S'heath_1908_v2_1_0267.jpg'
p36
aI3917
aI5750
aI2309
aI3208
aI928
aI752
asS'heath-diag-0429'
p37
(lp38
S'heath_1908_v2_1_0268.jpg'
p39
aI3917
aI5750
aI2773
aI4078
aI616
aI736
asS'heath-diag-0426'
p40
(lp41
S'heath_1908_v2_1_0263.jpg'
p42
aI3917
aI5750
aI2349
aI2620
aI936
aI688
asS'heath-diag-0427'
p43
(lp44
S'heath_1908_v2_1_0265.jpg'
p45
aI3917
aI5750
aI820
aI3806
aI2272
aI728
asS'heath-diag-0424'
p46
(lp47
S'heath_1908_v2_1_0261.jpg'
p48
aI3917
aI5750
aI1180
aI1836
aI1504
aI664
asS'heath-diag-0425'
p49
(lp50
S'heath_1908_v2_1_0262.jpg'
p51
aI3917
aI5750
aI1336
aI3004
aI1488
aI632
asS'heath-diag-0422'
p52
(lp53
S'heath_1908_v2_1_0256.jpg'
p54
aI3917
aI5750
aI1148
aI4038
aI1760
aI584
asS'heath-diag-0363'
p55
(lp56
S'heath_1908_v2_1_0188.jpg'
p57
aI3917
aI5750
aI1332
aI1624
aI1416
aI408
asS'heath-diag-0420'
p58
(lp59
S'heath_1908_v2_1_0252.jpg'
p60
aI3917
aI5750
aI996
aI1048
aI2200
aI616
asS'heath-diag-0328'
p61
(lp62
S'heath_1908_v2_1_0119.jpg'
p63
aI3917
aI5750
aI2549
aI3590
aI736
aI1128
asS'heath-diag-0347'
p64
(lp65
S'heath_1908_v2_1_0166.jpg'
p66
aI3917
aI5750
aI2101
aI936
aI1240
aI336
asS'heath-diag-0398'
p67
(lp68
S'heath_1908_v2_1_0233.jpg'
p69
aI3917
aI5750
aI2277
aI872
aI872
aI640
asS'heath-diag-0345'
p70
(lp71
S'heath_1908_v2_1_0162.jpg'
p72
aI3917
aI5750
aI2117
aI896
aI1304
aI992
asS'heath-diag-0289'
p73
(lp74
S'heath_1908_v2_1_0075.jpg'
p75
aI3917
aI5750
aI2451
aI4358
aI834
aI546
asS'heath-diag-0509'
p76
(lp77
S'heath_1908_v2_1_0389.jpg'
p78
aI3917
aI5750
aI1032
aI2224
aI1856
aI720
asS'heath-diag-0508'
p79
(lp80
S'heath_1908_v2_1_0388.jpg'
p81
aI3917
aI5750
aI1100
aI1160
aI1960
aI576
asS'heath-diag-0341'
p82
(lp83
S'heath_1908_v2_1_0157.jpg'
p84
aI3917
aI5750
aI1136
aI3172
aI1448
aI352
asS'heath-diag-0340'
p85
(lp86
S'heath_1908_v2_1_0154.jpg'
p87
aI3917
aI5750
aI1160
aI2636
aI1784
aI1480
asS'heath-diag-0505'
p88
(lp89
S'heath_1908_v2_1_0382.jpg'
p90
aI3917
aI5750
aI2333
aI3862
aI1120
aI408
asS'heath-diag-0504'
p91
(lp92
S'heath_1908_v2_1_0382.jpg'
p93
aI3917
aI5750
aI2621
aI1392
aI800
aI536
asS'heath-diag-0507'
p94
(lp95
S'heath_1908_v2_1_0385.jpg'
p96
aI3917
aI5750
aI968
aI2416
aI1960
aI824
asS'heath-diag-0506'
p97
(lp98
S'heath_1908_v2_1_0383.jpg'
p99
aI3917
aI5750
aI1040
aI2580
aI1904
aI488
asS'heath-diag-0501'
p100
(lp101
S'heath_1908_v2_1_0378.jpg'
p102
aI3917
aI5750
aI804
aI1332
aI2340
aI924
asS'heath-diag-0500'
p103
(lp104
S'heath_1908_v2_1_0376.jpg'
p105
aI3917
aI5750
aI1156
aI2772
aI1832
aI528
asS'heath-diag-0349'
p106
(lp107
S'heath_1908_v2_1_0170.jpg'
p108
aI3917
aI5750
aI1100
aI1608
aI1976
aI544
asS'heath-diag-0502'
p109
(lp110
S'heath_1908_v2_1_0379.jpg'
p111
aI3917
aI5750
aI2429
aI4150
aI800
aI520
asS'heath-diag-0252'
p112
(lp113
S'heath_1908_v2_1_0038.jpg'
p114
aI3917
aI5750
aI1116
aI2460
aI888
aI696
asS'heath-diag-0503'
p115
(lp116
S'heath_1908_v2_1_0381.jpg'
p117
aI3917
aI5750
aI1136
aI1192
aI1680
aI784
asS'heath-diag-0529'
p118
(lp119
S'heath_1908_v2_1_0415.jpg'
p120
aI3917
aI5750
aI1264
aI1353
aI1488
aI408
asS'heath-diag-0284'
p121
(lp122
S'heath_1908_v2_1_0070.jpg'
p123
aI3917
aI5750
aI1292
aI2484
aI1600
aI824
asS'heath-diag-0369'
p124
(lp125
S'heath_1908_v2_1_0195.jpg'
p126
aI3917
aI5750
aI2029
aI4114
aI1288
aI496
asS'heath-diag-0296'
p127
(lp128
S'heath_1908_v2_1_0080.jpg'
p129
aI3917
aI5750
aI1348
aI3590
aI1448
aI936
asS'heath-diag-0283'
p130
(lp131
S'heath_1908_v2_1_0069.jpg'
p132
aI3917
aI5750
aI1080
aI1280
aI1608
aI744
asS'heath-diag-0397'
p133
(lp134
S'heath_1908_v2_1_0232.jpg'
p135
aI3917
aI5750
aI2573
aI904
aI720
aI952
asS'heath-diag-0516'
p136
(lp137
S'heath_1908_v2_1_0396.jpg'
p138
aI3917
aI5750
aI2296
aI2204
aI1168
aI472
asS'heath-diag-0459'
p139
(lp140
S'heath_1908_v2_1_0325.jpg'
p141
aI3917
aI5750
aI2664
aI1536
aI624
aI636
asS'heath-diag-0458'
p142
(lp143
S'heath_1908_v2_1_0324.jpg'
p144
aI3917
aI5750
aI2927
aI3305
aI522
aI444
asS'heath-diag-0453'
p145
(lp146
S'heath_1908_v2_1_0318.jpg'
p147
aI3917
aI5750
aI1020
aI2256
aI1908
aI372
asS'heath-diag-0452'
p148
(lp149
S'heath_1908_v2_1_0317.jpg'
p150
aI3917
aI5750
aI2429
aI1584
aI744
aI688
asS'heath-diag-0451'
p151
(lp152
S'heath_1908_v2_1_0316.jpg'
p153
aI3917
aI5750
aI2773
aI1692
aI672
aI656
asS'heath-diag-0450'
p154
(lp155
S'heath_1908_v2_1_0315.jpg'
p156
aI3917
aI5750
aI2663
aI1991
aI504
aI828
asS'heath-diag-0457'
p157
(lp158
S'heath_1908_v2_1_0323.jpg'
p159
aI3917
aI5750
aI2813
aI3702
aI352
aI640
asS'heath-diag-0456'
p160
(lp161
S'heath_1908_v2_1_0322.jpg'
p162
aI3917
aI5750
aI2709
aI2912
aI688
aI728
asS'heath-diag-0455'
p163
(lp164
S'heath_1908_v2_1_0321.jpg'
p165
aI3917
aI5750
aI2645
aI2540
aI624
aI536
asS'heath-diag-0454'
p166
(lp167
S'heath_1908_v2_1_0319.jpg'
p168
aI3917
aI5750
aI1997
aI3694
aI1136
aI544
asS'heath-diag-0354'
p169
(lp170
S'heath_1908_v2_1_0176.jpg'
p171
aI3917
aI5750
aI1104
aI2100
aI1968
aI552
asS'heath-diag-0355'
p172
(lp173
S'heath_1908_v2_1_0178.jpg'
p174
aI3917
aI5750
aI2349
aI816
aI968
aI904
asS'heath-diag-0356'
p175
(lp176
S'heath_1908_v2_1_0178.jpg'
p177
aI3917
aI5750
aI1205
aI2388
aI1632
aI472
asS'heath-diag-0357'
p178
(lp179
S'heath_1908_v2_1_0179.jpg'
p180
aI3917
aI5750
aI996
aI1368
aI1928
aI600
asS'heath-diag-0350'
p181
(lp182
S'heath_1908_v2_1_0171.jpg'
p183
aI3917
aI5750
aI1036
aI2748
aI1704
aI656
asS'heath-diag-0298'
p184
(lp185
S'heath_1908_v2_1_0083.jpg'
p186
aI3917
aI5750
aI1252
aI1184
aI1448
aI800
asS'heath-diag-0352'
p187
(lp188
S'heath_1908_v2_1_0174.jpg'
p189
aI3917
aI5750
aI1360
aI3000
aI1376
aI312
asS'heath-diag-0353'
p190
(lp191
S'heath_1908_v2_1_0175.jpg'
p192
aI3917
aI5750
aI1124
aI2856
aI1512
aI368
asS'heath-diag-0295'
p193
(lp194
S'heath_1908_v2_1_0079.jpg'
p195
aI3917
aI5750
aI1896
aI3496
aI1424
aI1016
asS'heath-diag-0294'
p196
(lp197
S'heath_1908_v2_1_0078.jpg'
p198
aI3917
aI5750
aI2501
aI952
aI952
aI1088
asS'heath-diag-0510'
p199
(lp200
S'heath_1908_v2_1_0391.jpg'
p201
aI3917
aI5750
aI2477
aI2840
aI808
aI376
asS'heath-diag-0511'
p202
(lp203
S'heath_1908_v2_1_0391.jpg'
p204
aI3917
aI5750
aI2197
aI4400
aI1088
aI440
asS'heath-diag-0358'
p205
(lp206
S'heath_1908_v2_1_0181.jpg'
p207
aI3917
aI5750
aI1984
aI2376
aI1264
aI432
asS'heath-diag-0517'
p208
(lp209
S'heath_1908_v2_1_0397.jpg'
p210
aI3917
aI5750
aI2072
aI1336
aI1144
aI496
asS'heath-diag-0514'
p211
(lp212
S'heath_1908_v2_1_0393.jpg'
p213
aI3917
aI5750
aI1000
aI4258
aI1944
aI392
asS'heath-diag-0515'
p214
(lp215
S'heath_1908_v2_1_0394.jpg'
p216
aI3917
aI5750
aI684
aI3206
aI2472
aI420
asS'heath-diag-0549'
p217
(lp218
S'heath_1908_v2_1_0432.jpg'
p219
aI3917
aI5750
aI1917
aI2123
aI1350
aI564
asS'heath-diag-0548'
p220
(lp221
S'heath_1908_v2_1_0431.jpg'
p222
aI3917
aI5750
aI2353
aI3758
aI824
aI200
asS'heath-diag-0465'
p223
(lp224
S'heath_1908_v2_1_0331.jpg'
p225
aI3917
aI5750
aI2405
aI992
aI840
aI688
asS'heath-diag-0290'
p226
(lp227
S'heath_1908_v2_1_0076.jpg'
p228
aI3917
aI5750
aI2637
aI1812
aI744
aI696
asS'heath-diag-0293'
p229
(lp230
S'heath_1908_v2_1_0077.jpg'
p231
aI3917
aI5750
aI1857
aI1568
aI760
aI760
asS'heath-diag-0299'
p232
(lp233
S'heath_1908_v2_1_0083.jpg'
p234
aI3917
aI5750
aI2517
aI3982
aI832
aI768
asS'heath-diag-0448'
p235
(lp236
S'heath_1908_v2_1_0310.jpg'
p237
aI3917
aI5750
aI2741
aI1400
aI568
aI744
asS'heath-diag-0449'
p238
(lp239
S'heath_1908_v2_1_0312.jpg'
p240
aI3917
aI5750
aI2445
aI3654
aI920
aI648
asS'heath-diag-0416'
p241
(lp242
S'heath_1908_v2_1_0244.jpg'
p243
aI3917
aI5750
aI929
aI976
aI2232
aI968
asS'heath-diag-0440'
p244
(lp245
S'heath_1908_v2_1_0281.jpg'
p246
aI3917
aI5750
aI2149
aI888
aI1160
aI1056
asS'heath-diag-0441'
p247
(lp248
S'heath_1908_v2_1_0283.jpg'
p249
aI3917
aI5750
aI2045
aI992
aI1240
aI832
asS'heath-diag-0442'
p250
(lp251
S'heath_1908_v2_1_0284.jpg'
p252
aI3917
aI5750
aI2616
aI1092
aI768
aI600
asS'heath-diag-0499'
p253
(lp254
S'heath_1908_v2_1_0375.jpg'
p255
aI3917
aI5750
aI2421
aI1964
aI848
aI536
asS'heath-diag-0444'
p256
(lp257
S'heath_1908_v2_1_0284.jpg'
p258
aI3917
aI5750
aI2157
aI4180
aI1232
aI648
asS'heath-diag-0445'
p259
(lp260
S'heath_1908_v2_1_0285.jpg'
p261
aI3917
aI5750
aI2173
aI856
aI1024
aI752
asS'heath-diag-0446'
p262
(lp263
S'heath_1908_v2_1_0285.jpg'
p264
aI3917
aI5750
aI1064
aI3150
aI1680
aI808
asS'heath-diag-0447'
p265
(lp266
S'heath_1908_v2_1_0308.jpg'
p267
aI3917
aI5750
aI2837
aI2864
aI552
aI800
asS'heath-diag-0361'
p268
(lp269
S'heath_1908_v2_1_0186.jpg'
p270
aI3917
aI5750
aI2533
aI2184
aI728
aI408
asS'heath-diag-0360'
p271
(lp272
S'heath_1908_v2_1_0185.jpg'
p273
aI3917
aI5750
aI2221
aI2616
aI976
aI696
asS'heath-diag-0288'
p274
(lp275
S'heath_1908_v2_1_0074.jpg'
p276
aI3917
aI5750
aI2376
aI888
aI1056
aI1056
asS'heath-diag-0362'
p277
(lp278
S'heath_1908_v2_1_0187.jpg'
p279
aI3917
aI5750
aI2725
aI3044
aI440
aI712
asS'heath-diag-0365'
p280
(lp281
S'heath_1908_v2_1_0192.jpg'
p282
aI3917
aI5750
aI581
aI1068
aI2916
aI492
asS'heath-diag-0364'
p283
(lp284
S'heath_1908_v2_1_0190.jpg'
p285
aI3917
aI5750
aI1216
aI3348
aI1744
aI392
asS'heath-diag-0367'
p286
(lp287
S'heath_1908_v2_1_0193.jpg'
p288
aI3917
aI5750
aI696
aI2736
aI2496
aI552
asS'heath-diag-0366'
p289
(lp290
S'heath_1908_v2_1_0192.jpg'
p291
aI3917
aI5750
aI2693
aI4188
aI708
aI408
asS'heath-diag-0282'
p292
(lp293
S'heath_1908_v2_1_0068.jpg'
p294
aI3917
aI5750
aI2733
aI936
aI712
aI696
asS'heath-diag-0255'
p295
(lp296
S'heath_1908_v2_1_0040.jpg'
p297
aI3917
aI5750
aI2196
aI864
aI1224
aI1044
asS'heath-diag-0280'
p298
(lp299
S'heath_1908_v2_1_0067.jpg'
p300
aI3917
aI5750
aI2541
aI1296
aI760
aI856
asS'heath-diag-0281'
p301
(lp302
S'heath_1908_v2_1_0067.jpg'
p303
aI3917
aI5750
aI2757
aI4294
aI528
aI776
asS'heath-diag-0286'
p304
(lp305
S'heath_1908_v2_1_0072.jpg'
p306
aI3917
aI5750
aI1244
aI3006
aI1616
aI672
asS'heath-diag-0543'
p307
(lp308
S'heath_1908_v2_1_0428.jpg'
p309
aI3917
aI5750
aI2375
aI4605
aI912
aI378
asS'heath-diag-0238'
p310
(lp311
S'heath_1908_v2_1_0025.jpg'
p312
aI3917
aI5750
aI2256
aI1524
aI996
aI1056
asS'heath-diag-0285'
p313
(lp314
S'heath_1908_v2_1_0071.jpg'
p315
aI3917
aI5750
aI1004
aI2932
aI1840
aI744
asS'heath-diag-0383'
p316
(lp317
S'heath_1908_v2_1_0219.jpg'
p318
aI3917
aI5750
aI2268
aI2933
aI936
aI828
asS'heath-diag-0382'
p319
(lp320
S'heath_1908_v2_1_0218.jpg'
p321
aI3917
aI5750
aI2261
aI1684
aI1176
aI856
asS'heath-diag-0381'
p322
(lp323
S'heath_1908_v2_1_0217.jpg'
p324
aI3917
aI5750
aI1168
aI1496
aI1448
aI824
asS'heath-diag-0542'
p325
(lp326
S'heath_1908_v2_1_0428.jpg'
p327
aI3917
aI5750
aI2479
aI2734
aI840
aI360
asS'heath-diag-0387'
p328
(lp329
S'heath_1908_v2_1_0224.jpg'
p330
aI3917
aI5750
aI2421
aI1048
aI1016
aI688
asS'heath-diag-0386'
p331
(lp332
S'heath_1908_v2_1_0222.jpg'
p333
aI3917
aI5750
aI2397
aI952
aI1048
aI680
asS'heath-diag-0385'
p334
(lp335
S'heath_1908_v2_1_0221.jpg'
p336
aI3917
aI5750
aI1949
aI2620
aI1280
aI1032
asS'heath-diag-0384'
p337
(lp338
S'heath_1908_v2_1_0220.jpg'
p339
aI3917
aI5750
aI1320
aI3392
aI1416
aI696
asS'heath-diag-0541'
p340
(lp341
S'heath_1908_v2_1_0428.jpg'
p342
aI3917
aI5750
aI2445
aI1367
aI804
aI258
asS'heath-diag-0540'
p343
(lp344
S'heath_1908_v2_1_0427.jpg'
p345
aI3917
aI5750
aI2405
aI4142
aI822
aI186
asS'heath-diag-0389'
p346
(lp347
S'heath_1908_v2_1_0225.jpg'
p348
aI3917
aI5750
aI2165
aI3579
aI1098
aI762
asS'heath-diag-0388'
p349
(lp350
S'heath_1908_v2_1_0224.jpg'
p351
aI3917
aI5750
aI2429
aI4038
aI936
aI864
asS'heath-diag-0545'
p352
(lp353
S'heath_1908_v2_1_0429.jpg'
p354
aI3917
aI5750
aI2069
aI4478
aI1192
aI496
asS'heath-diag-0309'
p355
(lp356
S'heath_1908_v2_1_0099.jpg'
p357
aI3917
aI5750
aI1204
aI2288
aI1560
aI1560
asS'heath-diag-0547'
p358
(lp359
S'heath_1908_v2_1_0431.jpg'
p360
aI3917
aI5750
aI2469
aI1660
aI664
aI248
asS'heath-diag-0546'
p361
(lp362
S'heath_1908_v2_1_0430.jpg'
p363
aI3917
aI5750
aI2181
aI3012
aI1304
aI456
asS'heath-diag-0239'
p364
(lp365
S'heath_1908_v2_1_0026.jpg'
p366
aI3917
aI5750
aI2256
aI2472
aI1008
aI972
asS'heath-diag-0461'
p367
(lp368
S'heath_1908_v2_1_0327.jpg'
p369
aI3917
aI5750
aI1960
aI880
aI1232
aI472
asS'heath-diag-0248'
p370
(lp371
S'heath_1908_v2_1_0034.jpg'
p372
aI3917
aI5750
aI2472
aI3192
aI804
aI768
asS'heath-diag-0513'
p373
(lp374
S'heath_1908_v2_1_0393.jpg'
p375
aI3917
aI5750
aI1036
aI1176
aI1808
aI464
asS'heath-diag-0380'
p376
(lp377
S'heath_1908_v2_1_0215.jpg'
p378
aI3917
aI5750
aI1132
aI1184
aI1528
aI656
asS'heath-diag-0377'
p379
(lp380
S'heath_1908_v2_1_0210.jpg'
p381
aI3917
aI5750
aI1204
aI1064
aI1752
aI816
asS'heath-diag-0297'
p382
(lp383
S'heath_1908_v2_1_0081.jpg'
p384
aI3917
aI5750
aI1140
aI1968
aI1672
aI864
asS'heath-diag-0254'
p385
(lp386
S'heath_1908_v2_1_0039.jpg'
p387
aI3917
aI5750
aI2352
aI1572
aI900
aI840
asS'heath-diag-0475'
p388
(lp389
S'heath_1908_v2_1_0342.jpg'
p390
aI3917
aI5750
aI2533
aI3716
aI864
aI424
asS'heath-diag-0474'
p391
(lp392
S'heath_1908_v2_1_0341.jpg'
p393
aI3917
aI5750
aI2237
aI2612
aI1000
aI320
asS'heath-diag-0477'
p394
(lp395
S'heath_1908_v2_1_0344.jpg'
p396
aI3917
aI5750
aI2533
aI2368
aI864
aI392
asS'heath-diag-0476'
p397
(lp398
S'heath_1908_v2_1_0343.jpg'
p399
aI3917
aI5750
aI2293
aI2164
aI992
aI600
asS'heath-diag-0471'
p400
(lp401
S'heath_1908_v2_1_0338.jpg'
p402
aI3917
aI5750
aI2941
aI4006
aI488
aI784
asS'heath-diag-0470'
p403
(lp404
S'heath_1908_v2_1_0337.jpg'
p405
aI3917
aI5750
aI2501
aI2292
aI688
aI872
asS'heath-diag-0378'
p406
(lp407
S'heath_1908_v2_1_0211.jpg'
p408
aI3917
aI5750
aI545
aI1464
aI2748
aI840
asS'heath-diag-0379'
p409
(lp410
S'heath_1908_v2_1_0213.jpg'
p411
aI3917
aI5750
aI2020
aI864
aI1256
aI984
asS'heath-diag-0376'
p412
(lp413
S'heath_1908_v2_1_0209.jpg'
p414
aI3917
aI5750
aI1829
aI3918
aI1336
aI600
asS'heath-diag-0291'
p415
(lp416
S'heath_1908_v2_1_0076.jpg'
p417
aI3917
aI5750
aI2261
aI4190
aI1136
aI712
asS'heath-diag-0374'
p418
(lp419
S'heath_1908_v2_1_0208.jpg'
p420
aI3917
aI5750
aI2109
aI1200
aI1280
aI960
asS'heath-diag-0375'
p421
(lp422
S'heath_1908_v2_1_0209.jpg'
p423
aI3917
aI5750
aI696
aI3918
aI968
aI600
asS'heath-diag-0372'
p424
(lp425
S'heath_1908_v2_1_0205.jpg'
p426
aI3917
aI5750
aI2253
aI3694
aI928
aI632
asS'heath-diag-0478'
p427
(lp428
S'heath_1908_v2_1_0345.jpg'
p429
aI3917
aI5750
aI2565
aI2524
aI784
aI192
asS'heath-diag-0370'
p430
(lp431
S'heath_1908_v2_1_0197.jpg'
p432
aI3917
aI5750
aI2252
aI1424
aI984
aI672
asS'heath-diag-0371'
p433
(lp434
S'heath_1908_v2_1_0203.jpg'
p435
aI3917
aI5750
aI1248
aI2300
aI1424
aI824
asS'heath-diag-0277'
p436
(lp437
S'heath_1908_v2_1_0064.jpg'
p438
aI3917
aI5750
aI2549
aI912
aI928
aI888
asS'heath-diag-0276'
p439
(lp440
S'heath_1908_v2_1_0062.jpg'
p441
aI3917
aI5750
aI2397
aI3998
aI1024
aI920
asS'heath-diag-0275'
p442
(lp443
S'heath_1908_v2_1_0062.jpg'
p444
aI3917
aI5750
aI2621
aI2360
aI800
aI792
asS'heath-diag-0274'
p445
(lp446
S'heath_1908_v2_1_0062.jpg'
p447
aI3917
aI5750
aI2629
aI816
aI808
aI792
asS'heath-diag-0273'
p448
(lp449
S'heath_1908_v2_1_0061.jpg'
p450
aI3917
aI5750
aI2328
aI2784
aI900
aI960
asS'heath-diag-0272'
p451
(lp452
S'heath_1908_v2_1_0060.jpg'
p453
aI3917
aI5750
aI2412
aI876
aI1032
aI1020
asS'heath-diag-0271'
p454
(lp455
S'heath_1908_v2_1_0058.jpg'
p456
aI3917
aI5750
aI2412
aI2424
aI936
aI1020
asS'heath-diag-0270'
p457
(lp458
S'heath_1908_v2_1_0057.jpg'
p459
aI3917
aI5750
aI2172
aI2388
aI1152
aI1056
asS'heath-diag-0292'
p460
(lp461
S'heath_1908_v2_1_0077.jpg'
p462
aI3917
aI5750
aI1185
aI1568
aI696
aI760
asS'heath-diag-0301'
p463
(lp464
S'heath_1908_v2_1_0086.jpg'
p465
aI3917
aI5750
aI2669
aI1096
aI704
aI840
asS'heath-diag-0279'
p466
(lp467
S'heath_1908_v2_1_0066.jpg'
p468
aI3917
aI5750
aI1132
aI1248
aI1920
aI440
asS'heath-diag-0278'
p469
(lp470
S'heath_1908_v2_1_0064.jpg'
p471
aI3917
aI5750
aI2541
aI4326
aI944
aI592
asS'heath-diag-0390'
p472
(lp473
S'heath_1908_v2_1_0226.jpg'
p474
aI3917
aI5750
aI2525
aI2732
aI888
aI968
asS'heath-diag-0391'
p475
(lp476
S'heath_1908_v2_1_0227.jpg'
p477
aI3917
aI5750
aI988
aI1344
aI1968
aI768
asS'heath-diag-0392'
p478
(lp479
S'heath_1908_v2_1_0227.jpg'
p480
aI3917
aI5750
aI2381
aI4262
aI944
aI640
asS'heath-diag-0300'
p481
(lp482
S'heath_1908_v2_1_0084.jpg'
p483
aI3917
aI5750
aI2477
aI872
aI920
aI944
asS'heath-diag-0394'
p484
(lp485
S'heath_1908_v2_1_0229.jpg'
p486
aI3917
aI5750
aI2148
aI880
aI1120
aI856
asS'heath-diag-0395'
p487
(lp488
S'heath_1908_v2_1_0230.jpg'
p489
aI3917
aI5750
aI992
aI3718
aI1112
aI872
asS'heath-diag-0396'
p490
(lp491
S'heath_1908_v2_1_0230.jpg'
p492
aI3917
aI5750
aI2192
aI3558
aI920
aI1024
asS'heath-diag-0498'
p493
(lp494
S'heath_1908_v2_1_0373.jpg'
p495
aI3917
aI5750
aI1024
aI1752
aI1848
aI768
asS'heath-diag-0497'
p496
(lp497
S'heath_1908_v2_1_0371.jpg'
p498
aI3917
aI5750
aI629
aI1596
aI2652
aI936
asS'heath-diag-0399'
p499
(lp500
S'heath_1908_v2_1_0233.jpg'
p501
aI3917
aI5750
aI877
aI3436
aI1896
aI552
asS'heath-diag-0495'
p502
(lp503
S'heath_1908_v2_1_0368.jpg'
p504
aI3917
aI5750
aI2189
aI3942
aI1264
aI488
asS'heath-diag-0494'
p505
(lp506
S'heath_1908_v2_1_0367.jpg'
p507
aI3917
aI5750
aI1128
aI2888
aI1672
aI952
asS'heath-diag-0493'
p508
(lp509
S'heath_1908_v2_1_0366.jpg'
p510
aI3917
aI5750
aI2565
aI1248
aI904
aI920
asS'heath-diag-0492'
p511
(lp512
S'heath_1908_v2_1_0363.jpg'
p513
aI3917
aI5750
aI752
aI3222
aI2504
aI888
asS'heath-diag-0491'
p514
(lp515
S'heath_1908_v2_1_0362.jpg'
p516
aI3917
aI5750
aI940
aI1820
aI2192
aI872
asS'heath-diag-0490'
p517
(lp518
S'heath_1908_v2_1_0360.jpg'
p519
aI3917
aI5750
aI1008
aI4118
aI1856
aI856
asS'heath-diag-0421'
p520
(lp521
S'heath_1908_v2_1_0253.jpg'
p522
aI3917
aI5750
aI748
aI1488
aI2336
aI1000
asS'heath-diag-0496'
p523
(lp524
S'heath_1908_v2_1_0369.jpg'
p525
aI3917
aI5750
aI1088
aI2172
aI1720
aI840
asS'heath-diag-0351'
p526
(lp527
S'heath_1908_v2_1_0172.jpg'
p528
aI3917
aI5750
aI624
aI3790
aI2904
aI792
asS'heath-diag-0462'
p529
(lp530
S'heath_1908_v2_1_0328.jpg'
p531
aI3917
aI5750
aI2109
aI1440
aI1304
aI592
asS'heath-diag-0463'
p532
(lp533
S'heath_1908_v2_1_0329.jpg'
p534
aI3917
aI5750
aI952
aI2632
aI1768
aI480
asS'heath-diag-0460'
p535
(lp536
S'heath_1908_v2_1_0325.jpg'
p537
aI3917
aI5750
aI1188
aI4214
aI1504
aI424
asS'heath-diag-0308'
p538
(lp539
S'heath_1908_v2_1_0097.jpg'
p540
aI3917
aI5750
aI2117
aI1768
aI1256
aI928
asS'heath-diag-0466'
p541
(lp542
S'heath_1908_v2_1_0332.jpg'
p543
aI3917
aI5750
aI2717
aI3558
aI688
aI872
asS'heath-diag-0467'
p544
(lp545
S'heath_1908_v2_1_0334.jpg'
p546
aI3917
aI5750
aI2244
aI3184
aI1064
aI640
asS'heath-diag-0464'
p547
(lp548
S'heath_1908_v2_1_0330.jpg'
p549
aI3917
aI5750
aI2272
aI1488
aI1136
aI488
asS'heath-diag-0346'
p550
(lp551
S'heath_1908_v2_1_0163.jpg'
p552
aI3917
aI5750
aI1933
aI3590
aI1296
aI1016
asS'heath-diag-0303'
p553
(lp554
S'heath_1908_v2_1_0088.jpg'
p555
aI3917
aI5750
aI2373
aI1288
aI1048
aI800
asS'heath-diag-0368'
p556
(lp557
S'heath_1908_v2_1_0195.jpg'
p558
aI3917
aI5750
aI2605
aI1988
aI672
aI360
asS'heath-diag-0468'
p559
(lp560
S'heath_1908_v2_1_0335.jpg'
p561
aI3917
aI5750
aI2429
aI4230
aI936
aI584
asS'heath-diag-0469'
p562
(lp563
S'heath_1908_v2_1_0336.jpg'
p564
aI3917
aI5750
aI2901
aI4118
aI528
aI800
asS'heath-diag-0307'
p565
(lp566
S'heath_1908_v2_1_0095.jpg'
p567
aI3917
aI5750
aI1110
aI2717
aI1602
aI792
asS'heath-diag-0306'
p568
(lp569
S'heath_1908_v2_1_0094.jpg'
p570
aI3917
aI5750
aI1268
aI1316
aI1528
aI960
asS'heath-diag-0305'
p571
(lp572
S'heath_1908_v2_1_0093.jpg'
p573
aI3917
aI5750
aI2341
aI2364
aI936
aI872
asS'heath-diag-0304'
p574
(lp575
S'heath_1908_v2_1_0092.jpg'
p576
aI3917
aI5750
aI2021
aI1296
aI1248
aI872
asS'heath-diag-0264'
p577
(lp578
S'heath_1908_v2_1_0046.jpg'
p579
aI3917
aI5750
aI2520
aI1944
aI888
aI792
asS'heath-diag-0265'
p580
(lp581
S'heath_1908_v2_1_0047.jpg'
p582
aI3917
aI5750
aI2472
aI876
aI804
aI828
asS'heath-diag-0266'
p583
(lp584
S'heath_1908_v2_1_0048.jpg'
p585
aI3917
aI5750
aI2544
aI3240
aI960
aI984
asS'heath-diag-0267'
p586
(lp587
S'heath_1908_v2_1_0050.jpg'
p588
aI3917
aI5750
aI2352
aI852
aI1116
aI972
asS'heath-diag-0260'
p589
(lp590
S'heath_1908_v2_1_0043.jpg'
p591
aI3917
aI5750
aI2076
aI4056
aI1176
aI744
asS'heath-diag-0261'
p592
(lp593
S'heath_1908_v2_1_0044.jpg'
p594
aI3917
aI5750
aI2388
aI840
aI1044
aI756
asS'heath-diag-0262'
p595
(lp596
S'heath_1908_v2_1_0044.jpg'
p597
aI3917
aI5750
aI2532
aI1764
aI924
aI756
asS'heath-diag-0263'
p598
(lp599
S'heath_1908_v2_1_0044.jpg'
p600
aI3917
aI5750
aI2220
aI3720
aI1200
aI1188
asS'heath-diag-0343'
p601
(lp602
S'heath_1908_v2_1_0159.jpg'
p603
aI3917
aI5750
aI2168
aI2920
aI1056
aI640
asS'heath-diag-0268'
p604
(lp605
S'heath_1908_v2_1_0055.jpg'
p606
aI3917
aI5750
aI2304
aI1968
aI1020
aI1044
asS'heath-diag-0269'
p607
(lp608
S'heath_1908_v2_1_0056.jpg'
p609
aI3917
aI5750
aI2268
aI2676
aI1080
aI996
asS'heath-diag-0342'
p610
(lp611
S'heath_1908_v2_1_0158.jpg'
p612
aI3917
aI5750
aI3037
aI3564
aI384
aI1376
asS'heath-diag-0523'
p613
(lp614
S'heath_1908_v2_1_0402.jpg'
p615
aI3917
aI5750
aI2483
aI2969
aI816
aI654
asS'heath-diag-0522'
p616
(lp617
S'heath_1908_v2_1_0401.jpg'
p618
aI3917
aI5750
aI1899
aI4172
aI1386
aI498
asS'heath-diag-0521'
p619
(lp620
S'heath_1908_v2_1_0400.jpg'
p621
aI3917
aI5750
aI2705
aI3529
aI750
aI372
asS'heath-diag-0520'
p622
(lp623
S'heath_1908_v2_1_0399.jpg'
p624
aI3917
aI5750
aI1941
aI4518
aI1272
aI496
asS'heath-diag-0527'
p625
(lp626
S'heath_1908_v2_1_0409.jpg'
p627
aI3917
aI5750
aI1104
aI1745
aI1584
aI504
asS'heath-diag-0489'
p628
(lp629
S'heath_1908_v2_1_0358.jpg'
p630
aI3917
aI5750
aI1304
aI3494
aI1480
aI776
asS'heath-diag-0525'
p631
(lp632
S'heath_1908_v2_1_0406.jpg'
p633
aI3917
aI5750
aI2243
aI941
aI1008
aI660
asS'heath-diag-0524'
p634
(lp635
S'heath_1908_v2_1_0404.jpg'
p636
aI3917
aI5750
aI2507
aI2093
aI798
aI630
asS'heath-diag-0484'
p637
(lp638
S'heath_1908_v2_1_0352.jpg'
p639
aI3917
aI5750
aI2557
aI2676
aI840
aI752
asS'heath-diag-0485'
p640
(lp641
S'heath_1908_v2_1_0353.jpg'
p642
aI3917
aI5750
aI2533
aI4222
aI736
aI488
asS'heath-diag-0486'
p643
(lp644
S'heath_1908_v2_1_0354.jpg'
p645
aI3917
aI5750
aI2597
aI3854
aI872
aI520
asS'heath-diag-0487'
p646
(lp647
S'heath_1908_v2_1_0355.jpg'
p648
aI3917
aI5750
aI1048
aI3368
aI1616
aI632
asS'heath-diag-0480'
p649
(lp650
S'heath_1908_v2_1_0348.jpg'
p651
aI3917
aI5750
aI2325
aI1508
aI992
aI560
asS'heath-diag-0481'
p652
(lp653
S'heath_1908_v2_1_0349.jpg'
p654
aI3917
aI5750
aI2253
aI1592
aI1016
aI680
asS'heath-diag-0482'
p655
(lp656
S'heath_1908_v2_1_0351.jpg'
p657
aI3917
aI5750
aI2157
aI1392
aI1152
aI400
asS'heath-diag-0483'
p658
(lp659
S'heath_1908_v2_1_0351.jpg'
p660
aI3917
aI5750
aI2237
aI4262
aI808
aI616
asS'heath-diag-0344'
p661
(lp662
S'heath_1908_v2_1_0160.jpg'
p663
aI3917
aI5750
aI1360
aI3790
aI1464
aI464
asS'heath-diag-0519'
p664
(lp665
S'heath_1908_v2_1_0399.jpg'
p666
aI3917
aI5750
aI1957
aI1360
aI1240
aI488
asS'heath-diag-0318'
p667
(lp668
S'heath_1908_v2_1_0108.jpg'
p669
aI3917
aI5750
aI2317
aI1368
aI1064
aI1088
asS'heath-diag-0319'
p670
(lp671
S'heath_1908_v2_1_0110.jpg'
p672
aI3917
aI5750
aI2981
aI984
aI456
aI456
asS'heath-diag-0473'
p673
(lp674
S'heath_1908_v2_1_0340.jpg'
p675
aI3917
aI5750
aI2677
aI1860
aI792
aI776
asS'heath-diag-0310'
p676
(lp677
S'heath_1908_v2_1_0100.jpg'
p678
aI3917
aI5750
aI728
aI3702
aI744
aI728
asS'heath-diag-0311'
p679
(lp680
S'heath_1908_v2_1_0100.jpg'
p681
aI3917
aI5750
aI1632
aI3702
aI744
aI728
asS'heath-diag-0312'
p682
(lp683
S'heath_1908_v2_1_0100.jpg'
p684
aI3917
aI5750
aI2552
aI3686
aI744
aI728
asS'heath-diag-0313'
p685
(lp686
S'heath_1908_v2_1_0103.jpg'
p687
aI3917
aI5750
aI2413
aI1452
aI888
aI864
asS'heath-diag-0314'
p688
(lp689
S'heath_1908_v2_1_0104.jpg'
p690
aI3917
aI5750
aI2589
aI1248
aI784
aI776
asS'heath-diag-0315'
p691
(lp692
S'heath_1908_v2_1_0104.jpg'
p693
aI3917
aI5750
aI2597
aI3254
aI768
aI848
asS'heath-diag-0316'
p694
(lp695
S'heath_1908_v2_1_0106.jpg'
p696
aI3917
aI5750
aI2525
aI1224
aI840
aI896
asS'heath-diag-0317'
p697
(lp698
S'heath_1908_v2_1_0107.jpg'
p699
aI3917
aI5750
aI2525
aI1800
aI792
aI800
asS'heath-diag-0251'
p700
(lp701
S'heath_1908_v2_1_0036.jpg'
p702
aI3917
aI5750
aI2256
aI3540
aI1116
aI1164
asS'heath-diag-0250'
p703
(lp704
S'heath_1908_v2_1_0036.jpg'
p705
aI3917
aI5750
aI2532
aI852
aI840
aI732
asS'heath-diag-0253'
p706
(lp707
S'heath_1908_v2_1_0038.jpg'
p708
aI3917
aI5750
aI2304
aI2472
aI672
aI660
asS'heath-diag-0414'
p709
(lp710
S'heath_1908_v2_1_0243.jpg'
p711
aI3917
aI5750
aI1068
aI1376
aI1784
aI784
asS'heath-diag-0413'
p712
(lp713
S'heath_1908_v2_1_0241.jpg'
p714
aI3917
aI5750
aI1084
aI3206
aI1568
aI672
asS'heath-diag-0412'
p715
(lp716
S'heath_1908_v2_1_0240.jpg'
p717
aI3917
aI5750
aI1398
aI2843
aI1488
aI480
asS'heath-diag-0411'
p718
(lp719
S'heath_1908_v2_1_0239.jpg'
p720
aI3917
aI5750
aI2393
aI3113
aI798
aI840
asS'heath-diag-0410'
p721
(lp722
S'heath_1908_v2_1_0238.jpg'
p723
aI3917
aI5750
aI2597
aI4008
aI832
aI752
asS'heath-diag-0259'
p724
(lp725
S'heath_1908_v2_1_0043.jpg'
p726
aI3917
aI5750
aI2064
aI1080
aI1164
aI768
asS'heath-diag-0258'
p727
(lp728
S'heath_1908_v2_1_0042.jpg'
p729
aI3917
aI5750
aI2544
aI3888
aI816
aI732
asS'heath-diag-0348'
p730
(lp731
S'heath_1908_v2_1_0167.jpg'
p732
aI3917
aI5750
aI1120
aI2380
aI1568
aI296
asS'heath-diag-0231'
p733
(lp734
S'heath_1908_v2_1_0018.jpg'
p735
aI3917
aI5750
aI2400
aI2556
aI828
aI960
asS'heath-diag-0419'
p736
(lp737
S'heath_1908_v2_1_0250.jpg'
p738
aI3917
aI5750
aI1128
aI3614
aI1776
aI888
asS'heath-diag-0418'
p739
(lp740
S'heath_1908_v2_1_0247.jpg'
p741
aI3917
aI5750
aI1056
aI2828
aI1688
aI832
asS'heath-diag-0530'
p742
(lp743
S'heath_1908_v2_1_0416.jpg'
p744
aI3917
aI5750
aI2315
aI1589
aI948
aI420
asS'heath-diag-0531'
p745
(lp746
S'heath_1908_v2_1_0418.jpg'
p747
aI3917
aI5750
aI2861
aI1344
aI492
aI372
asS'heath-diag-0544'
p748
(lp749
S'heath_1908_v2_1_0429.jpg'
p750
aI3917
aI5750
aI2469
aI2152
aI824
aI392
asS'heath-diag-0533'
p751
(lp752
S'heath_1908_v2_1_0420.jpg'
p753
aI3917
aI5750
aI1024
aI1080
aI1840
aI336
asS'heath-diag-0534'
p754
(lp755
S'heath_1908_v2_1_0421.jpg'
p756
aI3917
aI5750
aI2292
aI1343
aI984
aI558
asS'heath-diag-0535'
p757
(lp758
S'heath_1908_v2_1_0425.jpg'
p759
aI3917
aI5750
aI1886
aI2755
aI1380
aI210
asS'heath-diag-0536'
p760
(lp761
S'heath_1908_v2_1_0426.jpg'
p762
aI3917
aI5750
aI1228
aI1200
aI1496
aI216
asS'heath-diag-0537'
p763
(lp764
S'heath_1908_v2_1_0426.jpg'
p765
aI3917
aI5750
aI2013
aI2630
aI1224
aI224
asS'heath-diag-0538'
p766
(lp767
S'heath_1908_v2_1_0426.jpg'
p768
aI3917
aI5750
aI2421
aI4670
aI808
aI216
asS'heath-diag-0479'
p769
(lp770
S'heath_1908_v2_1_0345.jpg'
p771
aI3917
aI5750
aI2461
aI3884
aI912
aI864
asS'heath-diag-0373'
p772
(lp773
S'heath_1908_v2_1_0206.jpg'
p774
aI3917
aI5750
aI2709
aI2960
aI736
aI736
asS'heath-diag-0302'
p775
(lp776
S'heath_1908_v2_1_0086.jpg'
p777
aI3917
aI5750
aI2453
aI3854
aI992
aI752
asS'heath-diag-0840'
p778
(lp779
S'heath_1908_v2_1_0424.jpg'
p780
aI3917
aI5750
aI1937
aI1812
aI1308
aI504
asS'heath-diag-0532'
p781
(lp782
S'heath_1908_v2_1_0418.jpg'
p783
aI3917
aI5750
aI2315
aI4220
aI1050
aI504
asS'heath-diag-0488'
p784
(lp785
S'heath_1908_v2_1_0357.jpg'
p786
aI3917
aI5750
aI1896
aI2804
aI1264
aI528
asS'heath-diag-0526'
p787
(lp788
S'heath_1908_v2_1_0408.jpg'
p789
aI3917
aI5750
aI2627
aI942
aI804
aI570
asS'heath-diag-0325'
p790
(lp791
S'heath_1908_v2_1_0114.jpg'
p792
aI3917
aI5750
aI2517
aI2872
aI944
aI928
asS'heath-diag-0324'
p793
(lp794
S'heath_1908_v2_1_0114.jpg'
p795
aI3917
aI5750
aI2453
aI928
aI968
aI1016
asS'heath-diag-0327'
p796
(lp797
S'heath_1908_v2_1_0118.jpg'
p798
aI3917
aI5750
aI2589
aI3846
aI816
aI848
asS'heath-diag-0326'
p799
(lp800
S'heath_1908_v2_1_0117.jpg'
p801
aI3917
aI5750
aI2349
aI928
aI920
aI936
asS'heath-diag-0321'
p802
(lp803
S'heath_1908_v2_1_0110.jpg'
p804
aI3917
aI5750
aI1121
aI3526
aI776
aI696
asS'heath-diag-0320'
p805
(lp806
S'heath_1908_v2_1_0110.jpg'
p807
aI3917
aI5750
aI2861
aI1864
aI592
aI552
asS'heath-diag-0323'
p808
(lp809
S'heath_1908_v2_1_0112.jpg'
p810
aI3917
aI5750
aI2327
aI3191
aI1098
aI696
asS'heath-diag-0322'
p811
(lp812
S'heath_1908_v2_1_0110.jpg'
p813
aI3917
aI5750
aI2333
aI3514
aI704
aI688
asS'heath-diag-0246'
p814
(lp815
S'heath_1908_v2_1_0032.jpg'
p816
aI3917
aI5750
aI2628
aI1824
aI792
aI1056
asS'heath-diag-0247'
p817
(lp818
S'heath_1908_v2_1_0033.jpg'
p819
aI3917
aI5750
aI2244
aI2556
aI1020
aI1032
asS'heath-diag-0244'
p820
(lp821
S'heath_1908_v2_1_0030.jpg'
p822
aI3917
aI5750
aI2352
aI1608
aI972
aI1452
asS'heath-diag-0245'
p823
(lp824
S'heath_1908_v2_1_0032.jpg'
p825
aI3917
aI5750
aI2544
aI816
aI864
aI888
asS'heath-diag-0329'
p826
(lp827
S'heath_1908_v2_1_0122.jpg'
p828
aI3917
aI5750
aI2077
aI1416
aI1328
aI1328
asS'heath-diag-0243'
p829
(lp830
S'heath_1908_v2_1_0029.jpg'
p831
aI3917
aI5750
aI2460
aI2088
aI816
aI768
asS'heath-diag-0240'
p832
(lp833
S'heath_1908_v2_1_0027.jpg'
p834
aI3917
aI5750
aI2472
aI3912
aI756
aI684
asS'heath-diag-0241'
p835
(lp836
S'heath_1908_v2_1_0028.jpg'
p837
aI3917
aI5750
aI2424
aI4380
aI876
aI840
asS'heath-diag-0404'
p838
(lp839
S'heath_1908_v2_1_0236.jpg'
p840
aI3917
aI5750
aI2613
aI2148
aI792
aI824
asS'heath-diag-0405'
p841
(lp842
S'heath_1908_v2_1_0236.jpg'
p843
aI3917
aI5750
aI1117
aI4110
aI760
aI712
asS'heath-diag-0406'
p844
(lp845
S'heath_1908_v2_1_0236.jpg'
p846
aI3917
aI5750
aI2213
aI4126
aI736
aI648
asS'heath-diag-0407'
p847
(lp848
S'heath_1908_v2_1_0237.jpg'
p849
aI3917
aI5750
aI936
aI3112
aI832
aI760
asS'heath-diag-0400'
p850
(lp851
S'heath_1908_v2_1_0235.jpg'
p852
aI3917
aI5750
aI908
aI1008
aI896
aI808
asS'heath-diag-0401'
p853
(lp854
S'heath_1908_v2_1_0235.jpg'
p855
aI3917
aI5750
aI2020
aI952
aI936
aI856
asS'heath-diag-0402'
p856
(lp857
S'heath_1908_v2_1_0235.jpg'
p858
aI3917
aI5750
aI844
aI3142
aI840
aI824
asS'heath-diag-0403'
p859
(lp860
S'heath_1908_v2_1_0235.jpg'
p861
aI3917
aI5750
aI1841
aI3134
aI1264
aI816
asS'heath-diag-0408'
p862
(lp863
S'heath_1908_v2_1_0237.jpg'
p864
aI3917
aI5750
aI2064
aI3120
aI784
aI736
asS'heath-diag-0409'
p865
(lp866
S'heath_1908_v2_1_0238.jpg'
p867
aI3917
aI5750
aI2541
aI2680
aI944
aI1064
asS'heath-diag-0518'
p868
(lp869
S'heath_1908_v2_1_0398.jpg'
p870
aI3917
aI5750
aI2749
aI888
aI688
aI384
asS'heath-diag-0539'
p871
(lp872
S'heath_1908_v2_1_0427.jpg'
p873
aI3917
aI5750
aI2271
aI2081
aI1026
aI216
asS'heath-diag-0417'
p874
(lp875
S'heath_1908_v2_1_0244.jpg'
p876
aI3917
aI5750
aI1325
aI3710
aI1432
aI664
asS'heath-diag-0528'
p877
(lp878
S'heath_1908_v2_1_0411.jpg'
p879
aI3917
aI5750
aI964
aI3697
aI1764
aI498
asS'heath-diag-0249'
p880
(lp881
S'heath_1908_v2_1_0035.jpg'
p882
aI3917
aI5750
aI2064
aI1212
aI1176
aI1092
asS'heath-diag-0230'
p883
(lp884
S'heath_1908_v2_1_0017.jpg'
p885
aI3917
aI5750
aI2376
aI3048
aI876
aI816
asS'heath-diag-0332'
p886
(lp887
S'heath_1908_v2_1_0139.jpg'
p888
aI3917
aI5750
aI836
aI992
aI2296
aI504
asS'heath-diag-0333'
p889
(lp890
S'heath_1908_v2_1_0139.jpg'
p891
aI3917
aI5750
aI2517
aI3226
aI728
aI472
asS'heath-diag-0330'
p892
(lp893
S'heath_1908_v2_1_0134.jpg'
p894
aI3917
aI5750
aI968
aI3288
aI2136
aI424
asS'heath-diag-0331'
p895
(lp896
S'heath_1908_v2_1_0136.jpg'
p897
aI3917
aI5750
aI1088
aI1636
aI1864
aI744
asS'heath-diag-0336'
p898
(lp899
S'heath_1908_v2_1_0141.jpg'
p900
aI3917
aI5750
aI528
aI1176
aI2712
aI336
asS'heath-diag-0337'
p901
(lp902
S'heath_1908_v2_1_0150.jpg'
p903
aI3917
aI5750
aI1304
aI2848
aI1520
aI440
asS'heath-diag-0334'
p904
(lp905
S'heath_1908_v2_1_0140.jpg'
p906
aI3917
aI5750
aI1116
aI920
aI1888
aI328
asS'heath-diag-0335'
p907
(lp908
S'heath_1908_v2_1_0140.jpg'
p909
aI3917
aI5750
aI1021
aI3390
aI2040
aI392
asS'heath-diag-0233'
p910
(lp911
S'heath_1908_v2_1_0020.jpg'
p912
aI3917
aI5750
aI2400
aI4068
aI900
aI924
asS'heath-diag-0232'
p913
(lp914
S'heath_1908_v2_1_0019.jpg'
p915
aI3917
aI5750
aI2544
aI3564
aI816
aI804
asS'heath-diag-0338'
p916
(lp917
S'heath_1908_v2_1_0151.jpg'
p918
aI3917
aI5750
aI1968
aI3480
aI1368
aI600
asS'heath-diag-0339'
p919
(lp920
S'heath_1908_v2_1_0153.jpg'
p921
aI3917
aI5750
aI1188
aI1168
aI1496
aI800
asS'heath-diag-0512'
p922
(lp923
S'heath_1908_v2_1_0392.jpg'
p924
aI3917
aI5750
aI2349
aI2008
aI968
aI440
asS'heath-diag-0236'
p925
(lp926
S'heath_1908_v2_1_0023.jpg'
p927
aI3917
aI5750
aI2364
aI3120
aI960
aI1032
asS'heath-diag-0235'
p928
(lp929
S'heath_1908_v2_1_0022.jpg'
p930
aI3917
aI5750
aI2316
aI2664
aI852
aI1032
asS'heath-diag-0234'
p931
(lp932
S'heath_1908_v2_1_0021.jpg'
p933
aI3917
aI5750
aI2544
aI3120
aI756
aI756
asS'heath-diag-0431'
p934
(lp935
S'heath_1908_v2_1_0270.jpg'
p936
aI3917
aI5750
aI2069
aI1240
aI1328
aI672
asS'heath-diag-0430'
p937
(lp938
S'heath_1908_v2_1_0269.jpg'
p939
aI3917
aI5750
aI2197
aI1732
aI1024
aI704
asS'heath-diag-0433'
p940
(lp941
S'heath_1908_v2_1_0272.jpg'
p942
aI3917
aI5750
aI2341
aI928
aI1080
aI936
asS'heath-diag-0432'
p943
(lp944
S'heath_1908_v2_1_0271.jpg'
p945
aI3917
aI5750
aI2037
aI2036
aI1152
aI664
asS'heath-diag-0435'
p946
(lp947
S'heath_1908_v2_1_0275.jpg'
p948
aI3917
aI5750
aI1078
aI3465
aI1566
aI732
asS'heath-diag-0434'
p949
(lp950
S'heath_1908_v2_1_0273.jpg'
p951
aI3917
aI5750
aI888
aI2092
aI1960
aI872
asS'heath-diag-0437'
p952
(lp953
S'heath_1908_v2_1_0276.jpg'
p954
aI3917
aI5750
aI2277
aI4340
aI1072
aI552
asS'heath-diag-0436'
p955
(lp956
S'heath_1908_v2_1_0276.jpg'
p957
aI3917
aI5750
aI2397
aI2796
aI1024
aI928
asS'heath-diag-0439'
p958
(lp959
S'heath_1908_v2_1_0279.jpg'
p960
aI3917
aI5750
aI2613
aI3974
aI672
aI1024
asS'heath-diag-0438'
p961
(lp962
S'heath_1908_v2_1_0277.jpg'
p963
aI3917
aI5750
aI704
aI3120
aI2336
aI880
asS'heath-diag-0415'
p964
(lp965
S'heath_1908_v2_1_0243.jpg'
p966
aI3917
aI5750
aI1020
aI2808
aI1880
aI784
as.