(dp0
S'heath-diag-0619'
p1
(lp2
S'heath_1908_v3_1_0132.jpg'
p3
aI3817
aI5650
aI852
aI1792
aI1840
aI704
asS'heath-diag-0750'
p4
(lp5
S'heath_1908_v3_1_0346.jpg'
p6
aI3817
aI5650
aI1897
aI3154
aI1264
aI960
asS'heath-diag-0752'
p7
(lp8
S'heath_1908_v3_1_0348.jpg'
p9
aI3817
aI5650
aI1760
aI896
aI1344
aI1096
asS'heath-diag-0753'
p10
(lp11
S'heath_1908_v3_1_0349.jpg'
p12
aI3817
aI5650
aI1268
aI1000
aI1552
aI1168
asS'heath-diag-0565'
p13
(lp14
S'heath_1908_v3_1_0040.jpg'
p15
aI3817
aI5650
aI1780
aI824
aI1344
aI368
asS'heath-diag-0755'
p16
(lp17
S'heath_1908_v3_1_0350.jpg'
p18
aI3817
aI5650
aI300
aI2076
aI2916
aI1128
asS'heath-diag-0756'
p19
(lp20
S'heath_1908_v3_1_0352.jpg'
p21
aI3817
aI5650
aI648
aI2652
aI2148
aI732
asS'heath-diag-0751'
p22
(lp23
S'heath_1908_v3_1_0347.jpg'
p24
aI3817
aI5650
aI637
aI2506
aI2688
aI708
asS'heath-diag-0611'
p25
(lp26
S'heath_1908_v3_1_0113.jpg'
p27
aI3817
aI5650
aI2265
aI2592
aI1104
aI480
asS'heath-diag-0759'
p28
(lp29
S'heath_1908_v3_1_0359.jpg'
p30
aI3817
aI5650
aI984
aI1368
aI2028
aI1272
asS'heath-diag-0613'
p31
(lp32
S'heath_1908_v3_1_0117.jpg'
p33
aI3817
aI5650
aI1140
aI3372
aI1680
aI368
asS'heath-diag-0612'
p34
(lp35
S'heath_1908_v3_1_0115.jpg'
p36
aI3817
aI5650
aI2573
aI3282
aI768
aI768
asS'heath-diag-0615'
p37
(lp38
S'heath_1908_v3_1_0122.jpg'
p39
aI3817
aI5650
aI2569
aI1096
aI512
aI928
asS'heath-diag-0614'
p40
(lp41
S'heath_1908_v3_1_0120.jpg'
p42
aI3817
aI5650
aI2601
aI2188
aI536
aI960
asS'heath-diag-0667'
p43
(lp44
S'heath_1908_v3_1_0240.jpg'
p45
aI3817
aI5650
aI928
aI1920
aI1672
aI672
asS'heath-diag-0616'
p46
(lp47
S'heath_1908_v3_1_0123.jpg'
p48
aI3817
aI5650
aI2601
aI3104
aI776
aI928
asS'heath-diag-0665'
p49
(lp50
S'heath_1908_v3_1_0234.jpg'
p51
aI3817
aI5650
aI968
aI2692
aI1680
aI672
asS'heath-diag-0555'
p52
(lp53
S'heath_1908_v3_1_0027.jpg'
p54
aI3817
aI5650
aI1348
aI3594
aI1440
aI304
asS'heath-diag-0680'
p55
(lp56
S'heath_1908_v3_1_0267.jpg'
p57
aI3817
aI5650
aI2121
aI2296
aI1256
aI600
asS'heath-diag-0552'
p58
(lp59
S'heath_1908_v3_1_0020.jpg'
p60
aI3817
aI5650
aI1036
aI3018
aI1400
aI576
asS'heath-diag-0609'
p61
(lp62
S'heath_1908_v3_1_0110.jpg'
p63
aI3817
aI5650
aI2073
aI1384
aI984
aI208
asS'heath-diag-0827'
p64
(lp65
S'heath_1908_v3_1_0511.jpg'
p66
aI3817
aI5650
aI1032
aI1228
aI2064
aI1736
asS'heath-diag-0585'
p67
(lp68
S'heath_1908_v3_1_0069.jpg'
p69
aI3817
aI5650
aI2153
aI2548
aI1240
aI760
asS'heath-diag-0584'
p70
(lp71
S'heath_1908_v3_1_0067.jpg'
p72
aI3817
aI5650
aI2169
aI1948
aI1232
aI976
asS'heath-diag-0587'
p73
(lp74
S'heath_1908_v3_1_0072.jpg'
p75
aI3817
aI5650
aI1016
aI4074
aI1600
aI400
asS'heath-diag-0586'
p76
(lp77
S'heath_1908_v3_1_0071.jpg'
p78
aI3817
aI5650
aI2721
aI2408
aI656
aI792
asS'heath-diag-0581'
p79
(lp80
S'heath_1908_v3_1_0062.jpg'
p81
aI3817
aI5650
aI1993
aI3060
aI1064
aI872
asS'heath-diag-0580'
p82
(lp83
S'heath_1908_v3_1_0061.jpg'
p84
aI3817
aI5650
aI2385
aI4258
aI1024
aI464
asS'heath-diag-0583'
p85
(lp86
S'heath_1908_v3_1_0066.jpg'
p87
aI3817
aI5650
aI2601
aI2068
aI496
aI848
asS'heath-diag-0582'
p88
(lp89
S'heath_1908_v3_1_0064.jpg'
p90
aI3817
aI5650
aI2161
aI2376
aI904
aI960
asS'heath-diag-0825'
p91
(lp92
S'heath_1908_v3_1_0502.jpg'
p93
aI3817
aI5650
aI1060
aI2818
aI1392
aI1808
asS'heath-diag-0589'
p94
(lp95
S'heath_1908_v3_1_0075.jpg'
p96
aI3817
aI5650
aI1412
aI2320
aI1272
aI232
asS'heath-diag-0588'
p97
(lp98
S'heath_1908_v3_1_0074.jpg'
p99
aI3817
aI5650
aI1937
aI1744
aI1096
aI208
asS'heath-diag-0666'
p100
(lp101
S'heath_1908_v3_1_0237.jpg'
p102
aI3817
aI5650
aI1220
aI3514
aI1664
aI632
asS'heath-diag-0758'
p103
(lp104
S'heath_1908_v3_1_0355.jpg'
p105
aI3817
aI5650
aI888
aI2076
aI2364
aI1692
asS'heath-diag-0610'
p106
(lp107
S'heath_1908_v3_1_0111.jpg'
p108
aI3817
aI5650
aI1324
aI1100
aI1480
aI1080
asS'heath-diag-0629'
p109
(lp110
S'heath_1908_v3_1_0153.jpg'
p111
aI3817
aI5650
aI2329
aI1384
aI1040
aI760
asS'heath-diag-0828'
p112
(lp113
S'heath_1908_v3_1_0512.jpg'
p114
aI3817
aI5650
aI1840
aI3554
aI1272
aI1264
asS'heath-diag-0563'
p115
(lp116
S'heath_1908_v3_1_0039.jpg'
p117
aI3817
aI5650
aI2849
aI1700
aI424
aI264
asS'heath-diag-0607'
p118
(lp119
S'heath_1908_v3_1_0106.jpg'
p120
aI3817
aI5650
aI808
aI2500
aI1944
aI792
asS'heath-diag-0604'
p121
(lp122
S'heath_1908_v3_1_0102.jpg'
p123
aI3817
aI5650
aI1873
aI3762
aI1256
aI192
asS'heath-diag-0818'
p124
(lp125
S'heath_1908_v3_1_0486.jpg'
p126
aI3817
aI5650
aI2015
aI1692
aI1032
aI1056
asS'heath-diag-0602'
p127
(lp128
S'heath_1908_v3_1_0100.jpg'
p129
aI3817
aI5650
aI2265
aI856
aI824
aI192
asS'heath-diag-0603'
p130
(lp131
S'heath_1908_v3_1_0101.jpg'
p132
aI3817
aI5650
aI2673
aI896
aI712
aI1264
asS'heath-diag-0600'
p133
(lp134
S'heath_1908_v3_1_0096.jpg'
p135
aI3817
aI5650
aI1864
aI3714
aI1216
aI736
asS'heath-diag-0568'
p136
(lp137
S'heath_1908_v3_1_0045.jpg'
p138
aI3817
aI5650
aI1184
aI4074
aI1808
aI528
asS'heath-diag-0567'
p139
(lp140
S'heath_1908_v3_1_0044.jpg'
p141
aI3817
aI5650
aI1796
aI3080
aI1264
aI224
asS'heath-diag-0566'
p142
(lp143
S'heath_1908_v3_1_0043.jpg'
p144
aI3817
aI5650
aI2753
aI864
aI640
aI544
asS'heath-diag-0811'
p145
(lp146
S'heath_1908_v3_1_0469.jpg'
p147
aI3817
aI5650
aI2105
aI996
aI1320
aI1368
asS'heath-diag-0810'
p148
(lp149
S'heath_1908_v3_1_0466.jpg'
p150
aI3817
aI5650
aI2152
aI3690
aI944
aI1136
asS'heath-diag-0817'
p151
(lp152
S'heath_1908_v3_1_0485.jpg'
p153
aI3817
aI5650
aI1160
aI2844
aI1832
aI832
asS'heath-diag-0816'
p154
(lp155
S'heath_1908_v3_1_0483.jpg'
p156
aI3817
aI5650
aI1112
aI3060
aI1864
aI944
asS'heath-diag-0561'
p157
(lp158
S'heath_1908_v3_1_0035.jpg'
p159
aI3817
aI5650
aI1264
aI2904
aI1584
aI372
asS'heath-diag-0560'
p160
(lp161
S'heath_1908_v3_1_0033.jpg'
p162
aI3817
aI5650
aI2457
aI2220
aI976
aI504
asS'heath-diag-0553'
p163
(lp164
S'heath_1908_v3_1_0020.jpg'
p165
aI3817
aI5650
aI1092
aI4162
aI1392
aI520
asS'heath-diag-0712'
p166
(lp167
S'heath_1908_v3_1_0311.jpg'
p168
aI3817
aI5650
aI2393
aI4298
aI960
aI736
asS'heath-diag-0606'
p169
(lp170
S'heath_1908_v3_1_0105.jpg'
p171
aI3817
aI5650
aI2185
aI2802
aI1140
aI162
asS'heath-diag-0638'
p172
(lp173
S'heath_1908_v3_1_0169.jpg'
p174
aI3817
aI5650
aI2447
aI3486
aI876
aI204
asS'heath-diag-0713'
p175
(lp176
S'heath_1908_v3_1_0312.jpg'
p177
aI3817
aI5650
aI2065
aI752
aI1040
aI744
asS'heath-diag-0562'
p178
(lp179
S'heath_1908_v3_1_0037.jpg'
p180
aI3817
aI5650
aI1180
aI1368
aI1784
aI368
asS'heath-diag-0592'
p181
(lp182
S'heath_1908_v3_1_0080.jpg'
p183
aI3817
aI5650
aI2545
aI3946
aI582
aI762
asS'heath-diag-0593'
p184
(lp185
S'heath_1908_v3_1_0083.jpg'
p186
aI3817
aI5650
aI1280
aI1256
aI1568
aI448
asS'heath-diag-0590'
p187
(lp188
S'heath_1908_v3_1_0078.jpg'
p189
aI3817
aI5650
aI2153
aI968
aI952
aI744
asS'heath-diag-0591'
p190
(lp191
S'heath_1908_v3_1_0079.jpg'
p192
aI3817
aI5650
aI2297
aI3020
aI1112
aI880
asS'heath-diag-0596'
p193
(lp194
S'heath_1908_v3_1_0089.jpg'
p195
aI3817
aI5650
aI1308
aI3402
aI1416
aI544
asS'heath-diag-0597'
p196
(lp197
S'heath_1908_v3_1_0092.jpg'
p198
aI3817
aI5650
aI1040
aI984
aI1432
aI552
asS'heath-diag-0594'
p199
(lp200
S'heath_1908_v3_1_0085.jpg'
p201
aI3817
aI5650
aI2419
aI4000
aI948
aI540
asS'heath-diag-0595'
p202
(lp203
S'heath_1908_v3_1_0086.jpg'
p204
aI3817
aI5650
aI1760
aI4306
aI1328
aI528
asS'heath-diag-0633'
p205
(lp206
S'heath_1908_v3_1_0160.jpg'
p207
aI3817
aI5650
aI2705
aI1376
aI352
aI672
asS'heath-diag-0617'
p208
(lp209
S'heath_1908_v3_1_0126.jpg'
p210
aI3817
aI5650
aI2385
aI3700
aI684
aI726
asS'heath-diag-0599'
p211
(lp212
S'heath_1908_v3_1_0095.jpg'
p213
aI3817
aI5650
aI2221
aI4270
aI1182
aI192
asS'heath-diag-0691'
p214
(lp215
S'heath_1908_v3_1_0291.jpg'
p216
aI3817
aI5650
aI2291
aI822
aI1086
aI756
asS'heath-diag-0690'
p217
(lp218
S'heath_1908_v3_1_0290.jpg'
p219
aI3817
aI5650
aI2129
aI2402
aI976
aI744
asS'heath-diag-0693'
p220
(lp221
S'heath_1908_v3_1_0293.jpg'
p222
aI3817
aI5650
aI2317
aI3348
aI1008
aI564
asS'heath-diag-0692'
p223
(lp224
S'heath_1908_v3_1_0293.jpg'
p225
aI3817
aI5650
aI2357
aI1314
aI1044
aI1056
asS'heath-diag-0695'
p226
(lp227
S'heath_1908_v3_1_0295.jpg'
p228
aI3817
aI5650
aI2445
aI3120
aI960
aI774
asS'heath-diag-0694'
p229
(lp230
S'heath_1908_v3_1_0294.jpg'
p231
aI3817
aI5650
aI2295
aI3096
aI804
aI726
asS'heath-diag-0697'
p232
(lp233
S'heath_1908_v3_1_0296.jpg'
p234
aI3817
aI5650
aI2160
aI1794
aI900
aI750
asS'heath-diag-0696'
p235
(lp236
S'heath_1908_v3_1_0295.jpg'
p237
aI3817
aI5650
aI2649
aI4188
aI732
aI696
asS'heath-diag-0699'
p238
(lp239
S'heath_1908_v3_1_0298.jpg'
p240
aI3817
aI5650
aI2225
aI3832
aI888
aI612
asS'heath-diag-0698'
p241
(lp242
S'heath_1908_v3_1_0297.jpg'
p243
aI3817
aI5650
aI2389
aI4012
aI936
aI816
asS'heath-diag-0762'
p244
(lp245
S'heath_1908_v3_1_0370.jpg'
p246
aI3817
aI5650
aI396
aI1476
aI2592
aI1176
asS'heath-diag-0598'
p247
(lp248
S'heath_1908_v3_1_0094.jpg'
p249
aI3817
aI5650
aI2009
aI2444
aI968
aI184
asS'heath-diag-0673'
p250
(lp251
S'heath_1908_v3_1_0248.jpg'
p252
aI3817
aI5650
aI1816
aI1488
aI1288
aI984
asS'heath-diag-0809'
p253
(lp254
S'heath_1908_v3_1_0464.jpg'
p255
aI3817
aI5650
aI2065
aI3850
aI1000
aI976
asS'heath-diag-0671'
p256
(lp257
S'heath_1908_v3_1_0246.jpg'
p258
aI3817
aI5650
aI2225
aI3052
aI840
aI328
asS'heath-diag-0670'
p259
(lp260
S'heath_1908_v3_1_0245.jpg'
p261
aI3817
aI5650
aI2481
aI2928
aI824
aI312
asS'heath-diag-0677'
p262
(lp263
S'heath_1908_v3_1_0256.jpg'
p264
aI3817
aI5650
aI432
aI4116
aI2760
aI516
asS'heath-diag-0676'
p265
(lp266
S'heath_1908_v3_1_0253.jpg'
p267
aI3817
aI5650
aI2521
aI2516
aI872
aI1104
asS'heath-diag-0675'
p268
(lp269
S'heath_1908_v3_1_0251.jpg'
p270
aI3817
aI5650
aI1252
aI3762
aI1528
aI880
asS'heath-diag-0661'
p271
(lp272
S'heath_1908_v3_1_0222.jpg'
p273
aI3817
aI5650
aI1104
aI1816
aI1440
aI1328
asS'heath-diag-0800'
p274
(lp275
S'heath_1908_v3_1_0453.jpg'
p276
aI3817
aI5650
aI2361
aI4018
aI1032
aI240
asS'heath-diag-0575'
p277
(lp278
S'heath_1908_v3_1_0053.jpg'
p279
aI3817
aI5650
aI2505
aI1320
aI928
aI584
asS'heath-diag-0679'
p280
(lp281
S'heath_1908_v3_1_0265.jpg'
p282
aI3817
aI5650
aI2280
aI3122
aI1072
aI776
asS'heath-diag-0577'
p283
(lp284
S'heath_1908_v3_1_0058.jpg'
p285
aI3817
aI5650
aI2361
aI3906
aI712
aI760
asS'heath-diag-0570'
p286
(lp287
S'heath_1908_v3_1_0047.jpg'
p288
aI3817
aI5650
aI2361
aI3442
aI1040
aI544
asS'heath-diag-0805'
p289
(lp290
S'heath_1908_v3_1_0458.jpg'
p291
aI3817
aI5650
aI2281
aI3298
aI776
aI880
asS'heath-diag-0806'
p292
(lp293
S'heath_1908_v3_1_0459.jpg'
p294
aI3817
aI5650
aI2221
aI3856
aI1158
aI846
asS'heath-diag-0807'
p295
(lp296
S'heath_1908_v3_1_0461.jpg'
p297
aI3817
aI5650
aI2385
aI896
aI1088
aI208
asS'heath-diag-0663'
p298
(lp299
S'heath_1908_v3_1_0228.jpg'
p300
aI3817
aI5650
aI976
aI3244
aI1696
aI656
asS'heath-diag-0803'
p301
(lp302
S'heath_1908_v3_1_0457.jpg'
p303
aI3817
aI5650
aI2233
aI888
aI1144
aI1256
asS'heath-diag-0664'
p304
(lp305
S'heath_1908_v3_1_0231.jpg'
p306
aI3817
aI5650
aI1220
aI1892
aI1656
aI664
asS'heath-diag-0802'
p307
(lp308
S'heath_1908_v3_1_0456.jpg'
p309
aI3817
aI5650
aI2241
aI2080
aI856
aI1256
asS'heath-diag-0763'
p310
(lp311
S'heath_1908_v3_1_0371.jpg'
p312
aI3817
aI5650
aI564
aI3744
aI3024
aI864
asS'heath-diag-0709'
p313
(lp314
S'heath_1908_v3_1_0309.jpg'
p315
aI3817
aI5650
aI2057
aI1484
aI1320
aI632
asS'heath-diag-0688'
p316
(lp317
S'heath_1908_v3_1_0290.jpg'
p318
aI3817
aI5650
aI2201
aI832
aI920
aI904
asS'heath-diag-0689'
p319
(lp320
S'heath_1908_v3_1_0290.jpg'
p321
aI3817
aI5650
aI424
aI2352
aI1376
aI872
asS'heath-diag-0686'
p322
(lp323
S'heath_1908_v3_1_0288.jpg'
p324
aI3817
aI5650
aI1996
aI2604
aI1144
aI928
asS'heath-diag-0687'
p325
(lp326
S'heath_1908_v3_1_0289.jpg'
p327
aI3817
aI5650
aI2601
aI2096
aI744
aI896
asS'heath-diag-0684'
p328
(lp329
S'heath_1908_v3_1_0286.jpg'
p330
aI3817
aI5650
aI2289
aI2988
aI848
aI576
asS'heath-diag-0708'
p331
(lp332
S'heath_1908_v3_1_0308.jpg'
p333
aI3817
aI5650
aI2201
aI1460
aI912
aI752
asS'heath-diag-0682'
p334
(lp335
S'heath_1908_v3_1_0282.jpg'
p336
aI3817
aI5650
aI1937
aI832
aI1248
aI1160
asS'heath-diag-0683'
p337
(lp338
S'heath_1908_v3_1_0285.jpg'
p339
aI3817
aI5650
aI2593
aI2236
aI752
aI912
asS'heath-diag-0572'
p340
(lp341
S'heath_1908_v3_1_0050.jpg'
p342
aI3817
aI5650
aI1833
aI1472
aI1256
aI352
asS'heath-diag-0681'
p343
(lp344
S'heath_1908_v3_1_0277.jpg'
p345
aI3817
aI5650
aI2725
aI3826
aI636
aI1002
asS'heath-diag-0668'
p346
(lp347
S'heath_1908_v3_1_0242.jpg'
p348
aI3817
aI5650
aI2184
aI4514
aI848
aI328
asS'heath-diag-0804'
p349
(lp350
S'heath_1908_v3_1_0458.jpg'
p351
aI3817
aI5650
aI2209
aI1284
aI856
aI1288
asS'heath-diag-0769'
p352
(lp353
S'heath_1908_v3_1_0382.jpg'
p354
aI3817
aI5650
aI720
aI2728
aI2088
aI976
asS'heath-diag-0768'
p355
(lp356
S'heath_1908_v3_1_0380.jpg'
p357
aI3817
aI5650
aI976
aI1624
aI1600
aI1136
asS'heath-diag-0669'
p358
(lp359
S'heath_1908_v3_1_0244.jpg'
p360
aI3817
aI5650
aI2232
aI3112
aI848
aI304
asS'heath-diag-0765'
p361
(lp362
S'heath_1908_v3_1_0373.jpg'
p363
aI3817
aI5650
aI2313
aI2488
aI1104
aI512
asS'heath-diag-0764'
p364
(lp365
S'heath_1908_v3_1_0372.jpg'
p366
aI3817
aI5650
aI564
aI3288
aI2532
aI1500
asS'heath-diag-0767'
p367
(lp368
S'heath_1908_v3_1_0376.jpg'
p369
aI3817
aI5650
aI888
aI2560
aI1816
aI704
asS'heath-diag-0766'
p370
(lp371
S'heath_1908_v3_1_0374.jpg'
p372
aI3817
aI5650
aI1020
aI2484
aI1500
aI1692
asS'heath-diag-0761'
p373
(lp374
S'heath_1908_v3_1_0365.jpg'
p375
aI3817
aI5650
aI1152
aI3132
aI1768
aI824
asS'heath-diag-0760'
p376
(lp377
S'heath_1908_v3_1_0361.jpg'
p378
aI3817
aI5650
aI912
aI2004
aI2100
aI1236
asS'heath-diag-0754'
p379
(lp380
S'heath_1908_v3_1_0349.jpg'
p381
aI3817
aI5650
aI973
aI3114
aI2152
aI1360
asS'heath-diag-0658'
p382
(lp383
S'heath_1908_v3_1_0210.jpg'
p384
aI3817
aI5650
aI1084
aI2552
aI1408
aI1320
asS'heath-diag-0835'
p385
(lp386
S'heath_1908_v3_1_0525.jpg'
p387
aI3817
aI5650
aI2515
aI852
aI894
aI750
asS'heath-diag-0834'
p388
(lp389
S'heath_1908_v3_1_0524.jpg'
p390
aI3817
aI5650
aI2277
aI3480
aI762
aI762
asS'heath-diag-0837'
p391
(lp392
S'heath_1908_v3_1_0526.jpg'
p393
aI3817
aI5650
aI2259
aI1488
aI756
aI774
asS'heath-diag-0627'
p394
(lp395
S'heath_1908_v3_1_0148.jpg'
p396
aI3817
aI5650
aI2113
aI3890
aI1032
aI760
asS'heath-diag-0831'
p397
(lp398
S'heath_1908_v3_1_0523.jpg'
p399
aI3817
aI5650
aI2433
aI784
aI984
aI1040
asS'heath-diag-0830'
p400
(lp401
S'heath_1908_v3_1_0522.jpg'
p402
aI3817
aI5650
aI2195
aI1272
aI900
aI1020
asS'heath-diag-0833'
p403
(lp404
S'heath_1908_v3_1_0524.jpg'
p405
aI3817
aI5650
aI2241
aI2586
aI798
aI786
asS'heath-diag-0832'
p406
(lp407
S'heath_1908_v3_1_0523.jpg'
p408
aI3817
aI5650
aI933
aI2410
aI2248
aI832
asS'heath-diag-0707'
p409
(lp410
S'heath_1908_v3_1_0307.jpg'
p411
aI3817
aI5650
aI2561
aI2890
aI824
aI808
asS'heath-diag-0706'
p412
(lp413
S'heath_1908_v3_1_0306.jpg'
p414
aI3817
aI5650
aI1833
aI3486
aI1280
aI664
asS'heath-diag-0705'
p415
(lp416
S'heath_1908_v3_1_0306.jpg'
p417
aI3817
aI5650
aI460
aI3498
aI1248
aI640
asS'heath-diag-0704'
p418
(lp419
S'heath_1908_v3_1_0305.jpg'
p420
aI3817
aI5650
aI2471
aI2070
aI888
aI828
asS'heath-diag-0839'
p421
(lp422
S'heath_1908_v3_1_0527.jpg'
p423
aI3817
aI5650
aI2563
aI4390
aI876
aI330
asS'heath-diag-0838'
p424
(lp425
S'heath_1908_v3_1_0526.jpg'
p426
aI3817
aI5650
aI2207
aI3940
aI840
aI1086
asS'heath-diag-0701'
p427
(lp428
S'heath_1908_v3_1_0302.jpg'
p429
aI3817
aI5650
aI2094
aI3012
aI984
aI720
asS'heath-diag-0700'
p430
(lp431
S'heath_1908_v3_1_0300.jpg'
p432
aI3817
aI5650
aI2157
aI2820
aI924
aI840
asS'heath-diag-0564'
p433
(lp434
S'heath_1908_v3_1_0039.jpg'
p435
aI3817
aI5650
aI2889
aI2868
aI400
aI264
asS'heath-diag-0739'
p436
(lp437
S'heath_1908_v3_1_0335.jpg'
p438
aI3817
aI5650
aI876
aI1728
aI2304
aI1404
asS'heath-diag-0826'
p439
(lp440
S'heath_1908_v3_1_0508.jpg'
p441
aI3817
aI5650
aI744
aI2000
aI2048
aI1912
asS'heath-diag-0651'
p442
(lp443
S'heath_1908_v3_1_0191.jpg'
p444
aI3817
aI5650
aI2265
aI1160
aI1128
aI656
asS'heath-diag-0799'
p445
(lp446
S'heath_1908_v3_1_0452.jpg'
p447
aI3817
aI5650
aI2201
aI3362
aI824
aI1288
asS'heath-diag-0780'
p448
(lp449
S'heath_1908_v3_1_0403.jpg'
p450
aI3817
aI5650
aI1100
aI1620
aI1808
aI1120
asS'heath-diag-0778'
p451
(lp452
S'heath_1908_v3_1_0400.jpg'
p453
aI3817
aI5650
aI876
aI2000
aI1688
aI1096
asS'heath-diag-0779'
p454
(lp455
S'heath_1908_v3_1_0401.jpg'
p456
aI3817
aI5650
aI916
aI2532
aI2360
aI1488
asS'heath-diag-0717'
p457
(lp458
S'heath_1908_v3_1_0314.jpg'
p459
aI3817
aI5650
aI2249
aI1328
aI872
aI792
asS'heath-diag-0773'
p460
(lp461
S'heath_1908_v3_1_0389.jpg'
p462
aI3817
aI5650
aI2585
aI1376
aI784
aI856
asS'heath-diag-0770'
p463
(lp464
S'heath_1908_v3_1_0384.jpg'
p465
aI3817
aI5650
aI300
aI1548
aI2916
aI1080
asS'heath-diag-0771'
p466
(lp467
S'heath_1908_v3_1_0387.jpg'
p468
aI3817
aI5650
aI2569
aI2960
aI848
aI856
asS'heath-diag-0776'
p469
(lp470
S'heath_1908_v3_1_0394.jpg'
p471
aI3817
aI5650
aI700
aI1080
aI2144
aI1096
asS'heath-diag-0777'
p472
(lp473
S'heath_1908_v3_1_0397.jpg'
p474
aI3817
aI5650
aI884
aI2644
aI2296
aI1168
asS'heath-diag-0774'
p475
(lp476
S'heath_1908_v3_1_0390.jpg'
p477
aI3817
aI5650
aI2129
aI1200
aI1000
aI976
asS'heath-diag-0775'
p478
(lp479
S'heath_1908_v3_1_0390.jpg'
p480
aI3817
aI5650
aI785
aI3482
aI2024
aI976
asS'heath-diag-0822'
p481
(lp482
S'heath_1908_v3_1_0496.jpg'
p483
aI3817
aI5650
aI384
aI1536
aI2712
aI1860
asS'heath-diag-0823'
p484
(lp485
S'heath_1908_v3_1_0499.jpg'
p486
aI3817
aI5650
aI1056
aI968
aI1944
aI1696
asS'heath-diag-0554'
p487
(lp488
S'heath_1908_v3_1_0025.jpg'
p489
aI3817
aI5650
aI2131
aI2526
aI1230
aI378
asS'heath-diag-0821'
p490
(lp491
S'heath_1908_v3_1_0490.jpg'
p492
aI3817
aI5650
aI228
aI2100
aI3036
aI2028
asS'heath-diag-0718'
p493
(lp494
S'heath_1908_v3_1_0314.jpg'
p495
aI3817
aI5650
aI1809
aI3746
aI1328
aI1240
asS'heath-diag-0719'
p496
(lp497
S'heath_1908_v3_1_0315.jpg'
p498
aI3817
aI5650
aI2305
aI3674
aI1056
aI704
asS'heath-diag-0824'
p499
(lp500
S'heath_1908_v3_1_0501.jpg'
p501
aI3817
aI5650
aI1124
aI1108
aI1912
aI1952
asS'heath-diag-0672'
p502
(lp503
S'heath_1908_v3_1_0247.jpg'
p504
aI3817
aI5650
aI2521
aI1980
aI824
aI344
asS'heath-diag-0714'
p505
(lp506
S'heath_1908_v3_1_0312.jpg'
p507
aI3817
aI5650
aI2153
aI1656
aI968
aI752
asS'heath-diag-0715'
p508
(lp509
S'heath_1908_v3_1_0312.jpg'
p510
aI3817
aI5650
aI2025
aI3110
aI1080
aI1064
asS'heath-diag-0716'
p511
(lp512
S'heath_1908_v3_1_0313.jpg'
p513
aI3817
aI5650
aI1112
aI1528
aI1864
aI944
asS'heath-diag-0829'
p514
(lp515
S'heath_1908_v3_1_0517.jpg'
p516
aI3817
aI5650
aI2187
aI3598
aI1242
aI1260
asS'heath-diag-0710'
p517
(lp518
S'heath_1908_v3_1_0310.jpg'
p519
aI3817
aI5650
aI2001
aI1412
aI1152
aI1088
asS'heath-diag-0711'
p520
(lp521
S'heath_1908_v3_1_0311.jpg'
p522
aI3817
aI5650
aI2201
aI2356
aI1160
aI672
asS'heath-diag-0558'
p523
(lp524
S'heath_1908_v3_1_0030.jpg'
p525
aI3817
aI5650
aI1967
aI2704
aI1020
aI882
asS'heath-diag-0559'
p526
(lp527
S'heath_1908_v3_1_0031.jpg'
p528
aI3817
aI5650
aI1350
aI3084
aI1476
aI348
asS'heath-diag-0836'
p529
(lp530
S'heath_1908_v3_1_0525.jpg'
p531
aI3817
aI5650
aI2611
aI3808
aI798
aI786
asS'heath-diag-0757'
p532
(lp533
S'heath_1908_v3_1_0354.jpg'
p534
aI3817
aI5650
aI744
aI2016
aI2004
aI720
asS'heath-diag-0578'
p535
(lp536
S'heath_1908_v3_1_0060.jpg'
p537
aI3817
aI5650
aI2541
aI1590
aI534
aI888
asS'heath-diag-0579'
p538
(lp539
S'heath_1908_v3_1_0061.jpg'
p540
aI3817
aI5650
aI2945
aI904
aI464
aI768
asS'heath-diag-0662'
p541
(lp542
S'heath_1908_v3_1_0225.jpg'
p543
aI3817
aI5650
aI1216
aI1656
aI1696
aI672
asS'heath-diag-0639'
p544
(lp545
S'heath_1908_v3_1_0171.jpg'
p546
aI3817
aI5650
aI2329
aI804
aI984
aI240
asS'heath-diag-0626'
p547
(lp548
S'heath_1908_v3_1_0146.jpg'
p549
aI3817
aI5650
aI2116
aI3978
aI1008
aI768
asS'heath-diag-0786'
p550
(lp551
S'heath_1908_v3_1_0417.jpg'
p552
aI3817
aI5650
aI720
aI1776
aI2784
aI1104
asS'heath-diag-0632'
p553
(lp554
S'heath_1908_v3_1_0158.jpg'
p555
aI3817
aI5650
aI2273
aI4514
aI776
aI304
asS'heath-diag-0674'
p556
(lp557
S'heath_1908_v3_1_0250.jpg'
p558
aI3817
aI5650
aI996
aI1096
aI1552
aI904
asS'heath-diag-0747'
p559
(lp560
S'heath_1908_v3_1_0345.jpg'
p561
aI3817
aI5650
aI1168
aI1052
aI1624
aI984
asS'heath-diag-0551'
p562
(lp563
S'heath_1908_v3_1_0013.jpg'
p564
aI3817
aI5650
aI2785
aI2916
aI576
aI648
asS'heath-diag-0787'
p565
(lp566
S'heath_1908_v3_1_0421.jpg'
p567
aI3817
aI5650
aI648
aI2160
aI2832
aI1200
asS'heath-diag-0574'
p568
(lp569
S'heath_1908_v3_1_0052.jpg'
p570
aI3817
aI5650
aI2145
aI2112
aI912
aI496
asS'heath-diag-0785'
p571
(lp572
S'heath_1908_v3_1_0415.jpg'
p573
aI3817
aI5650
aI2701
aI4102
aI756
aI804
asS'heath-diag-0784'
p574
(lp575
S'heath_1908_v3_1_0411.jpg'
p576
aI3817
aI5650
aI2209
aI2908
aI1176
aI1184
asS'heath-diag-0783'
p577
(lp578
S'heath_1908_v3_1_0409.jpg'
p579
aI3817
aI5650
aI1024
aI2124
aI1960
aI1000
asS'heath-diag-0782'
p580
(lp581
S'heath_1908_v3_1_0407.jpg'
p582
aI3817
aI5650
aI972
aI1152
aI2152
aI904
asS'heath-diag-0781'
p583
(lp584
S'heath_1908_v3_1_0405.jpg'
p585
aI3817
aI5650
aI2425
aI1264
aI984
aI936
asS'heath-diag-0801'
p586
(lp587
S'heath_1908_v3_1_0454.jpg'
p588
aI3817
aI5650
aI2033
aI2540
aI1072
aI1536
asS'heath-diag-0576'
p589
(lp590
S'heath_1908_v3_1_0056.jpg'
p591
aI3817
aI5650
aI2711
aI3498
aI366
aI870
asS'heath-diag-0789'
p592
(lp593
S'heath_1908_v3_1_0428.jpg'
p594
aI3817
aI5650
aI940
aI2884
aI1560
aI576
asS'heath-diag-0788'
p595
(lp596
S'heath_1908_v3_1_0426.jpg'
p597
aI3817
aI5650
aI920
aI3282
aI1664
aI792
asS'heath-diag-0729'
p598
(lp599
S'heath_1908_v3_1_0323.jpg'
p600
aI3817
aI5650
aI2425
aI2944
aI1000
aI896
asS'heath-diag-0728'
p601
(lp602
S'heath_1908_v3_1_0322.jpg'
p603
aI3817
aI5650
aI2049
aI2568
aI1040
aI728
asS'heath-diag-0678'
p604
(lp605
S'heath_1908_v3_1_0261.jpg'
p606
aI3817
aI5650
aI2649
aI3116
aI704
aI896
asS'heath-diag-0721'
p607
(lp608
S'heath_1908_v3_1_0317.jpg'
p609
aI3817
aI5650
aI2401
aI3414
aI944
aI960
asS'heath-diag-0720'
p610
(lp611
S'heath_1908_v3_1_0317.jpg'
p612
aI3817
aI5650
aI1381
aI864
aI1352
aI1112
asS'heath-diag-0723'
p613
(lp614
S'heath_1908_v3_1_0319.jpg'
p615
aI3817
aI5650
aI2409
aI816
aI960
aI952
asS'heath-diag-0722'
p616
(lp617
S'heath_1908_v3_1_0318.jpg'
p618
aI3817
aI5650
aI1929
aI3322
aI1184
aI824
asS'heath-diag-0725'
p619
(lp620
S'heath_1908_v3_1_0320.jpg'
p621
aI3817
aI5650
aI2144
aI1008
aI920
aI840
asS'heath-diag-0724'
p622
(lp623
S'heath_1908_v3_1_0319.jpg'
p624
aI3817
aI5650
aI1281
aI2506
aI1496
aI848
asS'heath-diag-0727'
p625
(lp626
S'heath_1908_v3_1_0320.jpg'
p627
aI3817
aI5650
aI1945
aI3882
aI1160
aI704
asS'heath-diag-0726'
p628
(lp629
S'heath_1908_v3_1_0320.jpg'
p630
aI3817
aI5650
aI1857
aI2154
aI1232
aI840
asS'heath-diag-0738'
p631
(lp632
S'heath_1908_v3_1_0334.jpg'
p633
aI3817
aI5650
aI540
aI3588
aI2556
aI1428
asS'heath-diag-0573'
p634
(lp635
S'heath_1908_v3_1_0051.jpg'
p636
aI3817
aI5650
aI2985
aI1504
aI416
aI992
asS'heath-diag-0815'
p637
(lp638
S'heath_1908_v3_1_0482.jpg'
p639
aI3817
aI5650
aI1992
aI1320
aI1088
aI1088
asS'heath-diag-0556'
p640
(lp641
S'heath_1908_v3_1_0028.jpg'
p642
aI3817
aI5650
aI888
aI1896
aI1720
aI376
asS'heath-diag-0794'
p643
(lp644
S'heath_1908_v3_1_0436.jpg'
p645
aI3817
aI5650
aI612
aI1740
aI2280
aI2196
asS'heath-diag-0795'
p646
(lp647
S'heath_1908_v3_1_0442.jpg'
p648
aI3817
aI5650
aI552
aI2404
aI2400
aI1960
asS'heath-diag-0796'
p649
(lp650
S'heath_1908_v3_1_0444.jpg'
p651
aI3817
aI5650
aI1080
aI2964
aI1328
aI704
asS'heath-diag-0797'
p652
(lp653
S'heath_1908_v3_1_0446.jpg'
p654
aI3817
aI5650
aI696
aI1300
aI2080
aI1800
asS'heath-diag-0790'
p655
(lp656
S'heath_1908_v3_1_0430.jpg'
p657
aI3817
aI5650
aI1921
aI1864
aI1152
aI792
asS'heath-diag-0685'
p658
(lp659
S'heath_1908_v3_1_0287.jpg'
p660
aI3817
aI5650
aI2361
aI2972
aI992
aI896
asS'heath-diag-0792'
p661
(lp662
S'heath_1908_v3_1_0433.jpg'
p663
aI3817
aI5650
aI2433
aI3650
aI976
aI1008
asS'heath-diag-0793'
p664
(lp665
S'heath_1908_v3_1_0435.jpg'
p666
aI3817
aI5650
aI2365
aI906
aI1056
aI906
asS'heath-diag-0655'
p667
(lp668
S'heath_1908_v3_1_0199.jpg'
p669
aI3817
aI5650
aI2169
aI1320
aI1192
aI704
asS'heath-diag-0654'
p670
(lp671
S'heath_1908_v3_1_0197.jpg'
p672
aI3817
aI5650
aI2721
aI2436
aI672
aI984
asS'heath-diag-0657'
p673
(lp674
S'heath_1908_v3_1_0206.jpg'
p675
aI3817
aI5650
aI1056
aI968
aI1408
aI1328
asS'heath-diag-0656'
p676
(lp677
S'heath_1908_v3_1_0202.jpg'
p678
aI3817
aI5650
aI1052
aI1964
aI1440
aI1336
asS'heath-diag-0798'
p679
(lp680
S'heath_1908_v3_1_0451.jpg'
p681
aI3817
aI5650
aI2289
aI2128
aI1088
aI1544
asS'heath-diag-0650'
p682
(lp683
S'heath_1908_v3_1_0189.jpg'
p684
aI3817
aI5650
aI1144
aI1352
aI1760
aI344
asS'heath-diag-0653'
p685
(lp686
S'heath_1908_v3_1_0195.jpg'
p687
aI3817
aI5650
aI1060
aI3388
aI1912
aI376
asS'heath-diag-0652'
p688
(lp689
S'heath_1908_v3_1_0192.jpg'
p690
aI3817
aI5650
aI1963
aI4000
aI1182
aI810
asS'heath-diag-0736'
p691
(lp692
S'heath_1908_v3_1_0333.jpg'
p693
aI3817
aI5650
aI2545
aI2388
aI816
aI720
asS'heath-diag-0737'
p694
(lp695
S'heath_1908_v3_1_0333.jpg'
p696
aI3817
aI5650
aI2289
aI3668
aI1120
aI1072
asS'heath-diag-0734'
p697
(lp698
S'heath_1908_v3_1_0328.jpg'
p699
aI3817
aI5650
aI2153
aI2576
aI1040
aI992
asS'heath-diag-0735'
p700
(lp701
S'heath_1908_v3_1_0331.jpg'
p702
aI3817
aI5650
aI2601
aI2428
aI744
aI528
asS'heath-diag-0732'
p703
(lp704
S'heath_1908_v3_1_0326.jpg'
p705
aI3817
aI5650
aI2265
aI3666
aI864
aI768
asS'heath-diag-0733'
p706
(lp707
S'heath_1908_v3_1_0328.jpg'
p708
aI3817
aI5650
aI492
aI1368
aI2700
aI708
asS'heath-diag-0730'
p709
(lp710
S'heath_1908_v3_1_0324.jpg'
p711
aI3817
aI5650
aI456
aI2962
aI2676
aI840
asS'heath-diag-0731'
p712
(lp713
S'heath_1908_v3_1_0326.jpg'
p714
aI3817
aI5650
aI696
aI2052
aI2196
aI732
asS'heath-diag-0637'
p715
(lp716
S'heath_1908_v3_1_0166.jpg'
p717
aI3817
aI5650
aI696
aI3866
aI2208
aI616
asS'heath-diag-0636'
p718
(lp719
S'heath_1908_v3_1_0163.jpg'
p720
aI3817
aI5650
aI1209
aI1440
aI1672
aI912
asS'heath-diag-0635'
p721
(lp722
S'heath_1908_v3_1_0162.jpg'
p723
aI3817
aI5650
aI2753
aI1312
aI352
aI856
asS'heath-diag-0634'
p724
(lp725
S'heath_1908_v3_1_0161.jpg'
p726
aI3817
aI5650
aI3037
aI3066
aI330
aI816
asS'heath-diag-0569'
p727
(lp728
S'heath_1908_v3_1_0047.jpg'
p729
aI3817
aI5650
aI2537
aI1472
aI800
aI384
asS'heath-diag-0819'
p730
(lp731
S'heath_1908_v3_1_0487.jpg'
p732
aI3817
aI5650
aI1248
aI2816
aI1704
aI712
asS'heath-diag-0631'
p733
(lp734
S'heath_1908_v3_1_0156.jpg'
p735
aI3817
aI5650
aI1124
aI4138
aI1224
aI304
asS'heath-diag-0630'
p736
(lp737
S'heath_1908_v3_1_0155.jpg'
p738
aI3817
aI5650
aI2345
aI1040
aI1040
aI768
asS'heath-diag-0605'
p739
(lp740
S'heath_1908_v3_1_0103.jpg'
p741
aI3817
aI5650
aI2111
aI4378
aI1182
aI198
asS'heath-diag-0808'
p742
(lp743
S'heath_1908_v3_1_0462.jpg'
p744
aI3817
aI5650
aI2129
aI3210
aI936
aI976
asS'heath-diag-0659'
p745
(lp746
S'heath_1908_v3_1_0216.jpg'
p747
aI3817
aI5650
aI1108
aI2420
aI1440
aI1320
asS'heath-diag-0601'
p748
(lp749
S'heath_1908_v3_1_0099.jpg'
p750
aI3817
aI5650
aI2257
aI824
aI1072
aI200
asS'heath-diag-0557'
p751
(lp752
S'heath_1908_v3_1_0029.jpg'
p753
aI3817
aI5650
aI2513
aI4522
aI840
aI174
asS'heath-diag-0791'
p754
(lp755
S'heath_1908_v3_1_0431.jpg'
p756
aI3817
aI5650
aI968
aI2428
aI2056
aI784
asS'heath-diag-0618'
p757
(lp758
S'heath_1908_v3_1_0128.jpg'
p759
aI3817
aI5650
aI804
aI1464
aI1936
aI656
asS'heath-diag-0813'
p760
(lp761
S'heath_1908_v3_1_0478.jpg'
p762
aI3817
aI5650
aI2185
aI1040
aI936
aI992
asS'heath-diag-0648'
p763
(lp764
S'heath_1908_v3_1_0185.jpg'
p765
aI3817
aI5650
aI2241
aI840
aI1064
aI240
asS'heath-diag-0649'
p766
(lp767
S'heath_1908_v3_1_0186.jpg'
p768
aI3817
aI5650
aI1064
aI1696
aI1488
aI800
asS'heath-diag-0812'
p769
(lp770
S'heath_1908_v3_1_0473.jpg'
p771
aI3817
aI5650
aI1228
aI1424
aI1576
aI1352
asS'heath-diag-0642'
p772
(lp773
S'heath_1908_v3_1_0175.jpg'
p774
aI3817
aI5650
aI3145
aI3114
aI224
aI872
asS'heath-diag-0643'
p775
(lp776
S'heath_1908_v3_1_0176.jpg'
p777
aI3817
aI5650
aI2121
aI3634
aI976
aI776
asS'heath-diag-0640'
p778
(lp779
S'heath_1908_v3_1_0172.jpg'
p780
aI3817
aI5650
aI808
aI2192
aI1872
aI824
asS'heath-diag-0641'
p781
(lp782
S'heath_1908_v3_1_0174.jpg'
p783
aI3817
aI5650
aI2105
aI3280
aI896
aI184
asS'heath-diag-0646'
p784
(lp785
S'heath_1908_v3_1_0181.jpg'
p786
aI3817
aI5650
aI2585
aI1572
aI784
aI1600
asS'heath-diag-0647'
p787
(lp788
S'heath_1908_v3_1_0183.jpg'
p789
aI3817
aI5650
aI2281
aI4650
aI968
aI256
asS'heath-diag-0644'
p790
(lp791
S'heath_1908_v3_1_0178.jpg'
p792
aI3817
aI5650
aI1977
aI3642
aI1080
aI248
asS'heath-diag-0645'
p793
(lp794
S'heath_1908_v3_1_0180.jpg'
p795
aI3817
aI5650
aI2009
aI792
aI1032
aI240
asS'heath-diag-0743'
p796
(lp797
S'heath_1908_v3_1_0340.jpg'
p798
aI3817
aI5650
aI816
aI2916
aI1860
aI1164
asS'heath-diag-0742'
p799
(lp800
S'heath_1908_v3_1_0338.jpg'
p801
aI3817
aI5650
aI612
aI1812
aI2256
aI948
asS'heath-diag-0741'
p802
(lp803
S'heath_1908_v3_1_0336.jpg'
p804
aI3817
aI5650
aI1848
aI4080
aI1188
aI864
asS'heath-diag-0740'
p805
(lp806
S'heath_1908_v3_1_0336.jpg'
p807
aI3817
aI5650
aI648
aI1356
aI2184
aI2040
asS'heath-diag-0628'
p808
(lp809
S'heath_1908_v3_1_0151.jpg'
p810
aI3817
aI5650
aI2345
aI968
aI1016
aI784
asS'heath-diag-0746'
p811
(lp812
S'heath_1908_v3_1_0344.jpg'
p813
aI3817
aI5650
aI2156
aI2864
aI1040
aI1160
asS'heath-diag-0745'
p814
(lp815
S'heath_1908_v3_1_0343.jpg'
p816
aI3817
aI5650
aI2603
aI3502
aI786
aI744
asS'heath-diag-0744'
p817
(lp818
S'heath_1908_v3_1_0342.jpg'
p819
aI3817
aI5650
aI896
aI2672
aI1816
aI696
asS'heath-diag-0624'
p820
(lp821
S'heath_1908_v3_1_0142.jpg'
p822
aI3817
aI5650
aI1945
aI4226
aI1072
aI264
asS'heath-diag-0625'
p823
(lp824
S'heath_1908_v3_1_0143.jpg'
p825
aI3817
aI5650
aI2337
aI3144
aI1048
aI792
asS'heath-diag-0749'
p826
(lp827
S'heath_1908_v3_1_0346.jpg'
p828
aI3817
aI5650
aI2329
aI816
aI808
aI888
asS'heath-diag-0748'
p829
(lp830
S'heath_1908_v3_1_0345.jpg'
p831
aI3817
aI5650
aI2089
aI3266
aI1272
aI1368
asS'heath-diag-0620'
p832
(lp833
S'heath_1908_v3_1_0135.jpg'
p834
aI3817
aI5650
aI1048
aI2028
aI1928
aI672
asS'heath-diag-0621'
p835
(lp836
S'heath_1908_v3_1_0137.jpg'
p837
aI3817
aI5650
aI1101
aI2140
aI1864
aI704
asS'heath-diag-0622'
p838
(lp839
S'heath_1908_v3_1_0139.jpg'
p840
aI3817
aI5650
aI1088
aI2056
aI1896
aI728
asS'heath-diag-0623'
p841
(lp842
S'heath_1908_v3_1_0141.jpg'
p843
aI3817
aI5650
aI1060
aI1848
aI1936
aI744
asS'heath-diag-0772'
p844
(lp845
S'heath_1908_v3_1_0388.jpg'
p846
aI3817
aI5650
aI1892
aI4314
aI1224
aI704
asS'heath-diag-0703'
p847
(lp848
S'heath_1908_v3_1_0304.jpg'
p849
aI3817
aI5650
aI1136
aI1672
aI1312
aI960
asS'heath-diag-0608'
p850
(lp851
S'heath_1908_v3_1_0109.jpg'
p852
aI3817
aI5650
aI2369
aI1424
aI1000
aI232
asS'heath-diag-0814'
p853
(lp854
S'heath_1908_v3_1_0479.jpg'
p855
aI3817
aI5650
aI2273
aI3578
aI1136
aI1312
asS'heath-diag-0820'
p856
(lp857
S'heath_1908_v3_1_0489.jpg'
p858
aI3817
aI5650
aI2347
aI3078
aI1074
aI1032
asS'heath-diag-0571'
p859
(lp860
S'heath_1908_v3_1_0048.jpg'
p861
aI3817
aI5650
aI2321
aI3506
aI784
aI928
asS'heath-diag-0702'
p862
(lp863
S'heath_1908_v3_1_0303.jpg'
p864
aI3817
aI5650
aI2249
aI2092
aI1192
aI624
asS'heath-diag-0660'
p865
(lp866
S'heath_1908_v3_1_0219.jpg'
p867
aI3817
aI5650
aI1296
aI3234
aI1416
aI1336
as.