(dp0
S'24'
p1
(lp2
S'munich_clm14448_0146.jpg'
p3
aI1251
aI1799
aI362
aI1409
aI199
aI201
asS'25'
p4
(lp5
S'munich_clm14448_0146.jpg'
p6
aI1251
aI1799
aI591
aI1517
aI247
aI229
asS'26'
p7
(lp8
S'munich_clm14448_0147.jpg'
p9
aI1251
aI1799
aI111
aI39
aI213
aI73
asS'27'
p10
(lp11
S'munich_clm14448_0147.jpg'
p12
aI1251
aI1799
aI140
aI112
aI166
aI80
asS'20'
p13
(lp14
S'munich_clm14448_0146.jpg'
p15
aI1251
aI1799
aI57
aI1303
aI96
aI83
asS'21'
p16
(lp17
S'munich_clm14448_0146.jpg'
p18
aI1251
aI1799
aI56
aI1391
aI95
aI62
asS'22'
p19
(lp20
S'munich_clm14448_0146.jpg'
p21
aI1251
aI1799
aI89
aI1458
aI95
aI133
asS'23'
p22
(lp23
S'munich_clm14448_0146.jpg'
p24
aI1251
aI1799
aI201
aI1449
aI135
aI139
asS'28'
p25
(lp26
S'munich_clm14448_0147.jpg'
p27
aI1251
aI1799
aI73
aI188
aI241
aI47
asS'29'
p28
(lp29
S'munich_clm14448_0147.jpg'
p30
aI1251
aI1799
aI87
aI293
aI215
aI157
asS'4'
p31
(lp32
S'munich_clm14448_0146.jpg'
p33
aI1251
aI1799
aI985
aI296
aI133
aI64
asS'8'
p34
(lp35
S'munich_clm14448_0146.jpg'
p36
aI1251
aI1799
aI968
aI528
aI145
aI141
asS'59'
p37
(lp38
S'munich_clm14448_0153.jpg'
p39
aI1251
aI1800
aI104
aI601
aI180
aI201
asS'58'
p40
(lp41
S'munich_clm14448_0153.jpg'
p42
aI1251
aI1800
aI108
aI454
aI206
aI177
asS'55'
p43
(lp44
S'munich_clm14448_0153.jpg'
p45
aI1251
aI1800
aI360
aI17
aI123
aI89
asS'54'
p46
(lp47
S'munich_clm14448_0152.jpg'
p48
aI1251
aI1801
aI137
aI1395
aI934
aI274
asS'57'
p49
(lp50
S'munich_clm14448_0153.jpg'
p51
aI1251
aI1800
aI126
aI342
aI171
aI141
asS'56'
p52
(lp53
S'munich_clm14448_0153.jpg'
p54
aI1251
aI1800
aI58
aI135
aI334
aI226
asS'51'
p55
(lp56
S'munich_clm14448_0152.jpg'
p57
aI1251
aI1801
aI888
aI237
aI251
aI113
asS'50'
p58
(lp59
S'munich_clm14448_0152.jpg'
p60
aI1251
aI1801
aI836
aI24
aI253
aI260
asS'53'
p61
(lp62
S'munich_clm14448_0152.jpg'
p63
aI1251
aI1801
aI902
aI650
aI235
aI279
asS'52'
p64
(lp65
S'munich_clm14448_0152.jpg'
p66
aI1251
aI1801
aI872
aI526
aI288
aI124
asS'88'
p67
(lp68
S'munich_clm14448_0157.jpg'
p69
aI1251
aI1800
aI278
aI1482
aI287
aI149
asS'89'
p70
(lp71
S'munich_clm14448_0157.jpg'
p72
aI1251
aI1800
aI562
aI1425
aI137
aI138
asS'82'
p73
(lp74
S'munich_clm14448_0156.jpg'
p75
aI1251
aI1801
aI261
aI1449
aI288
aI233
asS'83'
p76
(lp77
S'munich_clm14448_0157.jpg'
p78
aI1251
aI1800
aI53
aI39
aI202
aI171
asS'80'
p79
(lp80
S'munich_clm14448_0156.jpg'
p81
aI1251
aI1801
aI977
aI1035
aI248
aI133
asS'81'
p82
(lp83
S'munich_clm14448_0156.jpg'
p84
aI1251
aI1801
aI969
aI1150
aI255
aI136
asS'86'
p85
(lp86
S'munich_clm14448_0157.jpg'
p87
aI1251
aI1800
aI35
aI1086
aI259
aI191
asS'87'
p88
(lp89
S'munich_clm14448_0157.jpg'
p90
aI1251
aI1800
aI26
aI1257
aI274
aI232
asS'84'
p91
(lp92
S'munich_clm14448_0157.jpg'
p93
aI1251
aI1800
aI63
aI211
aI196
aI187
asS'85'
p94
(lp95
S'munich_clm14448_0157.jpg'
p96
aI1251
aI1800
aI39
aI464
aI238
aI231
asS'3'
p97
(lp98
S'munich_clm14448_0146.jpg'
p99
aI1251
aI1799
aI951
aI250
aI190
aI48
asS'7'
p100
(lp101
S'munich_clm14448_0146.jpg'
p102
aI1251
aI1799
aI1045
aI449
aI93
aI85
asS'108'
p103
(lp104
S'munich_clm14448_0159.jpg'
p105
aI1251
aI1800
aI54
aI1413
aI300
aI305
asS'109'
p106
(lp107
S'munich_clm14448_0159.jpg'
p108
aI1251
aI1800
aI375
aI1536
aI295
aI84
asS'102'
p109
(lp110
S'munich_clm14448_0159.jpg'
p111
aI1251
aI1800
aI52
aI510
aI246
aI97
asS'103'
p112
(lp113
S'munich_clm14448_0159.jpg'
p114
aI1251
aI1800
aI64
aI599
aI232
aI110
asS'100'
p115
(lp116
S'munich_clm14448_0159.jpg'
p117
aI1251
aI1800
aI48
aI237
aI253
aI121
asS'101'
p118
(lp119
S'munich_clm14448_0159.jpg'
p120
aI1251
aI1800
aI62
aI390
aI236
aI128
asS'106'
p121
(lp122
S'munich_clm14448_0159.jpg'
p123
aI1251
aI1800
aI76
aI1114
aI214
aI99
asS'107'
p124
(lp125
S'munich_clm14448_0159.jpg'
p126
aI1251
aI1800
aI81
aI1217
aI212
aI68
asS'104'
p127
(lp128
S'munich_clm14448_0159.jpg'
p129
aI1251
aI1800
aI126
aI882
aI172
aI165
asS'105'
p130
(lp131
S'munich_clm14448_0159.jpg'
p132
aI1251
aI1800
aI52
aI1027
aI246
aI82
asS'39'
p133
(lp134
S'munich_clm14448_0150.jpg'
p135
aI1251
aI1801
aI890
aI84
aI262
aI222
asS'38'
p136
(lp137
S'munich_clm14448_0149.jpg'
p138
aI1251
aI1799
aI179
aI1409
aI616
aI288
asS'33'
p139
(lp140
S'munich_clm14448_0148.jpg'
p141
aI1251
aI1799
aI945
aI931
aI178
aI247
asS'32'
p142
(lp143
S'munich_clm14448_0148.jpg'
p144
aI1251
aI1799
aI903
aI489
aI211
aI226
asS'31'
p145
(lp146
S'munich_clm14448_0147.jpg'
p147
aI1251
aI1799
aI251
aI1371
aI374
aI328
asS'30'
p148
(lp149
S'munich_clm14448_0147.jpg'
p150
aI1251
aI1799
aI97
aI1092
aI186
aI268
asS'37'
p151
(lp152
S'munich_clm14448_0149.jpg'
p153
aI1251
aI1799
aI106
aI912
aI193
aI176
asS'36'
p154
(lp155
S'munich_clm14448_0149.jpg'
p156
aI1251
aI1799
aI115
aI592
aI188
aI209
asS'35'
p157
(lp158
S'munich_clm14448_0149.jpg'
p159
aI1251
aI1799
aI140
aI317
aI177
aI275
asS'34'
p160
(lp161
S'munich_clm14448_0148.jpg'
p162
aI1251
aI1799
aI356
aI1327
aI361
aI302
asS'60'
p163
(lp164
S'munich_clm14448_0153.jpg'
p165
aI1251
aI1800
aI98
aI760
aI259
aI312
asS'61'
p166
(lp167
S'munich_clm14448_0153.jpg'
p168
aI1251
aI1800
aI70
aI1041
aI264
aI158
asS'62'
p169
(lp170
S'munich_clm14448_0153.jpg'
p171
aI1251
aI1800
aI48
aI1171
aI276
aI206
asS'63'
p172
(lp173
S'munich_clm14448_0153.jpg'
p174
aI1251
aI1800
aI34
aI1370
aI284
aI188
asS'64'
p175
(lp176
S'munich_clm14448_0154.jpg'
p177
aI1251
aI1801
aI1001
aI463
aI227
aI239
asS'65'
p178
(lp179
S'munich_clm14448_0154.jpg'
p180
aI1251
aI1801
aI979
aI776
aI249
aI261
asS'66'
p181
(lp182
S'munich_clm14448_0154.jpg'
p183
aI1251
aI1801
aI987
aI1076
aI242
aI259
asS'67'
p184
(lp185
S'munich_clm14448_0154.jpg'
p186
aI1251
aI1801
aI849
aI1430
aI292
aI249
asS'68'
p187
(lp188
S'munich_clm14448_0154.jpg'
p189
aI1251
aI1801
aI203
aI1435
aI258
aI259
asS'69'
p190
(lp191
S'munich_clm14448_0155.jpg'
p192
aI1251
aI1800
aI48
aI324
aI238
aI122
asS'2'
p193
(lp194
S'munich_clm14448_0146.jpg'
p195
aI1251
aI1799
aI947
aI131
aI171
aI61
asS'6'
p196
(lp197
S'munich_clm14448_0146.jpg'
p198
aI1251
aI1799
aI962
aI458
aI119
aI76
asS'99'
p199
(lp200
S'munich_clm14448_0158.jpg'
p201
aI1251
aI1799
aI642
aI1442
aI571
aI283
asS'98'
p202
(lp203
S'munich_clm14448_0158.jpg'
p204
aI1251
aI1799
aI589
aI1472
aI115
aI160
asS'91'
p205
(lp206
S'munich_clm14448_0158.jpg'
p207
aI1251
aI1799
aI980
aI432
aI185
aI56
asS'90'
p208
(lp209
S'munich_clm14448_0157.jpg'
p210
aI1251
aI1800
aI618
aI1471
aI488
aI221
asS'93'
p211
(lp212
S'munich_clm14448_0158.jpg'
p213
aI1251
aI1799
aI949
aI639
aI267
aI296
asS'92'
p214
(lp215
S'munich_clm14448_0158.jpg'
p216
aI1251
aI1799
aI1003
aI492
aI150
aI164
asS'95'
p217
(lp218
S'munich_clm14448_0158.jpg'
p219
aI1251
aI1799
aI106
aI1492
aI343
aI196
asS'94'
p220
(lp221
S'munich_clm14448_0158.jpg'
p222
aI1251
aI1799
aI964
aI1178
aI208
aI202
asS'97'
p223
(lp224
S'munich_clm14448_0158.jpg'
p225
aI1251
aI1799
aI504
aI1428
aI213
aI61
asS'96'
p226
(lp227
S'munich_clm14448_0158.jpg'
p228
aI1251
aI1799
aI432
aI1462
aI172
aI224
asS'11'
p229
(lp230
S'munich_clm14448_0146.jpg'
p231
aI1251
aI1799
aI955
aI846
aI187
aI98
asS'10'
p232
(lp233
S'munich_clm14448_0146.jpg'
p234
aI1251
aI1799
aI968
aI668
aI161
aI165
asS'13'
p235
(lp236
S'munich_clm14448_0146.jpg'
p237
aI1251
aI1799
aI102
aI831
aI73
aI84
asS'12'
p238
(lp239
S'munich_clm14448_0146.jpg'
p240
aI1251
aI1799
aI968
aI930
aI170
aI169
asS'15'
p241
(lp242
S'munich_clm14448_0146.jpg'
p243
aI1251
aI1799
aI104
aI1014
aI93
aI73
asS'14'
p244
(lp245
S'munich_clm14448_0146.jpg'
p246
aI1251
aI1799
aI99
aI927
aI73
aI83
asS'17'
p247
(lp248
S'munich_clm14448_0146.jpg'
p249
aI1251
aI1799
aI118
aI1095
aI77
aI104
asS'16'
p250
(lp251
S'munich_clm14448_0146.jpg'
p252
aI1251
aI1799
aI44
aI1036
aI61
aI85
asS'19'
p253
(lp254
S'munich_clm14448_0146.jpg'
p255
aI1251
aI1799
aI102
aI1225
aI84
aI80
asS'18'
p256
(lp257
S'munich_clm14448_0146.jpg'
p258
aI1251
aI1799
aI52
aI1126
aI67
aI124
asS'48'
p259
(lp260
S'munich_clm14448_0151.jpg'
p261
aI1251
aI1798
aI68
aI805
aI292
aI237
asS'49'
p262
(lp263
S'munich_clm14448_0151.jpg'
p264
aI1251
aI1798
aI88
aI1316
aI369
aI291
asS'46'
p265
(lp266
S'munich_clm14448_0151.jpg'
p267
aI1251
aI1798
aI62
aI70
aI303
aI351
asS'47'
p268
(lp269
S'munich_clm14448_0151.jpg'
p270
aI1251
aI1798
aI62
aI569
aI278
aI195
asS'44'
p271
(lp272
S'munich_clm14448_0150.jpg'
p273
aI1251
aI1801
aI898
aI1059
aI275
aI205
asS'45'
p274
(lp275
S'munich_clm14448_0150.jpg'
p276
aI1251
aI1801
aI773
aI1263
aI438
aI320
asS'42'
p277
(lp278
S'munich_clm14448_0150.jpg'
p279
aI1251
aI1801
aI923
aI655
aI208
aI160
asS'43'
p280
(lp281
S'munich_clm14448_0150.jpg'
p282
aI1251
aI1801
aI935
aI826
aI268
aI236
asS'40'
p283
(lp284
S'munich_clm14448_0150.jpg'
p285
aI1251
aI1801
aI931
aI294
aI199
aI178
asS'41'
p286
(lp287
S'munich_clm14448_0150.jpg'
p288
aI1251
aI1801
aI969
aI504
aI167
aI171
asS'1'
p289
(lp290
S'munich_clm14448_0146.jpg'
p291
aI1251
aI1799
aI981
aI68
aI157
aI49
asS'5'
p292
(lp293
S'munich_clm14448_0146.jpg'
p294
aI1251
aI1799
aI952
aI341
aI156
aI126
asS'9'
p295
(lp296
S'munich_clm14448_0146.jpg'
p297
aI1251
aI1799
aI1102
aI516
aI72
aI116
asS'77'
p298
(lp299
S'munich_clm14448_0156.jpg'
p300
aI1251
aI1801
aI996
aI380
aI227
aI141
asS'76'
p301
(lp302
S'munich_clm14448_0156.jpg'
p303
aI1251
aI1801
aI801
aI37
aI359
aI116
asS'75'
p304
(lp305
S'munich_clm14448_0155.jpg'
p306
aI1251
aI1800
aI204
aI1514
aI338
aI124
asS'74'
p307
(lp308
S'munich_clm14448_0155.jpg'
p309
aI1251
aI1800
aI48
aI1252
aI250
aI208
asS'73'
p310
(lp311
S'munich_clm14448_0155.jpg'
p312
aI1251
aI1800
aI48
aI1070
aI241
aI212
asS'72'
p313
(lp314
S'munich_clm14448_0155.jpg'
p315
aI1251
aI1800
aI92
aI770
aI185
aI190
asS'71'
p316
(lp317
S'munich_clm14448_0155.jpg'
p318
aI1251
aI1800
aI79
aI570
aI155
aI190
asS'70'
p319
(lp320
S'munich_clm14448_0155.jpg'
p321
aI1251
aI1800
aI56
aI441
aI223
aI144
asS'79'
p322
(lp323
S'munich_clm14448_0156.jpg'
p324
aI1251
aI1801
aI1010
aI650
aI200
aI151
asS'78'
p325
(lp326
S'munich_clm14448_0156.jpg'
p327
aI1251
aI1801
aI1002
aI550
aI220
aI107
as.