(dp0
S'6-32_2'
p1
(lp2
S'paris_grec2373_0207.png'
p3
aI1024
aI1533
aI263
aI119
aI692
aI78
asS'1-15'
p4
(lp5
S'paris_grec2373_0088.png'
p6
aI1024
aI1556
aI44
aI964
aI727
aI92
asS'1-14'
p7
(lp8
S'paris_grec2373_0088.png'
p9
aI1024
aI1556
aI57
aI373
aI726
aI121
asS'1-17'
p10
(lp11
S'paris_grec2373_0089.png'
p12
aI1024
aI1568
aI231
aI1014
aI732
aI91
asS'1-16'
p13
(lp14
S'paris_grec2373_0089.png'
p15
aI1024
aI1568
aI222
aI324
aI731
aI111
asS'1-11'
p16
(lp17
S'paris_grec2373_0086.png'
p18
aI1024
aI1563
aI49
aI1046
aI721
aI84
asS'1-10'
p19
(lp20
S'paris_grec2373_0086.png'
p21
aI1024
aI1563
aI59
aI755
aI580
aI55
asS'1-13'
p22
(lp23
S'paris_grec2373_0087.png'
p24
aI1024
aI1568
aI229
aI1014
aI730
aI85
asS'1-12'
p25
(lp26
S'paris_grec2373_0087.png'
p27
aI1024
aI1568
aI233
aI412
aI727
aI90
asS'3-18'
p28
(lp29
S'paris_grec2373_0131.png'
p30
aI1024
aI1563
aI374
aI845
aI584
aI133
asS'1-19'
p31
(lp32
S'paris_grec2373_0090.png'
p33
aI1024
aI1562
aI51
aI573
aI731
aI75
asS'1-18'
p34
(lp35
S'paris_grec2373_0090.png'
p36
aI1024
aI1562
aI50
aI258
aI702
aI78
asS'1-24_2'
p37
(lp38
S'paris_grec2373_0083.png'
p39
aI1024
aI1565
aI265
aI124
aI690
aI83
asS'5-3_2'
p40
(lp41
S'paris_grec2373_0161.png'
p42
aI1024
aI1559
aI271
aI116
aI685
aI142
asS'6-32'
p43
(lp44
S'paris_grec2373_0206.png'
p45
aI1024
aI1550
aI39
aI1184
aI715
aI95
asS'6-33'
p46
(lp47
S'paris_grec2373_0207.png'
p48
aI1024
aI1533
aI241
aI896
aI711
aI111
asS'6-30'
p49
(lp50
S'paris_grec2373_0205.png'
p51
aI1024
aI1533
aI231
aI417
aI713
aI67
asS'6-31'
p52
(lp53
S'paris_grec2373_0205.png'
p54
aI1024
aI1533
aI243
aI1079
aI717
aI159
asS'2-5'
p55
(lp56
S'paris_grec2373_0109.png'
p57
aI1024
aI1563
aI262
aI1067
aI699
aI114
asS'7-9'
p58
(lp59
S'paris_grec2373_0216.png'
p60
aI1024
aI1534
aI52
aI903
aI719
aI125
asS'4-3'
p61
(lp62
S'paris_grec2373_0146.png'
p63
aI1024
aI1581
aI42
aI536
aI714
aI83
asS'1-28'
p64
(lp65
S'paris_grec2373_0096.png'
p66
aI1024
aI1565
aI35
aI548
aI712
aI148
asS'1-29'
p67
(lp68
S'paris_grec2373_0096.png'
p69
aI1024
aI1565
aI29
aI1161
aI761
aI138
asS'6-29'
p70
(lp71
S'paris_grec2373_0204.png'
p72
aI1024
aI1550
aI31
aI753
aI745
aI101
asS'6-28'
p73
(lp74
S'paris_grec2373_0203.png'
p75
aI1024
aI1533
aI380
aI451
aI577
aI238
asS'4-9'
p76
(lp77
S'paris_grec2373_0151.png'
p78
aI1024
aI1559
aI211
aI146
aI558
aI49
asS'6-21'
p79
(lp80
S'paris_grec2373_0197.png'
p81
aI1024
aI1544
aI327
aI974
aI569
aI85
asS'6-20'
p82
(lp83
S'paris_grec2373_0194.png'
p84
aI1024
aI1556
aI30
aI852
aI734
aI146
asS'6-23'
p85
(lp86
S'paris_grec2373_0199.png'
p87
aI1024
aI1533
aI234
aI291
aI705
aI77
asS'6-22'
p88
(lp89
S'paris_grec2373_0198.png'
p90
aI1024
aI1557
aI49
aI130
aI716
aI149
asS'6-25'
p91
(lp92
S'paris_grec2373_0201.png'
p93
aI1024
aI1533
aI225
aI124
aI718
aI79
asS'6-24'
p94
(lp95
S'paris_grec2373_0199.png'
p96
aI1024
aI1533
aI442
aI1153
aI510
aI117
asS'6-27'
p97
(lp98
S'paris_grec2373_0202.png'
p99
aI1024
aI1550
aI41
aI480
aI728
aI190
asS'6-26'
p100
(lp101
S'paris_grec2373_0201.png'
p102
aI1024
aI1533
aI379
aI935
aI587
aI113
asS'7-3'
p103
(lp104
S'paris_grec2373_0212.png'
p105
aI1024
aI1550
aI28
aI579
aI744
aI77
asS'1-25'
p106
(lp107
S'paris_grec2373_0083.png'
p108
aI1024
aI1565
aI244
aI966
aI730
aI152
asS'1-26'
p109
(lp110
S'paris_grec2373_0094.png'
p111
aI1024
aI1565
aI47
aI472
aI707
aI228
asS'1-27'
p112
(lp113
S'paris_grec2373_0095.png'
p114
aI1024
aI1560
aI242
aI1212
aI748
aI90
asS'7-7'
p115
(lp116
S'paris_grec2373_0214.png'
p117
aI1024
aI1550
aI56
aI1169
aI722
aI120
asS'1-21'
p118
(lp119
S'paris_grec2373_0091.png'
p120
aI1024
aI1568
aI235
aI247
aI721
aI149
asS'4-12'
p121
(lp122
S'paris_grec2373_0153.png'
p123
aI1024
aI1559
aI225
aI298
aI718
aI78
asS'4-13'
p124
(lp125
S'paris_grec2373_0154.png'
p126
aI1024
aI1573
aI44
aI663
aI711
aI81
asS'4-10'
p127
(lp128
S'paris_grec2373_0151.png'
p129
aI1024
aI1559
aI233
aI684
aI717
aI90
asS'4-11'
p130
(lp131
S'paris_grec2373_0152.png'
p132
aI1024
aI1576
aI42
aI594
aI723
aI62
asS'4-16'
p133
(lp134
S'paris_grec2373_0157.png'
p135
aI1024
aI1563
aI230
aI883
aI726
aI90
asS'7-5'
p136
(lp137
S'paris_grec2373_0213.png'
p138
aI1024
aI1538
aI226
aI1149
aI723
aI127
asS'4-14'
p139
(lp140
S'paris_grec2373_0155.png'
p141
aI1024
aI1559
aI230
aI859
aI725
aI74
asS'4-15'
p142
(lp143
S'paris_grec2373_0156.png'
p144
aI1024
aI1582
aI40
aI428
aI722
aI93
asS'5-20'
p145
(lp146
S'paris_grec2373_0175.png'
p147
aI1024
aI1554
aI236
aI329
aI737
aI158
asS'5-21'
p148
(lp149
S'paris_grec2373_0175.png'
p150
aI1024
aI1554
aI251
aI995
aI717
aI182
asS'5-22'
p151
(lp152
S'paris_grec2373_0176.png'
p153
aI1024
aI1560
aI32
aI573
aI714
aI131
asS'5-23'
p154
(lp155
S'paris_grec2373_0177.png'
p156
aI1024
aI1545
aI247
aI105
aI723
aI139
asS'5-24'
p157
(lp158
S'paris_grec2373_0178.png'
p159
aI1024
aI1556
aI47
aI133
aI735
aI131
asS'5-25'
p160
(lp161
S'paris_grec2373_0178.png'
p162
aI1024
aI1556
aI40
aI697
aI719
aI78
asS'2-1_2'
p163
(lp164
S'paris_grec2373_0107.png'
p165
aI1024
aI1563
aI260
aI107
aI703
aI56
asS'1-36'
p166
(lp167
S'paris_grec2373_0100.png'
p168
aI1024
aI1565
aI35
aI618
aI721
aI76
asS'5-3'
p169
(lp170
S'paris_grec2373_0160.png'
p171
aI1024
aI1579
aI52
aI1252
aI724
aI52
asS'1-48'
p172
(lp173
S'paris_grec2373_0106.png'
p174
aI1024
aI1574
aI39
aI303
aI720
aI126
asS'6-9'
p175
(lp176
S'paris_grec2373_0187.png'
p177
aI1024
aI1551
aI240
aI745
aI586
aI77
asS'6-6'
p178
(lp179
S'paris_grec2373_0184.png'
p180
aI1024
aI1560
aI36
aI385
aI723
aI156
asS'6-7'
p181
(lp182
S'paris_grec2373_0185.png'
p183
aI1024
aI1550
aI247
aI326
aI721
aI169
asS'1-44'
p184
(lp185
S'paris_grec2373_0103.png'
p186
aI1024
aI1567
aI234
aI576
aI730
aI72
asS'6-5'
p187
(lp188
S'paris_grec2373_0183.png'
p189
aI1024
aI1550
aI220
aI362
aI718
aI108
asS'1-42'
p190
(lp191
S'paris_grec2373_0102.png'
p192
aI1024
aI1571
aI42
aI689
aI718
aI102
asS'1-43'
p193
(lp194
S'paris_grec2373_0103.png'
p195
aI1024
aI1567
aI238
aI115
aI726
aI82
asS'1-40'
p196
(lp197
S'paris_grec2373_0101.png'
p198
aI1024
aI1567
aI234
aI1214
aI592
aI75
asS'1-41'
p199
(lp200
S'paris_grec2373_0102.png'
p201
aI1024
aI1571
aI38
aI370
aI717
aI98
asS'1-23'
p202
(lp203
S'paris_grec2373_0082.png'
p204
aI1024
aI1556
aI46
aI664
aI712
aI86
asS'6-8'
p205
(lp206
S'paris_grec2373_0186.png'
p207
aI1024
aI1554
aI31
aI649
aI739
aI118
asS'7-8_2'
p208
(lp209
S'paris_grec2373_0216.png'
p210
aI1024
aI1534
aI53
aI113
aI715
aI94
asS'1-46'
p211
(lp212
S'paris_grec2373_0104.png'
p213
aI1024
aI1567
aI43
aI1063
aI556
aI75
asS'1-47'
p214
(lp215
S'paris_grec2373_0105.png'
p216
aI1024
aI1567
aI208
aI418
aI762
aI141
asS'6-4'
p217
(lp218
S'paris_grec2373_0182.png'
p219
aI1024
aI1560
aI33
aI552
aI739
aI124
asS'1-45'
p220
(lp221
S'paris_grec2373_0104.png'
p222
aI1024
aI1567
aI34
aI219
aI724
aI79
asS'6-2'
p223
(lp224
S'paris_grec2373_0180.png'
p225
aI1024
aI1557
aI40
aI651
aI735
aI155
asS'6-3'
p226
(lp227
S'paris_grec2373_0181.png'
p228
aI1024
aI1547
aI234
aI608
aI746
aI219
asS'3-13'
p229
(lp230
S'paris_grec2373_0127.png'
p231
aI1024
aI1562
aI231
aI1008
aI731
aI92
asS'3-12'
p232
(lp233
S'paris_grec2373_0127.png'
p234
aI1024
aI1562
aI237
aI481
aI717
aI84
asS'3-11'
p235
(lp236
S'paris_grec2373_0126.png'
p237
aI1024
aI1568
aI45
aI887
aI721
aI116
asS'3-10'
p238
(lp239
S'paris_grec2373_0125.png'
p240
aI1024
aI1562
aI239
aI1211
aI622
aI60
asS'3-17'
p241
(lp242
S'paris_grec2373_0131.png'
p243
aI1024
aI1563
aI237
aI258
aI726
aI85
asS'3-16'
p244
(lp245
S'paris_grec2373_0129.png'
p246
aI1024
aI1563
aI213
aI1122
aI747
aI180
asS'3-15'
p247
(lp248
S'paris_grec2373_0129.png'
p249
aI1024
aI1563
aI231
aI517
aI740
aI91
asS'3-14'
p250
(lp251
S'paris_grec2373_0128.png'
p252
aI1024
aI1573
aI32
aI653
aI716
aI98
asS'3-19'
p253
(lp254
S'paris_grec2373_0132.png'
p255
aI1024
aI1576
aI37
aI357
aI726
aI123
asS'6-1'
p256
(lp257
S'paris_grec2373_0179.png'
p258
aI1024
aI1545
aI234
aI493
aI722
aI78
asS'2-2'
p259
(lp260
S'paris_grec2373_0107.png'
p261
aI1024
aI1563
aI235
aI612
aI742
aI112
asS'5-10'
p262
(lp263
S'paris_grec2373_0168.png'
p264
aI1024
aI1570
aI47
aI661
aI721
aI115
asS'3-4_2'
p265
(lp266
S'paris_grec2373_0121.png'
p267
aI1024
aI1576
aI252
aI143
aI620
aI51
asS'2-1'
p268
(lp269
S'paris_grec2373_0106.png'
p270
aI1024
aI1574
aI28
aI1198
aI749
aI132
asS'5-15'
p271
(lp272
S'paris_grec2373_0171.png'
p273
aI1024
aI1556
aI239
aI921
aI726
aI82
asS'5-14'
p274
(lp275
S'paris_grec2373_0171.png'
p276
aI1024
aI1556
aI244
aI356
aI730
aI137
asS'5-17'
p277
(lp278
S'paris_grec2373_0172.png'
p279
aI1024
aI1554
aI49
aI1050
aI707
aI79
asS'5-16'
p280
(lp281
S'paris_grec2373_0172.png'
p282
aI1024
aI1554
aI44
aI327
aI708
aI65
asS'5-19'
p283
(lp284
S'paris_grec2373_0174.png'
p285
aI1024
aI1554
aI48
aI506
aI709
aI80
asS'5-18'
p286
(lp287
S'paris_grec2373_0173.png'
p288
aI1024
aI1554
aI256
aI1115
aI703
aI83
asS'2-8'
p289
(lp290
S'paris_grec2373_0111.png'
p291
aI1024
aI1563
aI235
aI1195
aI718
aI93
asS'2-9'
p292
(lp293
S'paris_grec2373_0113.png'
p294
aI1024
aI1570
aI245
aI192
aI725
aI117
asS'7-1_2'
p295
(lp296
S'paris_grec2373_0211.png'
p297
aI1024
aI1533
aI256
aI140
aI248
aI35
asS'4-1'
p298
(lp299
S'paris_grec2373_0145.png'
p300
aI1024
aI1565
aI248
aI651
aI713
aI81
asS'4-2'
p301
(lp302
S'paris_grec2373_0145.png'
p303
aI1024
aI1565
aI247
aI1051
aI719
aI92
asS'7-8'
p304
(lp305
S'paris_grec2373_0215.png'
p306
aI1024
aI1536
aI214
aI622
aI741
aI100
asS'4-4'
p307
(lp308
S'paris_grec2373_0147.png'
p309
aI1024
aI1560
aI222
aI134
aI470
aI55
asS'4-5'
p310
(lp311
S'paris_grec2373_0148.png'
p312
aI1024
aI1574
aI48
aI440
aI556
aI58
asS'4-6'
p313
(lp314
S'paris_grec2373_0149.png'
p315
aI1024
aI1560
aI219
aI436
aI604
aI54
asS'4-7'
p316
(lp317
S'paris_grec2373_0149.png'
p318
aI1024
aI1560
aI226
aI901
aI610
aI45
asS'1-24'
p319
(lp320
S'paris_grec2373_0082.png'
p321
aI1024
aI1556
aI43
aI1215
aI729
aI64
asS'7-2'
p322
(lp323
S'paris_grec2373_0211.png'
p324
aI1024
aI1533
aI238
aI687
aI716
aI77
asS'7-1'
p325
(lp326
S'paris_grec2373_0210.png'
p327
aI1024
aI1550
aI42
aI1168
aI713
aI130
asS'3-8'
p328
(lp329
S'paris_grec2373_0123.png'
p330
aI1024
aI1562
aI224
aI527
aI732
aI385
asS'1-20'
p331
(lp332
S'paris_grec2373_0090.png'
p333
aI1024
aI1562
aI46
aI878
aI725
aI82
asS'7-6'
p334
(lp335
S'paris_grec2373_0214.png'
p336
aI1024
aI1550
aI58
aI644
aI722
aI119
asS'1-22'
p337
(lp338
S'paris_grec2373_0091.png'
p339
aI1024
aI1568
aI238
aI1111
aI716
aI189
asS'7-4'
p340
(lp341
S'paris_grec2373_0213.png'
p342
aI1024
aI1538
aI226
aI663
aI718
aI88
asS'3-28'
p343
(lp344
S'paris_grec2373_0136.png'
p345
aI1024
aI1570
aI42
aI1018
aI312
aI173
asS'3-29'
p346
(lp347
S'paris_grec2373_0137.png'
p348
aI1024
aI1578
aI449
aI578
aI527
aI83
asS'3-26'
p349
(lp350
S'paris_grec2373_0135.png'
p351
aI1024
aI1576
aI550
aI845
aI404
aI152
asS'3-27'
p352
(lp353
S'paris_grec2373_0136.png'
p354
aI1024
aI1570
aI40
aI381
aI726
aI119
asS'3-24'
p355
(lp356
S'paris_grec2373_0134.png'
p357
aI1024
aI1576
aI33
aI391
aI556
aI75
asS'3-25'
p358
(lp359
S'paris_grec2373_0134.png'
p360
aI1024
aI1576
aI45
aI989
aI727
aI81
asS'3-22'
p361
(lp362
S'paris_grec2373_0133.png'
p363
aI1024
aI1563
aI305
aI713
aI656
aI78
asS'3-23'
p364
(lp365
S'paris_grec2373_0133.png'
p366
aI1024
aI1563
aI465
aI1211
aI498
aI95
asS'3-20'
p367
(lp368
S'paris_grec2373_0132.png'
p369
aI1024
aI1576
aI43
aI853
aI681
aI121
asS'3-21'
p370
(lp371
S'paris_grec2373_0133.png'
p372
aI1024
aI1563
aI230
aI355
aI725
aI57
asS'1-29_2'
p373
(lp374
S'paris_grec2373_0097.png'
p375
aI1024
aI1581
aI267
aI131
aI230
aI50
asS'5-11'
p376
(lp377
S'paris_grec2373_0169.png'
p378
aI1024
aI1556
aI230
aI171
aI609
aI51
asS'3-4'
p379
(lp380
S'paris_grec2373_0120.png'
p381
aI1024
aI1574
aI53
aI1255
aI534
aI69
asS'2-3'
p382
(lp383
S'paris_grec2373_0107.png'
p384
aI1024
aI1563
aI242
aI1068
aI722
aI152
asS'3-3'
p385
(lp386
S'paris_grec2373_0120.png'
p387
aI1024
aI1574
aI50
aI469
aI712
aI119
asS'1-27_2'
p388
(lp389
S'paris_grec2373_0096.png'
p390
aI1024
aI1565
aI59
aI133
aI693
aI78
asS'3-2'
p391
(lp392
S'paris_grec2373_0119.png'
p393
aI1024
aI1559
aI225
aI979
aI734
aI119
asS'5-12'
p394
(lp395
S'paris_grec2373_0169.png'
p396
aI1024
aI1556
aI225
aI819
aI721
aI118
asS'5-13'
p397
(lp398
S'paris_grec2373_0170.png'
p399
aI1024
aI1568
aI46
aI462
aI723
aI155
asS'2-6'
p400
(lp401
S'paris_grec2373_0110.png'
p402
aI1024
aI1570
aI41
aI665
aI865
aI167
asS'2-7'
p403
(lp404
S'paris_grec2373_0111.png'
p405
aI1024
aI1563
aI235
aI399
aI740
aI156
asS'6-10'
p406
(lp407
S'paris_grec2373_0187.png'
p408
aI1024
aI1551
aI379
aI1151
aI574
aI75
asS'6-11'
p409
(lp410
S'paris_grec2373_0188.png'
p411
aI1024
aI1560
aI20
aI651
aI625
aI64
asS'6-12'
p412
(lp413
S'paris_grec2373_0188.png'
p414
aI1024
aI1560
aI23
aI1023
aI656
aI70
asS'6-13'
p415
(lp416
S'paris_grec2373_0189.png'
p417
aI1024
aI1547
aI317
aI256
aI549
aI57
asS'6-14'
p418
(lp419
S'paris_grec2373_0189.png'
p420
aI1024
aI1547
aI358
aI618
aI617
aI179
asS'2-4'
p421
(lp422
S'paris_grec2373_0108.png'
p423
aI1024
aI1565
aI39
aI463
aI723
aI129
asS'1-39'
p424
(lp425
S'paris_grec2373_0101.png'
p426
aI1024
aI1567
aI238
aI813
aI721
aI85
asS'6-17'
p427
(lp428
S'paris_grec2373_0192.png'
p429
aI1024
aI1556
aI33
aI380
aI714
aI150
asS'6-18'
p430
(lp431
S'paris_grec2373_0192.png'
p432
aI1024
aI1556
aI35
aI1142
aI708
aI80
asS'6-19'
p433
(lp434
S'paris_grec2373_0193.png'
p435
aI1024
aI1551
aI352
aI811
aI603
aI77
asS'1-35'
p436
(lp437
S'paris_grec2373_0100.png'
p438
aI1024
aI1565
aI43
aI159
aI605
aI84
asS'1-34'
p439
(lp440
S'paris_grec2373_0099.png'
p441
aI1024
aI1567
aI242
aI451
aI720
aI85
asS'1-33'
p442
(lp443
S'paris_grec2373_0098.png'
p444
aI1024
aI1565
aI31
aI1012
aI715
aI93
asS'1-32'
p445
(lp446
S'paris_grec2373_0098.png'
p447
aI1024
aI1565
aI39
aI314
aI732
aI119
asS'1-31'
p448
(lp449
S'paris_grec2373_0097.png'
p450
aI1024
aI1581
aI243
aI1119
aI734
aI98
asS'1-30'
p451
(lp452
S'paris_grec2373_0097.png'
p453
aI1024
aI1581
aI249
aI834
aI629
aI59
asS'3-31'
p454
(lp455
S'paris_grec2373_0138.png'
p456
aI1024
aI1576
aI35
aI217
aI743
aI157
asS'3-30'
p457
(lp458
S'paris_grec2373_0137.png'
p459
aI1024
aI1578
aI384
aI955
aI460
aI57
asS'3-33'
p460
(lp461
S'paris_grec2373_0140.png'
p462
aI1024
aI1576
aI39
aI357
aI704
aI124
asS'3-32'
p463
(lp464
S'paris_grec2373_0139.png'
p465
aI1024
aI1578
aI247
aI483
aI727
aI152
asS'3-35'
p466
(lp467
S'paris_grec2373_0142.png'
p468
aI1024
aI1571
aI35
aI325
aI604
aI117
asS'3-34'
p469
(lp470
S'paris_grec2373_0141.png'
p471
aI1024
aI1574
aI372
aI994
aI592
aI78
asS'3-37'
p472
(lp473
S'paris_grec2373_0144.png'
p474
aI1024
aI1571
aI42
aI419
aI732
aI225
asS'3-36'
p475
(lp476
S'paris_grec2373_0143.png'
p477
aI1024
aI1568
aI242
aI223
aI735
aI184
asS'1-9'
p478
(lp479
S'paris_grec2373_0086.png'
p480
aI1024
aI1563
aI46
aI393
aI556
aI80
asS'1-8'
p481
(lp482
S'paris_grec2373_0085.png'
p483
aI1024
aI1568
aI221
aI716
aI743
aI116
asS'1-1'
p484
(lp485
S'paris_grec2373_0081.png'
p486
aI1024
aI1565
aI250
aI812
aI684
aI66
asS'1-3'
p487
(lp488
S'paris_grec2373_0092.png'
p489
aI1024
aI1560
aI36
aI549
aI704
aI106
asS'1-2'
p490
(lp491
S'paris_grec2373_0081.png'
p492
aI1024
aI1565
aI236
aI1245
aI681
aI81
asS'1-5'
p493
(lp494
S'paris_grec2373_0093.png'
p495
aI1024
aI1563
aI240
aI912
aI736
aI119
asS'1-4'
p496
(lp497
S'paris_grec2373_0092.png'
p498
aI1024
aI1560
aI30
aI901
aI727
aI214
asS'1-7'
p499
(lp500
S'paris_grec2373_0085.png'
p501
aI1024
aI1568
aI243
aI129
aI714
aI118
asS'1-6'
p502
(lp503
S'paris_grec2373_0084.png'
p504
aI1024
aI1563
aI32
aI740
aI721
aI106
asS'4-8'
p505
(lp506
S'paris_grec2373_0150.png'
p507
aI1024
aI1574
aI44
aI536
aI517
aI56
asS'6-15'
p508
(lp509
S'paris_grec2373_0190.png'
p510
aI1024
aI1556
aI30
aI513
aI712
aI149
asS'5-5'
p511
(lp512
S'paris_grec2373_0162.png'
p513
aI1024
aI1574
aI47
aI961
aI721
aI131
asS'5-4'
p514
(lp515
S'paris_grec2373_0161.png'
p516
aI1024
aI1559
aI233
aI999
aI717
aI188
asS'5-7'
p517
(lp518
S'paris_grec2373_0166.png'
p519
aI1024
aI1563
aI33
aI137
aI716
aI93
asS'5-6'
p520
(lp521
S'paris_grec2373_0163.png'
p522
aI1024
aI1557
aI225
aI490
aI725
aI152
asS'5-1'
p523
(lp524
S'paris_grec2373_0159.png'
p525
aI1024
aI1559
aI241
aI967
aI729
aI163
asS'6-16'
p526
(lp527
S'paris_grec2373_0191.png'
p528
aI1024
aI1556
aI255
aI347
aI730
aI178
asS'3-9'
p529
(lp530
S'paris_grec2373_0125.png'
p531
aI1024
aI1562
aI246
aI200
aI716
aI100
asS'5-2'
p532
(lp533
S'paris_grec2373_0160.png'
p534
aI1024
aI1579
aI32
aI485
aI722
aI158
asS'3-7'
p535
(lp536
S'paris_grec2373_0122.png'
p537
aI1024
aI1568
aI39
aI128
aI730
aI268
asS'3-6'
p538
(lp539
S'paris_grec2373_0121.png'
p540
aI1024
aI1576
aI229
aI955
aI742
aI71
asS'3-5'
p541
(lp542
S'paris_grec2373_0121.png'
p543
aI1024
aI1576
aI232
aI627
aI730
aI60
asS'1-38'
p544
(lp545
S'paris_grec2373_0101.png'
p546
aI1024
aI1567
aI234
aI352
aI726
aI79
asS'5-9'
p547
(lp548
S'paris_grec2373_0168.png'
p549
aI1024
aI1570
aI48
aI274
aI715
aI111
asS'5-8'
p550
(lp551
S'paris_grec2373_0166.png'
p552
aI1024
aI1563
aI45
aI763
aI741
aI119
asS'3-1'
p553
(lp554
S'paris_grec2373_0119.png'
p555
aI1024
aI1559
aI223
aI392
aI484
aI59
asS'2-14'
p556
(lp557
S'paris_grec2373_0117.png'
p558
aI1024
aI1559
aI212
aI1062
aI651
aI83
asS'1-37'
p559
(lp560
S'paris_grec2373_0100.png'
p561
aI1024
aI1565
aI33
aI1051
aI719
aI69
asS'2-10'
p562
(lp563
S'paris_grec2373_0114.png'
p564
aI1024
aI1582
aI45
aI353
aI730
aI196
asS'2-11'
p565
(lp566
S'paris_grec2373_0115.png'
p567
aI1024
aI1573
aI218
aI759
aI740
aI112
asS'2-12'
p568
(lp569
S'paris_grec2373_0116.png'
p570
aI1024
aI1581
aI45
aI522
aI733
aI231
asS'2-13'
p571
(lp572
S'paris_grec2373_0117.png'
p573
aI1024
aI1559
aI243
aI236
aI711
aI180
asS'2-8_2'
p574
(lp575
S'paris_grec2373_0112.png'
p576
aI1024
aI1581
aI53
aI132
aI687
aI97
as.