(lp0
I27
aI21
aI29
aI27
aI19
aI19
aI22
aI24
aI21
aI21
aI25
aI24
aI23
aI23
aI20
aI24
aI18
aI16
aI15
aI19
aI14
aI17
aI17
aI18
aI16
aI21
aI18
aI16
aI17
aI21
aI20
aI15
aI22
aI22
aI21
aI24
aI21
aI24
aI25
aI15
aI14
aI13
aI16
aI15
aI16
aI15
aI15
aI18
aI15
aI19
aI29
aI27
aI23
aI19
aI22
aI17
aI17
aI5
aI15
aI18
aI22
aI7
aI9
aI20
aI11
aI26
aI20
aI28
aI24
aI14
aI33
aI19
aI17
aI17
aI18
aI13
aI8
aI21
aI15
aI15
aI9
aI10
aI28
aI21
aI7
aI1
aI16
aI13
aI17
aI16
aI16
aI19
aI18
aI20
aI15
aI2
aI23
aI28
aI29
aI31
aI29
aI23
aI18
aI17
aI14
aI15
aI17
aI25
aI18
aI18
aI17
aI17
aI25
aI19
aI25
aI26
aI19
aI13
aI17
aI31
aI24
aI19
aI18
aI39
aI19
aI24
aI4
aI17
aI29
aI35
aI14
aI9
aI9
aI10
aI17
aI18
aI18
aI17
aI12
aI18
aI19
aI20
aI17
aI18
aI20
aI24
aI21
aI17
aI16
aI18
aI22
aI21
aI19
aI17
aI21
aI19
aI19
aI21
aI16
aI21
aI22
aI16
aI19
aI21
aI18
aI20
aI17
aI16
aI15
aI17
aI16
aI15
aI16
aI18
aI17
aI15
aI17
aI18
aI17
aI15
aI21
aI17
aI19
aI18
aI15
aI16
aI20
aI23
aI23
aI21
aI19
aI17
aI19
aI16
aI23
aI18
aI17
aI17
aI13
aI17
aI17
aI19
aI17
aI14
aI19
aI23
aI21
aI21
aI17
aI21
aI21
aI18
aI15
aI15
aI17
aI19
aI23
aI17
aI19
aI16
aI15
aI15
aI21
aI16
aI19
aI19
aI16
aI19
aI18
aI23
aI18
aI17
aI19
aI21
aI23
aI23
aI17
aI14
aI19
aI22
aI25
aI16
aI17
aI19
aI18
aI18
aI23
aI16
aI18
aI26
aI14
aI24
aI19
aI23
aI17
aI15
aI17
aI18
aI6
aI19
aI20
aI15
aI17
aI23
aI23
aI23
aI24
aI16
aI19
aI13
aI20
aI19
aI17
aI11
aI21
aI22
aI20
aI19
aI19
aI25
aI20
aI20
aI26
aI16
aI20
aI19
aI21
aI19
aI15
aI21
aI17
aI19
aI12
aI13
aI15
aI15
aI13
aI17
aI21
aI15
aI15
aI11
aI16
aI15
a.