(dp0
S'elementseuclidv02euclgoog_0457'
p1
cnumpy.core.multiarray
scalar
p2
(cnumpy
dtype
p3
(S'f8'
p4
I0
I1
tp5
Rp6
(I3
S'<'
p7
NNNI-1
I-1
I0
tp8
bS'\xf8\x9c\xee\x9c@\x947?'
p9
tp10
Rp11
sS'elementseuclidv02euclgoog_0450'
p12
g2
(g6
S'HE_\x94\x00K6?'
p13
tp14
Rp15
sS'elementseuclidv02euclgoog_0451'
p16
g2
(g6
S'\xb3\x88\x82\xedU\xdd6?'
p17
tp18
Rp19
sS'elementseuclidv02euclgoog_0452'
p20
g2
(g6
S'\x13\x02\x03\xe0iA8?'
p21
tp22
Rp23
sS'elementseuclidv02euclgoog_0453'
p24
g2
(g6
S'\xed\x92\xfb\xd4\xd3N8?'
p25
tp26
Rp27
sS'elementseuclidv02euclgoog_0383'
p28
g2
(g6
S'\x05[\xe9\xe8[\x03:?'
p29
tp30
Rp31
sS'elementseuclidv02euclgoog_0298'
p32
g2
(g6
S'\x1d=L\xff\xd6\x1b6?'
p33
tp34
Rp35
sS'elementseuclidv02euclgoog_0299'
p36
g2
(g6
S'\xfa\xd8\t\xce\xff\x0f;?'
p37
tp38
Rp39
sS'elementseuclidv02euclgoog_0292'
p40
g2
(g6
S'\x88\xa1\xbd\x1bh\x0f\xea>'
p41
tp42
Rp43
sS'elementseuclidv02euclgoog_0293'
p44
g2
(g6
S'Z\xdf:Ttq9?'
p45
tp46
Rp47
sS'elementseuclidv02euclgoog_0290'
p48
g2
(g6
S'N\xaaJk\x80\xa1:?'
p49
tp50
Rp51
sS'elementseuclidv02euclgoog_0291'
p52
g2
(g6
S'F\x90\xab\xe6M@C?'
p53
tp54
Rp55
sS'elementseuclidv02euclgoog_0296'
p56
g2
(g6
S'i;)\xd1\xff^9?'
p57
tp58
Rp59
sS'elementseuclidv02euclgoog_0297'
p60
g2
(g6
S'\x1fw\x0f\x07\xab\xb36?'
p61
tp62
Rp63
sS'elementseuclidv02euclgoog_0294'
p64
g2
(g6
S'XPd\xbd\xcf\x1d\xf1>'
p65
tp66
Rp67
sS'elementseuclidv02euclgoog_0295'
p68
g2
(g6
S'\x94\x10\xcb^\xdf\xaf7?'
p69
tp70
Rp71
sS'elementseuclidv02euclgoog_0191'
p72
g2
(g6
S'=s\xaf\x1cQ\x837?'
p73
tp74
Rp75
sS'elementseuclidv02euclgoog_0190'
p76
g2
(g6
S'yQ\xdc\xbbG\xc97?'
p77
tp78
Rp79
sS'elementseuclidv02euclgoog_0193'
p80
g2
(g6
S'\x9d\x06\xad\r\xab}8?'
p81
tp82
Rp83
sS'elementseuclidv02euclgoog_0192'
p84
g2
(g6
S'f\x1ei\xa5Oz:?'
p85
tp86
Rp87
sS'elementseuclidv02euclgoog_0195'
p88
g2
(g6
S'\xbe\xddiH.\xa57?'
p89
tp90
Rp91
sS'elementseuclidv02euclgoog_0194'
p92
g2
(g6
S'\xf9\x08L\xc54\x075?'
p93
tp94
Rp95
sS'elementseuclidv02euclgoog_0197'
p96
g2
(g6
S'\xb8\xba\xe3\xb9\xa1\xdf8?'
p97
tp98
Rp99
sS'elementseuclidv02euclgoog_0196'
p100
g2
(g6
S'\x9d\x06\xad\r\xab}8?'
p101
tp102
Rp103
sS'elementseuclidv02euclgoog_0199'
p104
g2
(g6
S'\\\x14C\x7fa\xdb4?'
p105
tp106
Rp107
sS'elementseuclidv02euclgoog_0198'
p108
g2
(g6
S'M\xb0\xbf\x9f\xf4!<?'
p109
tp110
Rp111
sS'elementseuclidv02euclgoog_0065'
p112
g2
(g6
S'\xdd{\xb9\xea\x1e\xe17?'
p113
tp114
Rp115
sS'elementseuclidv02euclgoog_0064'
p116
g2
(g6
S's\x95\x19\xde\x84\xdc5?'
p117
tp118
Rp119
sS'elementseuclidv02euclgoog_0067'
p120
g2
(g6
S'\xe5\xd1\x1f\xce\xc4\x945?'
p121
tp122
Rp123
sS'elementseuclidv02euclgoog_0066'
p124
g2
(g6
S'\r\xce\xf7\x89*a7?'
p125
tp126
Rp127
sS'elementseuclidv02euclgoog_0061'
p128
g2
(g6
S'r\xa55\x96\xa4\x994?'
p129
tp130
Rp131
sS'elementseuclidv02euclgoog_0060'
p132
g2
(g6
S'+\xdf\x8c4<H5?'
p133
tp134
Rp135
sS'elementseuclidv02euclgoog_0063'
p136
g2
(g6
S'\x90\xae\xbcd&"3?'
p137
tp138
Rp139
sS'elementseuclidv02euclgoog_0062'
p140
g2
(g6
S'\x8a\t\x84\xa0\xe1\xad5?'
p141
tp142
Rp143
sS'elementseuclidv02euclgoog_0259'
p144
g2
(g6
S'\x0e_%7\x04G6?'
p145
tp146
Rp147
sS'elementseuclidv02euclgoog_0069'
p148
g2
(g6
S'W\xbb,\x80b\x9a9?'
p149
tp150
Rp151
sS'elementseuclidv02euclgoog_0068'
p152
g2
(g6
S'\x90\xd9/x\x82v9?'
p153
tp154
Rp155
sS'elementseuclidv02euclgoog_0108'
p156
g2
(g6
S'\xbf\x19\x1f\xefz\x82;?'
p157
tp158
Rp159
sS'elementseuclidv02euclgoog_0109'
p160
g2
(g6
S'\x9a\x02h\x1e\x7f\x028?'
p161
tp162
Rp163
sS'elementseuclidv02euclgoog_0102'
p164
g2
(g6
S'#\x81\x18u\x0668?'
p165
tp166
Rp167
sS'elementseuclidv02euclgoog_0103'
p168
g2
(g6
S'\xf7\xd7\xf9\x18\xcc\x969?'
p169
tp170
Rp171
sS'elementseuclidv02euclgoog_0100'
p172
g2
(g6
S'\xaaA\xa5\xdf\xc2|6?'
p173
tp174
Rp175
sS'elementseuclidv02euclgoog_0101'
p176
g2
(g6
S'-E\xcf\xf1\x8a39?'
p177
tp178
Rp179
sS'elementseuclidv02euclgoog_0106'
p180
g2
(g6
S'\xdf\x8aJ\xe4\xe6\xff4?'
p181
tp182
Rp183
sS'elementseuclidv02euclgoog_0107'
p184
g2
(g6
S'\xd4\x82\xa3\xcd\x7fR??'
p185
tp186
Rp187
sS'elementseuclidv02euclgoog_0104'
p188
g2
(g6
S'oaK\x02,[<?'
p189
tp190
Rp191
sS'elementseuclidv02euclgoog_0105'
p192
g2
(g6
S'\xae\xfc\x1e\xfe\x88\x0f9?'
p193
tp194
Rp195
sS'elementseuclidv02euclgoog_0319'
p196
g2
(g6
S'\x06\xdf_\xe0\x1d\x8f6?'
p197
tp198
Rp199
sS'elementseuclidv02euclgoog_0318'
p200
g2
(g6
S'%\xd6\x9c\xcb\xcc\xde4?'
p201
tp202
Rp203
sS'elementseuclidv02euclgoog_0201'
p204
g2
(g6
S'~\xdd\xd2*\x05\x9b7?'
p205
tp206
Rp207
sS'elementseuclidv02euclgoog_0200'
p208
g2
(g6
S'b\x19V\x92\xd8\xaa7?'
p209
tp210
Rp211
sS'elementseuclidv02euclgoog_0203'
p212
g2
(g6
S'\xbb\x19\x1d\xc5\xcf+<?'
p213
tp214
Rp215
sS'elementseuclidv02euclgoog_0202'
p216
g2
(g6
S'?\xe1\xe6\xd3Zo:?'
p217
tp218
Rp219
sS'elementseuclidv02euclgoog_0205'
p220
g2
(g6
S'5X\x89\xbf\x9f\xa58?'
p221
tp222
Rp223
sS'elementseuclidv02euclgoog_0204'
p224
g2
(g6
S'\xd3\x92\r\xbdQ\xba8?'
p225
tp226
Rp227
sS'elementseuclidv02euclgoog_0207'
p228
g2
(g6
S'\x89v\x88\x1a\xb3\x13;?'
p229
tp230
Rp231
sS'elementseuclidv02euclgoog_0206'
p232
g2
(g6
S'\x06a\x99\x10{f;?'
p233
tp234
Rp235
sS'elementseuclidv02euclgoog_0209'
p236
g2
(g6
S'\xd1)8\x8c^\xbd7?'
p237
tp238
Rp239
sS'elementseuclidv02euclgoog_0208'
p240
g2
(g6
S'\xc8b\x1c\x96j\x906?'
p241
tp242
Rp243
sS'elementseuclidv02euclgoog_0438'
p244
g2
(g6
S'\x92\xa3\xcd\xe7\xd5\x016?'
p245
tp246
Rp247
sS'elementseuclidv02euclgoog_0439'
p248
g2
(g6
S'\xce\xcb\x1b\x12\xe4\xd03?'
p249
tp250
Rp251
sS'elementseuclidv02euclgoog_0436'
p252
g2
(g6
S'\xb6\x08#\xb0\xac\x0b7?'
p253
tp254
Rp255
sS'elementseuclidv02euclgoog_0437'
p256
g2
(g6
S'l\xaa\xb4\\\xd7T7?'
p257
tp258
Rp259
sS'elementseuclidv02euclgoog_0434'
p260
g2
(g6
S'\xde\xb4\xf4\xe8\x13O;?'
p261
tp262
Rp263
sS'elementseuclidv02euclgoog_0435'
p264
g2
(g6
S'Jj`\xe6\xf5\xca5?'
p265
tp266
Rp267
sS'elementseuclidv02euclgoog_0432'
p268
g2
(g6
S"'dPj\x8b\xcb<?"
p269
tp270
Rp271
sS'elementseuclidv02euclgoog_0433'
p272
g2
(g6
S'"\x1aN\xc6\xa0\xcb=?'
p273
tp274
Rp275
sS'elementseuclidv02euclgoog_0430'
p276
g2
(g6
S'\xed\x92\xfb\xd4\xd3N8?'
p277
tp278
Rp279
sS'elementseuclidv02euclgoog_0431'
p280
g2
(g6
S'\xbe\x08d5Zh7?'
p281
tp282
Rp283
sS'elementseuclidv02euclgoog_0449'
p284
g2
(g6
S'\xca\x12W\xfd\xc6\xad6?'
p285
tp286
Rp287
sS'elementseuclidv02euclgoog_0448'
p288
g2
(g6
S'\xad\xea\x0c\xe8nQ:?'
p289
tp290
Rp291
sS'elementseuclidv02euclgoog_0339'
p292
g2
(g6
S'\x04F)>\x1cm<?'
p293
tp294
Rp295
sS'elementseuclidv02euclgoog_0338'
p296
g2
(g6
S'\xb6\x95\x89\xcd\r\t7?'
p297
tp298
Rp299
sS'elementseuclidv02euclgoog_0335'
p300
g2
(g6
S'u[7\xb4rf7?'
p301
tp302
Rp303
sS'elementseuclidv02euclgoog_0334'
p304
g2
(g6
S'\x9c\xeaD/\xb2\xc48?'
p305
tp306
Rp307
sS'elementseuclidv02euclgoog_0337'
p308
g2
(g6
S'\x90/\x888\xe4.7?'
p309
tp310
Rp311
sS'elementseuclidv02euclgoog_0336'
p312
g2
(g6
S'\x07\xc5\xaa:\xa5\xd59?'
p313
tp314
Rp315
sS'elementseuclidv02euclgoog_0331'
p316
g2
(g6
S'\xc3u\xb0an\xd54?'
p317
tp318
Rp319
sS'elementseuclidv02euclgoog_0330'
p320
g2
(g6
S'UM\xc2k\xfa\xa46?'
p321
tp322
Rp323
sS'elementseuclidv02euclgoog_0333'
p324
g2
(g6
S'\xc7\xd1\xf7e\xe5\xd48?'
p325
tp326
Rp327
sS'elementseuclidv02euclgoog_0332'
p328
g2
(g6
S'\xec\x0f\xe3FH\xe06?'
p329
tp330
Rp331
sS'elementseuclidv02euclgoog_0494'
p332
g2
(g6
S'}T\xf0\x970\xd4F?'
p333
tp334
Rp335
sS'elementseuclidv02euclgoog_0495'
p336
g2
(g6
S'\xfc7\xden\xcdY8?'
p337
tp338
Rp339
sS'elementseuclidv02euclgoog_0029'
p340
g2
(g6
S'\xcb*\xf4=\x05\x8b7?'
p341
tp342
Rp343
sS'elementseuclidv02euclgoog_0028'
p344
g2
(g6
S'#\x81\x18u\x0668?'
p345
tp346
Rp347
sS'elementseuclidv02euclgoog_0021'
p348
g2
(g6
S'\xf9\xd3\x12\x9a?*6?'
p349
tp350
Rp351
sS'elementseuclidv02euclgoog_0020'
p352
g2
(g6
S'\xd6\xbb)\xcb\x9d\xd52?'
p353
tp354
Rp355
sS'elementseuclidv02euclgoog_0023'
p356
g2
(g6
S"\xb0@\xeb'\xc3\x8b<?"
p357
tp358
Rp359
sS'elementseuclidv02euclgoog_0022'
p360
g2
(g6
S'\x9a\x1fz\xa3\x08m8?'
p361
tp362
Rp363
sS'elementseuclidv02euclgoog_0025'
p364
g2
(g6
S'\n\xa3D\x98W\x878?'
p365
tp366
Rp367
sS'elementseuclidv02euclgoog_0024'
p368
g2
(g6
S'}\x12\x0cV\xfaw6?'
p369
tp370
Rp371
sS'elementseuclidv02euclgoog_0027'
p372
g2
(g6
S'\xd6\xbb)\xcb\x9d\xd5B?'
p373
tp374
Rp375
sS'elementseuclidv02euclgoog_0026'
p376
g2
(g6
S'\x88h\x92\xa8[n@?'
p377
tp378
Rp379
sS'elementseuclidv02euclgoog_0155'
p380
g2
(g6
S'\x95\xddX\xb5\x11\x01>?'
p381
tp382
Rp383
sS'elementseuclidv02euclgoog_0154'
p384
g2
(g6
S'\x96-]\x9d\xe0?:?'
p385
tp386
Rp387
sS'elementseuclidv02euclgoog_0157'
p388
g2
(g6
S'6\xdfl\x1b\xe6\xa75?'
p389
tp390
Rp391
sS'elementseuclidv02euclgoog_0156'
p392
g2
(g6
S';\x83g\xd3\x0f\x008?'
p393
tp394
Rp395
sS'elementseuclidv02euclgoog_0098'
p396
g2
(g6
S'\x93\x04\xe3iUP8?'
p397
tp398
Rp399
sS'elementseuclidv02euclgoog_0099'
p400
g2
(g6
S'iO\xcf\xb2\xfe\xe56?'
p401
tp402
Rp403
sS'elementseuclidv02euclgoog_0153'
p404
g2
(g6
S'dg}\xb70k8?'
p405
tp406
Rp407
sS'elementseuclidv02euclgoog_0152'
p408
g2
(g6
S'\xedy\xd3ff\x10:?'
p409
tp410
Rp411
sS'elementseuclidv02euclgoog_0094'
p412
g2
(g6
S'_H;\xb0\xf7\xf28?'
p413
tp414
Rp415
sS'elementseuclidv02euclgoog_0095'
p416
g2
(g6
S'\x06\x0231\x16\x057?'
p417
tp418
Rp419
sS'elementseuclidv02euclgoog_0096'
p420
g2
(g6
S'\xda\\;2\xdfW4?'
p421
tp422
Rp423
sS'elementseuclidv02euclgoog_0097'
p424
g2
(g6
S'\xd4\xb7\x02n\x9a\xe36?'
p425
tp426
Rp427
sS'elementseuclidv02euclgoog_0159'
p428
g2
(g6
S'\xeb\x98\x8c^\x1b\x9b6?'
p429
tp430
Rp431
sS'elementseuclidv02euclgoog_0158'
p432
g2
(g6
S'c\xc0\xe9\xa4\x04\x0b8?'
p433
tp434
Rp435
sS'elementseuclidv02euclgoog_0092'
p436
g2
(g6
S'@\x9a\xbb\xfb\xa7{5?'
p437
tp438
Rp439
sS'elementseuclidv02euclgoog_0093'
p440
g2
(g6
S'?\x10\x1aq\x16$8?'
p441
tp442
Rp443
sS'elementseuclidv02euclgoog_0472'
p444
g2
(g6
S'3\x19\xb0(K\xef2?'
p445
tp446
Rp447
sS'elementseuclidv02euclgoog_0473'
p448
g2
(g6
S'a\xf44\xf6f\x9b5?'
p449
tp450
Rp451
sS'elementseuclidv02euclgoog_0470'
p452
g2
(g6
S'\xf4\xe3)\x88#q:?'
p453
tp454
Rp455
sS'elementseuclidv02euclgoog_0471'
p456
g2
(g6
S'\xa9\x85\xbb4N\xba:?'
p457
tp458
Rp459
sS'elementseuclidv02euclgoog_0476'
p460
g2
(g6
S'\x9e\\\xd3\x81\xa0\x813?'
p461
tp462
Rp463
sS'elementseuclidv02euclgoog_0477'
p464
g2
(g6
S'\xe9f\xcesy\xac5?'
p465
tp466
Rp467
sS'elementseuclidv02euclgoog_0474'
p468
g2
(g6
S'\xed\x92\xfb\xd4\xd3N8?'
p469
tp470
Rp471
sS'elementseuclidv02euclgoog_0475'
p472
g2
(g6
S'\xe7~\x97OU}:?'
p473
tp474
Rp475
sS'elementseuclidv02euclgoog_0151'
p476
g2
(g6
S'k\x13$\xdd\xd3\x9a;?'
p477
tp478
Rp479
sS'elementseuclidv02euclgoog_0478'
p480
g2
(g6
S'\x8f~\xcc\x95\xe0\x816?'
p481
tp482
Rp483
sS'elementseuclidv02euclgoog_0479'
p484
g2
(g6
S'\x96{\x87\xe73\x18;?'
p485
tp486
Rp487
sS'elementseuclidv02euclgoog_0150'
p488
g2
(g6
S'\x16\xe5\xcc\xa6\xcd}7?'
p489
tp490
Rp491
sS'elementseuclidv02euclgoog_0278'
p492
g2
(g6
S'\xcc5\xba]\x8d\xf1:?'
p493
tp494
Rp495
sS'elementseuclidv02euclgoog_0279'
p496
g2
(g6
S'\x1d\x84ap\xd8u8?'
p497
tp498
Rp499
sS'elementseuclidv02euclgoog_0373'
p500
g2
(g6
S'k\xf3\xbb\xd8\xb9\xf98?'
p501
tp502
Rp503
sS'elementseuclidv02euclgoog_0372'
p504
g2
(g6
S"'\x87C\xae\xb1<8?"
p505
tp506
Rp507
sS'elementseuclidv02euclgoog_0375'
p508
g2
(g6
S'^-\x1a\x84Yo8?'
p509
tp510
Rp511
sS'elementseuclidv02euclgoog_0374'
p512
g2
(g6
S'\xa1XU\xa7\xb4:;?'
p513
tp514
Rp515
sS'elementseuclidv02euclgoog_0377'
p516
g2
(g6
S'Dc\x92\xe5\xbc\xe37?'
p517
tp518
Rp519
sS'elementseuclidv02euclgoog_0376'
p520
g2
(g6
S'vd\\\x86\x10H7?'
p521
tp522
Rp523
sS'elementseuclidv02euclgoog_0270'
p524
g2
(g6
S"(U\x105'\x978?"
p525
tp526
Rp527
sS'elementseuclidv02euclgoog_0271'
p528
g2
(g6
S'vS\xdab\xe3}7?'
p529
tp530
Rp531
sS'elementseuclidv02euclgoog_0272'
p532
g2
(g6
S'I\x9d6\x8e>P7?'
p533
tp534
Rp535
sS'elementseuclidv02euclgoog_0273'
p536
g2
(g6
S'\x06\x85\xb9\xf5\xb9Z6?'
p537
tp538
Rp539
sS'elementseuclidv02euclgoog_0274'
p540
g2
(g6
S'\xca\xce\xc5\xe0hx4?'
p541
tp542
Rp543
sS'elementseuclidv02euclgoog_0275'
p544
g2
(g6
S'&\x80\xe3\x85\x8f\xe55?'
p545
tp546
Rp547
sS'elementseuclidv02euclgoog_0276'
p548
g2
(g6
S'\xa3\x88\xde\xfcu\x077?'
p549
tp550
Rp551
sS'elementseuclidv02euclgoog_0277'
p552
g2
(g6
S'\xe7&9\x9b\x04\xa3B?'
p553
tp554
Rp555
sS'elementseuclidv02euclgoog_0489'
p556
g2
(g6
S'\x1b\xa7\xa4\xf4\xb5\xef7?'
p557
tp558
Rp559
sS'elementseuclidv02euclgoog_0488'
p560
g2
(g6
S'6\x96\xca\xb7GW7?'
p561
tp562
Rp563
sS'elementseuclidv02euclgoog_0487'
p564
g2
(g6
S'\x7f\x99\x99\x9a\xbb_6?'
p565
tp566
Rp567
sS'elementseuclidv02euclgoog_0486'
p568
g2
(g6
S'\xd5\x928E\xcb87?'
p569
tp570
Rp571
sS'elementseuclidv02euclgoog_0485'
p572
g2
(g6
S'+\xfb\x99`\r56?'
p573
tp574
Rp575
sS'elementseuclidv02euclgoog_0484'
p576
g2
(g6
S'u\x05\x95R\xe6_8?'
p577
tp578
Rp579
sS'elementseuclidv02euclgoog_0483'
p580
g2
(g6
S'J1<\x94/\xd68?'
p581
tp582
Rp583
sS'elementseuclidv02euclgoog_0482'
p584
g2
(g6
S'2\xf4\xae\xd6Uo\xf3>'
p585
tp586
Rp587
sS'elementseuclidv02euclgoog_0481'
p588
g2
(g6
S'\xfbm|\x8d9\x88)?'
p589
tp590
Rp591
sS'elementseuclidv02euclgoog_0480'
p592
g2
(g6
S'\x12\xf4\xaa\xc1\x9f\xfc\xf1>'
p593
tp594
Rp595
sS'elementseuclidv02euclgoog_0090'
p596
g2
(g6
S'\x88\x8f\xfe\xcdo\x137?'
p597
tp598
Rp599
sS'elementseuclidv02euclgoog_0091'
p600
g2
(g6
S'/A\xe8r\xfe\xc65?'
p601
tp602
Rp603
sS'elementseuclidv02euclgoog_0508'
p604
g2
(g6
S'\xff\xbb$\r/\xe4??'
p605
tp606
Rp607
sS'elementseuclidv02euclgoog_0509'
p608
g2
(g6
S'\xcd\xe6j!\x1ah4?'
p609
tp610
Rp611
sS'elementseuclidv02euclgoog_0506'
p612
g2
(g6
S'\xea\xf7\x0b\x03G\x897?'
p613
tp614
Rp615
sS'elementseuclidv02euclgoog_0507'
p616
g2
(g6
S'HE_\x94\x00K6?'
p617
tp618
Rp619
sS'elementseuclidv02euclgoog_0504'
p620
g2
(g6
S'Jj`\xe6\xf5\xca5?'
p621
tp622
Rp623
sS'elementseuclidv02euclgoog_0505'
p624
g2
(g6
S'\x03Sn\x03\xb1M9?'
p625
tp626
Rp627
sS'elementseuclidv02euclgoog_0502'
p628
g2
(g6
S'\xf0-\xeb\xa6`\x149?'
p629
tp630
Rp631
sS'elementseuclidv02euclgoog_0503'
p632
g2
(g6
S'J1<\x94/\xd68?'
p633
tp634
Rp635
sS'elementseuclidv02euclgoog_0500'
p636
g2
(g6
S'\xec7\\dr\xa07?'
p637
tp638
Rp639
sS'elementseuclidv02euclgoog_0501'
p640
g2
(g6
S'N\xcf\xb1\x99\x16b5?'
p641
tp642
Rp643
sS'elementseuclidv02euclgoog_0289'
p644
g2
(g6
S'\xe3\xff\x8f\xed\x8b\n@?'
p645
tp646
Rp647
sS'elementseuclidv02euclgoog_0288'
p648
g2
(g6
S'\xb2\xc9#j\x9d,A?'
p649
tp650
Rp651
sS'elementseuclidv02euclgoog_0281'
p652
g2
(g6
S'\x94R6<\xeb\xe1B?'
p653
tp654
Rp655
sS'elementseuclidv02euclgoog_0280'
p656
g2
(g6
S'3&\xacU\t\\4?'
p657
tp658
Rp659
sS'elementseuclidv02euclgoog_0283'
p660
g2
(g6
S'Zl\xb9\x81\xd5\x85:?'
p661
tp662
Rp663
sS'elementseuclidv02euclgoog_0282'
p664
g2
(g6
S'\x9f\xedN\xbb[\xfc6?'
p665
tp666
Rp667
sS'elementseuclidv02euclgoog_0285'
p668
g2
(g6
S'\xcc\x1b-\x9c\xc6N@?'
p669
tp670
Rp671
sS'elementseuclidv02euclgoog_0284'
p672
g2
(g6
S'\x95\xb8\xb2|\x96\xff@?'
p673
tp674
Rp675
sS'elementseuclidv02euclgoog_0287'
p676
g2
(g6
S'\x18,\xed7v\xc3??'
p677
tp678
Rp679
sS'elementseuclidv02euclgoog_0286'
p680
g2
(g6
S'\x84\xea\x11\x02\x8e\xb1=?'
p681
tp682
Rp683
sS'elementseuclidv02euclgoog_0038'
p684
g2
(g6
S'\xb6\xae{\x9f\x18[8?'
p685
tp686
Rp687
sS'elementseuclidv02euclgoog_0050'
p688
g2
(g6
S'\x10\x01\xb9W\x8d\x995?'
p689
tp690
Rp691
sS'elementseuclidv02euclgoog_0051'
p692
g2
(g6
S'F\xb5R5[\x985?'
p693
tp694
Rp695
sS'elementseuclidv02euclgoog_0052'
p696
g2
(g6
S'\xaa9\x97\x033\x1e7?'
p697
tp698
Rp699
sS'elementseuclidv02euclgoog_0053'
p700
g2
(g6
S'\xb1\x83\xc8\xadE\x819?'
p701
tp702
Rp703
sS'elementseuclidv02euclgoog_0054'
p704
g2
(g6
S'b{\xfc}Z+7?'
p705
tp706
Rp707
sS'elementseuclidv02euclgoog_0055'
p708
g2
(g6
S'\x15W\xdf\\\xbc\xc7:?'
p709
tp710
Rp711
sS'elementseuclidv02euclgoog_0056'
p712
g2
(g6
S'\x83\xfe\x08\x1fNN4?'
p713
tp714
Rp715
sS'elementseuclidv02euclgoog_0057'
p716
g2
(g6
S'\x03Q\x05\x12\xb5\xc56?'
p717
tp718
Rp719
sS'elementseuclidv02euclgoog_0058'
p720
g2
(g6
S'\r\xce\xf7\x89*a7?'
p721
tp722
Rp723
sS'elementseuclidv02euclgoog_0059'
p724
g2
(g6
S'\r\xce\xf7\x89*a7?'
p725
tp726
Rp727
sS'elementseuclidv02euclgoog_0119'
p728
g2
(g6
S'\xda\x9d;\x1a\xdc\xb64?'
p729
tp730
Rp731
sS'elementseuclidv02euclgoog_0118'
p732
g2
(g6
S'\xf5\xb2x2co3?'
p733
tp734
Rp735
sS'elementseuclidv02euclgoog_0111'
p736
g2
(g6
S'\xbb\x19\x1d\xc5\xcf+<?'
p737
tp738
Rp739
sS'elementseuclidv02euclgoog_0110'
p740
g2
(g6
S'\x9dp?\xfa\xbc <?'
p741
tp742
Rp743
sS'elementseuclidv02euclgoog_0113'
p744
g2
(g6
S'\xe8\xf5\x88e"\x16;?'
p745
tp746
Rp747
sS'elementseuclidv02euclgoog_0112'
p748
g2
(g6
S'\xbdZ\x87\x93\xe2\x9b8?'
p749
tp750
Rp751
sS'elementseuclidv02euclgoog_0115'
p752
g2
(g6
S'v\xb2\xf4\x16\x95@8?'
p753
tp754
Rp755
sS'elementseuclidv02euclgoog_0114'
p756
g2
(g6
S'\x19\xb4\xbc\xddX\x13<?'
p757
tp758
Rp759
sS'elementseuclidv02euclgoog_0117'
p760
g2
(g6
S'\xbf\x19\x1f\xefz\x82;?'
p761
tp762
Rp763
sS'elementseuclidv02euclgoog_0116'
p764
g2
(g6
S'g\xb5\xa4\xdc\x88+9?'
p765
tp766
Rp767
sS'elementseuclidv02euclgoog_0238'
p768
g2
(g6
S'\x9cR\xbfyA\xf16?'
p769
tp770
Rp771
sS'elementseuclidv02euclgoog_0239'
p772
g2
(g6
S'7\xb5\x18C\xd4\xa36?'
p773
tp774
Rp775
sS'elementseuclidv02euclgoog_0234'
p776
g2
(g6
S'\xc3\xc3\x9f\xf6ui:?'
p777
tp778
Rp779
sS'elementseuclidv02euclgoog_0235'
p780
g2
(g6
S'\x93\\~\x89\x17G7?'
p781
tp782
Rp783
sS'elementseuclidv02euclgoog_0236'
p784
g2
(g6
S'\x0cR\xc0\xd7\xec\xef:?'
p785
tp786
Rp787
sS'elementseuclidv02euclgoog_0237'
p788
g2
(g6
S'a\xa6\x86h\x91\xfd9?'
p789
tp790
Rp791
sS'elementseuclidv02euclgoog_0230'
p792
g2
(g6
S'@/\xb9\x12\xb1\xdb5?'
p793
tp794
Rp795
sS'elementseuclidv02euclgoog_0231'
p796
g2
(g6
S'&d\xb4\tc65?'
p797
tp798
Rp799
sS'elementseuclidv02euclgoog_0232'
p800
g2
(g6
S'\x8b\xae5\x1f\xec\xc29?'
p801
tp802
Rp803
sS'elementseuclidv02euclgoog_0233'
p804
g2
(g6
S'E-\xa0\xe5eL=?'
p805
tp806
Rp807
sS'elementseuclidv02euclgoog_0429'
p808
g2
(g6
S'T\x02\x0b\n\xd6&;?'
p809
tp810
Rp811
sS'elementseuclidv02euclgoog_0428'
p812
g2
(g6
S'\x8f\x0c\x84\xf1S\x98<?'
p813
tp814
Rp815
sS'elementseuclidv02euclgoog_0425'
p816
g2
(g6
S"\x99K\x84'\x05\xc9??"
p817
tp818
Rp819
sS'elementseuclidv02euclgoog_0424'
p820
g2
(g6
S'N\xd6/\x9a\x01a;?'
p821
tp822
Rp823
sS'elementseuclidv02euclgoog_0427'
p824
g2
(g6
S'GJ\xb9\xd9\xaa\xb0;?'
p825
tp826
Rp827
sS'elementseuclidv02euclgoog_0426'
p828
g2
(g6
S'\x88\rO\x05\xa1\x178?'
p829
tp830
Rp831
sS'elementseuclidv02euclgoog_0421'
p832
g2
(g6
S'JogZ\x89\t:?'
p833
tp834
Rp835
sS'elementseuclidv02euclgoog_0420'
p836
g2
(g6
S'z\xb3k\tx\x8e<?'
p837
tp838
Rp839
sS'elementseuclidv02euclgoog_0423'
p840
g2
(g6
S'\xb9\xd0\xd4\xb0\x18\x058?'
p841
tp842
Rp843
sS'elementseuclidv02euclgoog_0422'
p844
g2
(g6
S'\xd8T)/I\xf56?'
p845
tp846
Rp847
sS'elementseuclidv02euclgoog_0308'
p848
g2
(g6
S'\x1fu\xaa\xf7/z7?'
p849
tp850
Rp851
sS'elementseuclidv02euclgoog_0309'
p852
g2
(g6
S'\x9d\x05\xcbtX\xa4;?'
p853
tp854
Rp855
sS'elementseuclidv02euclgoog_0300'
p856
g2
(g6
S'\x91V=d\x8a\x819?'
p857
tp858
Rp859
sS'elementseuclidv02euclgoog_0301'
p860
g2
(g6
S'\n\xef{\xea\xbe\xe67?'
p861
tp862
Rp863
sS'elementseuclidv02euclgoog_0302'
p864
g2
(g6
S'\\\xcf\xea\xca\x9629?'
p865
tp866
Rp867
sS'elementseuclidv02euclgoog_0303'
p868
g2
(g6
S'.\xd9\xb4F\xdd\xff:?'
p869
tp870
Rp871
sS'elementseuclidv02euclgoog_0304'
p872
g2
(g6
S'\xed]\x14O\xee\xe79?'
p873
tp874
Rp875
sS'elementseuclidv02euclgoog_0305'
p876
g2
(g6
S'\xee}K\xfc\xee\xe9:?'
p877
tp878
Rp879
sS'elementseuclidv02euclgoog_0306'
p880
g2
(g6
S'\xea%\xb6V\x95\x898?'
p881
tp882
Rp883
sS'elementseuclidv02euclgoog_0307'
p884
g2
(g6
S'I\xc8\x1c\x83\x13\xfb8?'
p885
tp886
Rp887
sS'elementseuclidv02euclgoog_0039'
p888
g2
(g6
S'\xbb\xd1 \xb5[\xd67?'
p889
tp890
Rp891
sS'elementseuclidv02euclgoog_0371'
p892
g2
(g6
S'N\x14t\x8f\xdd\xd7:?'
p893
tp894
Rp895
sS'elementseuclidv02euclgoog_0370'
p896
g2
(g6
S'\xcf\x1e\xd4d\xfd\xa29?'
p897
tp898
Rp899
sS'elementseuclidv02euclgoog_0139'
p900
g2
(g6
S'\x90\x18\xf2\xaev\xc15?'
p901
tp902
Rp903
sS'elementseuclidv02euclgoog_0138'
p904
g2
(g6
S'\xfc^\x1fX\x06\x9f6?'
p905
tp906
Rp907
sS'elementseuclidv02euclgoog_0379'
p908
g2
(g6
S' \xd0o\xe0\xeeR8?'
p909
tp910
Rp911
sS'elementseuclidv02euclgoog_0378'
p912
g2
(g6
S'\xc9;\x83:\xcd]9?'
p913
tp914
Rp915
sS'elementseuclidv02euclgoog_0014'
p916
g2
(g6
S'\xdfG>e\xbc\xb7??'
p917
tp918
Rp919
sS'elementseuclidv02euclgoog_0015'
p920
g2
(g6
S'&2F\x94gu8?'
p921
tp922
Rp923
sS'elementseuclidv02euclgoog_0016'
p924
g2
(g6
S'\xa0\x0b\x97\xdb\x17\x86B?'
p925
tp926
Rp927
sS'elementseuclidv02euclgoog_0017'
p928
g2
(g6
S'\xa2"\xe7H\x0cn:?'
p929
tp930
Rp931
sS'elementseuclidv02euclgoog_0010'
p932
g2
(g6
S'e\x8eE\xfd\x06d\xff>'
p933
tp934
Rp935
sS'elementseuclidv02euclgoog_0011'
p936
g2
(g6
S'\xdf\t\x82\xd2\xb3*A?'
p937
tp938
Rp939
sS'elementseuclidv02euclgoog_0012'
p940
g2
(g6
S'4l\x9bd\xd1\xa04?'
p941
tp942
Rp943
sS'elementseuclidv02euclgoog_0013'
p944
g2
(g6
S'\x8d\xf1Y\x0c2\x927?'
p945
tp946
Rp947
sS'elementseuclidv02euclgoog_0018'
p948
g2
(g6
S'\xd5p>i\x8b\x816?'
p949
tp950
Rp951
sS'elementseuclidv02euclgoog_0019'
p952
g2
(g6
S'{U\xa9\xfd\x05\xe8:?'
p953
tp954
Rp955
sS'elementseuclidv02euclgoog_0392'
p956
g2
(g6
S'\xeb\xd1\x9eQli7?'
p957
tp958
Rp959
sS'elementseuclidv02euclgoog_0160'
p960
g2
(g6
S'\xd3\x92\r\xbdQ\xba8?'
p961
tp962
Rp963
sS'elementseuclidv02euclgoog_0161'
p964
g2
(g6
S'K,\x8aOu\x957?'
p965
tp966
Rp967
sS'elementseuclidv02euclgoog_0162'
p968
g2
(g6
S'"\x15\xbe\xcd\xb4\xa79?'
p969
tp970
Rp971
sS'elementseuclidv02euclgoog_0163'
p972
g2
(g6
S'\xc6\xb3\xdc\x15\xc5X5?'
p973
tp974
Rp975
sS'elementseuclidv02euclgoog_0164'
p976
g2
(g6
S'c\xc0\xe9\xa4\x04\x0b8?'
p977
tp978
Rp979
sS'elementseuclidv02euclgoog_0165'
p980
g2
(g6
S'SJ}\xc6>\xf85?'
p981
tp982
Rp983
sS'elementseuclidv02euclgoog_0166'
p984
g2
(g6
S'`\xf1\xf9myu3?'
p985
tp986
Rp987
sS'elementseuclidv02euclgoog_0167'
p988
g2
(g6
S'\rz\x8e%\x92g1?'
p989
tp990
Rp991
sS'elementseuclidv02euclgoog_0168'
p992
g2
(g6
S'\x0f\xb2B%\xe4K7?'
p993
tp994
Rp995
sS'elementseuclidv02euclgoog_0169'
p996
g2
(g6
S'\xa4\x83\x19\xc5\xc0\xf48?'
p997
tp998
Rp999
sS'elementseuclidv02euclgoog_0081'
p1000
g2
(g6
S'\xf6\x16\xb0AK\x9a:?'
p1001
tp1002
Rp1003
sS'elementseuclidv02euclgoog_0080'
p1004
g2
(g6
S'(\x85_A\xc5j@?'
p1005
tp1006
Rp1007
sS'elementseuclidv02euclgoog_0087'
p1008
g2
(g6
S'\x16\x9a\xbc\xe2>\xbd7?'
p1009
tp1010
Rp1011
sS'elementseuclidv02euclgoog_0086'
p1012
g2
(g6
S'F\xb5R5[\x985?'
p1013
tp1014
Rp1015
sS'elementseuclidv02euclgoog_0085'
p1016
g2
(g6
S'\xdcD\x11\x9e/<6?'
p1017
tp1018
Rp1019
sS'elementseuclidv02euclgoog_0084'
p1020
g2
(g6
S'\x8cLa&d\xa32?'
p1021
tp1022
Rp1023
sS'elementseuclidv02euclgoog_0461'
p1024
g2
(g6
S'\xc6wg+:\xe85?'
p1025
tp1026
Rp1027
sS'elementseuclidv02euclgoog_0460'
p1028
g2
(g6
S'\xe4\x01}\xc0X\x156?'
p1029
tp1030
Rp1031
sS'elementseuclidv02euclgoog_0463'
p1032
g2
(g6
S'\xd0\xd2G!I\xf36?'
p1033
tp1034
Rp1035
sS'elementseuclidv02euclgoog_0462'
p1036
g2
(g6
S'>\xb1ZL+K8?'
p1037
tp1038
Rp1039
sS'elementseuclidv02euclgoog_0465'
p1040
g2
(g6
S'i1@\xa9\xe5H:?'
p1041
tp1042
Rp1043
sS'elementseuclidv02euclgoog_0464'
p1044
g2
(g6
S'3\x88r\x99}\x12\xf1>'
p1045
tp1046
Rp1047
sS'elementseuclidv02euclgoog_0467'
p1048
g2
(g6
S'_\x96\x0fR\xab&9?'
p1049
tp1050
Rp1051
sS'elementseuclidv02euclgoog_0466'
p1052
g2
(g6
S'5;+G\xe6\xa86?'
p1053
tp1054
Rp1055
sS'elementseuclidv02euclgoog_0469'
p1056
g2
(g6
S'0gw\xde\x8e\xa43?'
p1057
tp1058
Rp1059
sS'elementseuclidv02euclgoog_0468'
p1060
g2
(g6
S'\xc4\xa6\xd9:A\xf43?'
p1061
tp1062
Rp1063
sS'elementseuclidv02euclgoog_0267'
p1064
g2
(g6
S'\x13h\xeb\x89.!8?'
p1065
tp1066
Rp1067
sS'elementseuclidv02euclgoog_0266'
p1068
g2
(g6
S'1\xees\xa5\x89\xb6;?'
p1069
tp1070
Rp1071
sS'elementseuclidv02euclgoog_0265'
p1072
g2
(g6
S'+\xa9\x9d\xa9\xac\xa4:?'
p1073
tp1074
Rp1075
sS'elementseuclidv02euclgoog_0264'
p1076
g2
(g6
S'\xfc\xc9RUW\x14:?'
p1077
tp1078
Rp1079
sS'elementseuclidv02euclgoog_0263'
p1080
g2
(g6
S'4\xdf\xbc,\xe1\xba:?'
p1081
tp1082
Rp1083
sS'elementseuclidv02euclgoog_0262'
p1084
g2
(g6
S'\xc8\x96z\x8c|v7?'
p1085
tp1086
Rp1087
sS'elementseuclidv02euclgoog_0261'
p1088
g2
(g6
S'{\xdf\xb2+U\x8d6?'
p1089
tp1090
Rp1091
sS'elementseuclidv02euclgoog_0260'
p1092
g2
(g6
S'(q,\r\xe7\xe94?'
p1093
tp1094
Rp1095
sS'elementseuclidv02euclgoog_0269'
p1096
g2
(g6
S'\xd2\x92\x1a\x13\xac\x0b5?'
p1097
tp1098
Rp1099
sS'elementseuclidv02euclgoog_0268'
p1100
g2
(g6
S'\x9a\x1at%U\xef9?'
p1101
tp1102
Rp1103
sS'elementseuclidv02euclgoog_0348'
p1104
g2
(g6
S'\xb5\xd6\xc6\xd4\xba\xfa4?'
p1105
tp1106
Rp1107
sS'elementseuclidv02euclgoog_0349'
p1108
g2
(g6
S'd\xa5\x0e=\x05\xc22?'
p1109
tp1110
Rp1111
sS'elementseuclidv02euclgoog_0344'
p1112
g2
(g6
S'\x87\xcf\n\x10\xc5\xa08?'
p1113
tp1114
Rp1115
sS'elementseuclidv02euclgoog_0345'
p1116
g2
(g6
S'\xca\xd2\xbd\xf3f\xd72?'
p1117
tp1118
Rp1119
sS'elementseuclidv02euclgoog_0346'
p1120
g2
(g6
S'\x1d\xd3h\xf2\xbf\xcd6?'
p1121
tp1122
Rp1123
sS'elementseuclidv02euclgoog_0347'
p1124
g2
(g6
S'`\xb2\xe6MlN:?'
p1125
tp1126
Rp1127
sS'elementseuclidv02euclgoog_0340'
p1128
g2
(g6
S'\xeb\xd1\x9eQli7?'
p1129
tp1130
Rp1131
sS'elementseuclidv02euclgoog_0341'
p1132
g2
(g6
S'\xd9\xbb\x95\xb1>_8?'
p1133
tp1134
Rp1135
sS'elementseuclidv02euclgoog_0342'
p1136
g2
(g6
S'd\xbam\xfc\x9c,=?'
p1137
tp1138
Rp1139
sS'elementseuclidv02euclgoog_0343'
p1140
g2
(g6
S'\xa6\xfe]\xe7\xebT5?'
p1141
tp1142
Rp1143
sS'elementseuclidv02euclgoog_0519'
p1144
g2
(g6
S'R\xa0?\x8a\x0fV7?'
p1145
tp1146
Rp1147
sS'elementseuclidv02euclgoog_0518'
p1148
g2
(g6
S'\x1c\x1d\x93tM59?'
p1149
tp1150
Rp1151
sS'elementseuclidv02euclgoog_0515'
p1152
g2
(g6
S'#\x8c\x96j-\xb57?'
p1153
tp1154
Rp1155
sS'elementseuclidv02euclgoog_0514'
p1156
g2
(g6
S"\x1f'E\xb7\x0c\x1e8?"
p1157
tp1158
Rp1159
sS'elementseuclidv02euclgoog_0517'
p1160
g2
(g6
S'\xf7\xb0\x11\x9d\x11\t5?'
p1161
tp1162
Rp1163
sS'elementseuclidv02euclgoog_0516'
p1164
g2
(g6
S'\x1e\xb1V7u\xd86?'
p1165
tp1166
Rp1167
sS'elementseuclidv02euclgoog_0511'
p1168
g2
(g6
S'\xa4B\xe5\x9f\xc8\xdc>?'
p1169
tp1170
Rp1171
sS'elementseuclidv02euclgoog_0510'
p1172
g2
(g6
S'\x1c\x1d\x93tM59?'
p1173
tp1174
Rp1175
sS'elementseuclidv02euclgoog_0513'
p1176
g2
(g6
S'\xbe\x08d5Zh7?'
p1177
tp1178
Rp1179
sS'elementseuclidv02euclgoog_0512'
p1180
g2
(g6
S'g<d,L\xed@?'
p1181
tp1182
Rp1183
sS'elementseuclidv02euclgoog_0124'
p1184
g2
(g6
S'T\xdb\x9d\xb3d|;?'
p1185
tp1186
Rp1187
sS'elementseuclidv02euclgoog_0125'
p1188
g2
(g6
S'\x01l\xde\xd8\xf6E:?'
p1189
tp1190
Rp1191
sS'elementseuclidv02euclgoog_0126'
p1192
g2
(g6
S'5`5-\x19}9?'
p1193
tp1194
Rp1195
sS'elementseuclidv02euclgoog_0127'
p1196
g2
(g6
S'\xcc_\x83;h\x888?'
p1197
tp1198
Rp1199
sS'elementseuclidv02euclgoog_0120'
p1200
g2
(g6
S'\x8c\x9e\x98\xae\x02`@?'
p1201
tp1202
Rp1203
sS'elementseuclidv02euclgoog_0121'
p1204
g2
(g6
S'\xca\t\xb0\xa8\x96\xf06?'
p1205
tp1206
Rp1207
sS'elementseuclidv02euclgoog_0049'
p1208
g2
(g6
S'j\x9a\xba\x14\x11:3?'
p1209
tp1210
Rp1211
sS'elementseuclidv02euclgoog_0048'
p1212
g2
(g6
S'\xdd\x83\xc7\xc6\xae?7?'
p1213
tp1214
Rp1215
sS'elementseuclidv02euclgoog_0047'
p1216
g2
(g6
S'\x97vZ`7\x8c7?'
p1217
tp1218
Rp1219
sS'elementseuclidv02euclgoog_0046'
p1220
g2
(g6
S'\xf9\xd3\x12\x9a?*6?'
p1221
tp1222
Rp1223
sS'elementseuclidv02euclgoog_0045'
p1224
g2
(g6
S'\xa9-b\xca\x9f\xcd;?'
p1225
tp1226
Rp1227
sS'elementseuclidv02euclgoog_0044'
p1228
g2
(g6
S'W\xfa\xe2\xa8\xe1\x9d:?'
p1229
tp1230
Rp1231
sS'elementseuclidv02euclgoog_0128'
p1232
g2
(g6
S'k\x0bxoZ\xc3:?'
p1233
tp1234
Rp1235
sS'elementseuclidv02euclgoog_0042'
p1236
g2
(g6
S'\xc5bVB\xf4 3?'
p1237
tp1238
Rp1239
sS'elementseuclidv02euclgoog_0041'
p1240
g2
(g6
S'\x9b#\xa1\x00\x0c_4?'
p1241
tp1242
Rp1243
sS'elementseuclidv02euclgoog_0040'
p1244
g2
(g6
S'9\x872\x9e\x84\xbd4?'
p1245
tp1246
Rp1247
sS'elementseuclidv02euclgoog_0367'
p1248
g2
(g6
S'\xaa\xe3\xab\x18\n\xc9:?'
p1249
tp1250
Rp1251
sS'elementseuclidv02euclgoog_0380'
p1252
g2
(g6
S'\x136K\xe8\xfb#8?'
p1253
tp1254
Rp1255
sS'elementseuclidv02euclgoog_0381'
p1256
g2
(g6
S'\xe9\xd4\x97c=\xe45?'
p1257
tp1258
Rp1259
sS'elementseuclidv02euclgoog_0229'
p1260
g2
(g6
S't\xa9\x93\xa8 w6?'
p1261
tp1262
Rp1263
sS'elementseuclidv02euclgoog_0228'
p1264
g2
(g6
S'\xca\xb2\xbc\xac\x15\x82<?'
p1265
tp1266
Rp1267
sS'elementseuclidv02euclgoog_0384'
p1268
g2
(g6
S'\x14t\x8f\xdd\xd7\x9a7?'
p1269
tp1270
Rp1271
sS'elementseuclidv02euclgoog_0385'
p1272
g2
(g6
S'\xe3\x9bI\x87 \x17:?'
p1273
tp1274
Rp1275
sS'elementseuclidv02euclgoog_0386'
p1276
g2
(g6
S' \xd0o\xe0\xeeR8?'
p1277
tp1278
Rp1279
sS'elementseuclidv02euclgoog_0387'
p1280
g2
(g6
S'\x9c5\xc3\x80\xbaO6?'
p1281
tp1282
Rp1283
sS'elementseuclidv02euclgoog_0223'
p1284
g2
(g6
S'\x0e_%7\x04G6?'
p1285
tp1286
Rp1287
sS'elementseuclidv02euclgoog_0222'
p1288
g2
(g6
S'vS\xdab\xe3}7?'
p1289
tp1290
Rp1291
sS'elementseuclidv02euclgoog_0221'
p1292
g2
(g6
S'\x17jqi\xd0\x0e9?'
p1293
tp1294
Rp1295
sS'elementseuclidv02euclgoog_0220'
p1296
g2
(g6
S'\xc3\x98\xb9\x01\xa1\xbe8?'
p1297
tp1298
Rp1299
sS'elementseuclidv02euclgoog_0227'
p1300
g2
(g6
S'\x11\tl\xf1\xc6M7?'
p1301
tp1302
Rp1303
sS'elementseuclidv02euclgoog_0226'
p1304
g2
(g6
S'Lc\x99 \xc1\xa94?'
p1305
tp1306
Rp1307
sS'elementseuclidv02euclgoog_0225'
p1308
g2
(g6
S'\x91\xf3\x0b\x1b\xc9\xd4:?'
p1309
tp1310
Rp1311
sS'elementseuclidv02euclgoog_0224'
p1312
g2
(g6
S'd\xafP\x08\x8eO:?'
p1313
tp1314
Rp1315
sS'elementseuclidv02euclgoog_0418'
p1316
g2
(g6
S'\xf3\xc5\xba\t(~=?'
p1317
tp1318
Rp1319
sS'elementseuclidv02euclgoog_0419'
p1320
g2
(g6
S'\x8a\nV\xf3\xcf\x9c9?'
p1321
tp1322
Rp1323
sS'elementseuclidv02euclgoog_0410'
p1324
g2
(g6
S'\xdc\xa38\xb2\xb0;<?'
p1325
tp1326
Rp1327
sS'elementseuclidv02euclgoog_0411'
p1328
g2
(g6
S'\xdd"\xba\xae9\xa49?'
p1329
tp1330
Rp1331
sS'elementseuclidv02euclgoog_0412'
p1332
g2
(g6
S'4\xda=l}\x1b@?'
p1333
tp1334
Rp1335
sS'elementseuclidv02euclgoog_0413'
p1336
g2
(g6
S'c_\x7f"\x19\x92@?'
p1337
tp1338
Rp1339
sS'elementseuclidv02euclgoog_0414'
p1340
g2
(g6
S'\x83\xd1\x07\x17\xb3\xcf=?'
p1341
tp1342
Rp1343
sS'elementseuclidv02euclgoog_0415'
p1344
g2
(g6
S'\xaf\\;\xf1\xf0;;?'
p1345
tp1346
Rp1347
sS'elementseuclidv02euclgoog_0416'
p1348
g2
(g6
S'\xd6\x94j+\x13\x9b;?'
p1349
tp1350
Rp1351
sS'elementseuclidv02euclgoog_0417'
p1352
g2
(g6
S'\xedL+1A\x0b=?'
p1353
tp1354
Rp1355
sS'elementseuclidv02euclgoog_0317'
p1356
g2
(g6
S'\x94\x10\xcb^\xdf\xaf7?'
p1357
tp1358
Rp1359
sS'elementseuclidv02euclgoog_0316'
p1360
g2
(g6
S'\xc3\x98\xb9\x01\xa1\xbe8?'
p1361
tp1362
Rp1363
sS'elementseuclidv02euclgoog_0315'
p1364
g2
(g6
S',~\xa4\x10k\x9d4?'
p1365
tp1366
Rp1367
sS'elementseuclidv02euclgoog_0314'
p1368
g2
(g6
S'1\xc3z\x0cH\xaf5?'
p1369
tp1370
Rp1371
sS'elementseuclidv02euclgoog_0313'
p1372
g2
(g6
S'\x11\tl\xf1\xc6M7?'
p1373
tp1374
Rp1375
sS'elementseuclidv02euclgoog_0312'
p1376
g2
(g6
S'\xbc\xc5\x91\xc2\x14\x047?'
p1377
tp1378
Rp1379
sS'elementseuclidv02euclgoog_0258'
p1380
g2
(g6
S'\x91V=d\x8a\x819?'
p1381
tp1382
Rp1383
sS'elementseuclidv02euclgoog_0310'
p1384
g2
(g6
S'rFO\xbb\xf2m3?'
p1385
tp1386
Rp1387
sS'elementseuclidv02euclgoog_0256'
p1388
g2
(g6
S'\xbd7\xc7-\x04Z;?'
p1389
tp1390
Rp1391
sS'elementseuclidv02euclgoog_0257'
p1392
g2
(g6
S'h3\xed\xd3z =?'
p1393
tp1394
Rp1395
sS'elementseuclidv02euclgoog_0254'
p1396
g2
(g6
S'\x91\xac\tN4\xd7<?'
p1397
tp1398
Rp1399
sS'elementseuclidv02euclgoog_0255'
p1400
g2
(g6
S'\xb0>\xc81X\x0e<?'
p1401
tp1402
Rp1403
sS'elementseuclidv02euclgoog_0252'
p1404
g2
(g6
S'\x05\xaa\xa5\xee\xe1\xd46?'
p1405
tp1406
Rp1407
sS'elementseuclidv02euclgoog_0253'
p1408
g2
(g6
S'7O@1Mb@?'
p1409
tp1410
Rp1411
sS'elementseuclidv02euclgoog_0250'
p1412
g2
(g6
S'\xfc\x82P\x88\xc2\x16<?'
p1413
tp1414
Rp1415
sS'elementseuclidv02euclgoog_0251'
p1416
g2
(g6
S'\xda\x18\\V\xe7\xb3=?'
p1417
tp1418
Rp1419
sS'elementseuclidv02euclgoog_0443'
p1420
g2
(g6
S'\x1b\xa7\xa4\xf4\xb5\xef7?'
p1421
tp1422
Rp1423
sS'elementseuclidv02euclgoog_0442'
p1424
g2
(g6
S'\xd5\x928E\xcb87?'
p1425
tp1426
Rp1427
sS'elementseuclidv02euclgoog_0441'
p1428
g2
(g6
S'\x8f~\xcc\x95\xe0\x816?'
p1429
tp1430
Rp1431
sS'elementseuclidv02euclgoog_0440'
p1432
g2
(g6
S"'`\xaa\x8e\x80o5?"
p1433
tp1434
Rp1435
sS'elementseuclidv02euclgoog_0447'
p1436
g2
(g6
S'b\xe0\x11\xf6\x95&8?'
p1437
tp1438
Rp1439
sS'elementseuclidv02euclgoog_0446'
p1440
g2
(g6
S'>\xb1ZL+K8?'
p1441
tp1442
Rp1443
sS'elementseuclidv02euclgoog_0445'
p1444
g2
(g6
S"'\x0c7-\x84\xe37?"
p1445
tp1446
Rp1447
sS'elementseuclidv02euclgoog_0444'
p1448
g2
(g6
S'#\x8c\x96j-\xb57?'
p1449
tp1450
Rp1451
sS'elementseuclidv02euclgoog_0490'
p1452
g2
(g6
S'l\xaa\xb4\\\xd7T7?'
p1453
tp1454
Rp1455
sS'elementseuclidv02euclgoog_0122'
p1456
g2
(g6
S'\xd6\xc0\x84+\xc4\x1c6?'
p1457
tp1458
Rp1459
sS'elementseuclidv02euclgoog_0491'
p1460
g2
(g6
S'\xe0\x0b\xee}j\xa14?'
p1461
tp1462
Rp1463
sS'elementseuclidv02euclgoog_0123'
p1464
g2
(g6
S'\x1e\x9f:\x84\xfd\xb14?'
p1465
tp1466
Rp1467
sS'elementseuclidv02euclgoog_0492'
p1468
g2
(g6
S'\xb2O^\x9b\x8f\xe89?'
p1469
tp1470
Rp1471
sS'elementseuclidv02euclgoog_0493'
p1472
g2
(g6
S'\xf5{\x93&Vp??'
p1473
tp1474
Rp1475
sS'elementseuclidv02euclgoog_0366'
p1476
g2
(g6
S'\xbdy\xd6\x02!\x9a\xf0>'
p1477
tp1478
Rp1479
sS'elementseuclidv02euclgoog_0248'
p1480
g2
(g6
S'#;3\xd2\x8b\x8c=?'
p1481
tp1482
Rp1483
sS'elementseuclidv02euclgoog_0496'
p1484
g2
(g6
S'y1\xc2\xb3@\x02;?'
p1485
tp1486
Rp1487
sS'elementseuclidv02euclgoog_0043'
p1488
g2
(g6
S'\xf7\xd7\xf9\x18\xcc\x969?'
p1489
tp1490
Rp1491
sS'elementseuclidv02euclgoog_0497'
p1492
g2
(g6
S'Y\x851\x00\x87\x1b7?'
p1493
tp1494
Rp1495
sS'elementseuclidv02euclgoog_0129'
p1496
g2
(g6
S'S\xf0\xca/\xde\xe49?'
p1497
tp1498
Rp1499
sS'elementseuclidv02euclgoog_0498'
p1500
g2
(g6
S'\xf1-\xeb\xa6`\x149?'
p1501
tp1502
Rp1503
sS'elementseuclidv02euclgoog_0007'
p1504
g2
(g6
S'^\x9b4\xee\x99\xa54?'
p1505
tp1506
Rp1507
sS'elementseuclidv02euclgoog_0499'
p1508
g2
(g6
S'R\xa0?\x8a\x0fV7?'
p1509
tp1510
Rp1511
sS'elementseuclidv02euclgoog_0009'
p1512
g2
(g6
S'\tl\x9cKh\xe26?'
p1513
tp1514
Rp1515
sS'elementseuclidv02euclgoog_0008'
p1516
g2
(g6
S'\x80\x1eA\x8f\x8d\xc81?'
p1517
tp1518
Rp1519
sS'elementseuclidv02euclgoog_0368'
p1520
g2
(g6
S'_\x02\x992\xcf_A?'
p1521
tp1522
Rp1523
sS'elementseuclidv02euclgoog_0369'
p1524
g2
(g6
S'\x87\xcf\n\x10\xc5\xa08?'
p1525
tp1526
Rp1527
sS'elementseuclidv02euclgoog_0182'
p1528
g2
(g6
S'\xedy\xd3ff\x10:?'
p1529
tp1530
Rp1531
sS'elementseuclidv02euclgoog_0183'
p1532
g2
(g6
S'\xc3e\xb5\xf0l\x984?'
p1533
tp1534
Rp1535
sS'elementseuclidv02euclgoog_0180'
p1536
g2
(g6
S'\xdd\xdb\ndA\xc83?'
p1537
tp1538
Rp1539
sS'elementseuclidv02euclgoog_0181'
p1540
g2
(g6
S'#\xac\xf9\x04\xeeX8?'
p1541
tp1542
Rp1543
sS'elementseuclidv02euclgoog_0186'
p1544
g2
(g6
S'\xe2\xe8\xc9\xe41o7?'
p1545
tp1546
Rp1547
sS'elementseuclidv02euclgoog_0187'
p1548
g2
(g6
S'\xc4V\xfa\x84P\xb9<?'
p1549
tp1550
Rp1551
sS'elementseuclidv02euclgoog_0184'
p1552
g2
(g6
S'5`5-\x19}9?'
p1553
tp1554
Rp1555
sS'elementseuclidv02euclgoog_0185'
p1556
g2
(g6
S'T\xdb\x9d\xb3d|;?'
p1557
tp1558
Rp1559
sS'elementseuclidv02euclgoog_0188'
p1560
g2
(g6
S'H\xab\xac\x8c}R9?'
p1561
tp1562
Rp1563
sS'elementseuclidv02euclgoog_0189'
p1564
g2
(g6
S'@\xbb\xf2\x89\x16N:?'
p1565
tp1566
Rp1567
sS'elementseuclidv02euclgoog_0076'
p1568
g2
(g6
S'\x8fk\xdf\xde\xa3,6?'
p1569
tp1570
Rp1571
sS'elementseuclidv02euclgoog_0077'
p1572
g2
(g6
S'm7\xa5\x1eO\xca8?'
p1573
tp1574
Rp1575
sS'elementseuclidv02euclgoog_0074'
p1576
g2
(g6
S'\xee\xd4\x8cs\xc8\x957?'
p1577
tp1578
Rp1579
sS'elementseuclidv02euclgoog_0075'
p1580
g2
(g6
S'\x88\x8f\xfe\xcdo\x137?'
p1581
tp1582
Rp1583
sS'elementseuclidv02euclgoog_0072'
p1584
g2
(g6
S'> 6)6\xe16?'
p1585
tp1586
Rp1587
sS'elementseuclidv02euclgoog_0073'
p1588
g2
(g6
S'\xcd\x1a\xd8\x85\xe5\xcd8?'
p1589
tp1590
Rp1591
sS'elementseuclidv02euclgoog_0070'
p1592
g2
(g6
S'\xa5\xa8\xa1T\x11Y4?'
p1593
tp1594
Rp1595
sS'elementseuclidv02euclgoog_0071'
p1596
g2
(g6
S'\xf9\xd3\x12\x9a?*6?'
p1597
tp1598
Rp1599
sS'elementseuclidv02euclgoog_0078'
p1600
g2
(g6
S'\xdd\x83\xc7\xc6\xae?7?'
p1601
tp1602
Rp1603
sS'elementseuclidv02euclgoog_0079'
p1604
g2
(g6
S'\x9c\x89\xe3\xbdZJ8?'
p1605
tp1606
Rp1607
sS'elementseuclidv02euclgoog_0179'
p1608
g2
(g6
S'\\\x04\xeb\xa3n,3?'
p1609
tp1610
Rp1611
sS'elementseuclidv02euclgoog_0178'
p1612
g2
(g6
S'\xcc_\x83;h\x888?'
p1613
tp1614
Rp1615
sS'elementseuclidv02euclgoog_0177'
p1616
g2
(g6
S'\x85qu\x07<D8?'
p1617
tp1618
Rp1619
sS'elementseuclidv02euclgoog_0176'
p1620
g2
(g6
S'C\xbe\x9d\xc2r\t9?'
p1621
tp1622
Rp1623
sS'elementseuclidv02euclgoog_0175'
p1624
g2
(g6
S'\x95\x9eD\xa5\xe438?'
p1625
tp1626
Rp1627
sS'elementseuclidv02euclgoog_0174'
p1628
g2
(g6
S'\x85\x10]\xac\xee\xcc7?'
p1629
tp1630
Rp1631
sS'elementseuclidv02euclgoog_0173'
p1632
g2
(g6
S'H\xa3\x00\x1f\x04{8?'
p1633
tp1634
Rp1635
sS'elementseuclidv02euclgoog_0172'
p1636
g2
(g6
S'\xf3\x9c\x05\r]\x938?'
p1637
tp1638
Rp1639
sS'elementseuclidv02euclgoog_0171'
p1640
g2
(g6
S'\x80\xea\x01V\xf8\xa7>?'
p1641
tp1642
Rp1643
sS'elementseuclidv02euclgoog_0170'
p1644
g2
(g6
S'\xa3\xf4\x89\xfb\x00\x1b;?'
p1645
tp1646
Rp1647
sS'elementseuclidv02euclgoog_0212'
p1648
g2
(g6
S'/\xd2D)]\x07;?'
p1649
tp1650
Rp1651
sS'elementseuclidv02euclgoog_0213'
p1652
g2
(g6
S'\xc7\xa51\x05%r8?'
p1653
tp1654
Rp1655
sS'elementseuclidv02euclgoog_0210'
p1656
g2
(g6
S'f\x06e\\\xe3\xf37?'
p1657
tp1658
Rp1659
sS'elementseuclidv02euclgoog_0211'
p1660
g2
(g6
S'\xc6\xb3\xdc\x15\xc5X5?'
p1661
tp1662
Rp1663
sS'elementseuclidv02euclgoog_0216'
p1664
g2
(g6
S"'\x0e\xfb\xc3%=6?"
p1665
tp1666
Rp1667
sS'elementseuclidv02euclgoog_0217'
p1668
g2
(g6
S'dh(\xf3\x1f\x993?'
p1669
tp1670
Rp1671
sS'elementseuclidv02euclgoog_0214'
p1672
g2
(g6
S'3&\xacU\t\\4?'
p1673
tp1674
Rp1675
sS'elementseuclidv02euclgoog_0215'
p1676
g2
(g6
S'\x8e\xe6\x80s\xd8\xc46?'
p1677
tp1678
Rp1679
sS'elementseuclidv02euclgoog_0218'
p1680
g2
(g6
S'C\xf5.I\xa0\x917?'
p1681
tp1682
Rp1683
sS'elementseuclidv02euclgoog_0219'
p1684
g2
(g6
S'\xfb\x12\x08M\xd7|6?'
p1685
tp1686
Rp1687
sS'elementseuclidv02euclgoog_0359'
p1688
g2
(g6
S'\xdb%\xb3\xc0\n\x1f8?'
p1689
tp1690
Rp1691
sS'elementseuclidv02euclgoog_0358'
p1692
g2
(g6
S'\x14\n\xce\x8b\x8e\xc87?'
p1693
tp1694
Rp1695
sS'elementseuclidv02euclgoog_0353'
p1696
g2
(g6
S'\xc8>|L\x9e\xd87?'
p1697
tp1698
Rp1699
sS'elementseuclidv02euclgoog_0352'
p1700
g2
(g6
S'\x1d\xd3h\xf2\xbf\xcd6?'
p1701
tp1702
Rp1703
sS'elementseuclidv02euclgoog_0351'
p1704
g2
(g6
S'\xefa\xeb\xdb\x80\xa1:?'
p1705
tp1706
Rp1707
sS'elementseuclidv02euclgoog_0350'
p1708
g2
(g6
S'\xeb\xd1\x9eQli7?'
p1709
tp1710
Rp1711
sS'elementseuclidv02euclgoog_0357'
p1712
g2
(g6
S'y!"xu\'4?'
p1713
tp1714
Rp1715
sS'elementseuclidv02euclgoog_0356'
p1716
g2
(g6
S'\xaf\x1c\xfa\xf4&\x966?'
p1717
tp1718
Rp1719
sS'elementseuclidv02euclgoog_0355'
p1720
g2
(g6
S'\xc2\x06*{dW5?'
p1721
tp1722
Rp1723
sS'elementseuclidv02euclgoog_0354'
p1724
g2
(g6
S'\x88\xa3\x8d\xb3WE8?'
p1725
tp1726
Rp1727
sS'elementseuclidv02euclgoog_0520'
p1728
g2
(g6
S'6\xads\xebr\x92@?'
p1729
tp1730
Rp1731
sS'elementseuclidv02euclgoog_0521'
p1732
g2
(g6
S'\xee\x04Dy`8B?'
p1733
tp1734
Rp1735
sS'elementseuclidv02euclgoog_0522'
p1736
g2
(g6
S'\xdcYUx\xb2\xa0:?'
p1737
tp1738
Rp1739
sS'elementseuclidv02euclgoog_0523'
p1740
g2
(g6
S'\xdc\x01<;\xab\xb8\xf5>'
p1741
tp1742
Rp1743
sS'elementseuclidv02euclgoog_0524'
p1744
g2
(g6
S'\xd1\xf4\xc2?\xe4\xac\xfa>'
p1745
tp1746
Rp1747
sS'elementseuclidv02euclgoog_0525'
p1748
g2
(g6
S'M\xcc+f\xbc\x9b\xf9>'
p1749
tp1750
Rp1751
sS'elementseuclidv02euclgoog_0458'
p1752
g2
(g6
S'mt\x16>k&6?'
p1753
tp1754
Rp1755
sS'elementseuclidv02euclgoog_0459'
p1756
g2
(g6
S'\xe8H\xf90\xe9N9?'
p1757
tp1758
Rp1759
sS'elementseuclidv02euclgoog_0328'
p1760
g2
(g6
S'\x1f\xd0o\xe0\xeeR8?'
p1761
tp1762
Rp1763
sS'elementseuclidv02euclgoog_0329'
p1764
g2
(g6
S'\xb3\xd9\xbf\xe6\x8bu3?'
p1765
tp1766
Rp1767
sS'elementseuclidv02euclgoog_0326'
p1768
g2
(g6
S'\x91/\x888\xe4.7?'
p1769
tp1770
Rp1771
sS'elementseuclidv02euclgoog_0327'
p1772
g2
(g6
S'1P\xde\x14\xe3A7?'
p1773
tp1774
Rp1775
sS'elementseuclidv02euclgoog_0324'
p1776
g2
(g6
S"'=\x1c\xbe\xf3\xa94?"
p1777
tp1778
Rp1779
sS'elementseuclidv02euclgoog_0325'
p1780
g2
(g6
S'\x96\xbfD\x11G\x146?'
p1781
tp1782
Rp1783
sS'elementseuclidv02euclgoog_0322'
p1784
g2
(g6
S'\xf7\xaf\xf9b\xdd\x044?'
p1785
tp1786
Rp1787
sS'elementseuclidv02euclgoog_0323'
p1788
g2
(g6
S'*\x08\xf4\xa0\xc7\x168?'
p1789
tp1790
Rp1791
sS'elementseuclidv02euclgoog_0320'
p1792
g2
(g6
S'\xa1,\xd8JG\xdf:?'
p1793
tp1794
Rp1795
sS'elementseuclidv02euclgoog_0321'
p1796
g2
(g6
S'\x8ehR\x9e\x93\x0f9?'
p1797
tp1798
Rp1799
sS'elementseuclidv02euclgoog_0382'
p1800
g2
(g6
S'Y\x88\rO\x05\xa17?'
p1801
tp1802
Rp1803
sS'elementseuclidv02euclgoog_0133'
p1804
g2
(g6
S'C\xbe\x9d\xc2r\t9?'
p1805
tp1806
Rp1807
sS'elementseuclidv02euclgoog_0132'
p1808
g2
(g6
S'xa4\x97:x9?'
p1809
tp1810
Rp1811
sS'elementseuclidv02euclgoog_0131'
p1812
g2
(g6
S'9\xac\xcb.\x0b\x932?'
p1813
tp1814
Rp1815
sS'elementseuclidv02euclgoog_0130'
p1816
g2
(g6
S'\xa7\xc9\x94|\x9f\xdd8?'
p1817
tp1818
Rp1819
sS'elementseuclidv02euclgoog_0137'
p1820
g2
(g6
S'\x13\xaf\xa9\xca\xe1C9?'
p1821
tp1822
Rp1823
sS'elementseuclidv02euclgoog_0136'
p1824
g2
(g6
S'\xe9\x0b\xfc\x8a(\xf25?'
p1825
tp1826
Rp1827
sS'elementseuclidv02euclgoog_0135'
p1828
g2
(g6
S'#\x05f\xf2\xc1\xf87?'
p1829
tp1830
Rp1831
sS'elementseuclidv02euclgoog_0134'
p1832
g2
(g6
S'y\xe0k\x85\x07\xa35?'
p1833
tp1834
Rp1835
sS'elementseuclidv02euclgoog_0032'
p1836
g2
(g6
S'\xb1\x8b\xd6\x89\xd5\xdf8?'
p1837
tp1838
Rp1839
sS'elementseuclidv02euclgoog_0033'
p1840
g2
(g6
S'/A\xe8r\xfe\xc65?'
p1841
tp1842
Rp1843
sS'elementseuclidv02euclgoog_0030'
p1844
g2
(g6
S'Jj\xa7\xb1\xbf\xc9A?'
p1845
tp1846
Rp1847
sS'elementseuclidv02euclgoog_0031'
p1848
g2
(g6
S'T\x90y\x8e\x8f\xc0:?'
p1849
tp1850
Rp1851
sS'elementseuclidv02euclgoog_0036'
p1852
g2
(g6
S'\xf6"\xe5z\xde\xea5?'
p1853
tp1854
Rp1855
sS'elementseuclidv02euclgoog_0037'
p1856
g2
(g6
S'\xe0o\xc4\x8f\x02\x165?'
p1857
tp1858
Rp1859
sS'elementseuclidv02euclgoog_0034'
p1860
g2
(g6
S'\x0b\t\x87U\xa6r<?'
p1861
tp1862
Rp1863
sS'elementseuclidv02euclgoog_0035'
p1864
g2
(g6
S'c\x8f?\x93}\xda1?'
p1865
tp1866
Rp1867
sS'elementseuclidv02euclgoog_0399'
p1868
g2
(g6
S'\x87\xcf\n\x10\xc5\xa08?'
p1869
tp1870
Rp1871
sS'elementseuclidv02euclgoog_0398'
p1872
g2
(g6
S'V\xcbG]\xa0\xc1:?'
p1873
tp1874
Rp1875
sS'elementseuclidv02euclgoog_0397'
p1876
g2
(g6
S'\xd9}\xady\xe5\xd58?'
p1877
tp1878
Rp1879
sS'elementseuclidv02euclgoog_0396'
p1880
g2
(g6
S'JogZ\x89\t:?'
p1881
tp1882
Rp1883
sS'elementseuclidv02euclgoog_0395'
p1884
g2
(g6
S'\x8bt\x17E\x19o9?'
p1885
tp1886
Rp1887
sS'elementseuclidv02euclgoog_0394'
p1888
g2
(g6
S'ez,\x00\xd3\x868?'
p1889
tp1890
Rp1891
sS'elementseuclidv02euclgoog_0393'
p1892
g2
(g6
S'\xb9\xd0\xd4\xb0\x18\x058?'
p1893
tp1894
Rp1895
sS'elementseuclidv02euclgoog_0089'
p1896
g2
(g6
S'\xbb\xd1 \xb5[\xd67?'
p1897
tp1898
Rp1899
sS'elementseuclidv02euclgoog_0391'
p1900
g2
(g6
S'\x9f\x06M\x12|y7?'
p1901
tp1902
Rp1903
sS'elementseuclidv02euclgoog_0390'
p1904
g2
(g6
S'z\xe0\xe4p\xc856?'
p1905
tp1906
Rp1907
sS'elementseuclidv02euclgoog_0388'
p1908
g2
(g6
S'\xb5\xd6\xc6\xd4\xba\xfa4?'
p1909
tp1910
Rp1911
sS'elementseuclidv02euclgoog_0088'
p1912
g2
(g6
S'.Q\x04+\x1e\x844?'
p1913
tp1914
Rp1915
sS'elementseuclidv02euclgoog_0389'
p1916
g2
(g6
S'"\x0e\xb4\xd5\xca\xc97?'
p1917
tp1918
Rp1919
sS'elementseuclidv02euclgoog_0146'
p1920
g2
(g6
S'\xac\xae\xf7\xd80O8?'
p1921
tp1922
Rp1923
sS'elementseuclidv02euclgoog_0147'
p1924
g2
(g6
S'a\x11\xaa$_\xd36?'
p1925
tp1926
Rp1927
sS'elementseuclidv02euclgoog_0144'
p1928
g2
(g6
S'\x14\xaf\xa9\xca\xe1C9?'
p1929
tp1930
Rp1931
sS'elementseuclidv02euclgoog_0145'
p1932
g2
(g6
S'1\x89{w\xda\xfd;?'
p1933
tp1934
Rp1935
sS'elementseuclidv02euclgoog_0142'
p1936
g2
(g6
S'dg}\xb70k8?'
p1937
tp1938
Rp1939
sS'elementseuclidv02euclgoog_0143'
p1940
g2
(g6
S'\x93\xd7\x89\n\x0f\xa88?'
p1941
tp1942
Rp1943
sS'elementseuclidv02euclgoog_0140'
p1944
g2
(g6
S'\xa8\xe1\x98\xc5\x0bd;?'
p1945
tp1946
Rp1947
sS'elementseuclidv02euclgoog_0141'
p1948
g2
(g6
S'\xa2M\xf6\xe8\xd4\xba:?'
p1949
tp1950
Rp1951
sS'elementseuclidv02euclgoog_0148'
p1952
g2
(g6
S'7\x0fu\xad\xbe\xb4:?'
p1953
tp1954
Rp1955
sS'elementseuclidv02euclgoog_0149'
p1956
g2
(g6
S'?\xc16\x1du\x117?'
p1957
tp1958
Rp1959
sS'elementseuclidv02euclgoog_0083'
p1960
g2
(g6
S'\x1d7\xe7\xca\xf3\xd25?'
p1961
tp1962
Rp1963
sS'elementseuclidv02euclgoog_0082'
p1964
g2
(g6
S'\xec\xe4\xa8+\xe8R6?'
p1965
tp1966
Rp1967
sS'elementseuclidv02euclgoog_0407'
p1968
g2
(g6
S"\x1c?'K\xf7\xce;?"
p1969
tp1970
Rp1971
sS'elementseuclidv02euclgoog_0406'
p1972
g2
(g6
S'\xd9}\xady\xe5\xd58?'
p1973
tp1974
Rp1975
sS'elementseuclidv02euclgoog_0405'
p1976
g2
(g6
S'[\x1bS\xeb\xeaS9?'
p1977
tp1978
Rp1979
sS'elementseuclidv02euclgoog_0404'
p1980
g2
(g6
S'\xb4WE\xd81\x927?'
p1981
tp1982
Rp1983
sS'elementseuclidv02euclgoog_0403'
p1984
g2
(g6
S'V\xcbG]\xa0\xc1:?'
p1985
tp1986
Rp1987
sS'elementseuclidv02euclgoog_0402'
p1988
g2
(g6
S'\xb0\x1c\xfa\xf4&\x966?'
p1989
tp1990
Rp1991
sS'elementseuclidv02euclgoog_0401'
p1992
g2
(g6
S'\x82\x94\xbf,\xba\xa47?'
p1993
tp1994
Rp1995
sS'elementseuclidv02euclgoog_0400'
p1996
g2
(g6
S'Dc\x92\xe5\xbc\xe37?'
p1997
tp1998
Rp1999
sS'elementseuclidv02euclgoog_0409'
p2000
g2
(g6
S'\xdc\xa38\xb2\xb0;<?'
p2001
tp2002
Rp2003
sS'elementseuclidv02euclgoog_0408'
p2004
g2
(g6
S'\xcc \xd1k\xeb\xd1>?'
p2005
tp2006
Rp2007
sS'elementseuclidv02euclgoog_0362'
p2008
g2
(g6
S'\xa2\xc3\x12\x04\xe1X4?'
p2009
tp2010
Rp2011
sS'elementseuclidv02euclgoog_0363'
p2012
g2
(g6
S'\x1e\xd3h\xf2\xbf\xcd6?'
p2013
tp2014
Rp2015
sS'elementseuclidv02euclgoog_0360'
p2016
g2
(g6
S'\xc4\x81\xb6Z9\xf9:?'
p2017
tp2018
Rp2019
sS'elementseuclidv02euclgoog_0361'
p2020
g2
(g6
S'\xe6\x17\xd2q\xd8\x049?'
p2021
tp2022
Rp2023
sS'elementseuclidv02euclgoog_0249'
p2024
g2
(g6
S'\xfbJ\x054\xd6\x14??'
p2025
tp2026
Rp2027
sS'elementseuclidv02euclgoog_0311'
p2028
g2
(g6
S'\xe3\xbd$\x10\x80\xd84?'
p2029
tp2030
Rp2031
sS'elementseuclidv02euclgoog_0364'
p2032
g2
(g6
S'\x8b\xc9\x18\xec"\xab;?'
p2033
tp2034
Rp2035
sS'elementseuclidv02euclgoog_0365'
p2036
g2
(g6
S'o\xac\x8c\xadj\x12N?'
p2037
tp2038
Rp2039
sS'elementseuclidv02euclgoog_0245'
p2040
g2
(g6
S'N\xaa\xd4\xd9\x9b\xbc??'
p2041
tp2042
Rp2043
sS'elementseuclidv02euclgoog_0244'
p2044
g2
(g6
S'\xd4\x8aJ\xbc\x84\x1a;?'
p2045
tp2046
Rp2047
sS'elementseuclidv02euclgoog_0247'
p2048
g2
(g6
S'@/\xb9\x12\xb1\xdb5?'
p2049
tp2050
Rp2051
sS'elementseuclidv02euclgoog_0246'
p2052
g2
(g6
S'\xf4\x93 .\xb6\xa15?'
p2053
tp2054
Rp2055
sS'elementseuclidv02euclgoog_0241'
p2056
g2
(g6
S'\x89F5\xe4\xec9>?'
p2057
tp2058
Rp2059
sS'elementseuclidv02euclgoog_0240'
p2060
g2
(g6
S'<b@\xf0\xed\x91<?'
p2061
tp2062
Rp2063
sS'elementseuclidv02euclgoog_0243'
p2064
g2
(g6
S'}\x17\x11$\xae\xeb7?'
p2065
tp2066
Rp2067
sS'elementseuclidv02euclgoog_0242'
p2068
g2
(g6
S'\x1d\xf6I2B\x1e8?'
p2069
tp2070
Rp2071
sS'elementseuclidv02euclgoog_0454'
p2072
g2
(g6
S'o`\xf3=\x9a\xb18?'
p2073
tp2074
Rp2075
sS'elementseuclidv02euclgoog_0455'
p2076
g2
(g6
S'TV~k\xd2\xb28?'
p2077
tp2078
Rp2079
sS'elementseuclidv02euclgoog_0456'
p2080
g2
(g6
S'\xabR\xa3I<R5?'
p2081
tp2082
Rp2083
s.