(lp0
I11
aI30
aI11
aI22
aI23
aI21
aI27
aI28
aI15
aI31
aI23
aI17
aI19
aI25
aI18
aI23
aI19
aI21
aI23
aI19
aI25
aI31
aI27
aI25
aI29
aI27
aI23
aI23
aI23
aI36
aI31
aI30
aI33
aI21
aI27
aI25
aI30
aI23
aI35
aI26
aI29
aI24
aI19
aI21
aI23
aI27
aI25
aI19
aI21
aI23
aI19
aI23
aI35
aI21
aI26
aI20
aI27
aI23
aI24
aI23
aI23
aI16
aI16
aI17
aI15
aI27
aI25
aI33
aI23
aI27
aI19
aI22
aI29
aI22
aI17
aI26
aI20
aI23
aI19
aI25
aI17
aI29
aI20
aI27
aI15
aI33
aI23
aI17
aI21
aI17
aI27
aI16
aI23
aI16
aI23
aI21
aI20
aI20
aI20
aI23
aI23
aI27
aI17
aI17
aI19
aI12
aI17
aI3
aI5
aI5
aI21
aI23
aI23
aI23
aI17
aI16
aI14
aI11
aI17
aI15
aI3
aI4
aI5
aI5
aI3
aI3
aI5
aI5
aI3
aI9
aI5
aI3
aI3
aI2
aI3
aI2
aI3
aI5
aI5
aI15
aI23
aI23
aI23
aI29
aI25
aI19
aI27
aI22
aI21
aI22
aI14
aI3
aI3
aI3
aI2
aI3
aI2
aI3
aI11
aI28
aI26
aI26
aI19
aI23
aI23
aI23
aI27
aI24
aI23
aI21
aI24
aI21
aI18
aI21
aI21
aI19
aI28
aI25
aI19
aI30
aI27
aI21
aI21
aI21
aI19
aI21
aI31
aI19
aI18
aI16
aI21
aI21
aI30
aI23
aI25
aI25
aI26
aI35
aI30
aI21
aI13
aI16
aI21
aI17
aI15
aI13
aI12
aI12
aI11
aI14
aI11
aI14
aI13
aI17
aI13
aI11
aI15
aI14
aI18
aI13
aI7
aI9
aI10
aI10
aI10
aI14
aI9
aI12
a.