(dp0
I1
(lp1
S'Euclidis_megaresis_philosophi_platonic-0035.png'
p2
aI437
aI27
aI120
aI115
aF13800.0
aF1.0434782608695652
aF0.7102898550724638
asI2
(lp3
g2
aI445
aI255
aI120
aI42
aF5040.0
aF2.857142857142857
aF0.6450396825396826
asI3
(lp4
g2
aI458
aI316
aI108
aI68
aF7344.0
aF1.588235294117647
aF0.7015250544662309
asI4
(lp5
g2
aI437
aI410
aI138
aI171
aF23598.0
aF0.8070175438596491
aF0.5809390626324265
asI5
(lp6
g2
aI439
aI585
aI120
aI82
aF9840.0
aF1.4634146341463414
aF0.7455284552845528
asI6
(lp7
g2
aI437
aI660
aI116
aI172
aF19952.0
aF0.6744186046511628
aF0.7256415396952687
asI7
(lp8
S'Euclidis_megaresis_philosophi_platonic-0036.png'
p9
aI38
aI73
aI108
aI276
aF29808.0
aF0.391304347826087
aF0.7512412775093934
asI8
(lp10
g9
aI151
aI167
aI24
aI59
aF1416.0
aF0.4067796610169492
aF0.815677966101695
asI9
(lp11
g9
aI148
aI334
aI27
aI154
aF4158.0
aF0.17532467532467533
aF0.7383357383357383
asI10
(lp12
g9
aI26
aI359
aI149
aI402
aF59898.0
aF0.3706467661691542
aF0.554459247387225
asI11
(lp13
g9
aI147
aI612
aI28
aI94
aF2632.0
aF0.2978723404255319
aF0.7488601823708206
asI12
(lp14
S'Euclidis_megaresis_philosophi_platonic-0037.png'
p15
aI174
aI35
aI271
aI688
aF186448.0
aF0.3938953488372093
aF0.6761188106067108
asI13
(lp16
g15
aI444
aI58
aI129
aI260
aF33540.0
aF0.49615384615384617
aF0.7148777579010137
asI14
(lp17
g15
aI448
aI354
aI115
aI130
aF14950.0
aF0.8846153846153846
aF0.6507692307692308
asI15
(lp18
g15
aI371
aI701
aI51
aI30
aF1530.0
aF1.7
aF0.8091503267973856
asI16
(lp19
S'Euclidis_megaresis_philosophi_platonic-0038.png'
p20
aI19
aI373
aI137
aI103
aF14111.0
aF1.3300970873786409
aF0.7119977322656084
asI17
(lp21
g20
aI3
aI698
aI14
aI88
aF1232.0
aF0.1590909090909091
aF0.6948051948051948
asI18
(lp22
S'Euclidis_megaresis_philosophi_platonic-0039.png'
p23
aI427
aI72
aI148
aI188
aF27824.0
aF0.7872340425531915
aF0.5796434732604946
asI19
(lp24
g23
aI440
aI278
aI123
aI186
aF22878.0
aF0.6612903225806451
aF0.5451525482996765
asI20
(lp25
g23
aI441
aI465
aI106
aI250
aF26500.0
aF0.424
aF0.5991698113207548
asI21
(lp26
S'Euclidis_megaresis_philosophi_platonic-0040.png'
p27
aI33
aI279
aI122
aI149
aF18178.0
aF0.8187919463087249
aF0.5278358455275608
asI22
(lp28
g27
aI64
aI527
aI64
aI17
aF1088.0
aF3.764705882352941
aF0.7481617647058824
asI23
(lp29
g27
aI23
aI602
aI140
aI121
aF16940.0
aF1.1570247933884297
aF0.5203069657615113
asI24
(lp30
S'Euclidis_megaresis_philosophi_platonic-0041.png'
p31
aI438
aI296
aI117
aI108
aF12636.0
aF1.0833333333333333
aF0.6735517568850902
asI25
(lp32
g31
aI426
aI527
aI137
aI92
aF12604.0
aF1.4891304347826086
aF0.6650269755633132
asI26
(lp33
g31
aI437
aI624
aI114
aI107
aF12198.0
aF1.0654205607476634
aF0.5966551893753075
asI27
(lp34
S'Euclidis_megaresis_philosophi_platonic-0042.png'
p35
aI22
aI345
aI128
aI124
aF15872.0
aF1.032258064516129
aF0.5431577620967742
asI28
(lp36
g35
aI40
aI572
aI49
aI28
aF1372.0
aF1.75
aF0.6537900874635568
asI29
(lp37
g35
aI41
aI628
aI98
aI105
aF10290.0
aF0.9333333333333333
aF0.5888241010689991
asI30
(lp38
S'Euclidis_megaresis_philosophi_platonic-0043.png'
p39
aI424
aI115
aI132
aI95
aF12540.0
aF1.3894736842105264
aF0.5075757575757576
asI31
(lp40
g39
aI424
aI422
aI137
aI149
aF20413.0
aF0.9194630872483222
aF0.5944741096360162
asI32
(lp41
S'Euclidis_megaresis_philosophi_platonic-0044.png'
p42
aI39
aI101
aI107
aI103
aF11021.0
aF1.0388349514563107
aF0.46856002177660827
asI33
(lp43
g42
aI36
aI345
aI118
aI107
aF12626.0
aF1.102803738317757
aF0.43315380959923966
asI34
(lp44
S'Euclidis_megaresis_philosophi_platonic-0045.png'
p45
aI439
aI56
aI125
aI133
aF16625.0
aF0.9398496240601504
aF0.40781954887218047
asI35
(lp46
g45
aI422
aI197
aI142
aI163
aF23146.0
aF0.8711656441717791
aF0.5143869351075779
asI36
(lp47
g45
aI422
aI361
aI142
aI156
aF22152.0
aF0.9102564102564102
aF0.38858793788371254
asI37
(lp48
g45
aI422
aI612
aI133
aI103
aF13699.0
aF1.2912621359223302
aF0.40630702971019783
asI38
(lp49
S'Euclidis_megaresis_philosophi_platonic-0046.png'
p50
aI36
aI85
aI121
aI124
aF15004.0
aF0.9758064516129032
aF0.5293255131964809
asI39
(lp51
g50
aI36
aI302
aI119
aI120
aF14280.0
aF0.9916666666666667
aF0.46897759103641457
asI40
(lp52
g50
aI36
aI499
aI116
aI132
aF15312.0
aF0.8787878787878788
aF0.5112983281086729
asI41
(lp53
S'Euclidis_megaresis_philosophi_platonic-0047.png'
p54
aI426
aI204
aI127
aI114
aF14478.0
aF1.1140350877192982
aF0.545102914767233
asI42
(lp55
g54
aI420
aI508
aI151
aI138
aF20838.0
aF1.0942028985507246
aF0.6249640080621941
asI43
(lp56
S'Euclidis_megaresis_philosophi_platonic-0048.png'
p57
aI26
aI148
aI137
aI128
aF17536.0
aF1.0703125
aF0.6025319343065694
asI44
(lp58
g57
aI33
aI390
aI118
aI134
aF15812.0
aF0.8805970149253731
aF0.4248039463698457
asI45
(lp59
g57
aI35
aI539
aI128
aI178
aF22784.0
aF0.7191011235955056
aF0.4099806882022472
asI46
(lp60
S'Euclidis_megaresis_philosophi_platonic-0049.png'
p61
aI420
aI63
aI127
aI197
aF25019.0
aF0.6446700507614214
aF0.5031775850353731
asI47
(lp62
g61
aI424
aI358
aI128
aI227
aF29056.0
aF0.5638766519823789
aF0.5296324339207048
asI48
(lp63
g61
aI418
aI834
aI114
aI31
aF3534.0
aF3.6774193548387095
aF0.8109790605546123
asI49
(lp64
S'Euclidis_megaresis_philosophi_platonic-0050.png'
p65
aI61
aI184
aI24
aI44
aF1056.0
aF0.5454545454545454
aF0.6212121212121212
asI50
(lp66
g65
aI29
aI367
aI133
aI163
aF21679.0
aF0.8159509202453987
aF0.6142811015268232
asI51
(lp67
g65
aI29
aI574
aI134
aI140
aF18760.0
aF0.9571428571428572
aF0.436407249466951
asI52
(lp68
S'Euclidis_megaresis_philosophi_platonic-0051.png'
p69
aI409
aI224
aI131
aI138
aF18078.0
aF0.9492753623188406
aF0.4131541099679168
asI53
(lp70
g69
aI401
aI538
aI150
aI105
aF15750.0
aF1.4285714285714286
aF0.6445079365079365
asI54
(lp71
g69
aI401
aI834
aI131
aI31
aF4061.0
aF4.225806451612903
aF0.7936468850036936
asI55
(lp72
S'Euclidis_megaresis_philosophi_platonic-0052.png'
p73
aI27
aI98
aI152
aI55
aF8360.0
aF2.7636363636363637
aF0.7784688995215311
asI56
(lp74
g73
aI34
aI331
aI141
aI116
aF16356.0
aF1.2155172413793103
aF0.48612130105160184
asI57
(lp75
g73
aI32
aI596
aI147
aI95
aF13965.0
aF1.5473684210526315
aF0.5670605084138919
asI58
(lp76
S'Euclidis_megaresis_philosophi_platonic-0053.png'
p77
aI404
aI256
aI143
aI75
aF10725.0
aF1.9066666666666667
aF0.7187878787878788
asI59
(lp78
g77
aI402
aI639
aI140
aI83
aF11620.0
aF1.6867469879518073
aF0.6707401032702237
asI60
(lp79
S'Euclidis_megaresis_philosophi_platonic-0054.png'
p80
aI27
aI323
aI145
aI94
aF13630.0
aF1.5425531914893618
aF0.7988994864269993
asI61
(lp81
g80
aI29
aI572
aI144
aI83
aF11952.0
aF1.7349397590361446
aF0.6593038821954484
asI62
(lp82
S'Euclidis_megaresis_philosophi_platonic-0055.png'
p83
aI404
aI137
aI148
aI93
aF13764.0
aF1.5913978494623655
aF0.7170880557977333
asI63
(lp84
g83
aI404
aI413
aI149
aI130
aF19370.0
aF1.146153846153846
aF0.6629839958699019
asI64
(lp85
g83
aI404
aI619
aI150
aI114
aF17100.0
aF1.3157894736842106
aF0.6412280701754386
asI65
(lp86
S'Euclidis_megaresis_philosophi_platonic-0056.png'
p87
aI28
aI260
aI150
aI97
aF14550.0
aF1.5463917525773196
aF0.6952577319587628
asI66
(lp88
g87
aI28
aI451
aI150
aI164
aF24600.0
aF0.9146341463414634
aF0.5017479674796748
asI67
(lp89
S'Euclidis_megaresis_philosophi_platonic-0057.png'
p90
aI403
aI78
aI156
aI226
aF35256.0
aF0.6902654867256637
aF0.528023598820059
asI68
(lp91
g90
aI403
aI358
aI153
aI394
aF60282.0
aF0.3883248730964467
aF0.6429448259845393
asI69
(lp92
g90
aI403
aI834
aI129
aI31
aF3999.0
aF4.161290322580645
aF0.797699424856214
asI70
(lp93
S'Euclidis_megaresis_philosophi_platonic-0058.png'
p94
aI29
aI191
aI143
aI105
aF15015.0
aF1.361904761904762
aF0.6585414585414585
asI71
(lp95
g94
aI35
aI294
aI64
aI63
aF4032.0
aF1.0158730158730158
aF0.5989583333333334
asI72
(lp96
g94
aI30
aI354
aI146
aI230
aF33580.0
aF0.6347826086956522
aF0.5972900536033353
asI73
(lp97
g94
aI137
aI690
aI42
aI51
aF2142.0
aF0.8235294117647058
aF0.32679738562091504
asI74
(lp98
S'Euclidis_megaresis_philosophi_platonic-0059.png'
p99
aI415
aI190
aI151
aI216
aF32616.0
aF0.6990740740740741
aF0.36984915378955113
asI75
(lp100
g99
aI415
aI557
aI151
aI160
aF24160.0
aF0.94375
aF0.6524834437086092
asI76
(lp101
S'Euclidis_megaresis_philosophi_platonic-0060.png'
p102
aI36
aI391
aI134
aI142
aF19028.0
aF0.9436619718309859
aF0.49674164389321
asI77
(lp103
S'Euclidis_megaresis_philosophi_platonic-0061.png'
p104
aI409
aI402
aI116
aI138
aF16008.0
aF0.8405797101449275
aF0.8195902048975512
asI78
(lp105
g104
aI409
aI586
aI156
aI144
aF22464.0
aF1.0833333333333333
aF0.5619212962962963
asI79
(lp106
S'Euclidis_megaresis_philosophi_platonic-0062.png'
p107
aI26
aI391
aI147
aI142
aF20874.0
aF1.0352112676056338
aF0.46124365239053366
asI80
(lp108
S'Euclidis_megaresis_philosophi_platonic-0063.png'
p109
aI412
aI403
aI115
aI139
aF15985.0
aF0.8273381294964028
aF0.858116984673131
asI81
(lp110
g109
aI412
aI587
aI154
aI147
aF22638.0
aF1.0476190476190477
aF0.5716052654828165
asI82
(lp111
S'Euclidis_megaresis_philosophi_platonic-0064.png'
p112
aI33
aI197
aI144
aI133
aF19152.0
aF1.0827067669172932
aF0.557905179615706
asI83
(lp113
g112
aI24
aI471
aI153
aI152
aF23256.0
aF1.006578947368421
aF0.538656690746474
asI84
(lp114
g112
aI159
aI629
aI18
aI80
aF1440.0
aF0.225
aF0.7493055555555556
asI85
(lp115
S'Euclidis_megaresis_philosophi_platonic-0065.png'
p116
aI405
aI65
aI156
aI329
aF51324.0
aF0.47416413373860183
aF0.3820629724885044
asI86
(lp117
g116
aI405
aI834
aI127
aI31
aF3937.0
aF4.096774193548387
aF0.8006096012192024
asI87
(lp118
S'Euclidis_megaresis_philosophi_platonic-0066.png'
p119
aI29
aI555
aI146
aI150
aF21900.0
aF0.9733333333333334
aF0.6331963470319635
asI88
(lp120
S'Euclidis_megaresis_philosophi_platonic-0067.png'
p121
aI417
aI311
aI154
aI116
aF17864.0
aF1.3275862068965518
aF0.6804187192118226
asI89
(lp122
g121
aI417
aI834
aI115
aI31
aF3565.0
aF3.7096774193548385
aF0.8100981767180926
asI90
(lp123
S'Euclidis_megaresis_philosophi_platonic-0068.png'
p124
aI29
aI87
aI154
aI162
aF24948.0
aF0.9506172839506173
aF0.6738816738816739
asI91
(lp125
g124
aI29
aI443
aI154
aI277
aF42658.0
aF0.555956678700361
aF0.5500961132730086
asI92
(lp126
S'Euclidis_megaresis_philosophi_platonic-0069.png'
p127
aI407
aI312
aI148
aI156
aF23088.0
aF0.9487179487179487
aF0.5390246015246015
asI93
(lp128
S'Euclidis_megaresis_philosophi_platonic-0070.png'
p129
aI34
aI473
aI145
aI133
aF19285.0
aF1.0902255639097744
aF0.5916515426497277
asI94
(lp130
g129
aI165
aI642
aI14
aI78
aF1092.0
aF0.1794871794871795
aF0.6410256410256411
asI95
(lp131
S'Euclidis_megaresis_philosophi_platonic-0071.png'
p132
aI427
aI295
aI116
aI17
aF1972.0
aF6.823529411764706
aF0.755578093306288
asI96
(lp133
g132
aI404
aI370
aI159
aI175
aF27825.0
aF0.9085714285714286
aF0.5737646001796946
asI97
(lp134
g132
aI438
aI635
aI114
aI27
aF3078.0
aF4.222222222222222
aF0.5331384015594542
asI98
(lp135
S'Euclidis_megaresis_philosophi_platonic-0072.png'
p136
aI34
aI172
aI145
aI153
aF22185.0
aF0.9477124183006536
aF0.505386522425062
asI99
(lp137
g136
aI34
aI527
aI140
aI138
aF19320.0
aF1.0144927536231885
aF0.48504140786749483
asI100
(lp138
S'Euclidis_megaresis_philosophi_platonic-0073.png'
p139
aI364
aI70
aI55
aI40
aF2200.0
aF1.375
aF0.915
asI101
(lp140
g139
aI364
aI140
aI199
aI362
aF72038.0
aF0.5497237569060773
aF0.489075210305672
asI102
(lp141
S'Euclidis_megaresis_philosophi_platonic-0074.png'
p142
aI34
aI132
aI142
aI464
aF65888.0
aF0.30603448275862066
aF0.7281902622632346
asI103
(lp143
g142
aI38
aI600
aI133
aI47
aF6251.0
aF2.8297872340425534
aF0.8011518157094865
asI104
(lp144
S'Euclidis_megaresis_philosophi_platonic-0075.png'
p145
aI409
aI431
aI152
aI172
aF26144.0
aF0.8837209302325582
aF0.5986077111383109
asI105
(lp146
S'Euclidis_megaresis_philosophi_platonic-0076.png'
p147
aI31
aI133
aI146
aI463
aF67598.0
aF0.31533477321814257
aF0.7152726412024024
asI106
(lp148
g147
aI38
aI600
aI134
aI48
aF6432.0
aF2.7916666666666665
aF0.7863805970149254
asI107
(lp149
S'Euclidis_megaresis_philosophi_platonic-0077.png'
p150
aI453
aI233
aI40
aI27
aF1080.0
aF1.4814814814814814
aF0.55
asI108
(lp151
g150
aI407
aI430
aI151
aI172
aF25972.0
aF0.877906976744186
aF0.5971430771600185
asI109
(lp152
S'Euclidis_megaresis_philosophi_platonic-0078.png'
p153
aI19
aI230
aI154
aI185
aF28490.0
aF0.8324324324324325
aF0.561003861003861
asI110
(lp154
g153
aI49
aI447
aI41
aI28
aF1148.0
aF1.4642857142857142
aF0.4721254355400697
asI111
(lp155
S'Euclidis_megaresis_philosophi_platonic-0079.png'
p156
aI407
aI67
aI159
aI199
aF31641.0
aF0.7989949748743719
aF0.5324420846370216
asI112
(lp157
g156
aI493
aI297
aI46
aI29
aF1334.0
aF1.5862068965517242
aF0.41679160419790107
asI113
(lp158
g156
aI407
aI443
aI159
aI159
aF25281.0
aF1.0
aF0.5760056959772161
asI114
(lp159
S'Euclidis_megaresis_philosophi_platonic-0080.png'
p160
aI20
aI67
aI151
aI133
aF20083.0
aF1.1353383458646618
aF0.6287905193447194
asI115
(lp161
g160
aI20
aI227
aI151
aI151
aF22801.0
aF1.0
aF0.5812464365598
asI116
(lp162
g160
aI20
aI487
aI151
aI164
aF24764.0
aF0.9207317073170732
aF0.7049749636569214
asI117
(lp163
S'Euclidis_megaresis_philosophi_platonic-0081.png'
p164
aI417
aI445
aI159
aI289
aF45951.0
aF0.5501730103806228
aF0.5621205196840112
asI118
(lp165
S'Euclidis_megaresis_philosophi_platonic-0082.png'
p166
aI21
aI543
aI150
aI189
aF28350.0
aF0.7936507936507936
aF0.650652557319224
asI119
(lp167
S'Euclidis_megaresis_philosophi_platonic-0083.png'
p168
aI415
aI232
aI153
aI160
aF24480.0
aF0.95625
aF0.6100490196078432
asI120
(lp169
g168
aI415
aI429
aI153
aI123
aF18819.0
aF1.2439024390243902
aF0.5897762899197619
asI121
(lp170
g168
aI415
aI607
aI153
aI137
aF20961.0
aF1.1167883211678833
aF0.6286913792280903
asI122
(lp171
g168
aI415
aI834
aI117
aI31
aF3627.0
aF3.774193548387097
aF0.8083815825751309
asI123
(lp172
S'Euclidis_megaresis_philosophi_platonic-0084.png'
p173
aI23
aI201
aI150
aI298
aF44700.0
aF0.5033557046979866
aF0.5943400447427293
asI124
(lp174
g173
aI28
aI589
aI149
aI100
aF14900.0
aF1.49
aF0.7363758389261745
asI125
(lp175
S'Euclidis_megaresis_philosophi_platonic-0085.png'
p176
aI410
aI116
aI146
aI201
aF29346.0
aF0.7263681592039801
aF0.6503782457575138
asI126
(lp177
g176
aI422
aI408
aI126
aI139
aF17514.0
aF0.9064748201438849
aF0.7116592440333448
asI127
(lp178
S'Euclidis_megaresis_philosophi_platonic-0086.png'
p179
aI36
aI314
aI150
aI176
aF26400.0
aF0.8522727272727273
aF0.7198484848484848
asI128
(lp180
g179
aI36
aI577
aI150
aI156
aF23400.0
aF0.9615384615384616
aF0.6043162393162393
asI129
(lp181
S'Euclidis_megaresis_philosophi_platonic-0087.png'
p182
aI408
aI591
aI149
aI131
aF19519.0
aF1.1374045801526718
aF0.7433270147036221
asI130
(lp183
S'Euclidis_megaresis_philosophi_platonic-0088.png'
p184
aI31
aI271
aI147
aI164
aF24108.0
aF0.8963414634146342
aF0.5252198440351751
asI131
(lp185
g184
aI21
aI502
aI157
aI173
aF27161.0
aF0.9075144508670521
aF0.5515997201870328
asI132
(lp186
S'Euclidis_megaresis_philosophi_platonic-0089.png'
p187
aI410
aI70
aI151
aI164
aF24764.0
aF0.9207317073170732
aF0.6525601679857859
asI133
(lp188
g187
aI411
aI281
aI150
aI164
aF24600.0
aF0.9146341463414634
aF0.7018292682926829
asI134
(lp189
g187
aI410
aI474
aI151
aI183
aF27633.0
aF0.825136612021858
aF0.5946875113089422
asI135
(lp190
g187
aI410
aI659
aI151
aI105
aF15855.0
aF1.438095238095238
aF0.6511510564490697
asI136
(lp191
S'Euclidis_megaresis_philosophi_platonic-0090.png'
p192
aI30
aI179
aI146
aI101
aF14746.0
aF1.4455445544554455
aF0.5080021700800217
asI137
(lp193
g192
aI30
aI273
aI146
aI116
aF16936.0
aF1.2586206896551724
aF0.5816603684459141
asI138
(lp194
g192
aI30
aI381
aI146
aI367
aF53582.0
aF0.3978201634877384
aF0.6412974506364078
asI139
(lp195
S'Euclidis_megaresis_philosophi_platonic-0091.png'
p196
aI404
aI61
aI141
aI609
aF85869.0
aF0.2315270935960591
aF0.5521783181357649
asI140
(lp197
g196
aI404
aI605
aI48
aI58
aF2784.0
aF0.8275862068965517
aF0.4547413793103448
asI141
(lp198
S'Euclidis_megaresis_philosophi_platonic-0092.png'
p199
aI34
aI111
aI139
aI290
aF40310.0
aF0.4793103448275862
aF0.5546514512527909
asI142
(lp200
g199
aI32
aI419
aI145
aI112
aF16240.0
aF1.2946428571428572
aF0.6275246305418719
asI143
(lp201
g199
aI32
aI540
aI145
aI182
aF26390.0
aF0.7967032967032966
aF0.5511936339522546
asI144
(lp202
S'Euclidis_megaresis_philosophi_platonic-0093.png'
p203
aI409
aI76
aI12
aI182
aF2184.0
aF0.06593406593406594
aF0.7239010989010989
asI145
(lp204
S'Euclidis_megaresis_philosophi_platonic-0094.png'
p205
aI28
aI54
aI149
aI160
aF23840.0
aF0.93125
aF0.5371224832214765
asI146
(lp206
g205
aI28
aI239
aI144
aI218
aF31392.0
aF0.6605504587155964
aF0.44762996941896027
asI147
(lp207
g205
aI28
aI458
aI149
aI309
aF46041.0
aF0.48220064724919093
aF0.5394539649442888
asI148
(lp208
S'Euclidis_megaresis_philosophi_platonic-0095.png'
p209
aI408
aI392
aI142
aI148
aF21016.0
aF0.9594594594594594
aF0.6679196802436239
asI149
(lp210
g209
aI408
aI595
aI153
aI150
aF22950.0
aF1.02
aF0.5837908496732026
asI150
(lp211
S'Euclidis_megaresis_philosophi_platonic-0096.png'
p212
aI28
aI200
aI147
aI290
aF42630.0
aF0.506896551724138
aF0.40530143091719445
asI151
(lp213
g212
aI39
aI506
aI129
aI261
aF33669.0
aF0.4942528735632184
aF0.4383854584335739
asI152
(lp214
S'Euclidis_megaresis_philosophi_platonic-0097.png'
p215
aI418
aI218
aI136
aI298
aF40528.0
aF0.4563758389261745
aF0.5019739439399921
asI153
(lp216
g215
aI440
aI546
aI93
aI96
aF8928.0
aF0.96875
aF0.840165770609319
asI154
(lp217
g215
aI429
aI652
aI119
aI108
aF12852.0
aF1.1018518518518519
aF0.6472922502334267
asI155
(lp218
S'Euclidis_megaresis_philosophi_platonic-0098.png'
p219
aI48
aI69
aI116
aI109
aF12644.0
aF1.0642201834862386
aF0.549114204365707
asI156
(lp220
g219
aI46
aI181
aI117
aI120
aF14040.0
aF0.975
aF0.5978632478632478
asI157
(lp221
g219
aI44
aI305
aI114
aI117
aF13338.0
aF0.9743589743589743
aF0.48642974958764434
asI158
(lp222
S'Euclidis_megaresis_philosophi_platonic-0099.png'
p223
aI405
aI61
aI151
aI513
aF77463.0
aF0.29434697855750486
aF0.5548455391606315
asI159
(lp224
g223
aI405
aI588
aI145
aI165
aF23925.0
aF0.8787878787878788
aF0.52
asI160
(lp225
g223
aI405
aI834
aI127
aI31
aF3937.0
aF4.096774193548387
aF0.8006096012192024
asI161
(lp226
S'Euclidis_megaresis_philosophi_platonic-0100.png'
p227
aI36
aI106
aI145
aI158
aF22910.0
aF0.9177215189873418
aF0.7177215189873418
asI162
(lp228
g227
aI32
aI273
aI149
aI302
aF44998.0
aF0.49337748344370863
aF0.6063380594693097
asI163
(lp229
g227
aI32
aI580
aI149
aI161
aF23989.0
aF0.9254658385093167
aF0.6462545333277753
asI164
(lp230
S'Euclidis_megaresis_philosophi_platonic-0101.png'
p231
aI403
aI194
aI149
aI170
aF25330.0
aF0.8764705882352941
aF0.7389261744966443
asI165
(lp232
g231
aI403
aI504
aI149
aI234
aF34866.0
aF0.6367521367521367
aF0.5510812826249067
asI166
(lp233
S'Euclidis_megaresis_philosophi_platonic-0102.png'
p234
aI34
aI152
aI148
aI167
aF24716.0
aF0.8862275449101796
aF0.6567001132869397
asI167
(lp235
g234
aI34
aI469
aI143
aI145
aF20735.0
aF0.9862068965517241
aF0.5226911020014469
asI168
(lp236
S'Euclidis_megaresis_philosophi_platonic-0103.png'
p237
aI408
aI330
aI158
aI265
aF41870.0
aF0.5962264150943396
aF0.5850489610699785
asI169
(lp238
S'Euclidis_megaresis_philosophi_platonic-0104.png'
p239
aI31
aI172
aI151
aI169
aF25519.0
aF0.893491124260355
aF0.5626004153767781
asI170
(lp240
S'Euclidis_megaresis_philosophi_platonic-0105.png'
p241
aI405
aI177
aI152
aI163
aF24776.0
aF0.9325153374233128
aF0.6681465934775589
asI171
(lp242
S'Euclidis_megaresis_philosophi_platonic-0106.png'
p243
aI23
aI71
aI151
aI167
aF25217.0
aF0.9041916167664671
aF0.671451798389975
asI172
(lp244
g243
aI23
aI349
aI148
aI243
aF35964.0
aF0.6090534979423868
aF0.6173951729507285
asI173
(lp245
g243
aI162
aI586
aI12
aI150
aF1800.0
aF0.08
aF0.8266666666666667
asI174
(lp246
S'Euclidis_megaresis_philosophi_platonic-0107.png'
p247
aI407
aI218
aI157
aI154
aF24178.0
aF1.0194805194805194
aF0.6786748283563571
asI175
(lp248
g247
aI407
aI382
aI153
aI307
aF46971.0
aF0.498371335504886
aF0.5174469353430841
asI176
(lp249
g247
aI556
aI824
aI25
aI44
aF1100.0
aF0.5681818181818182
aF0.7218181818181818
asI177
(lp250
S'Euclidis_megaresis_philosophi_platonic-0109.png'
p251
aI411
aI834
aI121
aI37
aF4477.0
aF3.27027027027027
aF0.7375474648201921
asI178
(lp252
S'Euclidis_megaresis_philosophi_platonic-0110.png'
p253
aI40
aI205
aI37
aI201
aF7437.0
aF0.18407960199004975
aF0.7416969208013984
asI179
(lp254
g253
aI102
aI239
aI31
aI75
aF2325.0
aF0.41333333333333333
aF0.6851612903225807
asI180
(lp255
g253
aI99
aI325
aI35
aI76
aF2660.0
aF0.4605263157894737
aF0.6338345864661654
asI181
(lp256
g253
aI32
aI497
aI37
aI200
aF7400.0
aF0.185
aF0.712027027027027
asI182
(lp257
g253
aI76
aI537
aI34
aI63
aF2142.0
aF0.5396825396825397
aF0.6676003734827264
asI183
(lp258
g253
aI77
aI628
aI33
aI72
aF2376.0
aF0.4583333333333333
aF0.6510942760942761
asI184
(lp259
S'Euclidis_megaresis_philosophi_platonic-0111.png'
p260
aI401
aI121
aI144
aI141
aF20304.0
aF1.0212765957446808
aF0.6134751773049646
asI185
(lp261
g260
aI412
aI483
aI133
aI115
aF15295.0
aF1.1565217391304348
aF0.6530238640078457
asI186
(lp262
g260
aI401
aI602
aI144
aI121
aF17424.0
aF1.1900826446280992
aF0.686524334251607
asI187
(lp263
g260
aI401
aI834
aI131
aI31
aF4061.0
aF4.225806451612903
aF0.7936468850036936
asI188
(lp264
S'Euclidis_megaresis_philosophi_platonic-0112.png'
p265
aI43
aI261
aI36
aI138
aF4968.0
aF0.2608695652173913
aF0.7210144927536232
asI189
(lp266
g265
aI97
aI288
aI34
aI115
aF3910.0
aF0.2956521739130435
aF0.7754475703324808
asI190
(lp267
g265
aI36
aI562
aI52
aI149
aF7748.0
aF0.348993288590604
aF0.8018843572534847
asI191
(lp268
g265
aI94
aI607
aI59
aI104
aF6136.0
aF0.5673076923076923
aF0.6339634941329857
asI192
(lp269
S'Euclidis_megaresis_philosophi_platonic-0113.png'
p270
aI405
aI235
aI65
aI74
aF4810.0
aF0.8783783783783784
aF0.6278586278586279
asI193
(lp271
g270
aI476
aI266
aI56
aI93
aF5208.0
aF0.6021505376344086
aF0.6322964669738863
asI194
(lp272
g270
aI402
aI312
aI42
aI78
aF3276.0
aF0.5384615384615384
aF0.5192307692307693
asI195
(lp273
g270
aI451
aI321
aI31
aI67
aF2077.0
aF0.4626865671641791
aF0.6591237361579201
asI196
(lp274
g270
aI402
aI503
aI17
aI226
aF3842.0
aF0.0752212389380531
aF0.7267048412285269
asI197
(lp275
g270
aI402
aI834
aI130
aI31
aF4030.0
aF4.193548387096774
aF0.7967741935483871
asI198
(lp276
S'Euclidis_megaresis_philosophi_platonic-0114.png'
p277
aI34
aI76
aI137
aI211
aF28907.0
aF0.6492890995260664
aF0.5586190196146262
asI199
(lp278
g277
aI115
aI415
aI36
aI177
aF6372.0
aF0.2033898305084746
aF0.6023226616446955
asI200
(lp279
g277
aI82
aI456
aI29
aI96
aF2784.0
aF0.3020833333333333
aF0.7230603448275862
asI201
(lp280
g277
aI113
aI602
aI32
aI121
aF3872.0
aF0.2644628099173554
aF0.6802685950413223
asI202
(lp281
g277
aI80
aI629
aI30
aI67
aF2010.0
aF0.44776119402985076
aF0.7164179104477612
asI203
(lp282
S'Euclidis_megaresis_philosophi_platonic-0115.png'
p283
aI407
aI64
aI14
aI166
aF2324.0
aF0.08433734939759036
aF0.7405335628227194
asI204
(lp284
g283
aI411
aI223
aI115
aI176
aF20240.0
aF0.6534090909090909
aF0.5966403162055336
asI205
(lp285
g283
aI413
aI400
aI113
aI77
aF8701.0
aF1.4675324675324675
aF0.7098034708654177
asI206
(lp286
g283
aI407
aI492
aI120
aI231
aF27720.0
aF0.5194805194805194
aF0.6668470418470418
asI207
(lp287
S'Euclidis_megaresis_philosophi_platonic-0116.png'
p288
aI22
aI323
aI111
aI211
aF23421.0
aF0.5260663507109005
aF0.7606848554715854
asI208
(lp289
S'Euclidis_megaresis_philosophi_platonic-0117.png'
p290
aI420
aI108
aI109
aI118
aF12862.0
aF0.923728813559322
aF0.598196236977142
asI209
(lp291
g290
aI411
aI343
aI129
aI151
aF19479.0
aF0.8543046357615894
aF0.5869911186405873
asI210
(lp292
g290
aI418
aI512
aI128
aI116
aF14848.0
aF1.103448275862069
aF0.5061961206896551
asI211
(lp293
g290
aI405
aI591
aI15
aI143
aF2145.0
aF0.1048951048951049
aF0.7883449883449883
asI212
(lp294
g290
aI434
aI631
aI110
aI99
aF10890.0
aF1.1111111111111112
aF0.62277318640955
asI213
(lp295
S'Euclidis_megaresis_philosophi_platonic-0118.png'
p296
aI107
aI410
aI73
aI323
aF23579.0
aF0.2260061919504644
aF0.42185843335171125
asI214
(lp297
g296
aI32
aI417
aI66
aI165
aF10890.0
aF0.4
aF0.7370064279155188
asI215
(lp298
S'Euclidis_megaresis_philosophi_platonic-0119.png'
p299
aI411
aI81
aI14
aI152
aF2128.0
aF0.09210526315789473
aF0.681390977443609
asI216
(lp300
g299
aI440
aI273
aI37
aI141
aF5217.0
aF0.2624113475177305
aF0.7672992141077247
asI217
(lp301
g299
aI493
aI278
aI37
aI136
aF5032.0
aF0.27205882352941174
aF0.6812400635930048
asI218
(lp302
g299
aI503
aI529
aI31
aI107
aF3317.0
aF0.2897196261682243
aF0.7452517334941212
asI219
(lp303
g299
aI453
aI531
aI34
aI138
aF4692.0
aF0.2463768115942029
aF0.7510656436487638
asI220
(lp304
S'Euclidis_megaresis_philosophi_platonic-0120.png'
p305
aI38
aI434
aI97
aI225
aF21825.0
aF0.4311111111111111
aF0.6258419243986254
asI221
(lp306
S'Euclidis_megaresis_philosophi_platonic-0121.png'
p307
aI408
aI145
aI109
aI189
aF20601.0
aF0.5767195767195767
aF0.3198873841075676
asI222
(lp308
g307
aI424
aI250
aI91
aI72
aF6552.0
aF1.2638888888888888
aF0.7098595848595849
asI223
(lp309
g307
aI411
aI432
aI93
aI282
aF26226.0
aF0.32978723404255317
aF0.66769617936399
asI224
(lp310
S'Euclidis_megaresis_philosophi_platonic-0122.png'
p311
aI36
aI184
aI113
aI270
aF30510.0
aF0.4185185185185185
aF0.638577515568666
asI225
(lp312
S'Euclidis_megaresis_philosophi_platonic-0123.png'
p313
aI415
aI74
aI11
aI129
aF1419.0
aF0.08527131782945736
aF0.7857646229739254
asI226
(lp314
g313
aI429
aI83
aI46
aI252
aF11592.0
aF0.18253968253968253
aF0.580831608005521
asI227
(lp315
g313
aI485
aI118
aI34
aI80
aF2720.0
aF0.425
aF0.7136029411764706
asI228
(lp316
g313
aI484
aI217
aI36
aI96
aF3456.0
aF0.375
aF0.6820023148148148
asI229
(lp317
g313
aI426
aI332
aI122
aI134
aF16348.0
aF0.9104477611940298
aF0.6263763151455836
asI230
(lp318
g313
aI463
aI647
aI21
aI81
aF1701.0
aF0.25925925925925924
aF0.721928277483833
asI231
(lp319
S'Euclidis_megaresis_philosophi_platonic-0124.png'
p320
aI30
aI102
aI104
aI136
aF14144.0
aF0.7647058823529411
aF0.6189196832579186
asI232
(lp321
g320
aI28
aI267
aI70
aI135
aF9450.0
aF0.5185185185185185
aF0.67005291005291
asI233
(lp322
g320
aI101
aI304
aI31
aI114
aF3534.0
aF0.2719298245614035
aF0.6378041878890776
asI234
(lp323
g320
aI80
aI431
aI68
aI136
aF9248.0
aF0.5
aF0.532871972318339
asI235
(lp324
g320
aI34
aI467
aI34
aI101
aF3434.0
aF0.33663366336633666
aF0.7233546884100175
asI236
(lp325
g320
aI27
aI595
aI38
aI135
aF5130.0
aF0.2814814814814815
aF0.6370370370370371
asI237
(lp326
g320
aI71
aI609
aI67
aI118
aF7906.0
aF0.5677966101694916
aF0.6853023020490766
asI238
(lp327
S'Euclidis_megaresis_philosophi_platonic-0125.png'
p328
aI410
aI151
aI14
aI135
aF1890.0
aF0.1037037037037037
aF0.8153439153439154
asI239
(lp329
g328
aI415
aI371
aI140
aI133
aF18620.0
aF1.0526315789473684
aF0.6511815252416756
asI240
(lp330
g328
aI410
aI834
aI122
aI31
aF3782.0
aF3.935483870967742
aF0.8043363299841354
asI241
(lp331
S'Euclidis_megaresis_philosophi_platonic-0126.png'
p332
aI33
aI229
aI142
aI139
aF19738.0
aF1.0215827338129497
aF0.5166176917620833
asI242
(lp333
g332
aI160
aI628
aI15
aI100
aF1500.0
aF0.15
aF0.7966666666666666
asI243
(lp334
S'Euclidis_megaresis_philosophi_platonic-0127.png'
p335
aI411
aI42
aI146
aI173
aF25258.0
aF0.8439306358381503
aF0.40929606461319185
asI244
(lp336
g335
aI411
aI529
aI145
aI210
aF30450.0
aF0.6904761904761905
aF0.37376026272577995
asI245
(lp337
S'Euclidis_megaresis_philosophi_platonic-0128.png'
p338
aI28
aI406
aI134
aI145
aF19430.0
aF0.9241379310344827
aF0.47478126608337623
asI246
(lp339
S'Euclidis_megaresis_philosophi_platonic-0129.png'
p340
aI405
aI181
aI134
aI216
aF28944.0
aF0.6203703703703703
aF0.44928137092316195
asI247
(lp341
S'Euclidis_megaresis_philosophi_platonic-0130.png'
p342
aI34
aI96
aI128
aI204
aF26112.0
aF0.6274509803921569
aF0.49107689950980393
asI248
(lp343
S'Euclidis_megaresis_philosophi_platonic-0131.png'
p344
aI408
aI133
aI129
aI96
aF12384.0
aF1.34375
aF0.5268895348837209
asI249
(lp345
g344
aI408
aI598
aI135
aI131
aF17685.0
aF1.0305343511450382
aF0.45739327113372913
asI250
(lp346
S'Euclidis_megaresis_philosophi_platonic-0132.png'
p347
aI38
aI102
aI119
aI198
aF23562.0
aF0.601010101010101
aF0.5308972073677956
asI251
(lp348
S'Euclidis_megaresis_philosophi_platonic-0133.png'
p349
aI406
aI91
aI131
aI140
aF18340.0
aF0.9357142857142857
aF0.4281897491821156
asI252
(lp350
g349
aI406
aI600
aI132
aI123
aF16236.0
aF1.0731707317073171
aF0.4854028085735403
asI253
(lp351
S'Euclidis_megaresis_philosophi_platonic-0134.png'
p352
aI29
aI223
aI142
aI135
aF19170.0
aF1.0518518518518518
aF0.540792905581638
asI254
(lp353
g352
aI27
aI363
aI144
aI124
aF17856.0
aF1.1612903225806452
aF0.4711581541218638
asI255
(lp354
g352
aI30
aI493
aI137
aI153
aF20961.0
aF0.8954248366013072
aF0.41624922475072756
asI256
(lp355
g352
aI40
aI638
aI117
aI70
aF8190.0
aF1.6714285714285715
aF0.6760683760683761
asI257
(lp356
S'Euclidis_megaresis_philosophi_platonic-0135.png'
p357
aI415
aI169
aI140
aI104
aF14560.0
aF1.3461538461538463
aF0.6603021978021978
asI258
(lp358
g357
aI406
aI501
aI147
aI184
aF27048.0
aF0.7989130434782609
aF0.43995859213250516
asI259
(lp359
S'Euclidis_megaresis_philosophi_platonic-0136.png'
p360
aI30
aI244
aI146
aI152
aF22192.0
aF0.9605263157894737
aF0.5720980533525595
asI260
(lp361
g360
aI166
aI579
aI13
aI146
aF1898.0
aF0.08904109589041095
aF0.7571127502634352
asI261
(lp362
S'Euclidis_megaresis_philosophi_platonic-0137.png'
p363
aI408
aI78
aI160
aI204
aF32640.0
aF0.7843137254901961
aF0.6084252450980392
asI262
(lp364
g363
aI423
aI534
aI123
aI151
aF18573.0
aF0.8145695364238411
aF0.5999030851235665
asI263
(lp365
S'Euclidis_megaresis_philosophi_platonic-0138.png'
p366
aI26
aI231
aI139
aI179
aF24881.0
aF0.776536312849162
aF0.617700253205257
asI264
(lp367
S'Euclidis_megaresis_philosophi_platonic-0139.png'
p368
aI410
aI63
aI16
aI235
aF3760.0
aF0.06808510638297872
aF0.785904255319149
asI265
(lp369
g368
aI560
aI812
aI19
aI60
aF1140.0
aF0.31666666666666665
aF0.5728070175438597
asI266
(lp370
S'Euclidis_megaresis_philosophi_platonic-0140.png'
p371
aI42
aI172
aI126
aI269
aF33894.0
aF0.4684014869888476
aF0.6405263468460495
asI267
(lp372
S'Euclidis_megaresis_philosophi_platonic-0141.png'
p373
aI422
aI213
aI93
aI142
aF13206.0
aF0.6549295774647887
aF0.6993790701196426
asI268
(lp374
g373
aI439
aI369
aI79
aI98
aF7742.0
aF0.8061224489795918
aF0.6697235856367864
asI269
(lp375
g373
aI415
aI479
aI125
aI269
aF33625.0
aF0.4646840148698885
aF0.6066319702602231
asI270
(lp376
S'Euclidis_megaresis_philosophi_platonic-0142.png'
p377
aI32
aI153
aI140
aI122
aF17080.0
aF1.1475409836065573
aF0.6056206088992975
asI271
(lp378
g377
aI32
aI424
aI143
aI311
aF44473.0
aF0.45980707395498394
aF0.5655566298653115
asI272
(lp379
g377
aI32
aI644
aI55
aI79
aF4345.0
aF0.6962025316455697
aF0.7111622554660529
asI273
(lp380
S'Euclidis_megaresis_philosophi_platonic-0143.png'
p381
aI408
aI72
aI13
aI82
aF1066.0
aF0.15853658536585366
aF0.7964352720450282
asI274
(lp382
g381
aI408
aI172
aI150
aI142
aF21300.0
aF1.056338028169014
aF0.5235211267605634
asI275
(lp383
g381
aI408
aI429
aI150
aI171
aF25650.0
aF0.8771929824561403
aF0.7048732943469785
asI276
(lp384
S'Euclidis_megaresis_philosophi_platonic-0144.png'
p385
aI27
aI292
aI149
aI176
aF26224.0
aF0.8465909090909091
aF0.7074435631482612
asI277
(lp386
g385
aI100
aI543
aI63
aI40
aF2520.0
aF1.575
aF0.5527777777777778
asI278
(lp387
S'Euclidis_megaresis_philosophi_platonic-0145.png'
p388
aI411
aI171
aI144
aI286
aF41184.0
aF0.5034965034965035
aF0.5530788655788655
asI279
(lp389
g388
aI441
aI484
aI38
aI51
aF1938.0
aF0.7450980392156863
aF0.6553147574819401
asI280
(lp390
S'Euclidis_megaresis_philosophi_platonic-0146.png'
p391
aI24
aI59
aI150
aI154
aF23100.0
aF0.974025974025974
aF0.7503030303030302
asI281
(lp392
g391
aI21
aI371
aI153
aI163
aF24939.0
aF0.9386503067484663
aF0.7393640482777978
asI282
(lp393
S'Euclidis_megaresis_philosophi_platonic-0147.png'
p394
aI404
aI69
aI149
aI162
aF24138.0
aF0.9197530864197531
aF0.7313779103488276
asI283
(lp395
g394
aI404
aI362
aI149
aI362
aF53938.0
aF0.4116022099447514
aF0.8145463309725982
asI284
(lp396
S'Euclidis_megaresis_philosophi_platonic-0148.png'
p397
aI24
aI283
aI157
aI238
aF37366.0
aF0.6596638655462185
aF0.7584167424931756
asI285
(lp398
g397
aI83
aI679
aI65
aI36
aF2340.0
aF1.8055555555555556
aF0.6038461538461538
asI286
(lp399
S'Euclidis_megaresis_philosophi_platonic-0149.png'
p400
aI412
aI96
aI143
aI176
aF25168.0
aF0.8125
aF0.6074777495232041
asI287
(lp401
g400
aI446
aI298
aI46
aI27
aF1242.0
aF1.7037037037037037
aF0.5483091787439613
asI288
(lp402
g400
aI412
aI517
aI149
aI203
aF30247.0
aF0.7339901477832512
aF0.35196879029325223
asI289
(lp403
S'Euclidis_megaresis_philosophi_platonic-0150.png'
p404
aI29
aI167
aI146
aI162
aF23652.0
aF0.9012345679012346
aF0.46029934043632675
asI290
(lp405
g404
aI29
aI391
aI146
aI141
aF20586.0
aF1.0354609929078014
aF0.559895074322355
asI291
(lp406
S'Euclidis_megaresis_philosophi_platonic-0151.png'
p407
aI404
aI106
aI158
aI308
aF48664.0
aF0.512987012987013
aF0.6632418214696696
asI292
(lp408
g407
aI404
aI425
aI158
aI316
aF49928.0
aF0.5
aF0.6731893927255248
asI293
(lp409
S'Euclidis_megaresis_philosophi_platonic-0153.png'
p410
aI178
aI30
aI249
aI722
aF179778.0
aF0.3448753462603878
aF0.7333210960184228
asI294
(lp411
S'Euclidis_megaresis_philosophi_platonic-0154.png'
p412
aI149
aI653
aI16
aI73
aF1168.0
aF0.2191780821917808
aF0.839041095890411
asI295
(lp413
S'Euclidis_megaresis_philosophi_platonic-0155.png'
p414
aI410
aI71
aI124
aI188
aF23312.0
aF0.6595744680851063
aF0.4905628002745367
asI296
(lp415
g414
aI515
aI370
aI29
aI106
aF3074.0
aF0.27358490566037735
aF0.8445022771633052
asI297
(lp416
g414
aI435
aI371
aI69
aI124
aF8556.0
aF0.5564516129032258
aF0.5801776531089294
asI298
(lp417
g414
aI410
aI696
aI26
aI42
aF1092.0
aF0.6190476190476191
aF0.46886446886446886
asI299
(lp418
S'Euclidis_megaresis_philosophi_platonic-0156.png'
p419
aI55
aI144
aI90
aI179
aF16110.0
aF0.5027932960893855
aF0.6030415890751086
asI300
(lp420
S'Euclidis_megaresis_philosophi_platonic-0157.png'
p421
aI425
aI119
aI41
aI141
aF5781.0
aF0.2907801418439716
aF0.5644352188202733
asI301
(lp422
g421
aI474
aI128
aI68
aI124
aF8432.0
aF0.5483870967741935
aF0.6966318785578748
asI302
(lp423
g421
aI419
aI353
aI98
aI144
aF14112.0
aF0.6805555555555556
aF0.6147250566893424
asI303
(lp424
g421
aI516
aI376
aI33
aI96
aF3168.0
aF0.34375
aF0.7099116161616161
asI304
(lp425
g421
aI419
aI834
aI113
aI31
aF3503.0
aF3.6451612903225805
aF0.8121610048529831
asI305
(lp426
S'Euclidis_megaresis_philosophi_platonic-0158.png'
p427
aI87
aI67
aI36
aI210
aF7560.0
aF0.17142857142857143
aF0.6771164021164021
asI306
(lp428
g427
aI38
aI70
aI38
aI173
aF6574.0
aF0.21965317919075145
aF0.7855187100699726
asI307
(lp429
g427
aI48
aI273
aI40
aI144
aF5760.0
aF0.2777777777777778
aF0.7161458333333334
asI308
(lp430
g427
aI113
aI281
aI34
aI140
aF4760.0
aF0.24285714285714285
aF0.775
asI309
(lp431
g427
aI18
aI550
aI143
aI185
aF26455.0
aF0.772972972972973
aF0.42343602343602343
asI310
(lp432
S'Euclidis_megaresis_philosophi_platonic-0159.png'
p433
aI426
aI65
aI26
aI175
aF4550.0
aF0.14857142857142858
aF0.5230769230769231
asI311
(lp434
g433
aI426
aI316
aI123
aI125
aF15375.0
aF0.984
aF0.5934959349593496
asI312
(lp435
g433
aI444
aI567
aI36
aI165
aF5940.0
aF0.21818181818181817
aF0.6422558922558923
asI313
(lp436
g433
aI486
aI577
aI46
aI85
aF3910.0
aF0.5411764705882353
aF0.589002557544757
asI314
(lp437
g433
aI485
aI665
aI36
aI77
aF2772.0
aF0.4675324675324675
aF0.8383838383838383
asI315
(lp438
g433
aI426
aI834
aI106
aI31
aF3286.0
aF3.4193548387096775
aF0.8174071819841753
asI316
(lp439
S'Euclidis_megaresis_philosophi_platonic-0160.png'
p440
aI46
aI252
aI36
aI157
aF5652.0
aF0.22929936305732485
aF0.6627742392073602
asI317
(lp441
g440
aI88
aI272
aI40
aI128
aF5120.0
aF0.3125
aF0.70703125
asI318
(lp442
g440
aI43
aI457
aI125
aI132
aF16500.0
aF0.946969696969697
aF0.5712121212121212
asI319
(lp443
g440
aI41
aI625
aI106
aI107
aF11342.0
aF0.9906542056074766
aF0.5898430611885029
asI320
(lp444
S'Euclidis_megaresis_philosophi_platonic-0161.png'
p445
aI445
aI275
aI102
aI225
aF22950.0
aF0.4533333333333333
aF0.3821350762527233
asI321
(lp446
g445
aI474
aI279
aI76
aI109
aF8284.0
aF0.6972477064220184
aF0.5270400772573636
asI322
(lp447
g445
aI425
aI834
aI107
aI31
aF3317.0
aF3.4516129032258065
aF0.8157974072957491
asI323
(lp448
S'Euclidis_megaresis_philosophi_platonic-0162.png'
p449
aI38
aI112
aI39
aI190
aF7410.0
aF0.20526315789473684
aF0.7129554655870445
asI324
(lp450
g449
aI85
aI112
aI38
aI100
aF3800.0
aF0.38
aF0.8
asI325
(lp451
g449
aI88
aI220
aI34
aI85
aF2890.0
aF0.4
aF0.68719723183391
asI326
(lp452
g449
aI77
aI374
aI81
aI206
aF16686.0
aF0.3932038834951456
aF0.5924128011506652
asI327
(lp453
g449
aI18
aI597
aI150
aI125
aF18750.0
aF1.2
aF0.5413333333333333
asI328
(lp454
S'Euclidis_megaresis_philosophi_platonic-0163.png'
p455
aI435
aI191
aI106
aI176
aF18656.0
aF0.6022727272727273
aF0.447041166380789
asI329
(lp456
g455
aI506
aI195
aI39
aI71
aF2769.0
aF0.5492957746478874
aF0.6424702058504875
asI330
(lp457
g455
aI419
aI529
aI139
aI164
aF22796.0
aF0.8475609756097561
aF0.6117739954377961
asI331
(lp458
S'Euclidis_megaresis_philosophi_platonic-0164.png'
p459
aI35
aI174
aI111
aI153
aF16983.0
aF0.7254901960784313
aF0.5276452923511747
asI332
(lp460
g459
aI41
aI453
aI81
aI156
aF12636.0
aF0.5192307692307693
aF0.6480690091801203
asI333
(lp461
S'Euclidis_megaresis_philosophi_platonic-0165.png'
p462
aI436
aI170
aI84
aI176
aF14784.0
aF0.4772727272727273
aF0.689258658008658
asI334
(lp463
g462
aI445
aI466
aI78
aI215
aF16770.0
aF0.3627906976744186
aF0.5683959451401311
asI335
(lp464
S'Euclidis_megaresis_philosophi_platonic-0166.png'
p465
aI19
aI180
aI149
aI89
aF13261.0
aF1.6741573033707866
aF0.6055350275243194
asI336
(lp466
g465
aI19
aI355
aI149
aI81
aF12069.0
aF1.8395061728395061
aF0.6355124699643715
asI337
(lp467
g465
aI19
aI566
aI149
aI102
aF15198.0
aF1.4607843137254901
aF0.6991051454138703
asI338
(lp468
S'Euclidis_megaresis_philosophi_platonic-0167.png'
p469
aI403
aI70
aI18
aI90
aF1620.0
aF0.2
aF0.8092592592592592
asI339
(lp470
g469
aI424
aI152
aI92
aI331
aF30452.0
aF0.27794561933534745
aF0.5452843819781952
asI340
(lp471
g469
aI403
aI215
aI13
aI98
aF1274.0
aF0.1326530612244898
aF0.7221350078492935
asI341
(lp472
g469
aI487
aI502
aI34
aI134
aF4556.0
aF0.2537313432835821
aF0.6650570676031606
asI342
(lp473
g469
aI423
aI520
aI62
aI113
aF7006.0
aF0.5486725663716814
aF0.6585783614045104
asI343
(lp474
g469
aI424
aI637
aI88
aI105
aF9240.0
aF0.8380952380952381
aF0.5782467532467532
asI344
(lp475
S'Euclidis_megaresis_philosophi_platonic-0168.png'
p476
aI172
aI76
aI13
aI84
aF1092.0
aF0.15476190476190477
aF0.8388278388278388
asI345
(lp477
g476
aI34
aI275
aI138
aI71
aF9798.0
aF1.943661971830986
aF0.6432945499081445
asI346
(lp478
g476
aI34
aI563
aI151
aI79
aF11929.0
aF1.9113924050632911
aF0.5367591583535921
asI347
(lp479
S'Euclidis_megaresis_philosophi_platonic-0169.png'
p480
aI414
aI159
aI123
aI134
aF16482.0
aF0.917910447761194
aF0.5993204708166484
asI348
(lp481
g480
aI434
aI380
aI117
aI67
aF7839.0
aF1.7462686567164178
aF0.6628396479142747
asI349
(lp482
g480
aI437
aI596
aI104
aI104
aF10816.0
aF1.0
aF0.6164940828402367
asI350
(lp483
S'Euclidis_megaresis_philosophi_platonic-0170.png'
p484
aI73
aI229
aI36
aI83
aF2988.0
aF0.43373493975903615
aF0.6840696117804551
asI351
(lp485
g484
aI18
aI469
aI132
aI215
aF28380.0
aF0.6139534883720931
aF0.5230796335447498
asI352
(lp486
g484
aI30
aI622
aI62
aI52
aF3224.0
aF1.1923076923076923
aF0.7214640198511166
asI353
(lp487
S'Euclidis_megaresis_philosophi_platonic-0171.png'
p488
aI416
aI67
aI13
aI104
aF1352.0
aF0.125
aF0.7618343195266272
asI354
(lp489
g488
aI435
aI216
aI125
aI202
aF25250.0
aF0.6188118811881188
aF0.4828118811881188
asI355
(lp490
g488
aI428
aI434
aI121
aI188
aF22748.0
aF0.6436170212765957
aF0.6267803762968173
asI356
(lp491
g488
aI416
aI834
aI116
aI31
aF3596.0
aF3.7419354838709675
aF0.8131256952169077
asI357
(lp492
S'Euclidis_megaresis_philosophi_platonic-0172.png'
p493
aI74
aI229
aI35
aI84
aF2940.0
aF0.4166666666666667
aF0.6925170068027211
asI358
(lp494
g493
aI19
aI471
aI132
aI214
aF28248.0
aF0.616822429906542
aF0.5220192580005664
asI359
(lp495
g493
aI31
aI622
aI62
aI53
aF3286.0
aF1.169811320754717
aF0.7118076688983567
asI360
(lp496
S'Euclidis_megaresis_philosophi_platonic-0173.png'
p497
aI428
aI217
aI124
aI200
aF24800.0
aF0.62
aF0.483991935483871
asI361
(lp498
g497
aI423
aI434
aI120
aI188
aF22560.0
aF0.6382978723404256
aF0.6290336879432624
asI362
(lp499
S'Euclidis_megaresis_philosophi_platonic-0174.png'
p500
aI38
aI181
aI108
aI144
aF15552.0
aF0.75
aF0.5120884773662552
asI363
(lp501
g500
aI22
aI337
aI145
aI244
aF35380.0
aF0.5942622950819673
aF0.5108818541548897
asI364
(lp502
S'Euclidis_megaresis_philosophi_platonic-0175.png'
p503
aI415
aI70
aI13
aI134
aF1742.0
aF0.09701492537313433
aF0.8128587830080367
asI365
(lp504
g503
aI435
aI87
aI128
aI90
aF11520.0
aF1.4222222222222223
aF0.6983506944444444
asI366
(lp505
g503
aI435
aI279
aI111
aI90
aF9990.0
aF1.2333333333333334
aF0.6767767767767767
asI367
(lp506
g503
aI415
aI424
aI151
aI122
aF18422.0
aF1.2377049180327868
aF0.6854847464987515
asI368
(lp507
g503
aI451
aI573
aI38
aI34
aF1292.0
aF1.1176470588235294
aF0.5696594427244582
asI369
(lp508
S'Euclidis_megaresis_philosophi_platonic-0176.png'
p509
aI47
aI193
aI72
aI230
aF16560.0
aF0.3130434782608696
aF0.6609903381642512
asI370
(lp510
g509
aI24
aI429
aI144
aI184
aF26496.0
aF0.782608695652174
aF0.6692330917874396
asI371
(lp511
g509
aI103
aI454
aI36
aI30
aF1080.0
aF1.2
aF0.49907407407407406
asI372
(lp512
S'Euclidis_megaresis_philosophi_platonic-0177.png'
p513
aI417
aI61
aI15
aI152
aF2280.0
aF0.09868421052631579
aF0.831140350877193
asI373
(lp514
g513
aI417
aI305
aI132
aI303
aF39996.0
aF0.43564356435643564
aF0.5762576257625762
asI374
(lp515
S'Euclidis_megaresis_philosophi_platonic-0178.png'
p516
aI17
aI79
aI149
aI456
aF67944.0
aF0.3267543859649123
aF0.5297745201931002
asI375
(lp517
g516
aI153
aI613
aI13
aI104
aF1352.0
aF0.125
aF0.8291420118343196
asI376
(lp518
S'Euclidis_megaresis_philosophi_platonic-0179.png'
p519
aI430
aI122
aI108
aI214
aF23112.0
aF0.5046728971962616
aF0.6236587054344064
asI377
(lp520
g519
aI419
aI529
aI123
aI132
aF16236.0
aF0.9318181818181818
aF0.7231460950973146
asI378
(lp521
g519
aI464
aI666
aI74
aI61
aF4514.0
aF1.2131147540983607
aF0.7175454142667257
asI379
(lp522
S'Euclidis_megaresis_philosophi_platonic-0180.png'
p523
aI41
aI110
aI76
aI97
aF7372.0
aF0.7835051546391752
aF0.7008952794357026
asI380
(lp524
g523
aI44
aI213
aI110
aI98
aF10780.0
aF1.1224489795918366
aF0.6666048237476809
asI381
(lp525
g523
aI36
aI365
aI111
aI328
aF36408.0
aF0.3384146341463415
aF0.6497198417930126
asI382
(lp526
S'Euclidis_megaresis_philosophi_platonic-0181.png'
p527
aI410
aI140
aI154
aI296
aF45584.0
aF0.5202702702702703
aF0.6046639171639172
asI383
(lp528
S'Euclidis_megaresis_philosophi_platonic-0182.png'
p529
aI24
aI99
aI136
aI196
aF26656.0
aF0.6938775510204082
aF0.6374549819927972
asI384
(lp530
g529
aI34
aI541
aI33
aI173
aF5709.0
aF0.1907514450867052
aF0.6445962515326678
asI385
(lp531
g529
aI69
aI556
aI59
aI81
aF4779.0
aF0.7283950617283951
aF0.6890562879263444
asI386
(lp532
g529
aI153
aI603
aI12
aI126
aF1512.0
aF0.09523809523809523
aF0.7255291005291006
asI387
(lp533
g529
aI95
aI659
aI32
aI52
aF1664.0
aF0.6153846153846154
aF0.7409855769230769
asI388
(lp534
S'Euclidis_megaresis_philosophi_platonic-0183.png'
p535
aI413
aI286
aI146
aI227
aF33142.0
aF0.6431718061674009
aF0.6377406312232213
asI389
(lp536
g535
aI510
aI611
aI25
aI42
aF1050.0
aF0.5952380952380952
aF0.5647619047619048
asI390
(lp537
S'Euclidis_megaresis_philosophi_platonic-0184.png'
p538
aI29
aI109
aI144
aI187
aF26928.0
aF0.7700534759358288
aF0.607620320855615
asI391
(lp539
g538
aI18
aI273
aI149
aI172
aF25628.0
aF0.8662790697674418
aF0.7094193850476042
asI392
(lp540
g538
aI49
aI449
aI94
aI105
aF9870.0
aF0.8952380952380953
aF0.5724417426545086
asI393
(lp541
g538
aI44
aI561
aI63
aI98
aF6174.0
aF0.6428571428571429
aF0.620019436345967
asI394
(lp542
S'Euclidis_megaresis_philosophi_platonic-0185.png'
p543
aI405
aI63
aI158
aI508
aF80264.0
aF0.3110236220472441
aF0.41883035981261835
asI395
(lp544
g543
aI405
aI193
aI17
aI152
aF2584.0
aF0.1118421052631579
aF0.8243034055727554
asI396
(lp545
g543
aI405
aI412
aI13
aI103
aF1339.0
aF0.1262135922330097
aF0.7998506348020911
asI397
(lp546
g543
aI472
aI439
aI31
aI135
aF4185.0
aF0.22962962962962963
aF0.7608124253285543
asI398
(lp547
S'Euclidis_megaresis_philosophi_platonic-0186.png'
p548
aI43
aI80
aI125
aI227
aF28375.0
aF0.5506607929515418
aF0.4984669603524229
asI399
(lp549
g548
aI47
aI445
aI125
aI203
aF25375.0
aF0.6157635467980296
aF0.6493399014778325
asI400
(lp550
g548
aI27
aI547
aI27
aI98
aF2646.0
aF0.2755102040816326
aF0.7471655328798186
asI401
(lp551
g548
aI20
aI561
aI152
aI172
aF26144.0
aF0.8837209302325582
aF0.2811735006119951
asI402
(lp552
S'Euclidis_megaresis_philosophi_platonic-0187.png'
p553
aI433
aI63
aI130
aI332
aF43160.0
aF0.39156626506024095
aF0.5284059314179796
asI403
(lp554
g553
aI414
aI192
aI83
aI100
aF8300.0
aF0.83
aF0.7067469879518072
asI404
(lp555
g553
aI419
aI424
aI135
aI183
aF24705.0
aF0.7377049180327869
aF0.570815624367537
asI405
(lp556
g553
aI409
aI646
aI13
aI98
aF1274.0
aF0.1326530612244898
aF0.8469387755102041
asI406
(lp557
S'Euclidis_megaresis_philosophi_platonic-0188.png'
p558
aI33
aI65
aI139
aI332
aF46148.0
aF0.4186746987951807
aF0.632400104013175
asI407
(lp559
g558
aI40
aI400
aI103
aI71
aF7313.0
aF1.4507042253521127
aF0.6796116504854369
asI408
(lp560
g558
aI33
aI471
aI133
aI94
aF12502.0
aF1.4148936170212767
aF0.6678131498960166
asI409
(lp561
g558
aI55
aI584
aI32
aI169
aF5408.0
aF0.1893491124260355
aF0.6952662721893491
asI410
(lp562
g558
aI92
aI597
aI28
aI128
aF3584.0
aF0.21875
aF0.7639508928571429
asI411
(lp563
g558
aI158
aI613
aI14
aI127
aF1778.0
aF0.11023622047244094
aF0.6929133858267716
asI412
(lp564
S'Euclidis_megaresis_philosophi_platonic-0189.png'
p565
aI429
aI165
aI87
aI80
aF6960.0
aF1.0875
aF0.6150862068965517
asI413
(lp566
g565
aI440
aI249
aI77
aI71
aF5467.0
aF1.0845070422535212
aF0.700749954271081
asI414
(lp567
g565
aI423
aI361
aI129
aI210
aF27090.0
aF0.6142857142857143
aF0.5616832779623477
asI415
(lp568
g565
aI411
aI615
aI11
aI109
aF1199.0
aF0.10091743119266056
aF0.804837364470392
asI416
(lp569
g565
aI430
aI651
aI107
aI78
aF8346.0
aF1.3717948717948718
aF0.557632398753894
asI417
(lp570
S'Euclidis_megaresis_philosophi_platonic-0190.png'
p571
aI39
aI178
aI122
aI108
aF13176.0
aF1.1296296296296295
aF0.7437006678809958
asI418
(lp572
g571
aI27
aI457
aI135
aI104
aF14040.0
aF1.2980769230769231
aF0.6762108262108262
asI419
(lp573
S'Euclidis_megaresis_philosophi_platonic-0191.png'
p574
aI427
aI89
aI132
aI83
aF10956.0
aF1.5903614457831325
aF0.6549835706462213
asI420
(lp575
g574
aI426
aI281
aI137
aI104
aF14248.0
aF1.3173076923076923
aF0.6822711959573273
asI421
(lp576
g574
aI449
aI406
aI107
aI70
aF7490.0
aF1.5285714285714285
aF0.6419225634178906
asI422
(lp577
g574
aI418
aI428
aI11
aI96
aF1056.0
aF0.11458333333333333
aF0.7329545454545454
asI423
(lp578
g574
aI455
aI557
aI116
aI147
aF17052.0
aF0.7891156462585034
aF0.6075533661740559
asI424
(lp579
g574
aI418
aI577
aI18
aI104
aF1872.0
aF0.17307692307692307
aF0.655982905982906
asI425
(lp580
S'Euclidis_megaresis_philosophi_platonic-0192.png'
p581
aI31
aI161
aI140
aI144
aF20160.0
aF0.9722222222222222
aF0.6309523809523809
asI426
(lp582
g581
aI25
aI496
aI146
aI223
aF32558.0
aF0.6547085201793722
aF0.5153572086737515
asI427
(lp583
S'Euclidis_megaresis_philosophi_platonic-0193.png'
p584
aI411
aI201
aI138
aI169
aF23322.0
aF0.8165680473372781
aF0.619586656375954
asI428
(lp585
g584
aI480
aI460
aI78
aI138
aF10764.0
aF0.5652173913043478
aF0.5904868078781123
asI429
(lp586
g584
aI406
aI616
aI47
aI121
aF5687.0
aF0.3884297520661157
aF0.3409530508176543
asI430
(lp587
S'Euclidis_megaresis_philosophi_platonic-0194.png'
p588
aI31
aI102
aI140
aI100
aF14000.0
aF1.4
aF0.8114285714285714
asI431
(lp589
g588
aI31
aI523
aI140
aI212
aF29680.0
aF0.660377358490566
aF0.6457547169811321
asI432
(lp590
S'Euclidis_megaresis_philosophi_platonic-0195.png'
p591
aI407
aI65
aI27
aI265
aF7155.0
aF0.1018867924528302
aF0.6725366876310273
asI433
(lp592
g591
aI407
aI419
aI148
aI88
aF13024.0
aF1.6818181818181819
aF0.7562960687960688
asI434
(lp593
S'Euclidis_megaresis_philosophi_platonic-0196.png'
p594
aI30
aI84
aI139
aI88
aF12232.0
aF1.5795454545454546
aF0.5470896010464356
asI435
(lp595
g594
aI34
aI392
aI118
aI69
aF8142.0
aF1.710144927536232
aF0.6659297469909113
asI436
(lp596
g594
aI48
aI590
aI121
aI136
aF16456.0
aF0.8897058823529411
aF0.6893534273213417
asI437
(lp597
S'Euclidis_megaresis_philosophi_platonic-0197.png'
p598
aI408
aI114
aI145
aI241
aF34945.0
aF0.6016597510373444
aF0.37458863929031333
asI438
(lp599
g598
aI418
aI518
aI135
aI150
aF20250.0
aF0.9
aF0.5306666666666666
asI439
(lp600
S'Euclidis_megaresis_philosophi_platonic-0198.png'
p601
aI167
aI62
aI14
aI167
aF2338.0
aF0.08383233532934131
aF0.7228400342172797
asI440
(lp602
g601
aI34
aI327
aI147
aI134
aF19698.0
aF1.0970149253731343
aF0.5394456289978679
asI441
(lp603
g601
aI36
aI533
aI145
aI39
aF5655.0
aF3.717948717948718
aF0.7573828470380195
asI442
(lp604
g601
aI33
aI645
aI148
aI34
aF5032.0
aF4.352941176470588
aF0.8026629570747218
asI443
(lp605
S'Euclidis_megaresis_philosophi_platonic-0199.png'
p606
aI404
aI77
aI151
aI89
aF13439.0
aF1.696629213483146
aF0.40300617605476596
asI444
(lp607
g606
aI404
aI200
aI144
aI58
aF8352.0
aF2.4827586206896552
aF0.452705938697318
asI445
(lp608
g606
aI404
aI294
aI151
aI55
aF8305.0
aF2.7454545454545456
aF0.4918723660445515
asI446
(lp609
g606
aI404
aI390
aI151
aI58
aF8758.0
aF2.603448275862069
aF0.4958894724823019
asI447
(lp610
g606
aI411
aI497
aI144
aI39
aF5616.0
aF3.6923076923076925
aF0.6636396011396012
asI448
(lp611
g606
aI418
aI578
aI118
aI66
aF7788.0
aF1.7878787878787878
aF0.7109655880842322
asI449
(lp612
S'Euclidis_megaresis_philosophi_platonic-0200.png'
p613
aI32
aI322
aI151
aI135
aF20385.0
aF1.1185185185185185
aF0.529654157468727
asI450
(lp614
g613
aI31
aI512
aI152
aI86
aF13072.0
aF1.7674418604651163
aF0.37584149326805383
asI451
(lp615
g613
aI31
aI641
aI152
aI82
aF12464.0
aF1.853658536585366
aF0.37788831835686776
asI452
(lp616
S'Euclidis_megaresis_philosophi_platonic-0201.png'
p617
aI330
aI75
aI219
aI185
aF40515.0
aF1.1837837837837837
aF0.49179316302603976
asI453
(lp618
g617
aI330
aI277
aI219
aI75
aF16425.0
aF2.92
aF0.534490106544901
asI454
(lp619
g617
aI330
aI369
aI219
aI77
aF16863.0
aF2.844155844155844
aF0.5357884125007413
asI455
(lp620
g617
aI330
aI462
aI219
aI275
aF60225.0
aF0.7963636363636364
aF0.37228725612287256
asI456
(lp621
g617
aI413
aI579
aI117
aI65
aF7605.0
aF1.8
aF0.7226824457593688
asI457
(lp622
S'Euclidis_megaresis_philosophi_platonic-0202.png'
p623
aI56
aI65
aI110
aI69
aF7590.0
aF1.5942028985507246
aF0.6993412384716733
asI458
(lp624
g623
aI57
aI147
aI109
aI67
aF7303.0
aF1.626865671641791
aF0.6656168697795427
asI459
(lp625
g623
aI35
aI385
aI123
aI135
aF16605.0
aF0.9111111111111111
aF0.6488407106293285
asI460
(lp626
g623
aI35
aI607
aI131
aI103
aF13493.0
aF1.2718446601941749
aF0.7540947157785518
asI461
(lp627
S'Euclidis_megaresis_philosophi_platonic-0203.png'
p628
aI399
aI157
aI150
aI120
aF18000.0
aF1.25
aF0.275
asI462
(lp629
g628
aI399
aI298
aI147
aI155
aF22785.0
aF0.9483870967741935
aF0.31674347158218125
asI463
(lp630
g628
aI404
aI445
aI141
aI34
aF4794.0
aF4.147058823529412
aF0.680642469753859
asI464
(lp631
g628
aI404
aI489
aI145
aI26
aF3770.0
aF5.576923076923077
aF0.9098143236074271
asI465
(lp632
S'Euclidis_megaresis_philosophi_platonic-0204.png'
p633
aI40
aI87
aI132
aI265
aF34980.0
aF0.4981132075471698
aF0.6580617495711836
asI466
(lp634
S'Euclidis_megaresis_philosophi_platonic-0205.png'
p635
aI405
aI318
aI12
aI161
aF1932.0
aF0.07453416149068323
aF0.7587991718426501
asI467
(lp636
g635
aI462
aI581
aI66
aI151
aF9966.0
aF0.4370860927152318
aF0.5705398354404977
asI468
(lp637
g635
aI415
aI616
aI41
aI114
aF4674.0
aF0.35964912280701755
aF0.7145913564398801
asI469
(lp638
S'Euclidis_megaresis_philosophi_platonic-0206.png'
p639
aI69
aI237
aI90
aI185
aF16650.0
aF0.4864864864864865
aF0.5963963963963964
asI470
(lp640
g639
aI34
aI288
aI28
aI130
aF3640.0
aF0.2153846153846154
aF0.8947802197802198
asI471
(lp641
g639
aI73
aI570
aI72
aI134
aF9648.0
aF0.5373134328358209
aF0.4951285240464345
asI472
(lp642
g639
aI34
aI605
aI32
aI101
aF3232.0
aF0.31683168316831684
aF0.7599009900990099
asI473
(lp643
S'Euclidis_megaresis_philosophi_platonic-0207.png'
p644
aI403
aI71
aI25
aI135
aF3375.0
aF0.18518518518518517
aF0.4177777777777778
asI474
(lp645
g644
aI470
aI232
aI69
aI144
aF9936.0
aF0.4791666666666667
aF0.5603864734299517
asI475
(lp646
g644
aI423
aI233
aI35
aI146
aF5110.0
aF0.23972602739726026
aF0.724853228962818
asI476
(lp647
g644
aI403
aI474
aI12
aI105
aF1260.0
aF0.11428571428571428
aF0.6817460317460318
asI477
(lp648
g644
aI403
aI834
aI129
aI31
aF3999.0
aF4.161290322580645
aF0.797949487371843
asI478
(lp649
S'Euclidis_megaresis_philosophi_platonic-0208.png'
p650
aI72
aI236
aI89
aI184
aF16376.0
aF0.483695652173913
aF0.6058255984367367
asI479
(lp651
g650
aI35
aI287
aI30
aI130
aF3900.0
aF0.23076923076923078
aF0.8561538461538462
asI480
(lp652
g650
aI75
aI570
aI84
aI133
aF11172.0
aF0.631578947368421
aF0.4405656999641962
asI481
(lp653
g650
aI35
aI604
aI34
aI100
aF3400.0
aF0.34
aF0.7314705882352941
asI482
(lp654
S'Euclidis_megaresis_philosophi_platonic-0209.png'
p655
aI427
aI232
aI36
aI147
aF5292.0
aF0.24489795918367346
aF0.7114512471655329
asI483
(lp656
g655
aI475
aI232
aI69
aI144
aF9936.0
aF0.4791666666666667
aF0.5502214170692431
asI484
(lp657
g655
aI408
aI458
aI12
aI123
aF1476.0
aF0.0975609756097561
aF0.7134146341463414
asI485
(lp658
g655
aI408
aI834
aI124
aI31
aF3844.0
aF4.0
aF0.8028095733610822
asI486
(lp659
S'Euclidis_megaresis_philosophi_platonic-0210.png'
p660
aI30
aI282
aI145
aI103
aF14935.0
aF1.4077669902912622
aF0.7226648811516572
asI487
(lp661
S'Euclidis_megaresis_philosophi_platonic-0211.png'
p662
aI455
aI163
aI76
aI196
aF14896.0
aF0.3877551020408163
aF0.5883458646616542
asI488
(lp663
g662
aI420
aI457
aI119
aI162
aF19278.0
aF0.7345679012345679
aF0.6209150326797386
asI489
(lp664
S'Euclidis_megaresis_philosophi_platonic-0212.png'
p665
aI40
aI162
aI121
aI116
aF14036.0
aF1.043103448275862
aF0.6616557423767455
asI490
(lp666
g665
aI53
aI291
aI78
aI81
aF6318.0
aF0.9629629629629629
aF0.6608103830326053
asI491
(lp667
g665
aI51
aI374
aI78
aI75
aF5850.0
aF1.04
aF0.6858119658119658
asI492
(lp668
g665
aI77
aI578
aI54
aI36
aF1944.0
aF1.5
aF0.6887860082304527
asI493
(lp669
S'Euclidis_megaresis_philosophi_platonic-0213.png'
p670
aI416
aI81
aI11
aI155
aF1705.0
aF0.07096774193548387
aF0.8451612903225807
asI494
(lp671
g670
aI481
aI345
aI32
aI78
aF2496.0
aF0.41025641025641024
aF0.6145833333333334
asI495
(lp672
g670
aI449
aI361
aI29
aI60
aF1740.0
aF0.48333333333333334
aF0.7097701149425287
asI496
(lp673
g670
aI482
aI576
aI33
aI82
aF2706.0
aF0.4024390243902439
aF0.6607538802660754
asI497
(lp674
g670
aI446
aI606
aI32
aI50
aF1600.0
aF0.64
aF0.71375
asI498
(lp675
S'Euclidis_megaresis_philosophi_platonic-0214.png'
p676
aI64
aI126
aI25
aI215
aF5375.0
aF0.11627906976744186
aF0.6597209302325582
asI499
(lp677
g676
aI99
aI150
aI33
aI87
aF2871.0
aF0.3793103448275862
aF0.7056774642981539
asI500
(lp678
g676
aI99
aI256
aI32
aI83
aF2656.0
aF0.3855421686746988
aF0.6875
asI501
(lp679
S'Euclidis_megaresis_philosophi_platonic-0216.png'
p680
aI93
aI183
aI37
aI235
aF8695.0
aF0.1574468085106383
aF0.6445083381253593
asI502
(lp681
g680
aI49
aI198
aI34
aI160
aF5440.0
aF0.2125
aF0.7178308823529411
asI503
(lp682
g680
aI48
aI489
aI96
aI172
aF16512.0
aF0.5581395348837209
aF0.49327761627906974
asI504
(lp683
g680
aI160
aI661
aI14
aI79
aF1106.0
aF0.17721518987341772
aF0.7323688969258589
asI505
(lp684
S'Euclidis_megaresis_philosophi_platonic-0217.png'
p685
aI428
aI418
aI119
aI109
aF12971.0
aF1.091743119266055
aF0.5806799784133837
asI506
(lp686
g685
aI480
aI549
aI42
aI27
aF1134.0
aF1.5555555555555556
aF0.49382716049382713
asI507
(lp687
S'Euclidis_megaresis_philosophi_platonic-0218.png'
p688
aI52
aI70
aI86
aI76
aF6536.0
aF1.131578947368421
aF0.7164932680538556
asI508
(lp689
g688
aI30
aI144
aI113
aI108
aF12204.0
aF1.0462962962962963
aF0.6316781383153065
asI509
(lp690
g688
aI49
aI258
aI86
aI86
aF7396.0
aF1.0
aF0.6546782044348296
asI510
(lp691
g688
aI40
aI364
aI110
aI86
aF9460.0
aF1.2790697674418605
aF0.6318181818181818
asI511
(lp692
g688
aI54
aI465
aI87
aI113
aF9831.0
aF0.7699115044247787
aF0.6293357745905808
asI512
(lp693
g688
aI30
aI601
aI143
aI122
aF17446.0
aF1.1721311475409837
aF0.6638771065000573
asI513
(lp694
S'Euclidis_megaresis_philosophi_platonic-0219.png'
p695
aI402
aI78
aI15
aI96
aF1440.0
aF0.15625
aF0.7819444444444444
asI514
(lp696
g695
aI417
aI308
aI37
aI189
aF6993.0
aF0.19576719576719576
aF0.6417846417846418
asI515
(lp697
g695
aI462
aI315
aI71
aI183
aF12993.0
aF0.3879781420765027
aF0.47179250365581465
asI516
(lp698
g695
aI456
aI427
aI34
aI65
aF2210.0
aF0.5230769230769231
aF0.7072398190045249
asI517
(lp699
g695
aI402
aI600
aI141
aI130
aF18330.0
aF1.0846153846153845
aF0.3111838516093835
asI518
(lp700
S'Euclidis_megaresis_philosophi_platonic-0220.png'
p701
aI32
aI255
aI144
aI116
aF16704.0
aF1.2413793103448276
aF0.3297413793103448
asI519
(lp702
g701
aI22
aI559
aI154
aI103
aF15862.0
aF1.4951456310679612
aF0.6243853234144496
asI520
(lp703
S'Euclidis_megaresis_philosophi_platonic-0221.png'
p704
aI402
aI148
aI142
aI129
aF18318.0
aF1.1007751937984496
aF0.34086690686756194
asI521
(lp705
S'Euclidis_megaresis_philosophi_platonic-0222.png'
p706
aI32
aI253
aI140
aI117
aF16380.0
aF1.1965811965811965
aF0.32753357753357754
asI522
(lp707
g706
aI21
aI558
aI152
aI102
aF15504.0
aF1.4901960784313726
aF0.6144865841073271
asI523
(lp708
S'Euclidis_megaresis_philosophi_platonic-0223.png'
p709
aI405
aI147
aI150
aI130
aF19500.0
aF1.1538461538461537
aF0.3315897435897436
asI524
(lp710
S'Euclidis_megaresis_philosophi_platonic-0224.png'
p711
aI32
aI158
aI147
aI127
aF18669.0
aF1.1574803149606299
aF0.32165622154373563
asI525
(lp712
S'Euclidis_megaresis_philosophi_platonic-0225.png'
p713
aI418
aI211
aI148
aI110
aF16280.0
aF1.3454545454545455
aF0.5867936117936118
asI526
(lp714
g713
aI418
aI559
aI12
aI158
aF1896.0
aF0.0759493670886076
aF0.6819620253164557
asI527
(lp715
S'Euclidis_megaresis_philosophi_platonic-0226.png'
p716
aI159
aI511
aI16
aI199
aF3184.0
aF0.08040201005025126
aF0.6089824120603015
asI528
(lp717
S'Euclidis_megaresis_philosophi_platonic-0227.png'
p718
aI421
aI142
aI143
aI102
aF14586.0
aF1.4019607843137254
aF0.6118195529960235
asI529
(lp719
g718
aI421
aI317
aI143
aI40
aF5720.0
aF3.575
aF0.5631118881118881
asI530
(lp720
g718
aI421
aI428
aI143
aI104
aF14872.0
aF1.375
aF0.5968934911242604
asI531
(lp721
S'Euclidis_megaresis_philosophi_platonic-0228.png'
p722
aI19
aI85
aI151
aI97
aF14647.0
aF1.556701030927835
aF0.6457977742882501
asI532
(lp723
g722
aI14
aI329
aI156
aI187
aF29172.0
aF0.8342245989304813
aF0.5870012340600576
asI533
(lp724
S'Euclidis_megaresis_philosophi_platonic-0229.png'
p725
aI409
aI136
aI147
aI140
aF20580.0
aF1.05
aF0.6417395529640427
asI534
(lp726
g725
aI409
aI646
aI144
aI96
aF13824.0
aF1.5
aF0.6207320601851852
asI535
(lp727
S'Euclidis_megaresis_philosophi_platonic-0230.png'
p728
aI32
aI184
aI141
aI307
aF43287.0
aF0.4592833876221498
aF0.5932266038302493
asI536
(lp729
S'Euclidis_megaresis_philosophi_platonic-0231.png'
p730
aI415
aI102
aI150
aI181
aF27150.0
aF0.8287292817679558
aF0.6693554327808472
asI537
(lp731
g730
aI415
aI309
aI11
aI129
aF1419.0
aF0.08527131782945736
aF0.7441860465116279
asI538
(lp732
g730
aI448
aI521
aI32
aI213
aF6816.0
aF0.15023474178403756
aF0.7021713615023474
asI539
(lp733
g730
aI491
aI544
aI34
aI88
aF2992.0
aF0.38636363636363635
aF0.6888368983957219
asI540
(lp734
g730
aI491
aI650
aI35
aI83
aF2905.0
aF0.42168674698795183
aF0.6585197934595525
asI541
(lp735
S'Euclidis_megaresis_philosophi_platonic-0232.png'
p736
aI56
aI236
aI83
aI159
aF13197.0
aF0.5220125786163522
aF0.5175418655755096
asI542
(lp737
g736
aI108
aI327
aI32
aI69
aF2208.0
aF0.463768115942029
aF0.7196557971014492
asI543
(lp738
g736
aI29
aI670
aI144
aI38
aF5472.0
aF3.789473684210526
aF0.7492690058479532
asI544
(lp739
S'Euclidis_megaresis_philosophi_platonic-0233.png'
p740
aI452
aI296
aI46
aI293
aF13478.0
aF0.15699658703071673
aF0.604466538062027
asI545
(lp741
g740
aI418
aI834
aI114
aI31
aF3534.0
aF3.6774193548387095
aF0.8109790605546123
asI546
(lp742
S'Euclidis_megaresis_philosophi_platonic-0234.png'
p743
aI26
aI112
aI139
aI163
aF22657.0
aF0.852760736196319
aF0.7103764840888026
asI547
(lp744
g743
aI26
aI480
aI139
aI121
aF16819.0
aF1.1487603305785123
aF0.7484392651168321
asI548
(lp745
S'Euclidis_megaresis_philosophi_platonic-0235.png'
p746
aI420
aI80
aI58
aI214
aF12412.0
aF0.27102803738317754
aF0.4338543345149855
asI549
(lp747
g746
aI479
aI100
aI44
aI91
aF4004.0
aF0.4835164835164835
aF0.5417082917082917
asI550
(lp748
g746
aI489
aI209
aI35
aI85
aF2975.0
aF0.4117647058823529
aF0.6709243697478992
asI551
(lp749
g746
aI418
aI356
aI67
aI70
aF4690.0
aF0.9571428571428572
aF0.6667377398720682
asI552
(lp750
g746
aI424
aI433
aI124
aI109
aF13516.0
aF1.1376146788990826
aF0.649378514353359
asI553
(lp751
S'Euclidis_megaresis_philosophi_platonic-0236.png'
p752
aI23
aI96
aI151
aI217
aF32767.0
aF0.695852534562212
aF0.5790581987975707
asI554
(lp753
g752
aI18
aI352
aI156
aI81
aF12636.0
aF1.9259259259259258
aF0.9366096866096866
asI555
(lp754
g752
aI62
aI522
aI86
aI209
aF17974.0
aF0.41148325358851673
aF0.5614776899966618
asI556
(lp755
S'Euclidis_megaresis_philosophi_platonic-0237.png'
p756
aI413
aI71
aI12
aI129
aF1548.0
aF0.09302325581395349
aF0.7364341085271318
asI557
(lp757
g756
aI438
aI429
aI107
aI222
aF23754.0
aF0.481981981981982
aF0.47137324240127976
asI558
(lp758
S'Euclidis_megaresis_philosophi_platonic-0238.png'
p759
aI64
aI148
aI99
aI216
aF21384.0
aF0.4583333333333333
aF0.5334362139917695
asI559
(lp760
g759
aI33
aI541
aI141
aI36
aF5076.0
aF3.9166666666666665
aF0.72123719464145
asI560
(lp761
g759
aI167
aI586
aI13
aI143
aF1859.0
aF0.09090909090909091
aF0.7832167832167832
asI561
(lp762
S'Euclidis_megaresis_philosophi_platonic-0239.png'
p763
aI353
aI90
aI62
aI118
aF7316.0
aF0.5254237288135594
aF0.9163477310005468
asI562
(lp764
g763
aI353
aI209
aI57
aI28
aF1596.0
aF2.0357142857142856
aF0.8759398496240601
asI563
(lp765
g763
aI353
aI256
aI197
aI281
aF55357.0
aF0.701067615658363
aF0.4625792582690536
asI564
(lp766
g763
aI353
aI542
aI195
aI188
aF36660.0
aF1.0372340425531914
aF0.3522367703218767
asI565
(lp767
S'Euclidis_megaresis_philosophi_platonic-0240.png'
p768
aI34
aI196
aI148
aI182
aF26936.0
aF0.8131868131868132
aF0.554016929016929
asI566
(lp769
S'Euclidis_megaresis_philosophi_platonic-0241.png'
p770
aI419
aI117
aI145
aI37
aF5365.0
aF3.918918918918919
aF0.7450139794967381
asI567
(lp771
g770
aI413
aI505
aI145
aI36
aF5220.0
aF4.027777777777778
aF0.6917624521072797
asI568
(lp772
S'Euclidis_megaresis_philosophi_platonic-0242.png'
p773
aI29
aI85
aI144
aI151
aF21744.0
aF0.9536423841059603
aF0.661929727740986
asI569
(lp774
g773
aI29
aI472
aI144
aI38
aF5472.0
aF3.789473684210526
aF0.8006213450292398
asI570
(lp775
S'Euclidis_megaresis_philosophi_platonic-0243.png'
p776
aI480
aI138
aI34
aI168
aF5712.0
aF0.20238095238095238
aF0.7519257703081232
asI571
(lp777
g776
aI413
aI451
aI141
aI36
aF5076.0
aF3.9166666666666665
aF0.7549251379038613
asI572
(lp778
S'Euclidis_megaresis_philosophi_platonic-0244.png'
p779
aI29
aI79
aI149
aI160
aF23840.0
aF0.93125
aF0.7241191275167785
asI573
(lp780
g779
aI29
aI606
aI149
aI37
aF5513.0
aF4.027027027027027
aF0.7489570107019772
asI574
(lp781
S'Euclidis_megaresis_philosophi_platonic-0245.png'
p782
aI412
aI180
aI145
aI38
aF5510.0
aF3.8157894736842106
aF0.6969147005444646
asI575
(lp783
g782
aI412
aI395
aI145
aI180
aF26100.0
aF0.8055555555555556
aF0.6660919540229885
asI576
(lp784
g782
aI412
aI557
aI12
aI133
aF1596.0
aF0.09022556390977443
aF0.6904761904761905
asI577
(lp785
S'Euclidis_megaresis_philosophi_platonic-0246.png'
p786
aI29
aI491
aI133
aI122
aF16226.0
aF1.0901639344262295
aF0.637618636755824
asI578
(lp787
S'Euclidis_megaresis_philosophi_platonic-0247.png'
p788
aI405
aI68
aI15
aI85
aF1275.0
aF0.17647058823529413
aF0.6941176470588235
asI579
(lp789
g788
aI405
aI204
aI143
aI124
aF17732.0
aF1.153225806451613
aF0.5700992555831266
asI580
(lp790
g788
aI433
aI614
aI62
aI19
aF1178.0
aF3.263157894736842
aF0.7589134125636672
asI581
(lp791
g788
aI405
aI618
aI153
aI127
aF19431.0
aF1.204724409448819
aF0.6705264783078586
asI582
(lp792
S'Euclidis_megaresis_philosophi_platonic-0248.png'
p793
aI38
aI541
aI138
aI113
aF15594.0
aF1.2212389380530972
aF0.4553033217904322
asI583
(lp794
g793
aI71
aI586
aI71
aI31
aF2201.0
aF2.2903225806451615
aF0.6583371194911404
asI584
(lp795
S'Euclidis_megaresis_philosophi_platonic-0249.png'
p796
aI418
aI65
aI14
aI87
aF1218.0
aF0.16091954022988506
aF0.8390804597701149
asI585
(lp797
g796
aI432
aI241
aI139
aI102
aF14178.0
aF1.3627450980392157
aF0.6574975313866553
asI586
(lp798
g796
aI418
aI583
aI152
aI122
aF18544.0
aF1.2459016393442623
aF0.6474331320103538
asI587
(lp799
g796
aI418
aI834
aI114
aI31
aF3534.0
aF3.6774193548387095
aF0.8109790605546123
asI588
(lp800
S'Euclidis_megaresis_philosophi_platonic-0250.png'
p801
aI29
aI580
aI134
aI146
aF19564.0
aF0.9178082191780822
aF0.7053772234716826
asI589
(lp802
S'Euclidis_megaresis_philosophi_platonic-0251.png'
p803
aI415
aI202
aI154
aI311
aF47894.0
aF0.49517684887459806
aF0.646197853593352
asI590
(lp804
S'Euclidis_megaresis_philosophi_platonic-0252.png'
p805
aI29
aI380
aI146
aI262
aF38252.0
aF0.5572519083969466
aF0.6869444734915822
asI591
(lp806
S'Euclidis_megaresis_philosophi_platonic-0253.png'
p807
aI410
aI68
aI15
aI234
aF3510.0
aF0.0641025641025641
aF0.8527065527065527
asI592
(lp808
g807
aI492
aI296
aI59
aI19
aF1121.0
aF3.1052631578947367
aF0.656556645851918
asI593
(lp809
g807
aI410
aI347
aI146
aI261
aF38106.0
aF0.5593869731800766
aF0.6833044664882171
asI594
(lp810
g807
aI410
aI834
aI122
aI31
aF3782.0
aF3.935483870967742
aF0.8043363299841354
asI595
(lp811
S'Euclidis_megaresis_philosophi_platonic-0254.png'
p812
aI24
aI255
aI158
aI318
aF50244.0
aF0.4968553459119497
aF0.6890175941405939
asI596
(lp813
S'Euclidis_megaresis_philosophi_platonic-0255.png'
p814
aI402
aI162
aI160
aI278
aF44480.0
aF0.5755395683453237
aF0.6292715827338129
asI597
(lp815
g814
aI402
aI498
aI155
aI37
aF5735.0
aF4.1891891891891895
aF0.7053182214472538
asI598
(lp816
S'Euclidis_megaresis_philosophi_platonic-0256.png'
p817
aI38
aI181
aI141
aI165
aF23265.0
aF0.8545454545454545
aF0.7787234042553192
asI599
(lp818
S'Euclidis_megaresis_philosophi_platonic-0257.png'
p819
aI419
aI76
aI146
aI210
aF30660.0
aF0.6952380952380952
aF0.6959882583170255
asI600
(lp820
g819
aI419
aI504
aI146
aI184
aF26864.0
aF0.7934782608695652
aF0.741252233472305
asI601
(lp821
S'Euclidis_megaresis_philosophi_platonic-0258.png'
p822
aI28
aI155
aI143
aI179
aF25597.0
aF0.7988826815642458
aF0.774973629722233
asI602
(lp823
S'Euclidis_megaresis_philosophi_platonic-0259.png'
p824
aI412
aI72
aI149
aI184
aF27416.0
aF0.8097826086956522
aF0.7341333527866939
asI603
(lp825
g824
aI412
aI505
aI150
aI183
aF27450.0
aF0.819672131147541
aF0.7241530054644809
asI604
(lp826
S'Euclidis_megaresis_philosophi_platonic-0260.png'
p827
aI40
aI201
aI140
aI59
aF8260.0
aF2.3728813559322033
aF0.7207021791767555
asI605
(lp828
S'Euclidis_megaresis_philosophi_platonic-0261.png'
p829
aI412
aI95
aI141
aI89
aF12549.0
aF1.5842696629213484
aF0.5515180492469519
asI606
(lp830
g829
aI412
aI405
aI148
aI62
aF9176.0
aF2.3870967741935485
aF0.6967088055797733
asI607
(lp831
g829
aI412
aI834
aI120
aI31
aF3720.0
aF3.870967741935484
aF0.8059139784946237
asI608
(lp832
S'Euclidis_megaresis_philosophi_platonic-0262.png'
p833
aI32
aI148
aI139
aI69
aF9591.0
aF2.0144927536231885
aF0.7451777708268168
asI609
(lp834
g833
aI34
aI326
aI143
aI36
aF5148.0
aF3.9722222222222223
aF0.7348484848484849
asI610
(lp835
g833
aI35
aI363
aI144
aI36
aF5184.0
aF4.0
aF0.7143132716049383
asI611
(lp836
S'Euclidis_megaresis_philosophi_platonic-0263.png'
p837
aI411
aI76
aI151
aI161
aF24311.0
aF0.937888198757764
aF0.6330467689523261
asI612
(lp838
g837
aI414
aI328
aI149
aI132
aF19668.0
aF1.128787878787879
aF0.774303437055115
asI613
(lp839
g837
aI411
aI619
aI148
aI132
aF19536.0
aF1.121212121212121
aF0.763001638001638
asI614
(lp840
S'Euclidis_megaresis_philosophi_platonic-0265.png'
p841
aI415
aI179
aI140
aI37
aF5180.0
aF3.7837837837837838
aF0.6978764478764479
asI615
(lp842
g841
aI421
aI578
aI134
aI37
aF4958.0
aF3.6216216216216215
aF0.7148043565954014
asI616
(lp843
S'Euclidis_megaresis_philosophi_platonic-0266.png'
p844
aI31
aI223
aI144
aI157
aF22608.0
aF0.9171974522292994
aF0.5682059447983014
asI617
(lp845
g844
aI31
aI656
aI144
aI37
aF5328.0
aF3.891891891891892
aF0.7004504504504504
asI618
(lp846
S'Euclidis_megaresis_philosophi_platonic-0267.png'
p847
aI406
aI144
aI15
aI71
aF1065.0
aF0.2112676056338028
aF0.8835680751173709
asI619
(lp848
g847
aI406
aI217
aI152
aI141
aF21432.0
aF1.0780141843971631
aF0.7466405375139977
asI620
(lp849
g847
aI406
aI543
aI147
aI161
aF23667.0
aF0.9130434782608695
aF0.5921325051759835
asI621
(lp850
S'Euclidis_megaresis_philosophi_platonic-0268.png'
p851
aI28
aI385
aI147
aI38
aF5586.0
aF3.8684210526315788
aF0.7339778016469746
asI622
(lp852
S'Euclidis_megaresis_philosophi_platonic-0269.png'
p853
aI413
aI409
aI142
aI187
aF26554.0
aF0.7593582887700535
aF0.6499962340890262
asI623
(lp854
g853
aI413
aI834
aI119
aI31
aF3689.0
aF3.838709677419355
aF0.8067226890756303
asI624
(lp855
S'Euclidis_megaresis_philosophi_platonic-0270.png'
p856
aI28
aI365
aI145
aI36
aF5220.0
aF4.027777777777778
aF0.7438697318007663
asI625
(lp857
g856
aI28
aI658
aI144
aI42
aF6048.0
aF3.4285714285714284
aF0.6468253968253969
asI626
(lp858
S'Euclidis_megaresis_philosophi_platonic-0271.png'
p859
aI395
aI396
aI150
aI186
aF27900.0
aF0.8064516129032258
aF0.687168458781362
asI627
(lp860
S'Euclidis_megaresis_philosophi_platonic-0273.png'
p861
aI406
aI89
aI149
aI124
aF18476.0
aF1.2016129032258065
aF0.48820090928772464
asI628
(lp862
g861
aI448
aI144
aI73
aI34
aF2482.0
aF2.1470588235294117
aF0.7135374697824335
asI629
(lp863
g861
aI403
aI217
aI151
aI140
aF21140.0
aF1.0785714285714285
aF0.6495742667928098
asI630
(lp864
g861
aI406
aI401
aI134
aI119
aF15946.0
aF1.1260504201680672
aF0.6311300639658849
asI631
(lp865
S'Euclidis_megaresis_philosophi_platonic-0274.png'
p866
aI29
aI144
aI152
aI125
aF19000.0
aF1.216
aF0.6896842105263158
asI632
(lp867
g866
aI30
aI524
aI136
aI123
aF16728.0
aF1.1056910569105691
aF0.604794356767097
asI633
(lp868
S'Euclidis_megaresis_philosophi_platonic-0275.png'
p869
aI408
aI206
aI153
aI223
aF34119.0
aF0.6860986547085202
aF0.2915970573580703
asI634
(lp870
g869
aI454
aI268
aI72
aI33
aF2376.0
aF2.1818181818181817
aF0.6405723905723906
asI635
(lp871
g869
aI408
aI536
aI154
aI124
aF19096.0
aF1.2419354838709677
aF0.6586719731881022
asI636
(lp872
g869
aI408
aI834
aI124
aI31
aF3844.0
aF4.0
aF0.8028095733610822
asI637
(lp873
S'Euclidis_megaresis_philosophi_platonic-0276.png'
p874
aI39
aI405
aI130
aI37
aF4810.0
aF3.5135135135135136
aF0.7295218295218295
asI638
(lp875
S'Euclidis_megaresis_philosophi_platonic-0277.png'
p876
aI412
aI84
aI156
aI275
aF42900.0
aF0.5672727272727273
aF0.7183449883449884
asI639
(lp877
g876
aI412
aI834
aI120
aI31
aF3720.0
aF3.870967741935484
aF0.8059139784946237
asI640
(lp878
S'Euclidis_megaresis_philosophi_platonic-0278.png'
p879
aI15
aI223
aI144
aI156
aF22464.0
aF0.9230769230769231
aF0.5903222934472935
asI641
(lp880
g879
aI148
aI464
aI11
aI110
aF1210.0
aF0.1
aF0.8049586776859504
asI642
(lp881
g879
aI15
aI656
aI144
aI37
aF5328.0
aF3.891891891891892
aF0.6983858858858859
asI643
(lp882
S'Euclidis_megaresis_philosophi_platonic-0279.png'
p883
aI421
aI6
aI163
aI13
aF2119.0
aF12.538461538461538
aF0.854648419065597
asI644
(lp884
g883
aI421
aI224
aI149
aI136
aF20264.0
aF1.0955882352941178
aF0.7466936439005132
asI645
(lp885
g883
aI421
aI544
aI143
aI165
aF23595.0
aF0.8666666666666667
aF0.5818181818181818
asI646
(lp886
S'Euclidis_megaresis_philosophi_platonic-0280.png'
p887
aI14
aI388
aI152
aI39
aF5928.0
aF3.8974358974358974
aF0.6887651821862348
asI647
(lp888
S'Euclidis_megaresis_philosophi_platonic-0281.png'
p889
aI423
aI74
aI13
aI98
aF1274.0
aF0.1326530612244898
aF0.7668759811616954
asI648
(lp890
g889
aI423
aI410
aI143
aI186
aF26598.0
aF0.7688172043010753
aF0.6623054364989849
asI649
(lp891
g889
aI423
aI834
aI109
aI31
aF3379.0
aF3.5161290322580645
aF0.8153299792838118
asI650
(lp892
S'Euclidis_megaresis_philosophi_platonic-0282.png'
p893
aI14
aI364
aI144
aI37
aF5328.0
aF3.891891891891892
aF0.7158408408408409
asI651
(lp894
g893
aI14
aI657
aI144
aI42
aF6048.0
aF3.4285714285714284
aF0.6516203703703703
asI652
(lp895
S'Euclidis_megaresis_philosophi_platonic-0283.png'
p896
aI408
aI394
aI151
aI186
aF28086.0
aF0.8118279569892473
aF0.6789859716584775
asI653
(lp897
S'Euclidis_megaresis_philosophi_platonic-0285.png'
p898
aI418
aI88
aI140
aI124
aF17360.0
aF1.1290322580645162
aF0.6058755760368664
asI654
(lp899
g898
aI414
aI217
aI144
aI139
aF20016.0
aF1.0359712230215827
aF0.6560251798561151
asI655
(lp900
g898
aI414
aI400
aI135
aI120
aF16200.0
aF1.125
aF0.6193827160493827
asI656
(lp901
S'Euclidis_megaresis_philosophi_platonic-0286.png'
p902
aI17
aI122
aI153
aI148
aF22644.0
aF1.0337837837837838
aF0.596537714184773
asI657
(lp903
g902
aI22
aI525
aI136
aI124
aF16864.0
aF1.096774193548387
aF0.6003913662239089
asI658
(lp904
S'Euclidis_megaresis_philosophi_platonic-0287.png'
p905
aI418
aI206
aI152
aI227
aF34504.0
aF0.6696035242290749
aF0.2863146301878043
asI659
(lp906
g905
aI464
aI268
aI73
aI34
aF2482.0
aF2.1470588235294117
aF0.6353746978243352
asI660
(lp907
g905
aI418
aI536
aI154
aI124
aF19096.0
aF1.2419354838709677
aF0.6550062840385421
asI661
(lp908
g905
aI418
aI834
aI114
aI31
aF3534.0
aF3.6774193548387095
aF0.8109790605546123
asI662
(lp909
S'Euclidis_megaresis_philosophi_platonic-0288.png'
p910
aI26
aI404
aI130
aI37
aF4810.0
aF3.5135135135135136
aF0.7176715176715177
asI663
(lp911
S'Euclidis_megaresis_philosophi_platonic-0289.png'
p912
aI421
aI82
aI147
aI276
aF40572.0
aF0.532608695652174
aF0.7413733609385783
asI664
(lp913
S'Euclidis_megaresis_philosophi_platonic-0290.png'
p914
aI19
aI171
aI148
aI296
aF43808.0
aF0.5
aF0.7184304236669101
asI665
(lp915
S'Euclidis_megaresis_philosophi_platonic-0291.png'
p916
aI426
aI75
aI155
aI313
aF48515.0
aF0.4952076677316294
aF0.6678759146655674
asI666
(lp917
g916
aI426
aI834
aI106
aI31
aF3286.0
aF3.4193548387096775
aF0.8174071819841753
asI667
(lp918
S'Euclidis_megaresis_philosophi_platonic-0292.png'
p919
aI9
aI139
aI158
aI275
aF43450.0
aF0.5745454545454546
aF0.7209666283084004
asI668
(lp920
S'Euclidis_megaresis_philosophi_platonic-0293.png'
p921
aI423
aI113
aI154
aI295
aF45430.0
aF0.5220338983050847
aF0.726766453885098
asI669
(lp922
g921
aI423
aI529
aI15
aI215
aF3225.0
aF0.06976744186046512
aF0.8223255813953488
asI670
(lp923
g921
aI423
aI834
aI109
aI31
aF3379.0
aF3.5161290322580645
aF0.8153299792838118
asI671
(lp924
S'Euclidis_megaresis_philosophi_platonic-0294.png'
p925
aI13
aI92
aI152
aI267
aF40584.0
aF0.5692883895131086
aF0.7370638675340035
asI672
(lp926
g925
aI13
aI513
aI144
aI178
aF25632.0
aF0.8089887640449438
aF0.7807818352059925
asI673
(lp927
S'Euclidis_megaresis_philosophi_platonic-0295.png'
p928
aI423
aI525
aI149
aI219
aF32631.0
aF0.680365296803653
aF0.602862308847415
asI674
(lp929
g928
aI423
aI834
aI109
aI31
aF3379.0
aF3.5161290322580645
aF0.8153299792838118
asI675
(lp930
S'Euclidis_megaresis_philosophi_platonic-0296.png'
p931
aI10
aI452
aI142
aI177
aF25134.0
aF0.8022598870056498
aF0.7453648444338347
asI676
(lp932
S'Euclidis_megaresis_philosophi_platonic-0297.png'
p933
aI415
aI487
aI153
aI257
aF39321.0
aF0.5953307392996109
aF0.6345209938709595
asI677
(lp934
g933
aI513
aI677
aI47
aI42
aF1974.0
aF1.119047619047619
aF0.46403242147923
asI678
(lp935
g933
aI415
aI834
aI117
aI31
aF3627.0
aF3.774193548387097
aF0.8083815825751309
asI679
(lp936
S'Euclidis_megaresis_philosophi_platonic-0298.png'
p937
aI12
aI559
aI159
aI175
aF27825.0
aF0.9085714285714286
aF0.7301707097933513
asI680
(lp938
S'Euclidis_megaresis_philosophi_platonic-0299.png'
p939
aI419
aI473
aI146
aI270
aF39420.0
aF0.5407407407407407
aF0.5609335362760021
asI681
(lp940
S'Euclidis_megaresis_philosophi_platonic-0300.png'
p941
aI20
aI409
aI139
aI62
aF8618.0
aF2.2419354838709675
aF0.7196565328382455
asI682
(lp942
S'Euclidis_megaresis_philosophi_platonic-0301.png'
p943
aI420
aI102
aI139
aI65
aF9035.0
aF2.1384615384615384
aF0.678693967902601
asI683
(lp944
g943
aI427
aI381
aI139
aI68
aF9452.0
aF2.0441176470588234
aF0.7253491324587389
asI684
(lp945
g943
aI414
aI461
aI15
aI160
aF2400.0
aF0.09375
aF0.5654166666666667
asI685
(lp946
g943
aI414
aI657
aI152
aI77
aF11704.0
aF1.974025974025974
aF0.6010765550239234
asI686
(lp947
S'Euclidis_megaresis_philosophi_platonic-0302.png'
p948
aI26
aI253
aI143
aI68
aF9724.0
aF2.1029411764705883
aF0.7502056766762649
asI687
(lp949
g948
aI26
aI494
aI143
aI131
aF18733.0
aF1.0916030534351144
aF0.794640474029787
asI688
(lp950
S'Euclidis_megaresis_philosophi_platonic-0303.png'
p951
aI416
aI117
aI153
aI129
aF19737.0
aF1.186046511627907
aF0.7921163297360287
asI689
(lp952
g951
aI416
aI458
aI159
aI129
aF20511.0
aF1.2325581395348837
aF0.8127833845253766
asI690
(lp953
g951
aI416
aI608
aI13
aI128
aF1664.0
aF0.1015625
aF0.7602163461538461
asI691
(lp954
g951
aI416
aI834
aI116
aI31
aF3596.0
aF3.7419354838709675
aF0.8086763070077865
asI692
(lp955
S'Euclidis_megaresis_philosophi_platonic-0304.png'
p956
aI81
aI128
aI62
aI24
aF1488.0
aF2.5833333333333335
aF0.5342741935483871
asI693
(lp957
g956
aI16
aI164
aI142
aI123
aF17466.0
aF1.1544715447154472
aF0.5754036413603573
asI694
(lp958
g956
aI117
aI465
aI37
aI41
aF1517.0
aF0.9024390243902439
aF0.4930784442979565
asI695
(lp959
S'Euclidis_megaresis_philosophi_platonic-0305.png'
p960
aI402
aI73
aI30
aI106
aF3180.0
aF0.2830188679245283
aF0.9110062893081761
asI696
(lp961
g960
aI402
aI265
aI179
aI481
aF86099.0
aF0.37214137214137216
aF0.3233951613839882
asI697
(lp962
S'Euclidis_megaresis_philosophi_platonic-0306.png'
p963
aI152
aI81
aI13
aI127
aF1651.0
aF0.10236220472440945
aF0.788007268322229
asI698
(lp964
g963
aI52
aI312
aI113
aI52
aF5876.0
aF2.173076923076923
aF0.48876786929884275
asI699
(lp965
g963
aI18
aI388
aI131
aI130
aF17030.0
aF1.0076923076923077
aF0.5913094539048738
asI700
(lp966
S'Euclidis_megaresis_philosophi_platonic-0307.png'
p967
aI420
aI416
aI156
aI119
aF18564.0
aF1.3109243697478992
aF0.6415104503339798
asI701
(lp968
g967
aI420
aI834
aI112
aI31
aF3472.0
aF3.6129032258064515
aF0.8130760368663594
asI702
(lp969
S'Euclidis_megaresis_philosophi_platonic-0308.png'
p970
aI21
aI145
aI130
aI93
aF12090.0
aF1.3978494623655915
aF0.6413564929693962
asI703
(lp971
g970
aI17
aI298
aI141
aI108
aF15228.0
aF1.3055555555555556
aF0.5334909377462569
asI704
(lp972
g970
aI17
aI518
aI144
aI159
aF22896.0
aF0.9056603773584906
aF0.5964360587002097
asI705
(lp973
S'Euclidis_megaresis_philosophi_platonic-0309.png'
p974
aI420
aI83
aI144
aI153
aF22032.0
aF0.9411764705882353
aF0.5949981844589688
asI706
(lp975
g974
aI420
aI287
aI144
aI241
aF34704.0
aF0.5975103734439834
aF0.5649781005071461
asI707
(lp976
g974
aI434
aI530
aI78
aI31
aF2418.0
aF2.5161290322580645
aF0.48180314309346567
asI708
(lp977
S'Euclidis_megaresis_philosophi_platonic-0310.png'
p978
aI21
aI73
aI146
aI217
aF31682.0
aF0.6728110599078341
aF0.5920712076257812
asI709
(lp979
g978
aI86
aI291
aI53
aI28
aF1484.0
aF1.8928571428571428
aF0.6347708894878706
asI710
(lp980
g978
aI71
aI335
aI79
aI49
aF3871.0
aF1.6122448979591837
aF0.43089640919659
asI711
(lp981
g978
aI21
aI407
aI146
aI168
aF24528.0
aF0.8690476190476191
aF0.6187622309197651
asI712
(lp982
S'Euclidis_megaresis_philosophi_platonic-0311.png'
p983
aI429
aI108
aI138
aI288
aF39744.0
aF0.4791666666666667
aF0.45169082125603865
asI713
(lp984
g983
aI506
aI137
aI31
aI60
aF1860.0
aF0.5166666666666667
aF0.6741935483870968
asI714
(lp985
S'Euclidis_megaresis_philosophi_platonic-0313.png'
p986
aI184
aI35
aI95
aI37
aF3515.0
aF2.5675675675675675
aF0.8307254623044097
asI715
(lp987
g986
aI160
aI87
aI272
aI654
aF177888.0
aF0.41590214067278286
aF0.7899577262097499
asI716
(lp988
g986
aI503
aI227
aI47
aI25
aF1175.0
aF1.88
aF0.49617021276595746
asI717
(lp989
g986
aI499
aI589
aI56
aI121
aF6776.0
aF0.4628099173553719
aF0.3674734356552538
asI718
(lp990
g986
aI457
aI694
aI33
aI37
aF1221.0
aF0.8918918918918919
aF0.6175266175266175
asI719
(lp991
S'Euclidis_megaresis_philosophi_platonic-0314.png'
p992
aI14
aI195
aI141
aI60
aF8460.0
aF2.35
aF0.47470449172576834
asI720
(lp993
g992
aI14
aI322
aI148
aI171
aF25308.0
aF0.8654970760233918
aF0.4688636004425478
asI721
(lp994
g992
aI14
aI516
aI125
aI221
aF27625.0
aF0.5656108597285068
aF0.7032036199095023
asI722
(lp995
S'Euclidis_megaresis_philosophi_platonic-0315.png'
p996
aI414
aI175
aI146
aI219
aF31974.0
aF0.6666666666666666
aF0.6854631888409333
asI723
(lp997
S'Euclidis_megaresis_philosophi_platonic-0316.png'
p998
aI18
aI101
aI148
aI161
aF23828.0
aF0.9192546583850931
aF0.5418834984052375
asI724
(lp999
g998
aI20
aI425
aI138
aI197
aF27186.0
aF0.700507614213198
aF0.5386963878466858
asI725
(lp1000
S'Euclidis_megaresis_philosophi_platonic-0317.png'
p1001
aI424
aI139
aI145
aI161
aF23345.0
aF0.9006211180124224
aF0.4558149496680231
asI726
(lp1002
g1001
aI502
aI346
aI40
aI41
aF1640.0
aF0.975609756097561
aF0.5201219512195122
asI727
(lp1003
g1001
aI418
aI418
aI151
aI309
aF46659.0
aF0.4886731391585761
aF0.45676075355236934
asI728
(lp1004
g1001
aI516
aI635
aI53
aI59
aF3127.0
aF0.8983050847457628
aF0.3898305084745763
asI729
(lp1005
S'Euclidis_megaresis_philosophi_platonic-0318.png'
p1006
aI42
aI126
aI87
aI48
aF4176.0
aF1.8125
aF0.540948275862069
asI730
(lp1007
g1006
aI23
aI237
aI138
aI153
aF21114.0
aF0.9019607843137255
aF0.5786208203087998
asI731
(lp1008
g1006
aI23
aI484
aI144
aI220
aF31680.0
aF0.6545454545454545
aF0.5576388888888889
asI732
(lp1009
S'Euclidis_megaresis_philosophi_platonic-0319.png'
p1010
aI421
aI200
aI158
aI171
aF27018.0
aF0.9239766081871345
aF0.488674217188541
asI733
(lp1011
g1010
aI509
aI486
aI35
aI150
aF5250.0
aF0.23333333333333334
aF0.6944761904761905
asI734
(lp1012
g1010
aI466
aI487
aI33
aI149
aF4917.0
aF0.2214765100671141
aF0.7136465324384788
asI735
(lp1013
g1010
aI428
aI644
aI142
aI77
aF10934.0
aF1.844155844155844
aF0.5621913297969636
asI736
(lp1014
S'Euclidis_megaresis_philosophi_platonic-0320.png'
p1015
aI21
aI328
aI140
aI183
aF25620.0
aF0.7650273224043715
aF0.5882123341139734
asI737
(lp1016
S'Euclidis_megaresis_philosophi_platonic-0321.png'
p1017
aI389
aI70
aI186
aI283
aF52638.0
aF0.657243816254417
aF0.41071089327102095
asI738
(lp1018
g1017
aI389
aI371
aI179
aI253
aF45287.0
aF0.7075098814229249
aF0.5357828957537483
asI739
(lp1019
g1017
aI389
aI623
aI40
aI27
aF1080.0
aF1.4814814814814814
aF0.8453703703703703
asI740
(lp1020
g1017
aI389
aI668
aI40
aI89
aF3560.0
aF0.449438202247191
aF0.8497191011235955
asI741
(lp1021
S'Euclidis_megaresis_philosophi_platonic-0322.png'
p1022
aI16
aI58
aI151
aI286
aF43186.0
aF0.527972027972028
aF0.7222711063770666
asI742
(lp1023
g1022
aI16
aI361
aI148
aI144
aF21312.0
aF1.0277777777777777
aF0.6524493243243243
asI743
(lp1024
S'Euclidis_megaresis_philosophi_platonic-0323.png'
p1025
aI448
aI42
aI101
aI208
aF21008.0
aF0.4855769230769231
aF0.6267136329017517
asI744
(lp1026
g1025
aI425
aI264
aI150
aI144
aF21600.0
aF1.0416666666666667
aF0.5306481481481482
asI745
(lp1027
g1025
aI425
aI573
aI150
aI168
aF25200.0
aF0.8928571428571429
aF0.5109126984126984
asI746
(lp1028
S'Euclidis_megaresis_philosophi_platonic-0324.png'
p1029
aI19
aI294
aI151
aI199
aF30049.0
aF0.7587939698492462
aF0.5043096276082398
asI747
(lp1030
g1029
aI65
aI615
aI42
aI76
aF3192.0
aF0.5526315789473685
aF0.4057017543859649
asI748
(lp1031
g1029
aI109
aI653
aI30
aI60
aF1800.0
aF0.5
aF0.5122222222222222
asI749
(lp1032
S'Euclidis_megaresis_philosophi_platonic-0325.png'
p1033
aI426
aI83
aI150
aI130
aF19500.0
aF1.1538461538461537
aF0.5272307692307693
asI750
(lp1034
g1033
aI453
aI206
aI102
aI104
aF10608.0
aF0.9807692307692307
aF0.48699095022624433
asI751
(lp1035
g1033
aI426
aI352
aI150
aI197
aF29550.0
aF0.7614213197969543
aF0.4379357021996616
asI752
(lp1036
g1033
aI426
aI550
aI150
aI187
aF28050.0
aF0.8021390374331551
aF0.49472370766488416
asI753
(lp1037
S'Euclidis_megaresis_philosophi_platonic-0326.png'
p1038
aI18
aI423
aI153
aI309
aF47277.0
aF0.49514563106796117
aF0.6142944772299427
asI754
(lp1039
S'Euclidis_megaresis_philosophi_platonic-0327.png'
p1040
aI417
aI102
aI151
aI296
aF44696.0
aF0.5101351351351351
aF0.6223375693574369
asI755
(lp1041
g1040
aI417
aI456
aI151
aI309
aF46659.0
aF0.4886731391585761
aF0.6200947298484751
asI756
(lp1042
g1040
aI417
aI834
aI115
aI31
aF3565.0
aF3.7096774193548385
aF0.8100981767180926
asI757
(lp1043
S'Euclidis_megaresis_philosophi_platonic-0328.png'
p1044
aI21
aI95
aI144
aI125
aF18000.0
aF1.152
aF0.543
asI758
(lp1045
g1044
aI21
aI243
aI129
aI190
aF24510.0
aF0.6789473684210526
aF0.6718482252141983
asI759
(lp1046
g1044
aI21
aI444
aI138
aI286
aF39468.0
aF0.4825174825174825
aF0.9100283774196818
asI760
(lp1047
S'Euclidis_megaresis_philosophi_platonic-0329.png'
p1048
aI420
aI461
aI140
aI271
aF37940.0
aF0.5166051660516605
aF0.5808381655245124
asI761
(lp1049
S'Euclidis_megaresis_philosophi_platonic-0330.png'
p1050
aI14
aI442
aI153
aI294
aF44982.0
aF0.5204081632653061
aF0.6478369125427949
asI762
(lp1051
S'Euclidis_megaresis_philosophi_platonic-0331.png'
p1052
aI414
aI112
aI149
aI165
aF24585.0
aF0.9030303030303031
aF0.6813910921293471
asI763
(lp1053
g1052
aI414
aI289
aI151
aI77
aF11627.0
aF1.9610389610389611
aF0.7191020899630172
asI764
(lp1054
g1052
aI416
aI378
aI158
aI343
aF54194.0
aF0.4606413994169096
aF0.6257888327121084
asI765
(lp1055
S'Euclidis_megaresis_philosophi_platonic-0332.png'
p1056
aI19
aI84
aI155
aI188
aF29140.0
aF0.824468085106383
aF0.7690803019903912
asI766
(lp1057
g1056
aI159
aI340
aI15
aI74
aF1110.0
aF0.20270270270270271
aF0.8225225225225226
asI767
(lp1058
S'Euclidis_megaresis_philosophi_platonic-0333.png'
p1059
aI243
aI35
aI49
aI34
aF1666.0
aF1.4411764705882353
aF0.8847539015606243
asI768
(lp1060
g1059
aI243
aI74
aI327
aI703
aF229881.0
aF0.465149359886202
aF0.6346066008065042
asI769
(lp1061
S'Euclidis_megaresis_philosophi_platonic-0334.png'
p1062
aI18
aI58
aI153
aI627
aF95931.0
aF0.24401913875598086
aF0.7243122661079318
asI770
(lp1063
S'Euclidis_megaresis_philosophi_platonic-0335.png'
p1064
aI421
aI408
aI152
aI330
aF50160.0
aF0.46060606060606063
aF0.7238636363636364
asI771
(lp1065
S'Euclidis_megaresis_philosophi_platonic-0336.png'
p1066
aI21
aI358
aI149
aI377
aF56173.0
aF0.3952254641909814
aF0.7628041941858188
asI772
(lp1067
S'Euclidis_megaresis_philosophi_platonic-0337.png'
p1068
aI422
aI662
aI13
aI82
aF1066.0
aF0.15853658536585366
aF0.5853658536585366
asI773
(lp1069
g1068
aI422
aI834
aI110
aI31
aF3410.0
aF3.5483870967741935
aF0.8146627565982405
asI774
(lp1070
S'Euclidis_megaresis_philosophi_platonic-0338.png'
p1071
aI22
aI89
aI140
aI122
aF17080.0
aF1.1475409836065573
aF0.5620023419203747
asI775
(lp1072
g1071
aI22
aI209
aI148
aI111
aF16428.0
aF1.3333333333333333
aF0.6195519844168493
asI776
(lp1073
S'Euclidis_megaresis_philosophi_platonic-0339.png'
p1074
aI373
aI79
aI198
aI674
aF133452.0
aF0.29376854599406527
aF0.6268545994065282
asI777
(lp1075
S'Euclidis_megaresis_philosophi_platonic-0340.png'
p1076
aI23
aI88
aI145
aI232
aF33640.0
aF0.625
aF0.5873662306777646
asI778
(lp1077
S'Euclidis_megaresis_philosophi_platonic-0341.png'
p1078
aI373
aI80
aI199
aI682
aF135718.0
aF0.29178885630498536
aF0.6182967624043973
asI779
(lp1079
S'Euclidis_megaresis_philosophi_platonic-0342.png'
p1080
aI18
aI265
aI144
aI103
aF14832.0
aF1.3980582524271845
aF0.5997168284789643
asI780
(lp1081
g1080
aI33
aI475
aI137
aI251
aF34387.0
aF0.545816733067729
aF0.665949341320848
asI781
(lp1082
S'Euclidis_megaresis_philosophi_platonic-0343.png'
p1083
aI446
aI363
aI140
aI307
aF42980.0
aF0.4560260586319218
aF0.7164029781293625
asI782
(lp1084
g1083
aI423
aI389
aI30
aI273
aF8190.0
aF0.10989010989010989
aF0.5416361416361416
asI783
(lp1085
g1083
aI543
aI828
aI43
aI33
aF1419.0
aF1.303030303030303
aF0.7343199436222692
asI784
(lp1086
S'Euclidis_megaresis_philosophi_platonic-0344.png'
p1087
aI10
aI184
aI151
aI286
aF43186.0
aF0.527972027972028
aF0.6748251748251748
asI785
(lp1088
S'Euclidis_megaresis_philosophi_platonic-0345.png'
p1089
aI420
aI49
aI154
aI304
aF46816.0
aF0.506578947368421
aF0.5836466165413534
asI786
(lp1090
g1089
aI497
aI347
aI71
aI63
aF4473.0
aF1.126984126984127
aF0.8323272971160295
asI787
(lp1091
S'Euclidis_megaresis_philosophi_platonic-0346.png'
p1092
aI21
aI77
aI148
aI317
aF46916.0
aF0.4668769716088328
aF0.49484184499957373
asI788
(lp1093
g1092
aI21
aI401
aI143
aI157
aF22451.0
aF0.910828025477707
aF0.5673689367956883
asI789
(lp1094
S'Euclidis_megaresis_philosophi_platonic-0348.png'
p1095
aI28
aI197
aI138
aI287
aF39606.0
aF0.4808362369337979
aF0.6094026157652881
asI790
(lp1096
S'Euclidis_megaresis_philosophi_platonic-0349.png'
p1097
aI414
aI367
aI150
aI397
aF59550.0
aF0.3778337531486146
aF0.5426868178001679
asI791
(lp1098
S'Euclidis_megaresis_philosophi_platonic-0350.png'
p1099
aI166
aI82
aI19
aI321
aF6099.0
aF0.059190031152647975
aF0.8789965568125923
asI792
(lp1100
g1099
aI23
aI447
aI162
aI304
aF49248.0
aF0.5328947368421053
aF0.5142137751786875
asI793
(lp1101
S'Euclidis_megaresis_philosophi_platonic-0351.png'
p1102
aI418
aI149
aI149
aI201
aF29949.0
aF0.7412935323383084
aF0.6105379144545727
asI794
(lp1103
g1102
aI418
aI441
aI14
aI107
aF1498.0
aF0.1308411214953271
aF0.5794392523364486
asI795
(lp1104
g1102
aI418
aI561
aI13
aI101
aF1313.0
aF0.12871287128712872
aF0.7044935262757045
asI796
(lp1105
g1102
aI418
aI834
aI114
aI31
aF3534.0
aF3.6774193548387095
aF0.8109790605546123
asI797
(lp1106
S'Euclidis_megaresis_philosophi_platonic-0352.png'
p1107
aI32
aI226
aI139
aI297
aF41283.0
aF0.468013468013468
aF0.7994574037739506
asI798
(lp1108
S'Euclidis_megaresis_philosophi_platonic-0353.png'
p1109
aI422
aI208
aI161
aI308
aF49588.0
aF0.5227272727272727
aF0.8080584012261031
asI799
(lp1110
g1109
aI422
aI538
aI14
aI211
aF2954.0
aF0.06635071090047394
aF0.6953283683141503
asI800
(lp1111
g1109
aI422
aI834
aI110
aI31
aF3410.0
aF3.5483870967741935
aF0.8146627565982405
asI801
(lp1112
S'Euclidis_megaresis_philosophi_platonic-0354.png'
p1113
aI15
aI248
aI154
aI168
aF25872.0
aF0.9166666666666666
aF0.5290275200989487
asI802
(lp1114
g1113
aI153
aI670
aI16
aI79
aF1264.0
aF0.20253164556962025
aF0.615506329113924
asI803
(lp1115
S'Euclidis_megaresis_philosophi_platonic-0355.png'
p1116
aI428
aI187
aI155
aI166
aF25730.0
aF0.9337349397590361
aF0.716206762534007
asI804
(lp1117
S'Euclidis_megaresis_philosophi_platonic-0356.png'
p1118
aI14
aI185
aI153
aI344
aF52632.0
aF0.44476744186046513
aF0.7126842985256118
asI805
(lp1119
S'Euclidis_megaresis_philosophi_platonic-0357.png'
p1120
aI426
aI384
aI148
aI374
aF55352.0
aF0.39572192513368987
aF0.6661186587657176
asI806
(lp1121
g1120
aI426
aI834
aI106
aI31
aF3286.0
aF3.4193548387096775
aF0.8174071819841753
asI807
(lp1122
S'Euclidis_megaresis_philosophi_platonic-0359.png'
p1123
aI421
aI412
aI11
aI100
aF1100.0
aF0.11
aF0.6827272727272727
asI808
(lp1124
g1123
aI421
aI534
aI13
aI118
aF1534.0
aF0.11016949152542373
aF0.8683181225554107
asI809
(lp1125
g1123
aI421
aI677
aI22
aI85
aF1870.0
aF0.25882352941176473
aF0.6203208556149733
asI810
(lp1126
g1123
aI421
aI834
aI111
aI31
aF3441.0
aF3.5806451612903225
aF0.8142981691368788
asI811
(lp1127
S'Euclidis_megaresis_philosophi_platonic-0360.png'
p1128
aI7
aI83
aI151
aI366
aF55266.0
aF0.412568306010929
aF0.8027358592986646
asI812
(lp1129
S'Euclidis_megaresis_philosophi_platonic-0361.png'
p1130
aI422
aI85
aI158
aI670
aF105860.0
aF0.23582089552238805
aF0.612592102777253
asI813
(lp1131
S'Euclidis_megaresis_philosophi_platonic-0362.png'
p1132
aI12
aI456
aI164
aI155
aF25420.0
aF1.0580645161290323
aF0.6765538945712037
asI814
(lp1133
S'Euclidis_megaresis_philosophi_platonic-0363.png'
p1134
aI276
aI51
aI295
aI345
aF101775.0
aF0.855072463768116
aF0.5116973716531564
asI815
(lp1135
g1134
aI276
aI405
aI155
aI350
aF54250.0
aF0.44285714285714284
aF0.9703041474654378
asI816
(lp1136
S'Euclidis_megaresis_philosophi_platonic-0364.png'
p1137
aI27
aI471
aI130
aI133
aF17290.0
aF0.9774436090225563
aF0.805320994794679
asI817
(lp1138
g1137
aI27
aI609
aI123
aI130
aF15990.0
aF0.9461538461538461
aF0.8510944340212633
asI818
(lp1139
S'Euclidis_megaresis_philosophi_platonic-0365.png'
p1140
aI275
aI38
aI148
aI96
aF14208.0
aF1.5416666666666667
aF0.6230292792792793
asI819
(lp1141
g1140
aI275
aI143
aI289
aI621
aF179469.0
aF0.46537842190016104
aF0.532738244487906
asI820
(lp1142
g1140
aI400
aI834
aI132
aI31
aF4092.0
aF4.258064516129032
aF0.7849462365591398
asI821
(lp1143
S'Euclidis_megaresis_philosophi_platonic-0366.png'
p1144
aI24
aI144
aI147
aI279
aF41013.0
aF0.5268817204301075
aF0.5942018384414698
asI822
(lp1145
g1144
aI24
aI426
aI152
aI145
aF22040.0
aF1.0482758620689656
aF0.37427404718693286
asI823
(lp1146
S'Euclidis_megaresis_philosophi_platonic-0367.png'
p1147
aI421
aI82
aI158
aI267
aF42186.0
aF0.5917602996254682
aF0.45635992983454227
asI824
(lp1148
g1147
aI421
aI347
aI154
aI50
aF7700.0
aF3.08
aF0.8389610389610389
asI825
(lp1149
g1147
aI421
aI509
aI153
aI204
aF31212.0
aF0.75
aF0.5730488273740869
asI826
(lp1150
S'Euclidis_megaresis_philosophi_platonic-0368.png'
p1151
aI15
aI137
aI154
aI287
aF44198.0
aF0.5365853658536586
aF0.5631702791981538
asI827
(lp1152
g1151
aI15
aI427
aI151
aI145
aF21895.0
aF1.0413793103448277
aF0.37136332496003654
asI828
(lp1153
S'Euclidis_megaresis_philosophi_platonic-0369.png'
p1154
aI415
aI147
aI156
aI199
aF31044.0
aF0.7839195979899497
aF0.5577245200360779
asI829
(lp1155
g1154
aI415
aI346
aI154
aI49
aF7546.0
aF3.142857142857143
aF0.8574078982242248
asI830
(lp1156
g1154
aI415
aI506
aI158
aI206
aF32548.0
aF0.7669902912621359
aF0.5941686125107534
asI831
(lp1157
g1154
aI415
aI639
aI15
aI99
aF1485.0
aF0.15151515151515152
aF0.6525252525252525
asI832
(lp1158
S'Euclidis_megaresis_philosophi_platonic-0370.png'
p1159
aI19
aI511
aI147
aI197
aF28959.0
aF0.7461928934010152
aF0.7404951828447115
asI833
(lp1160
S'Euclidis_megaresis_philosophi_platonic-0371.png'
p1161
aI407
aI182
aI166
aI197
aF32702.0
aF0.8426395939086294
aF0.6212464069475873
asI834
(lp1162
g1161
aI407
aI552
aI152
aI146
aF22192.0
aF1.0410958904109588
aF0.6625360490266763
asI835
(lp1163
S'Euclidis_megaresis_philosophi_platonic-0372.png'
p1164
aI25
aI143
aI139
aI38
aF5282.0
aF3.6578947368421053
aF0.7434683831881863
asI836
(lp1165
g1164
aI28
aI543
aI143
aI40
aF5720.0
aF3.575
aF0.7552447552447552
asI837
(lp1166
S'Euclidis_megaresis_philosophi_platonic-0373.png'
p1167
aI420
aI328
aI144
aI37
aF5328.0
aF3.891891891891892
aF0.7486861861861862
asI838
(lp1168
g1167
aI417
aI834
aI115
aI31
aF3565.0
aF3.7096774193548385
aF0.8100981767180926
asI839
(lp1169
S'Euclidis_megaresis_philosophi_platonic-0374.png'
p1170
aI22
aI279
aI149
aI39
aF5811.0
aF3.8205128205128207
aF0.7651006711409396
asI840
(lp1171
g1170
aI60
aI336
aI57
aI24
aF1368.0
aF2.375
aF0.6198830409356725
asI841
(lp1172
g1170
aI22
aI381
aI139
aI39
aF5421.0
aF3.5641025641025643
aF0.7133370226895407
asI842
(lp1173
g1170
aI22
aI470
aI149
aI40
aF5960.0
aF3.725
aF0.7087248322147651
asI843
(lp1174
S'Euclidis_megaresis_philosophi_platonic-0375.png'
p1175
aI440
aI108
aI124
aI136
aF16864.0
aF0.9117647058823529
aF0.5948173624288425
asI844
(lp1176
g1175
aI424
aI551
aI154
aI156
aF24024.0
aF0.9871794871794872
aF0.5910339660339661
asI845
(lp1177
S'Euclidis_megaresis_philosophi_platonic-0376.png'
p1178
aI20
aI484
aI144
aI238
aF34272.0
aF0.6050420168067226
aF0.47397292250233425
asI846
(lp1179
S'Euclidis_megaresis_philosophi_platonic-0377.png'
p1180
aI418
aI212
aI158
aI179
aF28282.0
aF0.88268156424581
aF0.6299766636022912
asI847
(lp1181
g1180
aI418
aI626
aI12
aI128
aF1536.0
aF0.09375
aF0.7884114583333334
asI848
(lp1182
S'Euclidis_megaresis_philosophi_platonic-0378.png'
p1183
aI17
aI221
aI149
aI186
aF27714.0
aF0.8010752688172043
aF0.6488417406365014
asI849
(lp1184
S'Euclidis_megaresis_philosophi_platonic-0379.png'
p1185
aI432
aI207
aI125
aI42
aF5250.0
aF2.9761904761904763
aF0.5897142857142857
asI850
(lp1186
g1185
aI416
aI540
aI156
aI191
aF29796.0
aF0.8167539267015707
aF0.6019264330782655
asI851
(lp1187
S'Euclidis_megaresis_philosophi_platonic-0380.png'
p1188
aI25
aI195
aI137
aI209
aF28633.0
aF0.6555023923444976
aF0.6923130653441832
asI852
(lp1189
S'Euclidis_megaresis_philosophi_platonic-0381.png'
p1190
aI411
aI53
aI154
aI307
aF47278.0
aF0.501628664495114
aF0.519142095689327
asI853
(lp1191
g1190
aI411
aI415
aI157
aI347
aF54479.0
aF0.45244956772334294
aF0.5931092714623983
asI854
(lp1192
S'Euclidis_megaresis_philosophi_platonic-0382.png'
p1193
aI31
aI194
aI141
aI209
aF29469.0
aF0.6746411483253588
aF0.6980555838338593
asI855
(lp1194
S'Euclidis_megaresis_philosophi_platonic-0383.png'
p1195
aI411
aI54
aI151
aI307
aF46357.0
aF0.49185667752442996
aF0.5277735832776064
asI856
(lp1196
g1195
aI411
aI416
aI151
aI345
aF52095.0
aF0.43768115942028984
aF0.6138400998176409
asI857
(lp1197
S'Euclidis_megaresis_philosophi_platonic-0384.png'
p1198
aI16
aI413
aI153
aI270
aF41310.0
aF0.5666666666666667
aF0.6957879448075527
asI858
(lp1199
S'Euclidis_megaresis_philosophi_platonic-0385.png'
p1200
aI414
aI206
aI144
aI269
aF38736.0
aF0.5353159851301115
aF0.5654171829822388
asI859
(lp1201
g1200
aI432
aI536
aI128
aI91
aF11648.0
aF1.4065934065934067
aF0.6084306318681318
asI860
(lp1202
S'Euclidis_megaresis_philosophi_platonic-0386.png'
p1203
aI166
aI81
aI11
aI125
aF1375.0
aF0.088
aF0.7621818181818182
asI861
(lp1204
g1203
aI129
aI346
aI41
aI26
aF1066.0
aF1.5769230769230769
aF0.7729831144465291
asI862
(lp1205
S'Euclidis_megaresis_philosophi_platonic-0387.png'
p1206
aI344
aI83
aI85
aI211
aF17935.0
aF0.4028436018957346
aF0.9205464176191803
asI863
(lp1207
g1206
aI344
aI297
aI82
aI77
aF6314.0
aF1.0649350649350648
aF0.9089325308837504
asI864
(lp1208
g1206
aI344
aI371
aI212
aI393
aF83316.0
aF0.539440203562341
aF0.5305463536415574
asI865
(lp1209
S'Euclidis_megaresis_philosophi_platonic-0388.png'
p1210
aI151
aI81
aI15
aI109
aF1635.0
aF0.13761467889908258
aF0.8311926605504587
asI866
(lp1211
g1210
aI153
aI200
aI13
aI98
aF1274.0
aF0.1326530612244898
aF0.7990580847723705
asI867
(lp1212
S'Euclidis_megaresis_philosophi_platonic-0389.png'
p1213
aI418
aI72
aI16
aI146
aF2336.0
aF0.1095890410958904
aF0.704195205479452
asI868
(lp1214
g1213
aI418
aI240
aI146
aI188
aF27448.0
aF0.776595744680851
aF0.6832191780821918
asI869
(lp1215
S'Euclidis_megaresis_philosophi_platonic-0390.png'
p1216
aI26
aI243
aI145
aI171
aF24795.0
aF0.847953216374269
aF0.6145190562613431
asI870
(lp1217
S'Euclidis_megaresis_philosophi_platonic-0391.png'
p1218
aI426
aI101
aI147
aI153
aF22491.0
aF0.9607843137254902
aF0.6415010448623893
asI871
(lp1219
g1218
aI426
aI345
aI147
aI207
aF30429.0
aF0.7101449275362319
aF0.7243090472904138
asI872
(lp1220
g1218
aI426
aI834
aI106
aI31
aF3286.0
aF3.4193548387096775
aF0.8174071819841753
asI873
(lp1221
S'Euclidis_megaresis_philosophi_platonic-0392.png'
p1222
aI79
aI393
aI27
aI45
aF1215.0
aF0.6
aF0.582716049382716
asI874
(lp1223
S'Euclidis_megaresis_philosophi_platonic-0393.png'
p1224
aI425
aI274
aI16
aI142
aF2272.0
aF0.11267605633802817
aF0.5827464788732394
asI875
(lp1225
g1224
aI425
aI503
aI142
aI162
aF23004.0
aF0.8765432098765432
aF0.5764214919144497
asI876
(lp1226
S'Euclidis_megaresis_philosophi_platonic-0394.png'
p1227
aI12
aI206
aI154
aI457
aF70378.0
aF0.33698030634573306
aF0.5081843757992555
asI877
(lp1228
S'Euclidis_megaresis_philosophi_platonic-0395.png'
p1229
aI416
aI224
aI155
aI335
aF51925.0
aF0.4626865671641791
aF0.6483196918632643
asI878
(lp1230
g1229
aI416
aI569
aI16
aI79
aF1264.0
aF0.20253164556962025
aF0.8306962025316456
asI879
(lp1231
g1229
aI416
aI593
aI157
aI174
aF27318.0
aF0.9022988505747126
aF0.5332015520901969
asI880
(lp1232
g1229
aI416
aI834
aI116
aI31
aF3596.0
aF3.7419354838709675
aF0.8086763070077865
asI881
(lp1233
S'Euclidis_megaresis_philosophi_platonic-0396.png'
p1234
aI24
aI315
aI133
aI214
aF28462.0
aF0.6214953271028038
aF0.6172791792565526
asI882
(lp1235
g1234
aI24
aI545
aI143
aI167
aF23881.0
aF0.8562874251497006
aF0.6774841924542523
asI883
(lp1236
S'Euclidis_megaresis_philosophi_platonic-0397.png'
p1237
aI428
aI258
aI145
aI270
aF39150.0
aF0.5370370370370371
aF0.5692464878671776
asI884
(lp1238
g1237
aI416
aI417
aI10
aI127
aF1270.0
aF0.07874015748031496
aF0.7133858267716535
asI885
(lp1239
g1237
aI416
aI834
aI116
aI31
aF3596.0
aF3.7419354838709675
aF0.8086763070077865
asI886
(lp1240
S'Euclidis_megaresis_philosophi_platonic-0398.png'
p1241
aI25
aI433
aI134
aI64
aF8576.0
aF2.09375
aF0.7126865671641791
asI887
(lp1242
S'Euclidis_megaresis_philosophi_platonic-0399.png'
p1243
aI406
aI302
aI14
aI165
aF2310.0
aF0.08484848484848485
aF0.7584415584415585
asI888
(lp1244
g1243
aI406
aI834
aI126
aI31
aF3906.0
aF4.064516129032258
aF0.8013312852022529
asI889
(lp1245
S'Euclidis_megaresis_philosophi_platonic-0400.png'
p1246
aI29
aI82
aI150
aI162
aF24300.0
aF0.9259259259259259
aF0.7423456790123457
asI890
(lp1247
g1246
aI28
aI300
aI146
aI147
aF21462.0
aF0.9931972789115646
aF0.5633678128785761
asI891
(lp1248
g1246
aI30
aI457
aI149
aI256
aF38144.0
aF0.58203125
aF0.842465394295302
asI892
(lp1249
S'Euclidis_megaresis_philosophi_platonic-0401.png'
p1250
aI352
aI89
aI205
aI377
aF77285.0
aF0.5437665782493368
aF0.5199585948114123
asI893
(lp1251
g1250
aI352
aI383
aI40
aI94
aF3760.0
aF0.425531914893617
aF0.8731382978723404
asI894
(lp1252
g1250
aI352
aI481
aI193
aI208
aF40144.0
aF0.9278846153846154
aF0.5740334794738939
asI895
(lp1253
S'Euclidis_megaresis_philosophi_platonic-0402.png'
p1254
aI164
aI580
aI14
aI158
aF2212.0
aF0.08860759493670886
aF0.713381555153707
asI896
(lp1255
S'Euclidis_megaresis_philosophi_platonic-0403.png'
p1256
aI424
aI84
aI154
aI149
aF22946.0
aF1.0335570469798658
aF0.49520613614573344
asI897
(lp1257
g1256
aI426
aI396
aI147
aI151
aF22197.0
aF0.9735099337748344
aF0.7430283371626797
asI898
(lp1258
S'Euclidis_megaresis_philosophi_platonic-0404.png'
p1259
aI8
aI47
aI164
aI720
aF118080.0
aF0.22777777777777777
aF0.4830962059620596
asI899
(lp1260
S'Euclidis_megaresis_philosophi_platonic-0405.png'
p1261
aI417
aI834
aI115
aI31
aF3565.0
aF3.7096774193548385
aF0.8100981767180926
asI900
(lp1262
S'Euclidis_megaresis_philosophi_platonic-0407.png'
p1263
aI423
aI357
aI143
aI51
aF7293.0
aF2.803921568627451
aF0.8505416152474976
asI901
(lp1264
g1263
aI423
aI834
aI109
aI40
aF4360.0
aF2.725
aF0.694954128440367
asI902
(lp1265
S'Euclidis_megaresis_philosophi_platonic-0408.png'
p1266
aI10
aI218
aI156
aI129
aF20124.0
aF1.2093023255813953
aF0.6725800039753528
asI903
(lp1267
g1266
aI10
aI485
aI156
aI255
aF39780.0
aF0.611764705882353
aF0.7589743589743589
asI904
(lp1268
S'Euclidis_megaresis_philosophi_platonic-0409.png'
p1269
aI415
aI85
aI12
aI97
aF1164.0
aF0.12371134020618557
aF0.7405498281786942
asI905
(lp1270
g1269
aI415
aI195
aI139
aI210
aF29190.0
aF0.6619047619047619
aF0.4870503597122302
asI906
(lp1271
g1269
aI415
aI527
aI171
aI256
aF43776.0
aF0.66796875
aF0.5879705774853801
asI907
(lp1272
S'Euclidis_megaresis_philosophi_platonic-0410.png'
p1273
aI8
aI141
aI172
aI188
aF32336.0
aF0.9148936170212766
aF0.7166006927263731
asI908
(lp1274
g1273
aI46
aI377
aI32
aI48
aF1536.0
aF0.6666666666666666
aF0.4739583333333333
asI909
(lp1275
g1273
aI8
aI559
aI172
aI194
aF33368.0
aF0.8865979381443299
aF0.6600035962598897
asI910
(lp1276
S'Euclidis_megaresis_philosophi_platonic-0411.png'
p1277
aI421
aI256
aI166
aI213
aF35358.0
aF0.7793427230046949
aF0.6949770914644493
asI911
(lp1278
g1277
aI441
aI428
aI29
aI41
aF1189.0
aF0.7073170731707317
aF0.46173254835996635
asI912
(lp1279
g1277
aI421
aI558
aI166
aI194
aF32204.0
aF0.8556701030927835
aF0.7042913923736182
asI913
(lp1280
g1277
aI421
aI834
aI111
aI31
aF3441.0
aF3.5806451612903225
aF0.8142981691368788
asI914
(lp1281
S'Euclidis_megaresis_philosophi_platonic-0412.png'
p1282
aI5
aI270
aI162
aI200
aF32400.0
aF0.81
aF0.7494444444444445
asI915
(lp1283
S'Euclidis_megaresis_philosophi_platonic-0413.png'
p1284
aI410
aI84
aI12
aI100
aF1200.0
aF0.12
aF0.7375
asI916
(lp1285
g1284
aI410
aI286
aI175
aI184
aF32200.0
aF0.9510869565217391
aF0.7795652173913044
asI917
(lp1286
g1284
aI410
aI834
aI122
aI31
aF3782.0
aF3.935483870967742
aF0.8043363299841354
asI918
(lp1287
S'Euclidis_megaresis_philosophi_platonic-0414.png'
p1288
aI2
aI66
aI169
aI196
aF33124.0
aF0.8622448979591837
aF0.7016966549933583
asI919
(lp1289
S'Euclidis_megaresis_philosophi_platonic-0415.png'
p1290
aI414
aI123
aI169
aI621
aF104949.0
aF0.2721417069243156
aF0.5930404291608306
asI920
(lp1291
g1290
aI414
aI834
aI118
aI31
aF3658.0
aF3.806451612903226
aF0.8075451066156369
asI921
(lp1292
S'Euclidis_megaresis_philosophi_platonic-0416.png'
p1293
aI31
aI98
aI137
aI234
aF32058.0
aF0.5854700854700855
aF0.6888452180422984
asI922
(lp1294
S'Euclidis_megaresis_philosophi_platonic-0417.png'
p1295
aI410
aI458
aI144
aI251
aF36144.0
aF0.5737051792828686
aF0.6739707835325365
asI923
(lp1296
S'Euclidis_megaresis_philosophi_platonic-0418.png'
p1297
aI26
aI204
aI108
aI191
aF20628.0
aF0.5654450261780105
aF0.5784370758192747
asI924
(lp1298
g1297
aI26
aI433
aI150
aI259
aF38850.0
aF0.5791505791505791
aF0.7101415701415701
asI925
(lp1299
S'Euclidis_megaresis_philosophi_platonic-0420.png'
p1300
aI8
aI222
aI165
aI176
aF29040.0
aF0.9375
aF0.6734848484848485
asI926
(lp1301
S'Euclidis_megaresis_philosophi_platonic-0421.png'
p1302
aI409
aI78
aI169
aI262
aF44278.0
aF0.6450381679389313
aF0.7290528027462848
asI927
(lp1303
g1302
aI409
aI477
aI169
aI134
aF22646.0
aF1.2611940298507462
aF0.6582177868056169
asI928
(lp1304
S'Euclidis_megaresis_philosophi_platonic-0422.png'
p1305
aI18
aI537
aI167
aI188
aF31396.0
aF0.8882978723404256
aF0.5888648235444005
asI929
(lp1306
S'Euclidis_megaresis_philosophi_platonic-0423.png'
p1307
aI408
aI245
aI166
aI163
aF27058.0
aF1.01840490797546
aF0.7371572178283687
asI930
(lp1308
g1307
aI413
aI429
aI161
aI167
aF26887.0
aF0.9640718562874252
aF0.6198534607803028
asI931
(lp1309
S'Euclidis_megaresis_philosophi_platonic-0424.png'
p1310
aI16
aI87
aI167
aI231
aF38577.0
aF0.7229437229437229
aF0.7530393757938668
asI932
(lp1311
g1310
aI43
aI320
aI30
aI52
aF1560.0
aF0.5769230769230769
aF0.42628205128205127
asI933
(lp1312
g1310
aI16
aI508
aI167
aI181
aF30227.0
aF0.9226519337016574
aF0.718728289277798
asI934
(lp1313
S'Euclidis_megaresis_philosophi_platonic-0425.png'
p1314
aI416
aI582
aI163
aI176
aF28688.0
aF0.9261363636363636
aF0.7478388176240937
asI935
(lp1315
S'Euclidis_megaresis_philosophi_platonic-0426.png'
p1316
aI12
aI193
aI164
aI169
aF27716.0
aF0.9704142011834319
aF0.7661639486217348
asI936
(lp1317
g1316
aI12
aI460
aI153
aI156
aF23868.0
aF0.9807692307692307
aF0.7818836936483995
asI937
(lp1318
g1316
aI75
aI720
aI46
aI28
aF1288.0
aF1.6428571428571428
aF0.5093167701863354
asI938
(lp1319
S'Euclidis_megaresis_philosophi_platonic-0427.png'
p1320
aI381
aI80
aI206
aI417
aF85902.0
aF0.4940047961630695
aF0.35630136667365137
asI939
(lp1321
g1320
aI381
aI441
aI204
aI314
aF64056.0
aF0.6496815286624203
aF0.5077900586986387
asI940
(lp1322
g1320
aI400
aI834
aI132
aI31
aF4092.0
aF4.258064516129032
aF0.7849462365591398
asI941
(lp1323
S'Euclidis_megaresis_philosophi_platonic-0429.png'
p1324
aI427
aI259
aI50
aI83
aF4150.0
aF0.6024096385542169
aF0.42650602409638555
asI942
(lp1325
g1324
aI414
aI589
aI59
aI134
aF7906.0
aF0.44029850746268656
aF0.39552238805970147
asI943
(lp1326
S'Euclidis_megaresis_philosophi_platonic-0430.png'
p1327
aI26
aI255
aI135
aI135
aF18225.0
aF1.0
aF0.5677366255144033
asI944
(lp1328
g1327
aI28
aI399
aI136
aI168
aF22848.0
aF0.8095238095238095
aF0.41228991596638653
asI945
(lp1329
g1327
aI26
aI585
aI138
aI148
aF20424.0
aF0.9324324324324325
aF0.558656482569526
asI946
(lp1330
S'Euclidis_megaresis_philosophi_platonic-0431.png'
p1331
aI413
aI46
aI151
aI144
aF21744.0
aF1.0486111111111112
aF0.37706953642384106
asI947
(lp1332
g1331
aI417
aI200
aI147
aI135
aF19845.0
aF1.0888888888888888
aF0.40262030738221216
asI948
(lp1333
g1331
aI409
aI345
aI159
aI311
aF49449.0
aF0.5112540192926045
aF0.49444882606321666
asI949
(lp1334
g1331
aI409
aI628
aI159
aI131
aF20829.0
aF1.213740458015267
aF0.5573959383551779
asI950
(lp1335
g1331
aI409
aI834
aI123
aI31
aF3813.0
aF3.967741935483871
aF0.8035667453448728
asI951
(lp1336
S'Euclidis_megaresis_philosophi_platonic-0432.png'
p1337
aI24
aI66
aI149
aI197
aF29353.0
aF0.7563451776649747
aF0.5474057166218104
asI952
(lp1338
g1337
aI20
aI276
aI153
aI141
aF21573.0
aF1.0851063829787233
aF0.6609187410188662
asI953
(lp1339
g1337
aI27
aI423
aI146
aI187
aF27302.0
aF0.7807486631016043
aF0.46875686762874513
asI954
(lp1340
g1337
aI30
aI615
aI143
aI160
aF22880.0
aF0.89375
aF0.5038898601398601
asI955
(lp1341
S'Euclidis_megaresis_philosophi_platonic-0433.png'
p1342
aI178
aI35
aI384
aI716
aF274944.0
aF0.5363128491620112
aF0.738008467178771
asI956
(lp1343
g1342
aI442
aI161
aI120
aI145
aF17400.0
aF0.8275862068965517
aF0.625632183908046
asI957
(lp1344
S'Euclidis_megaresis_philosophi_platonic-0434.png'
p1345
aI26
aI204
aI145
aI198
aF28710.0
aF0.7323232323232324
aF0.5671194705677465
asI958
(lp1346
g1345
aI26
aI535
aI144
aI151
aF21744.0
aF0.9536423841059603
aF0.6795437821927888
asI959
(lp1347
g1345
aI152
aI649
aI23
aI53
aF1219.0
aF0.4339622641509434
aF0.51681706316653
asI960
(lp1348
S'Euclidis_megaresis_philosophi_platonic-0435.png'
p1349
aI174
aI37
aI104
aI37
aF3848.0
aF2.810810810810811
aF0.8627858627858628
asI961
(lp1350
g1349
aI174
aI80
aI258
aI234
aF60372.0
aF1.1025641025641026
aF0.545749685284569
asI962
(lp1351
g1349
aI174
aI310
aI400
aI156
aF62400.0
aF2.5641025641025643
aF0.6641666666666667
asI963
(lp1352
g1349
aI174
aI462
aI269
aI303
aF81507.0
aF0.8877887788778878
aF0.513256530113978
asI964
(lp1353
g1349
aI174
aI634
aI84
aI30
aF2520.0
aF2.8
aF0.8634920634920635
asI965
(lp1354
g1349
aI174
aI667
aI123
aI88
aF10824.0
aF1.3977272727272727
aF0.8373983739837398
asI966
(lp1355
S'Euclidis_megaresis_philosophi_platonic-0436.png'
p1356
aI16
aI312
aI147
aI135
aF19845.0
aF1.0888888888888888
aF0.5173595364071555
asI967
(lp1357
g1356
aI116
aI573
aI24
aI50
aF1200.0
aF0.48
aF0.6941666666666667
asI968
(lp1358
g1356
aI16
aI579
aI147
aI181
aF26607.0
aF0.8121546961325967
aF0.5061074153418273
asI969
(lp1359
S'Euclidis_megaresis_philosophi_platonic-0437.png'
p1360
aI423
aI523
aI156
aI236
aF36816.0
aF0.6610169491525424
aF0.6620491090830074
asI970
(lp1361
g1360
aI423
aI834
aI109
aI31
aF3379.0
aF3.5161290322580645
aF0.8153299792838118
asI971
(lp1362
S'Euclidis_megaresis_philosophi_platonic-0438.png'
p1363
aI15
aI244
aI135
aI98
aF13230.0
aF1.3775510204081634
aF0.5949357520786093
asI972
(lp1364
g1363
aI8
aI409
aI149
aI144
aF21456.0
aF1.0347222222222223
aF0.5400820283370619
asI973
(lp1365
g1363
aI14
aI571
aI140
aI150
aF21000.0
aF0.9333333333333333
aF0.5513809523809524
asI974
(lp1366
S'Euclidis_megaresis_philosophi_platonic-0439.png'
p1367
aI432
aI130
aI139
aI103
aF14317.0
aF1.3495145631067962
aF0.6711601592512397
asI975
(lp1368
g1367
aI422
aI347
aI148
aI106
aF15688.0
aF1.3962264150943395
aF0.6912927078021418
asI976
(lp1369
g1367
aI422
aI461
aI143
aI103
aF14729.0
aF1.3883495145631068
aF0.6870120171091045
asI977
(lp1370
g1367
aI422
aI573
aI146
aI172
aF25112.0
aF0.8488372093023255
aF0.7237177445046193
asI978
(lp1371
S'Euclidis_megaresis_philosophi_platonic-0440.png'
p1372
aI6
aI104
aI158
aI205
aF32390.0
aF0.7707317073170732
aF0.6922198209323865
asI979
(lp1373
g1372
aI83
aI352
aI50
aI60
aF3000.0
aF0.8333333333333334
aF0.5333333333333333
asI980
(lp1374
g1372
aI113
aI415
aI51
aI34
aF1734.0
aF1.5
aF0.6793540945790081
asI981
(lp1375
g1372
aI13
aI500
aI139
aI255
aF35445.0
aF0.5450980392156862
aF0.4882211877556778
asI982
(lp1376
S'Euclidis_megaresis_philosophi_platonic-0441.png'
p1377
aI429
aI117
aI153
aI198
aF30294.0
aF0.7727272727272727
aF0.4863339275103981
asI983
(lp1378
g1377
aI429
aI834
aI103
aI31
aF3193.0
aF3.3225806451612905
aF0.8233636078922644
asI984
(lp1379
S'Euclidis_megaresis_philosophi_platonic-0442.png'
p1380
aI64
aI117
aI46
aI23
aF1058.0
aF2.0
aF0.5226843100189036
asI985
(lp1381
g1380
aI65
aI150
aI68
aI81
aF5508.0
aF0.8395061728395061
aF0.34114015976761075
asI986
(lp1382
g1380
aI38
aI234
aI88
aI76
aF6688.0
aF1.1578947368421053
aF0.4890849282296651
asI987
(lp1383
S'Euclidis_megaresis_philosophi_platonic-0443.png'
p1384
aI427
aI595
aI11
aI142
aF1562.0
aF0.07746478873239436
aF0.8277848911651728
asI988
(lp1385
g1384
aI427
aI834
aI105
aI31
aF3255.0
aF3.3870967741935485
aF0.8205837173579109
asI989
(lp1386
S'Euclidis_megaresis_philosophi_platonic-0445.png'
p1387
aI431
aI465
aI147
aI152
aF22344.0
aF0.9671052631578947
aF0.49368958109559613
asI990
(lp1388
g1387
aI431
aI834
aI101
aI31
aF3131.0
aF3.2580645161290325
aF0.8262535931012456
asI991
(lp1389
S'Euclidis_megaresis_philosophi_platonic-0446.png'
p1390
aI20
aI52
aI118
aI127
aF14986.0
aF0.9291338582677166
aF0.5161484051781663
asI992
(lp1391
g1390
aI14
aI180
aI142
aI157
aF22294.0
aF0.9044585987261147
aF0.5394725038126851
asI993
(lp1392
g1390
aI14
aI545
aI149
aI195
aF29055.0
aF0.764102564102564
aF0.7096541042849768
asI994
(lp1393
S'Euclidis_megaresis_philosophi_platonic-0447.png'
p1394
aI295
aI81
aI285
aI284
aF80940.0
aF1.0035211267605635
aF0.38674326661724734
asI995
(lp1395
g1394
aI295
aI286
aI285
aI468
aF133380.0
aF0.6089743589743589
aF0.5724546408756935
asI996
(lp1396
g1394
aI438
aI629
aI126
aI127
aF16002.0
aF0.9921259842519685
aF0.5499937507811523
asI997
(lp1397
S'Euclidis_megaresis_philosophi_platonic-0448.png'
p1398
aI22
aI69
aI274
aI689
aF188786.0
aF0.397677793904209
aF0.6105802337037705
asI998
(lp1399
S'Euclidis_megaresis_philosophi_platonic-0449.png'
p1400
aI424
aI231
aI125
aI173
aF21625.0
aF0.7225433526011561
aF0.4860115606936416
asI999
(lp1401
g1400
aI418
aI419
aI151
aI178
aF26878.0
aF0.848314606741573
aF0.3881613215268993
asI1000
(lp1402
g1400
aI421
aI606
aI152
aI124
aF18848.0
aF1.2258064516129032
aF0.39330432937181664
asI1001
(lp1403
S'Euclidis_megaresis_philosophi_platonic-0450.png'
p1404
aI13
aI198
aI156
aI145
aF22620.0
aF1.0758620689655172
aF0.6041998231653404
asI1002
(lp1405
g1404
aI13
aI384
aI154
aI342
aF52668.0
aF0.4502923976608187
aF0.43362193362193363
asI1003
(lp1406
S'Euclidis_megaresis_philosophi_platonic-0451.png'
p1407
aI254
aI43
aI49
aI30
aF1470.0
aF1.6333333333333333
aF0.9510204081632653
asI1004
(lp1408
g1407
aI254
aI87
aI323
aI688
aF222224.0
aF0.4694767441860465
aF0.6550552595579235
asI1005
(lp1409
g1407
aI400
aI834
aI177
aI31
aF5487.0
aF5.709677419354839
aF0.779114270092947
asI1006
(lp1410
S'Euclidis_megaresis_philosophi_platonic-0452.png'
p1411
aI10
aI197
aI164
aI144
aF23616.0
aF1.1388888888888888
aF0.5846036585365854
asI1007
(lp1412
g1411
aI19
aI383
aI153
aI335
aF51255.0
aF0.45671641791044776
aF0.4441713003609404
asI1008
(lp1413
S'Euclidis_megaresis_philosophi_platonic-0453.png'
p1414
aI410
aI218
aI169
aI227
aF38363.0
aF0.7444933920704846
aF0.5583765607486381
asI1009
(lp1415
g1414
aI410
aI501
aI169
aI251
aF42419.0
aF0.6733067729083665
aF0.6333246894080483
asI1010
(lp1416
g1414
aI410
aI834
aI122
aI31
aF3782.0
aF3.935483870967742
aF0.8043363299841354
asI1011
(lp1417
S'Euclidis_megaresis_philosophi_platonic-0454.png'
p1418
aI16
aI140
aI160
aI127
aF20320.0
aF1.2598425196850394
aF0.5966043307086614
asI1012
(lp1419
g1418
aI16
aI259
aI148
aI195
aF28860.0
aF0.7589743589743589
aF0.5187110187110187
asI1013
(lp1420
g1418
aI16
aI502
aI159
aI252
aF40068.0
aF0.6309523809523809
aF0.5465957871618249
asI1014
(lp1421
S'Euclidis_megaresis_philosophi_platonic-0455.png'
p1422
aI413
aI85
aI162
aI425
aF68850.0
aF0.3811764705882353
aF0.5645751633986928
asI1015
(lp1423
g1422
aI413
aI552
aI162
aI229
aF37098.0
aF0.7074235807860262
aF0.5599762790446924
asI1016
(lp1424
S'Euclidis_megaresis_philosophi_platonic-0456.png'
p1425
aI18
aI152
aI165
aI180
aF29700.0
aF0.9166666666666666
aF0.48855218855218857
asI1017
(lp1426
g1425
aI14
aI510
aI169
aI199
aF33631.0
aF0.8492462311557789
aF0.47447295649846866
asI1018
(lp1427
S'Euclidis_megaresis_philosophi_platonic-0457.png'
p1428
aI417
aI44
aI167
aI182
aF30394.0
aF0.9175824175824175
aF0.5130617885108903
asI1019
(lp1429
g1428
aI411
aI246
aI173
aI169
aF29237.0
aF1.0236686390532543
aF0.5296713069056332
asI1020
(lp1430
g1428
aI412
aI422
aI172
aI190
aF32680.0
aF0.9052631578947369
aF0.522827417380661
asI1021
(lp1431
g1428
aI409
aI613
aI175
aI197
aF34475.0
aF0.8883248730964467
aF0.506947063089195
asI1022
(lp1432
g1428
aI409
aI824
aI175
aI47
aF8225.0
aF3.723404255319149
aF0.6267477203647417
asI1023
(lp1433
S'Euclidis_megaresis_philosophi_platonic-0458.png'
p1434
aI7
aI154
aI166
aI159
aF26394.0
aF1.0440251572327044
aF0.5624384329771918
asI1024
(lp1435
g1434
aI7
aI440
aI158
aI101
aF15958.0
aF1.5643564356435644
aF0.5950620378493545
asI1025
(lp1436
g1434
aI15
aI610
aI151
aI124
aF18724.0
aF1.217741935483871
aF0.5036317026276437
asI1026
(lp1437
S'Euclidis_megaresis_philosophi_platonic-0459.png'
p1438
aI424
aI142
aI157
aI177
aF27789.0
aF0.8870056497175142
aF0.6335600417431357
asI1027
(lp1439
g1438
aI445
aI326
aI136
aI131
aF17816.0
aF1.0381679389312977
aF0.7748091603053435
asI1028
(lp1440
S'Euclidis_megaresis_philosophi_platonic-0460.png'
p1441
aI9
aI136
aI161
aI177
aF28497.0
aF0.9096045197740112
aF0.46011860897638346
asI1029
(lp1442
g1441
aI15
aI451
aI151
aI147
aF22197.0
aF1.0272108843537415
aF0.44199666621615535
asI1030
(lp1443
g1441
aI16
aI614
aI154
aI180
aF27720.0
aF0.8555555555555555
aF0.44072871572871575
asI1031
(lp1444
S'Euclidis_megaresis_philosophi_platonic-0461.png'
p1445
aI429
aI202
aI156
aI205
aF31980.0
aF0.7609756097560976
aF0.4947154471544715
asI1032
(lp1446
g1445
aI421
aI425
aI155
aI145
aF22475.0
aF1.0689655172413792
aF0.590166852057842
asI1033
(lp1447
g1445
aI421
aI668
aI47
aI76
aF3572.0
aF0.618421052631579
aF0.3706606942889138
asI1034
(lp1448
g1445
aI421
aI834
aI111
aI31
aF3441.0
aF3.5806451612903225
aF0.8142981691368788
asI1035
(lp1449
S'Euclidis_megaresis_philosophi_platonic-0462.png'
p1450
aI14
aI128
aI150
aI286
aF42900.0
aF0.5244755244755245
aF0.6316083916083917
asI1036
(lp1451
g1450
aI14
aI425
aI148
aI244
aF36112.0
aF0.6065573770491803
aF0.681020159503766
asI1037
(lp1452
g1450
aI14
aI663
aI141
aI95
aF13395.0
aF1.4842105263157894
aF0.6859275849197461
asI1038
(lp1453
S'Euclidis_megaresis_philosophi_platonic-0463.png'
p1454
aI413
aI127
aI151
aI138
aF20838.0
aF1.0942028985507246
aF0.5305691525098378
asI1039
(lp1455
g1454
aI413
aI292
aI151
aI116
aF17516.0
aF1.3017241379310345
aF0.7573076044759077
asI1040
(lp1456
g1454
aI413
aI518
aI151
aI109
aF16459.0
aF1.385321100917431
aF0.6498572209733277
asI1041
(lp1457
g1454
aI413
aI648
aI151
aI104
aF15704.0
aF1.4519230769230769
aF0.5954533876719307
asI1042
(lp1458
S'Euclidis_megaresis_philosophi_platonic-0464.png'
p1459
aI19
aI137
aI144
aI112
aF16128.0
aF1.2857142857142858
aF0.6626984126984127
asI1043
(lp1460
g1459
aI21
aI314
aI142
aI87
aF12354.0
aF1.632183908045977
aF0.6769467378986563
asI1044
(lp1461
g1459
aI14
aI507
aI149
aI153
aF22797.0
aF0.9738562091503268
aF0.5569592490239944
asI1045
(lp1462
g1459
aI34
aI655
aI120
aI126
aF15120.0
aF0.9523809523809523
aF0.4693783068783069
asI1046
(lp1463
S'Euclidis_megaresis_philosophi_platonic-0465.png'
p1464
aI450
aI96
aI124
aI143
aF17732.0
aF0.8671328671328671
aF0.4640198511166253
asI1047
(lp1465
g1464
aI437
aI236
aI137
aI316
aF43292.0
aF0.43354430379746833
aF0.5103945301672365
asI1048
(lp1466
g1464
aI458
aI583
aI110
aI155
aF17050.0
aF0.7096774193548387
aF0.5237536656891496
asI1049
(lp1467
S'Euclidis_megaresis_philosophi_platonic-0466.png'
p1468
aI21
aI33
aI413
aI718
aF296534.0
aF0.575208913649025
aF0.6511968273452623
asI1050
(lp1469
g1468
aI49
aI589
aI78
aI146
aF11388.0
aF0.5342465753424658
aF0.38540569020021076
asI1051
(lp1470
g1468
aI375
aI658
aI46
aI87
aF4002.0
aF0.5287356321839081
aF0.444527736131934
asI1052
(lp1471
S'Euclidis_megaresis_philosophi_platonic-0467.png'
p1472
aI416
aI834
aI116
aI31
aF3596.0
aF3.7419354838709675
aF0.8086763070077865
asI1053
(lp1473
S'Euclidis_megaresis_philosophi_platonic-0471.png'
p1474
aI410
aI73
aI16
aI196
aF3136.0
aF0.08163265306122448
aF0.7863520408163265
asI1054
(lp1475
g1474
aI410
aI834
aI122
aI31
aF3782.0
aF3.935483870967742
aF0.8043363299841354
asI1055
(lp1476
S'Euclidis_megaresis_philosophi_platonic-0473.png'
p1477
aI422
aI626
aI11
aI100
aF1100.0
aF0.11
aF0.6954545454545454
asI1056
(lp1478
g1477
aI422
aI834
aI110
aI31
aF3410.0
aF3.5483870967741935
aF0.8146627565982405
asI1057
(lp1479
S'Euclidis_megaresis_philosophi_platonic-0476.png'
p1480
aI154
aI78
aI11
aI139
aF1529.0
aF0.07913669064748201
aF0.6742969260954872
asI1058
(lp1481
S'Euclidis_megaresis_philosophi_platonic-0481.png'
p1482
aI432
aI139
aI79
aI109
aF8611.0
aF0.7247706422018348
aF0.6296597375450006
asI1059
(lp1483
g1482
aI513
aI180
aI30
aI64
aF1920.0
aF0.46875
aF0.7260416666666667
asI1060
(lp1484
g1482
aI433
aI310
aI107
aI78
aF8346.0
aF1.3717948717948718
aF0.7380781212556914
asI1061
(lp1485
g1482
aI416
aI573
aI150
aI105
aF15750.0
aF1.4285714285714286
aF0.48717460317460315
asI1062
(lp1486
S'Euclidis_megaresis_philosophi_platonic-0482.png'
p1487
aI25
aI82
aI135
aI63
aF8505.0
aF2.142857142857143
aF0.6436213991769547
asI1063
(lp1488
g1487
aI25
aI348
aI137
aI36
aF4932.0
aF3.8055555555555554
aF0.7343876723438767
asI1064
(lp1489
g1487
aI25
aI385
aI136
aI36
aF4896.0
aF3.7777777777777777
aF0.7142565359477124
asI1065
(lp1490
g1487
aI25
aI541
aI132
aI62
aF8184.0
aF2.129032258064516
aF0.7083333333333334
asI1066
(lp1491
S'Euclidis_megaresis_philosophi_platonic-0483.png'
p1492
aI415
aI88
aI150
aI88
aF13200.0
aF1.7045454545454546
aF0.3493181818181818
asI1067
(lp1493
g1492
aI415
aI192
aI154
aI116
aF17864.0
aF1.3275862068965518
aF0.4942342140618003
asI1068
(lp1494
g1492
aI450
aI380
aI90
aI185
aF16650.0
aF0.4864864864864865
aF0.5998198198198198
asI1069
(lp1495
g1492
aI415
aI462
aI14
aI172
aF2408.0
aF0.08139534883720931
aF0.7699335548172758
asI1070
(lp1496
g1492
aI415
aI646
aI17
aI97
aF1649.0
aF0.17525773195876287
aF0.8320194057004245
asI1071
(lp1497
g1492
aI517
aI852
aI61
aI17
aF1037.0
aF3.588235294117647
aF0.7434908389585342
asI1072
(lp1498
S'Euclidis_megaresis_philosophi_platonic-0484.png'
p1499
aI14
aI91
aI136
aI38
aF5168.0
aF3.5789473684210527
aF0.7000773993808049
asI1073
(lp1500
g1499
aI7
aI249
aI148
aI40
aF5920.0
aF3.7
aF0.7643581081081081
asI1074
(lp1501
g1499
aI145
aI645
aI12
aI101
aF1212.0
aF0.1188118811881188
aF0.7871287128712872
asI1075
(lp1502
S'Euclidis_megaresis_philosophi_platonic-0485.png'
p1503
aI413
aI80
aI155
aI126
aF19530.0
aF1.2301587301587302
aF0.45273937532002045
asI1076
(lp1504
g1503
aI429
aI290
aI122
aI55
aF6710.0
aF2.2181818181818183
aF0.43800298062593146
asI1077
(lp1505
g1503
aI418
aI443
aI133
aI36
aF4788.0
aF3.6944444444444446
aF0.7527151211361738
asI1078
(lp1506
S'Euclidis_megaresis_philosophi_platonic-0486.png'
p1507
aI24
aI90
aI127
aI116
aF14732.0
aF1.0948275862068966
aF0.5692370350257941
asI1079
(lp1508
g1507
aI24
aI286
aI136
aI63
aF8568.0
aF2.1587301587301586
aF0.7443977591036415
asI1080
(lp1509
g1507
aI24
aI604
aI137
aI68
aF9316.0
aF2.014705882352941
aF0.736152855302705
asI1081
(lp1510
S'Euclidis_megaresis_philosophi_platonic-0487.png'
p1511
aI520
aI286
aI39
aI156
aF6084.0
aF0.25
aF0.6431623931623932
asI1082
(lp1512
g1511
aI467
aI293
aI43
aI127
aF5461.0
aF0.33858267716535434
aF0.6002563633034242
asI1083
(lp1513
g1511
aI430
aI474
aI53
aI153
aF8109.0
aF0.3464052287581699
aF0.49216919472191395
asI1084
(lp1514
g1511
aI522
aI479
aI37
aI131
aF4847.0
aF0.2824427480916031
aF0.6703115329069528
asI1085
(lp1515
g1511
aI495
aI509
aI27
aI81
aF2187.0
aF0.3333333333333333
aF0.7901234567901234
asI1086
(lp1516
g1511
aI435
aI620
aI143
aI83
aF11869.0
aF1.7228915662650603
aF0.6253264807481675
asI1087
(lp1517
g1511
aI429
aI713
aI145
aI32
aF4640.0
aF4.53125
aF0.7635775862068965
asI1088
(lp1518
S'Euclidis_megaresis_philosophi_platonic-0488.png'
p1519
aI68
aI239
aI65
aI124
aF8060.0
aF0.5241935483870968
aF0.6452853598014888
asI1089
(lp1520
g1519
aI26
aI310
aI30
aI53
aF1590.0
aF0.5660377358490566
aF0.740251572327044
asI1090
(lp1521
g1519
aI98
aI395
aI33
aI132
aF4356.0
aF0.25
aF0.7837465564738292
asI1091
(lp1522
g1519
aI64
aI467
aI31
aI59
aF1829.0
aF0.5254237288135594
aF0.697648988518316
asI1092
(lp1523
g1519
aI29
aI473
aI22
aI60
aF1320.0
aF0.36666666666666664
aF0.8803030303030303
asI1093
(lp1524
g1519
aI17
aI579
aI146
aI72
aF10512.0
aF2.0277777777777777
aF0.7418188736681888
asI1094
(lp1525
g1519
aI31
aI715
aI81
aI25
aF2025.0
aF3.24
aF0.5871604938271605
asI1095
(lp1526
S'Euclidis_megaresis_philosophi_platonic-0489.png'
p1527
aI432
aI283
aI136
aI60
aF8160.0
aF2.2666666666666666
aF0.7578431372549019
asI1096
(lp1528
g1527
aI431
aI450
aI137
aI77
aF10549.0
aF1.7792207792207793
aF0.6449900464499004
asI1097
(lp1529
g1527
aI428
aI634
aI140
aI33
aF4620.0
aF4.242424242424242
aF0.7251082251082251
asI1098
(lp1530
g1527
aI438
aI679
aI130
aI36
aF4680.0
aF3.611111111111111
aF0.747008547008547
asI1099
(lp1531
S'Euclidis_megaresis_philosophi_platonic-0490.png'
p1532
aI42
aI461
aI104
aI180
aF18720.0
aF0.5777777777777777
aF0.6138354700854701
asI1100
(lp1533
S'Euclidis_megaresis_philosophi_platonic-0491.png'
p1534
aI436
aI73
aI135
aI87
aF11745.0
aF1.5517241379310345
aF0.6190719455087271
asI1101
(lp1535
g1534
aI448
aI192
aI114
aI82
aF9348.0
aF1.3902439024390243
aF0.6043003851091142
asI1102
(lp1536
g1534
aI425
aI304
aI25
aI82
aF2050.0
aF0.3048780487804878
aF0.5165853658536586
asI1103
(lp1537
g1534
aI425
aI305
aI143
aI141
aF20163.0
aF1.0141843971631206
aF0.3481624758220503
asI1104
(lp1538
g1534
aI425
aI480
aI151
aI36
aF5436.0
aF4.194444444444445
aF0.6398086828550404
asI1105
(lp1539
g1534
aI478
aI588
aI98
aI104
aF10192.0
aF0.9423076923076923
aF0.4978414442700157
asI1106
(lp1540
S'Euclidis_megaresis_philosophi_platonic-0492.png'
p1541
aI14
aI140
aI139
aI96
aF13344.0
aF1.4479166666666667
aF0.552158273381295
asI1107
(lp1542
g1541
aI15
aI288
aI143
aI85
aF12155.0
aF1.6823529411764706
aF0.5055532702591526
asI1108
(lp1543
g1541
aI19
aI447
aI143
aI98
aF14014.0
aF1.4591836734693877
aF0.4072356215213358
asI1109
(lp1544
g1541
aI16
aI581
aI147
aI58
aF8526.0
aF2.5344827586206895
aF0.7160450387051372
asI1110
(lp1545
g1541
aI27
aI646
aI139
aI93
aF12927.0
aF1.4946236559139785
aF0.5228591320491993
asI1111
(lp1546
S'Euclidis_megaresis_philosophi_platonic-0493.png'
p1547
aI434
aI160
aI138
aI100
aF13800.0
aF1.38
aF0.4340579710144927
asI1112
(lp1548
g1547
aI423
aI355
aI154
aI155
aF23870.0
aF0.9935483870967742
aF0.5428152492668622
asI1113
(lp1549
g1547
aI423
aI514
aI154
aI212
aF32648.0
aF0.7264150943396226
aF0.3334354324920363
asI1114
(lp1550
S'Euclidis_megaresis_philosophi_platonic-0494.png'
p1551
aI19
aI112
aI142
aI207
aF29394.0
aF0.6859903381642513
aF0.5401442471252637
asI1115
(lp1552
g1551
aI19
aI339
aI142
aI203
aF28826.0
aF0.6995073891625616
aF0.5660861722056477
asI1116
(lp1553
g1551
aI19
aI548
aI142
aI194
aF27548.0
aF0.7319587628865979
aF0.6226949324814869
asI1117
(lp1554
S'Euclidis_megaresis_philosophi_platonic-0495.png'
p1555
aI417
aI259
aI146
aI221
aF32266.0
aF0.6606334841628959
aF0.4523647182793033
asI1118
(lp1556
g1555
aI440
aI496
aI87
aI158
aF13746.0
aF0.5506329113924051
aF0.6115233522479266
asI1119
(lp1557
S'Euclidis_megaresis_philosophi_platonic-0496.png'
p1558
aI12
aI83
aI154
aI160
aF24640.0
aF0.9625
aF0.500487012987013
asI1120
(lp1559
g1558
aI12
aI376
aI154
aI107
aF16478.0
aF1.439252336448598
aF0.7127078528947688
asI1121
(lp1560
g1558
aI76
aI536
aI62
aI61
aF3782.0
aF1.0163934426229508
aF0.36991010047593864
asI1122
(lp1561
S'Euclidis_megaresis_philosophi_platonic-0497.png'
p1562
aI414
aI68
aI146
aI315
aF45990.0
aF0.4634920634920635
aF0.5896064361817787
asI1123
(lp1563
g1562
aI411
aI401
aI11
aI108
aF1188.0
aF0.10185185185185185
aF0.6582491582491582
asI1124
(lp1564
g1562
aI427
aI413
aI122
aI194
aF23668.0
aF0.6288659793814433
aF0.44258069967889135
asI1125
(lp1565
S'Euclidis_megaresis_philosophi_platonic-0498.png'
p1566
aI18
aI95
aI150
aI141
aF21150.0
aF1.0638297872340425
aF0.5605673758865248
asI1126
(lp1567
g1566
aI21
aI339
aI131
aI203
aF26593.0
aF0.645320197044335
aF0.47271838453728426
asI1127
(lp1568
g1566
aI29
aI550
aI112
aI81
aF9072.0
aF1.382716049382716
aF0.6871693121693122
asI1128
(lp1569
S'Euclidis_megaresis_philosophi_platonic-0499.png'
p1570
aI415
aI105
aI147
aI127
aF18669.0
aF1.1574803149606299
aF0.5521452675558413
asI1129
(lp1571
g1570
aI424
aI238
aI138
aI68
aF9384.0
aF2.0294117647058822
aF0.5071398124467178
asI1130
(lp1572
g1570
aI433
aI457
aI122
aI120
aF14640.0
aF1.0166666666666666
aF0.5298497267759563
asI1131
(lp1573
g1570
aI415
aI602
aI147
aI149
aF21903.0
aF0.9865771812080537
aF0.3660685750810391
asI1132
(lp1574
S'Euclidis_megaresis_philosophi_platonic-0500.png'
p1575
aI22
aI96
aI139
aI152
aF21128.0
aF0.9144736842105263
aF0.475766755017039
asI1133
(lp1576
g1575
aI22
aI304
aI146
aI120
aF17520.0
aF1.2166666666666666
aF0.45102739726027397
asI1134
(lp1577
g1575
aI22
aI573
aI143
aI139
aF19877.0
aF1.0287769784172662
aF0.45846958796599085
asI1135
(lp1578
S'Euclidis_megaresis_philosophi_platonic-0501.png'
p1579
aI411
aI76
aI146
aI120
aF17520.0
aF1.2166666666666666
aF0.466837899543379
asI1136
(lp1580
g1579
aI411
aI197
aI123
aI147
aF18081.0
aF0.8367346938775511
aF0.49986173331121064
asI1137
(lp1581
g1579
aI407
aI455
aI160
aI107
aF17120.0
aF1.4953271028037383
aF0.6989485981308411
asI1138
(lp1582
g1579
aI407
aI598
aI159
aI151
aF24009.0
aF1.0529801324503312
aF0.5166395934857761
asI1139
(lp1583
g1579
aI407
aI834
aI125
aI31
aF3875.0
aF4.032258064516129
aF0.8030967741935484
asI1140
(lp1584
S'Euclidis_megaresis_philosophi_platonic-0502.png'
p1585
aI28
aI202
aI146
aI361
aF52706.0
aF0.40443213296398894
aF0.5179296474784655
asI1141
(lp1586
g1585
aI28
aI566
aI144
aI190
aF27360.0
aF0.7578947368421053
aF0.46304824561403507
asI1142
(lp1587
S'Euclidis_megaresis_philosophi_platonic-0503.png'
p1588
aI418
aI133
aI153
aI167
aF25551.0
aF0.9161676646706587
aF0.5364956361786232
asI1143
(lp1589
g1588
aI485
aI289
aI32
aI40
aF1280.0
aF0.8
aF0.54765625
asI1144
(lp1590
g1588
aI441
aI376
aI128
aI75
aF9600.0
aF1.7066666666666668
aF0.6078125
asI1145
(lp1591
g1588
aI418
aI586
aI139
aI160
aF22240.0
aF0.86875
aF0.7495503597122302
asI1146
(lp1592
g1588
aI418
aI834
aI114
aI31
aF3534.0
aF3.6774193548387095
aF0.8109790605546123
asI1147
(lp1593
S'Euclidis_megaresis_philosophi_platonic-0504.png'
p1594
aI18
aI159
aI147
aI109
aF16023.0
aF1.348623853211009
aF0.5869063221618923
asI1148
(lp1595
g1594
aI37
aI273
aI101
aI101
aF10201.0
aF1.0
aF0.6806195471032251
asI1149
(lp1596
g1594
aI18
aI440
aI147
aI156
aF22932.0
aF0.9423076923076923
aF0.6895604395604396
asI1150
(lp1597
g1594
aI21
aI617
aI138
aI113
aF15594.0
aF1.2212389380530972
aF0.6166474284981404
asI1151
(lp1598
S'Euclidis_megaresis_philosophi_platonic-0505.png'
p1599
aI409
aI78
aI14
aI87
aF1218.0
aF0.16091954022988506
aF0.8333333333333334
asI1152
(lp1600
g1599
aI413
aI348
aI147
aI133
aF19551.0
aF1.105263157894737
aF0.6136770497672753
asI1153
(lp1601
g1599
aI409
aI572
aI154
aI135
aF20790.0
aF1.1407407407407408
aF0.6459355459355459
asI1154
(lp1602
g1599
aI409
aI834
aI123
aI31
aF3813.0
aF3.967741935483871
aF0.8038290060319958
asI1155
(lp1603
S'Euclidis_megaresis_philosophi_platonic-0506.png'
p1604
aI23
aI87
aI155
aI107
aF16585.0
aF1.4485981308411215
aF0.5876394332227917
asI1156
(lp1605
g1604
aI31
aI312
aI144
aI194
aF27936.0
aF0.7422680412371134
aF0.5510452462772051
asI1157
(lp1606
g1604
aI94
aI581
aI36
aI60
aF2160.0
aF0.6
aF0.5337962962962963
asI1158
(lp1607
S'Euclidis_megaresis_philosophi_platonic-0507.png'
p1608
aI415
aI167
aI147
aI170
aF24990.0
aF0.8647058823529412
aF0.5935974389755903
asI1159
(lp1609
g1608
aI473
aI371
aI36
aI56
aF2016.0
aF0.6428571428571429
aF0.5580357142857143
asI1160
(lp1610
g1608
aI415
aI411
aI147
aI159
aF23373.0
aF0.9245283018867925
aF0.5394258332263723
asI1161
(lp1611
g1608
aI419
aI623
aI138
aI148
aF20424.0
aF0.9324324324324325
aF0.48447904426165295
asI1162
(lp1612
S'Euclidis_megaresis_philosophi_platonic-0508.png'
p1613
aI24
aI87
aI145
aI107
aF15515.0
aF1.355140186915888
aF0.623396712858524
asI1163
(lp1614
g1613
aI30
aI312
aI143
aI194
aF27742.0
aF0.7371134020618557
aF0.5547905702544877
asI1164
(lp1615
g1613
aI88
aI581
aI40
aI58
aF2320.0
aF0.6896551724137931
aF0.55
asI1165
(lp1616
S'Euclidis_megaresis_philosophi_platonic-0509.png'
p1617
aI421
aI180
aI142
aI155
aF22010.0
aF0.9161290322580645
aF0.646569741026806
asI1166
(lp1618
g1617
aI473
aI367
aI37
aI56
aF2072.0
aF0.6607142857142857
aF0.5318532818532818
asI1167
(lp1619
g1617
aI416
aI416
aI147
aI150
aF22050.0
aF0.98
aF0.5749206349206349
asI1168
(lp1620
g1617
aI416
aI593
aI147
aI175
aF25725.0
aF0.84
aF0.441399416909621
asI1169
(lp1621
g1617
aI416
aI834
aI116
aI31
aF3596.0
aF3.7419354838709675
aF0.8086763070077865
asI1170
(lp1622
S'Euclidis_megaresis_philosophi_platonic-0510.png'
p1623
aI16
aI131
aI138
aI109
aF15042.0
aF1.2660550458715596
aF0.7374019412312193
asI1171
(lp1624
g1623
aI21
aI347
aI148
aI203
aF30044.0
aF0.729064039408867
aF0.4255425376115031
asI1172
(lp1625
g1623
aI23
aI585
aI146
aI154
aF22484.0
aF0.948051948051948
aF0.4109144280377157
asI1173
(lp1626
S'Euclidis_megaresis_philosophi_platonic-0511.png'
p1627
aI431
aI130
aI129
aI131
aF16899.0
aF0.9847328244274809
aF0.5141132611397125
asI1174
(lp1628
g1627
aI419
aI335
aI13
aI87
aF1131.0
aF0.14942528735632185
aF0.5614500442086648
asI1175
(lp1629
g1627
aI419
aI598
aI141
aI115
aF16215.0
aF1.2260869565217392
aF0.6216466234967623
asI1176
(lp1630
g1627
aI419
aI834
aI113
aI31
aF3503.0
aF3.6451612903225805
aF0.8130174136454468
asI1177
(lp1631
S'Euclidis_megaresis_philosophi_platonic-0512.png'
p1632
aI144
aI57
aI25
aI62
aF1550.0
aF0.4032258064516129
aF0.4464516129032258
asI1178
(lp1633
g1632
aI32
aI117
aI137
aI132
aF18084.0
aF1.0378787878787878
aF0.39062154390621545
asI1179
(lp1634
g1632
aI22
aI233
aI147
aI133
aF19551.0
aF1.105263157894737
aF0.4730704311799908
asI1180
(lp1635
g1632
aI22
aI391
aI135
aI93
aF12555.0
aF1.4516129032258065
aF0.551015531660693
asI1181
(lp1636
S'Euclidis_megaresis_philosophi_platonic-0513.png'
p1637
aI425
aI91
aI135
aI127
aF17145.0
aF1.062992125984252
aF0.484222805482648
asI1182
(lp1638
g1637
aI459
aI398
aI30
aI35
aF1050.0
aF0.8571428571428571
aF0.5028571428571429
asI1183
(lp1639
g1637
aI416
aI558
aI156
aI170
aF26520.0
aF0.9176470588235294
aF0.4858974358974359
asI1184
(lp1640
g1637
aI416
aI834
aI116
aI31
aF3596.0
aF3.7419354838709675
aF0.8086763070077865
asI1185
(lp1641
S'Euclidis_megaresis_philosophi_platonic-0514.png'
p1642
aI32
aI119
aI123
aI124
aF15252.0
aF0.9919354838709677
aF0.544322056123787
asI1186
(lp1643
g1642
aI14
aI294
aI140
aI109
aF15260.0
aF1.2844036697247707
aF0.572346002621232
asI1187
(lp1644
g1642
aI14
aI451
aI149
aI96
aF14304.0
aF1.5520833333333333
aF0.4250559284116331
asI1188
(lp1645
S'Euclidis_megaresis_philosophi_platonic-0515.png'
p1646
aI420
aI77
aI149
aI180
aF26820.0
aF0.8277777777777777
aF0.5455257270693512
asI1189
(lp1647
g1646
aI414
aI374
aI144
aI149
aF21456.0
aF0.9664429530201343
aF0.5484712900820283
asI1190
(lp1648
g1646
aI414
aI556
aI155
aI186
aF28830.0
aF0.8333333333333334
aF0.5920568851890392
asI1191
(lp1649
g1646
aI490
aI853
aI68
aI17
aF1156.0
aF4.0
aF0.7110726643598616
asI1192
(lp1650
S'Euclidis_megaresis_philosophi_platonic-0516.png'
p1651
aI30
aI303
aI131
aI119
aF15589.0
aF1.1008403361344539
aF0.6682275963820643
asI1193
(lp1652
g1651
aI17
aI566
aI154
aI150
aF23100.0
aF1.0266666666666666
aF0.7676190476190476
asI1194
(lp1653
S'Euclidis_megaresis_philosophi_platonic-0517.png'
p1654
aI416
aI457
aI159
aI222
aF35298.0
aF0.7162162162162162
aF0.41432942376338605
asI1195
(lp1655
S'Euclidis_megaresis_philosophi_platonic-0518.png'
p1656
aI19
aI104
aI144
aI111
aF15984.0
aF1.2972972972972974
aF0.8644269269269269
asI1196
(lp1657
g1656
aI19
aI454
aI118
aI207
aF24426.0
aF0.5700483091787439
aF0.7904691721935643
asI1197
(lp1658
S'Euclidis_megaresis_philosophi_platonic-0519.png'
p1659
aI412
aI147
aI142
aI241
aF34222.0
aF0.5892116182572614
aF0.6813161124422886
asI1198
(lp1660
g1659
aI496
aI459
aI30
aI36
aF1080.0
aF0.8333333333333334
aF0.6648148148148149
asI1199
(lp1661
g1659
aI409
aI515
aI156
aI144
aF22464.0
aF1.0833333333333333
aF0.4861556267806268
asI1200
(lp1662
g1659
aI409
aI834
aI123
aI38
aF4674.0
aF3.236842105263158
aF0.7819854514334617
asI1201
(lp1663
S'Euclidis_megaresis_philosophi_platonic-0520.png'
p1664
aI23
aI48
aI144
aI154
aF22176.0
aF0.935064935064935
aF0.4772727272727273
asI1202
(lp1665
g1664
aI28
aI242
aI146
aI151
aF22046.0
aF0.9668874172185431
aF0.7272067495237231
asI1203
(lp1666
g1664
aI23
aI449
aI140
aI141
aF19740.0
aF0.9929078014184397
aF0.6863728470111449
asI1204
(lp1667
g1664
aI163
aI539
aI11
aI110
aF1210.0
aF0.1
aF0.7181818181818181
asI1205
(lp1668
S'Euclidis_megaresis_philosophi_platonic-0521.png'
p1669
aI421
aI100
aI140
aI222
aF31080.0
aF0.6306306306306306
aF0.6749034749034749
asI1206
(lp1670
g1669
aI411
aI449
aI155
aI295
aF45725.0
aF0.5254237288135594
aF0.4778130125751777
asI1207
(lp1671
g1669
aI411
aI834
aI121
aI31
aF3751.0
aF3.903225806451613
aF0.8051186350306585
asI1208
(lp1672
S'Euclidis_megaresis_philosophi_platonic-0522.png'
p1673
aI31
aI205
aI121
aI110
aF13310.0
aF1.1
aF0.6731029301277235
asI1209
(lp1674
g1673
aI44
aI501
aI91
aI209
aF19019.0
aF0.4354066985645933
aF0.6157000893842999
asI1210
(lp1675
g1673
aI163
aI627
aI11
aI113
aF1243.0
aF0.09734513274336283
aF0.6790024135156878
asI1211
(lp1676
S'Euclidis_megaresis_philosophi_platonic-0523.png'
p1677
aI418
aI112
aI139
aI132
aF18348.0
aF1.053030303030303
aF0.6214846304774362
asI1212
(lp1678
g1677
aI432
aI382
aI118
aI105
aF12390.0
aF1.1238095238095238
aF0.725181598062954
asI1213
(lp1679
g1677
aI451
aI594
aI106
aI80
aF8480.0
aF1.325
aF0.5956367924528302
asI1214
(lp1680
g1677
aI418
aI834
aI114
aI31
aF3534.0
aF3.6774193548387095
aF0.8109790605546123
asI1215
(lp1681
S'Euclidis_megaresis_philosophi_platonic-0524.png'
p1682
aI30
aI109
aI138
aI112
aF15456.0
aF1.2321428571428572
aF0.49657091097308487
asI1216
(lp1683
g1682
aI39
aI378
aI110
aI89
aF9790.0
aF1.2359550561797752
aF0.6657814096016343
asI1217
(lp1684
S'Euclidis_megaresis_philosophi_platonic-0525.png'
p1685
aI416
aI76
aI13
aI94
aF1222.0
aF0.13829787234042554
aF0.7152209492635024
asI1218
(lp1686
g1685
aI448
aI92
aI110
aI81
aF8910.0
aF1.3580246913580247
aF0.6667789001122334
asI1219
(lp1687
g1685
aI429
aI424
aI129
aI132
aF17028.0
aF0.9772727272727273
aF0.6134014564247122
asI1220
(lp1688
g1685
aI429
aI604
aI138
aI127
aF17526.0
aF1.0866141732283465
aF0.6111491498345315
asI1221
(lp1689
S'Euclidis_megaresis_philosophi_platonic-0526.png'
p1690
aI22
aI140
aI131
aI160
aF20960.0
aF0.81875
aF0.617175572519084
asI1222
(lp1691
g1690
aI15
aI389
aI133
aI380
aF50540.0
aF0.35
aF0.5909774436090226
asI1223
(lp1692
S'Euclidis_megaresis_philosophi_platonic-0527.png'
p1693
aI411
aI81
aI15
aI81
aF1215.0
aF0.18518518518518517
aF0.6995884773662552
asI1224
(lp1694
g1693
aI429
aI122
aI133
aI153
aF20349.0
aF0.869281045751634
aF0.49226006191950467
asI1225
(lp1695
g1693
aI411
aI167
aI14
aI133
aF1862.0
aF0.10526315789473684
aF0.7878625134264232
asI1226
(lp1696
g1693
aI418
aI429
aI144
aI150
aF21600.0
aF0.96
aF0.5622685185185186
asI1227
(lp1697
g1693
aI411
aI834
aI136
aI31
aF4216.0
aF4.387096774193548
aF0.7798861480075902
asI1228
(lp1698
S'Euclidis_megaresis_philosophi_platonic-0528.png'
p1699
aI42
aI142
aI131
aI148
aF19388.0
aF0.8851351351351351
aF0.5777284918506292
asI1229
(lp1700
g1699
aI24
aI434
aI149
aI135
aF20115.0
aF1.1037037037037036
aF0.5648023862788963
asI1230
(lp1701
S'Euclidis_megaresis_philosophi_platonic-0529.png'
p1702
aI184
aI37
aI62
aI33
aF2046.0
aF1.878787878787879
aF0.8499511241446726
asI1231
(lp1703
g1702
aI172
aI72
aI396
aI690
aF273240.0
aF0.5739130434782609
aF0.5288757136583223
asI1232
(lp1704
g1702
aI352
aI452
aI71
aI67
aF4757.0
aF1.0597014925373134
aF0.5400462476350641
asI1233
(lp1705
g1702
aI279
aI738
aI52
aI22
aF1144.0
aF2.3636363636363638
aF0.7762237762237763
as.