(lp0
S'melder_1673_v1_1_0000.png'
p1
aS'melder_1673_v1_1_0001.png'
p2
aS'melder_1673_v1_1_0002.png'
p3
aS'melder_1673_v1_1_0003.png'
p4
aS'melder_1673_v1_1_0004.png'
p5
aS'melder_1673_v1_1_0005.png'
p6
aS'melder_1673_v1_1_0006.png'
p7
aS'melder_1673_v1_1_0007.png'
p8
aS'melder_1673_v1_1_0008.png'
p9
aS'melder_1673_v1_1_0009.png'
p10
aS'melder_1673_v1_1_0010.png'
p11
aS'melder_1673_v1_1_0011.png'
p12
aS'melder_1673_v1_1_0319.png'
p13
aS'melder_1673_v1_1_0318.png'
p14
aS'melder_1673_v1_1_0317.png'
p15
a.