(dp0
S'evclidiselement01euclgoog_0013'
p1
cnumpy.core.multiarray
scalar
p2
(cnumpy
dtype
p3
(S'f8'
p4
I0
I1
tp5
Rp6
(I3
S'<'
p7
NNNI-1
I-1
I0
tp8
bS'\xf9\x8d\x84\x01\xe8\xfaT?'
p9
tp10
Rp11
sS'evclidiselement01euclgoog_0258'
p12
g2
(g6
S'\xdb-\xb56\xb4`Q?'
p13
tp14
Rp15
sS'evclidiselement01euclgoog_0169'
p16
g2
(g6
S'U\xe2\xac\xdc\xd0;Q?'
p17
tp18
Rp19
sS'evclidiselement01euclgoog_0168'
p20
g2
(g6
S'R\xed\xb9q!\x92P?'
p21
tp22
Rp23
sS'evclidiselement01euclgoog_0017'
p24
g2
(g6
S'\xa0\x84\xa8\xee\x90\x87S?'
p25
tp26
Rp27
sS'evclidiselement01euclgoog_0016'
p28
g2
(g6
S'>k\xbd[(\xbfW?'
p29
tp30
Rp31
sS'evclidiselement01euclgoog_0015'
p32
g2
(g6
S'\xdb\xf7{\xfbF\xfeW?'
p33
tp34
Rp35
sS'evclidiselement01euclgoog_0014'
p36
g2
(g6
S'\xf8\xea_\x1bT\x19X?'
p37
tp38
Rp39
sS'evclidiselement01euclgoog_0163'
p40
g2
(g6
S'\xbd:\xd1\x16\xa7EQ?'
p41
tp42
Rp43
sS'evclidiselement01euclgoog_0162'
p44
g2
(g6
S'\x89{\xaa\xa4\xe2\xbfT?'
p45
tp46
Rp47
sS'evclidiselement01euclgoog_0019'
p48
g2
(g6
S'$\xb3\x15s\xf2\x10R?'
p49
tp50
Rp51
sS'evclidiselement01euclgoog_0018'
p52
g2
(g6
S'q\rI\xf8j\xa92?'
p53
tp54
Rp55
sS'evclidiselement01euclgoog_0167'
p56
g2
(g6
S'z\xbfv\xd2<\xaaR?'
p57
tp58
Rp59
sS'evclidiselement01euclgoog_0166'
p60
g2
(g6
S'\xa5\xf4\x17\xd5\x01!P?'
p61
tp62
Rp63
sS'evclidiselement01euclgoog_0165'
p64
g2
(g6
S'\t\xe9Q\xe1Z\x96M?'
p65
tp66
Rp67
sS'evclidiselement01euclgoog_0164'
p68
g2
(g6
S'\x9d\xf0\x8d\r\xe4\xd0O?'
p69
tp70
Rp71
sS'evclidiselement01euclgoog_0234'
p72
g2
(g6
S'\xe3\x07\x8b{XSR?'
p73
tp74
Rp75
sS'evclidiselement01euclgoog_0308'
p76
g2
(g6
S'B\xae\x81\xdb\\\\R?'
p77
tp78
Rp79
sS'evclidiselement01euclgoog_0282'
p80
g2
(g6
S'\xce\xfb\x07\xe5\xb6eT?'
p81
tp82
Rp83
sS'evclidiselement01euclgoog_0232'
p84
g2
(g6
S'l\x95Q\xc9\x9c\xdfU?'
p85
tp86
Rp87
sS'evclidiselement01euclgoog_0309'
p88
g2
(g6
S'?\xfe\xd1\xb0\x01@T?'
p89
tp90
Rp91
sS'evclidiselement01euclgoog_0310'
p92
g2
(g6
S'U\xe2\xac\xdc\xd0;A?'
p93
tp94
Rp95
sS'evclidiselement01euclgoog_0251'
p96
g2
(g6
S'\xd2\xd8bvN~\xd4>'
p97
tp98
Rp99
sS'evclidiselement01euclgoog_0099'
p100
g2
(g6
S'\xff\xcc\xbd\xa8U<Y?'
p101
tp102
Rp103
sS'evclidiselement01euclgoog_0098'
p104
g2
(g6
S'\x03\xdbNy\xf0\xacQ?'
p105
tp106
Rp107
sS'evclidiselement01euclgoog_0314'
p108
g2
(g6
S'\x97\xe2\x8a\xa5y\xe7S?'
p109
tp110
Rp111
sS'evclidiselement01euclgoog_0315'
p112
g2
(g6
S'\x8e0]\xcb\xa7\xe6S?'
p113
tp114
Rp115
sS'evclidiselement01euclgoog_0316'
p116
g2
(g6
S'/\x0ce\xa3\xee\xc7X?'
p117
tp118
Rp119
sS'evclidiselement01euclgoog_0250'
p120
g2
(g6
S'\xc8\xc4V\x86\xa6TP?'
p121
tp122
Rp123
sS'evclidiselement01euclgoog_0093'
p124
g2
(g6
S'\xc8\xc4V\x86\xa6TP?'
p125
tp126
Rp127
sS'evclidiselement01euclgoog_0092'
p128
g2
(g6
S'K\xa5\xf2\xf5\x82\xeaT?'
p129
tp130
Rp131
sS'evclidiselement01euclgoog_0091'
p132
g2
(g6
S'Rv:f\xf6vN?'
p133
tp134
Rp135
sS'evclidiselement01euclgoog_0090'
p136
g2
(g6
S'\x95\x12\xbbX\xa9\tU?'
p137
tp138
Rp139
sS'evclidiselement01euclgoog_0097'
p140
g2
(g6
S'57\x91I\x0b\xd4R?'
p141
tp142
Rp143
sS'evclidiselement01euclgoog_0096'
p144
g2
(g6
S']6\xf9\x10c\xe8F?'
p145
tp146
Rp147
sS'evclidiselement01euclgoog_0095'
p148
g2
(g6
S'\xe3# \xc5\x06\xb9L?'
p149
tp150
Rp151
sS'evclidiselement01euclgoog_0094'
p152
g2
(g6
S'-\xf7Q\x16\xca\\W?'
p153
tp154
Rp155
sS'evclidiselement01euclgoog_0196'
p156
g2
(g6
S'i\xa0^^\xed5U?'
p157
tp158
Rp159
sS'evclidiselement01euclgoog_0197'
p160
g2
(g6
S'\xd7\xfa\x00H:$W?'
p161
tp162
Rp163
sS'evclidiselement01euclgoog_0194'
p164
g2
(g6
S'\xf8\xb1\xa1\x93\xf3\x90O?'
p165
tp166
Rp167
sS'evclidiselement01euclgoog_0160'
p168
g2
(g6
S'\x96\xe9\x0cb\x03\xe2<?'
p169
tp170
Rp171
sS'evclidiselement01euclgoog_0192'
p172
g2
(g6
S'\x1bfK\xfb\xe9^U?'
p173
tp174
Rp175
sS'evclidiselement01euclgoog_0193'
p176
g2
(g6
S'oM\x89<U,T?'
p177
tp178
Rp179
sS'evclidiselement01euclgoog_0110'
p180
g2
(g6
S'Ut\xbb\xa5\xd6\x86V?'
p181
tp182
Rp183
sS'evclidiselement01euclgoog_0191'
p184
g2
(g6
S'\x0blV\xa5y\xb6I?'
p185
tp186
Rp187
sS'evclidiselement01euclgoog_0307'
p188
g2
(g6
S'?\xfe\xd1\xb0\x01@T?'
p189
tp190
Rp191
sS'evclidiselement01euclgoog_0255'
p192
g2
(g6
S"\x93\xf5\x1f\x83'nS?"
p193
tp194
Rp195
sS'evclidiselement01euclgoog_0305'
p196
g2
(g6
S'\x11\xd4=C\x8d\x1fV?'
p197
tp198
Rp199
sS'evclidiselement01euclgoog_0304'
p200
g2
(g6
S'\x1c\tp\xe1}@R?'
p201
tp202
Rp203
sS'evclidiselement01euclgoog_0268'
p204
g2
(g6
S'\xb0Mg\x05\xfe\xd7F?'
p205
tp206
Rp207
sS'evclidiselement01euclgoog_0269'
p208
g2
(g6
S'\x84a\x94\x1bTJ2?'
p209
tp210
Rp211
sS'evclidiselement01euclgoog_0198'
p212
g2
(g6
S'\xb1\xf0\x8b\xeb\x91\xb9S?'
p213
tp214
Rp215
sS'evclidiselement01euclgoog_0199'
p216
g2
(g6
S'&\x1d|\xd1%jV?'
p217
tp218
Rp219
sS'evclidiselement01euclgoog_0237'
p220
g2
(g6
S'c\xfa\xb5<\x0f:O?'
p221
tp222
Rp223
sS'evclidiselement01euclgoog_0257'
p224
g2
(g6
S'\xb8}\x96\xa7\x84\xeeQ?'
p225
tp226
Rp227
sS'evclidiselement01euclgoog_0246'
p228
g2
(g6
S'\x00`\xd2\xfd.\xbdU?'
p229
tp230
Rp231
sS'evclidiselement01euclgoog_0256'
p232
g2
(g6
S'/\x1cu4\xa9(Y?'
p233
tp234
Rp235
sS'evclidiselement01euclgoog_0101'
p236
g2
(g6
S'\xdfos*\x15\xc8T?'
p237
tp238
Rp239
sS'evclidiselement01euclgoog_0100'
p240
g2
(g6
S'K\xc5\x12\x18\xf8\xabU?'
p241
tp242
Rp243
sS'evclidiselement01euclgoog_0066'
p244
g2
(g6
S'\n\xad\x9cu7oR?'
p245
tp246
Rp247
sS'evclidiselement01euclgoog_0067'
p248
g2
(g6
S'\x9d\xccp{\xd8:U?'
p249
tp250
Rp251
sS'evclidiselement01euclgoog_0064'
p252
g2
(g6
S'\xdd\x9f\xa3\xddD\xeaU?'
p253
tp254
Rp255
sS'evclidiselement01euclgoog_0065'
p256
g2
(g6
S'\x04\xf0a\x06\x15\x18S?'
p257
tp258
Rp259
sS'evclidiselement01euclgoog_0062'
p260
g2
(g6
S'V\xb9\xfe\xe5*\x14Y?'
p261
tp262
Rp263
sS'evclidiselement01euclgoog_0063'
p264
g2
(g6
S'c\xb6x\x88\x8e\xe2S?'
p265
tp266
Rp267
sS'evclidiselement01euclgoog_0060'
p268
g2
(g6
S'\x83\xce\x7f\xc6z\xc9U?'
p269
tp270
Rp271
sS'evclidiselement01euclgoog_0061'
p272
g2
(g6
S'/\x0ce\xa3\xee\xc7X?'
p273
tp274
Rp275
sS'evclidiselement01euclgoog_0116'
p276
g2
(g6
S'\x0c\x0f{\x8b\r\x98V?'
p277
tp278
Rp279
sS'evclidiselement01euclgoog_0117'
p280
g2
(g6
S'\x15lU\x94\xd0\xaaS?'
p281
tp282
Rp283
sS'evclidiselement01euclgoog_0114'
p284
g2
(g6
S'>k\xbd[(\xbfW?'
p285
tp286
Rp287
sS'evclidiselement01euclgoog_0115'
p288
g2
(g6
S'\xe8\t\t+\xcf7T?'
p289
tp290
Rp291
sS'evclidiselement01euclgoog_0112'
p292
g2
(g6
S'\x8e(\xd5\x82J\xb6S?'
p293
tp294
Rp295
sS'evclidiselement01euclgoog_0113'
p296
g2
(g6
S'\xe5q\xf1\xd9\x8b\xacV?'
p297
tp298
Rp299
sS'evclidiselement01euclgoog_0068'
p300
g2
(g6
S'V\xc9\x0ew\xe5tY?'
p301
tp302
Rp303
sS'evclidiselement01euclgoog_0069'
p304
g2
(g6
S"\x17,\x15P\xe6'B?"
p305
tp306
Rp307
sS'evclidiselement01euclgoog_0185'
p308
g2
(g6
S'8\xae\x82\xec\x05hX?'
p309
tp310
Rp311
sS'evclidiselement01euclgoog_0184'
p312
g2
(g6
S'\xe6\xbf\xc2\xee\x10\xa0P?'
p313
tp314
Rp315
sS'evclidiselement01euclgoog_0187'
p316
g2
(g6
S'\xe1\xda\xdf\x14\x1cWP?'
p317
tp318
Rp319
sS'evclidiselement01euclgoog_0186'
p320
g2
(g6
S'\x0fr_-\xb7\xf6Q?'
p321
tp322
Rp323
sS'evclidiselement01euclgoog_0181'
p324
g2
(g6
S'R*ui\x18\xefR?'
p325
tp326
Rp327
sS'evclidiselement01euclgoog_0180'
p328
g2
(g6
S'\xed\x1a\x91\xdf,G??'
p329
tp330
Rp331
sS'evclidiselement01euclgoog_0183'
p332
g2
(g6
S'\xe9\r\x06\x9be\x0cN?'
p333
tp334
Rp335
sS'evclidiselement01euclgoog_0182'
p336
g2
(g6
S'\x94\xd5\xff`\xb2\xacR?'
p337
tp338
Rp339
sS'evclidiselement01euclgoog_0279'
p340
g2
(g6
S'\x81\xee\x9f\xe8\xef\x8aV?'
p341
tp342
Rp343
sS'evclidiselement01euclgoog_0278'
p344
g2
(g6
S'\xd0~\x0c\xa9\xd5\x85@?'
p345
tp346
Rp347
sS'evclidiselement01euclgoog_0189'
p348
g2
(g6
S'\xb41DS\x1f\xebO?'
p349
tp350
Rp351
sS'evclidiselement01euclgoog_0188'
p352
g2
(g6
S'\xa7\x8a#\x0e\x9e@O?'
p353
tp354
Rp355
sS'evclidiselement01euclgoog_0253'
p356
g2
(g6
S'\x06B0\x8b0\xe06?'
p357
tp358
Rp359
sS'evclidiselement01euclgoog_0220'
p360
g2
(g6
S'\xa8V\xf6\xea\xd7IT?'
p361
tp362
Rp363
sS'evclidiselement01euclgoog_0264'
p364
g2
(g6
S'v\xfa\xb3\x1a\xbd"S?'
p365
tp366
Rp367
sS'evclidiselement01euclgoog_0313'
p368
g2
(g6
S'\x1cF+\xd9t\x9dT?'
p369
tp370
Rp371
sS'evclidiselement01euclgoog_0221'
p372
g2
(g6
S"\x17,\x15P\xe6'R?"
p373
tp374
Rp375
sS'evclidiselement01euclgoog_0272'
p376
g2
(g6
S'|\xd4\x89_a\x15T?'
p377
tp378
Rp379
sS'evclidiselement01euclgoog_0223'
p380
g2
(g6
S'h&\xe8n\xff{P?'
p381
tp382
Rp383
sS'evclidiselement01euclgoog_0222'
p384
g2
(g6
S'\x97l\x11&"\x02Y?'
p385
tp386
Rp387
sS'evclidiselement01euclgoog_0075'
p388
g2
(g6
S'!\xd6\xba\xe1Z\xf8Q?'
p389
tp390
Rp391
sS'evclidiselement01euclgoog_0074'
p392
g2
(g6
S'\xf8\xfao\xac\x0ez8?'
p393
tp394
Rp395
sS'evclidiselement01euclgoog_0077'
p396
g2
(g6
S'\xfbMD\xbd\xfdwS?'
p397
tp398
Rp399
sS'evclidiselement01euclgoog_0076'
p400
g2
(g6
S'1\xd4\xac\xa7auW?'
p401
tp402
Rp403
sS'evclidiselement01euclgoog_0071'
p404
g2
(g6
S'\xc5\x86\x95\x02\xdc\xc1V?'
p405
tp406
Rp407
sS'evclidiselement01euclgoog_0070'
p408
g2
(g6
S',\xea\xc6\xd1\x02"F?'
p409
tp410
Rp411
sS'evclidiselement01euclgoog_0073'
p412
g2
(g6
S'\x18i\xd0G\xdd\x84$?'
p413
tp414
Rp415
sS'evclidiselement01euclgoog_0072'
p416
g2
(g6
S'`3t\xc4o\xc2W?'
p417
tp418
Rp419
sS'evclidiselement01euclgoog_0105'
p420
g2
(g6
S'S\xbc\x832\x1e:X?'
p421
tp422
Rp423
sS'evclidiselement01euclgoog_0104'
p424
g2
(g6
S'A`\xb0\xc6\xd7hX?'
p425
tp426
Rp427
sS'evclidiselement01euclgoog_0107'
p428
g2
(g6
S'\n\xad\x9cu7oR?'
p429
tp430
Rp431
sS'evclidiselement01euclgoog_0106'
p432
g2
(g6
S'\xba\xe7\xfc\x05\xb8GV?'
p433
tp434
Rp435
sS'evclidiselement01euclgoog_0079'
p436
g2
(g6
S'\xaac\x81/\x9f\x84%?'
p437
tp438
Rp439
sS'evclidiselement01euclgoog_0078'
p440
g2
(g6
S'\xf8P\xc9\t\xf1\x9dB?'
p441
tp442
Rp443
sS'evclidiselement01euclgoog_0103'
p444
g2
(g6
S'\xe0\xf2w\xee3\xe8P?'
p445
tp446
Rp447
sS'evclidiselement01euclgoog_0102'
p448
g2
(g6
S'Y\x14[?wBT?'
p449
tp450
Rp451
sS'evclidiselement01euclgoog_0241'
p452
g2
(g6
S"\xec3/E\x18\x0e'?"
p453
tp454
Rp455
sS'evclidiselement01euclgoog_0242'
p456
g2
(g6
S'\xc3\x91\xa2\x97,\x18V?'
p457
tp458
Rp459
sS'evclidiselement01euclgoog_0118'
p460
g2
(g6
S'\x8fU\x80\xe9\x86\xb2U?'
p461
tp462
Rp463
sS'evclidiselement01euclgoog_0271'
p464
g2
(g6
S'\xac#A\xeb\xb4\x01T?'
p465
tp466
Rp467
sS'evclidiselement01euclgoog_0224'
p468
g2
(g6
S'!@!@\x8eQV?'
p469
tp470
Rp471
sS'evclidiselement01euclgoog_0119'
p472
g2
(g6
S'\xda\x92\x18\x99}\xafT?'
p473
tp474
Rp475
sS'evclidiselement01euclgoog_0247'
p476
g2
(g6
S'\xca%/\x10\xa9G]?'
p477
tp478
Rp479
sS'evclidiselement01euclgoog_0208'
p480
g2
(g6
S'\xd0\xd3_z\xe4sS?'
p481
tp482
Rp483
sS'evclidiselement01euclgoog_0302'
p484
g2
(g6
S'\xb7\xe2\xf9\tN=U?'
p485
tp486
Rp487
sS'evclidiselement01euclgoog_0244'
p488
g2
(g6
S'\xea\x8c\r\xef\xedW@?'
p489
tp490
Rp491
sS'evclidiselement01euclgoog_0311'
p492
g2
(g6
S'1\xd4\xac\xa7auW?'
p493
tp494
Rp495
sS'evclidiselement01euclgoog_0245'
p496
g2
(g6
S'\x83a\x94\x1bTJ2?'
p497
tp498
Rp499
sS'evclidiselement01euclgoog_0298'
p500
g2
(g6
S'\xea\r\x06\x9be\x0cN?'
p501
tp502
Rp503
sS'evclidiselement01euclgoog_0303'
p504
g2
(g6
S'\xbd\xcb\xd9S\xd9ZO?'
p505
tp506
Rp507
sS'evclidiselement01euclgoog_0243'
p508
g2
(g6
S'U\xe2\xac\xdc\xd0;Q?'
p509
tp510
Rp511
sS'evclidiselement01euclgoog_0201'
p512
g2
(g6
S"\xf9u\xec'\xd0iT?"
p513
tp514
Rp515
sS'evclidiselement01euclgoog_0288'
p516
g2
(g6
S'\x10\x9f\n\x94\xf3\xf2S?'
p517
tp518
Rp519
sS'evclidiselement01euclgoog_0225'
p520
g2
(g6
S'\xce/5\x08}\\O?'
p521
tp522
Rp523
sS'evclidiselement01euclgoog_0286'
p524
g2
(g6
S')\xc5\xa3\xb3#VT?'
p525
tp526
Rp527
sS'evclidiselement01euclgoog_0287'
p528
g2
(g6
S'A`\xb0\xc6\xd7hX?'
p529
tp530
Rp531
sS'evclidiselement01euclgoog_0284'
p532
g2
(g6
S'\xf9\x8d\x84\x01\xe8\xfaT?'
p533
tp534
Rp535
sS'evclidiselement01euclgoog_0285'
p536
g2
(g6
S'\xa8V\xf6\xea\xd7I$?'
p537
tp538
Rp539
sS'evclidiselement01euclgoog_0254'
p540
g2
(g6
S'G\xd0\x1f\xadH\x02U?'
p541
tp542
Rp543
sS'evclidiselement01euclgoog_0283'
p544
g2
(g6
S'`\x98\xd7&9\x11[?'
p545
tp546
Rp547
sS'evclidiselement01euclgoog_0280'
p548
g2
(g6
S'\xbb\x0c $\x97\x13X?'
p549
tp550
Rp551
sS'evclidiselement01euclgoog_0209'
p552
g2
(g6
S'\xc4y\n\xbe\x14\x87U?'
p553
tp554
Rp555
sS'evclidiselement01euclgoog_0040'
p556
g2
(g6
S'T\x02\xcd\xfeE\xfdQ?'
p557
tp558
Rp559
sS'evclidiselement01euclgoog_0041'
p560
g2
(g6
S'=\xf1Fl:\x05S?'
p561
tp562
Rp563
sS'evclidiselement01euclgoog_0042'
p564
g2
(g6
S'\x1cN\xb3!\xd2\xcdT?'
p565
tp566
Rp567
sS'evclidiselement01euclgoog_0043'
p568
g2
(g6
S'\x88\xd0\xfdu\xf1\xadW?'
p569
tp570
Rp571
sS'evclidiselement01euclgoog_0044'
p572
g2
(g6
S'\x89{\xaa\xa4\xe2\xbfT?'
p573
tp574
Rp575
sS'evclidiselement01euclgoog_0045'
p576
g2
(g6
S'8i?\xac\xb1\xdaU?'
p577
tp578
Rp579
sS'evclidiselement01euclgoog_0046'
p580
g2
(g6
S'\x90\x8a\xb3\x98 \xdfW?'
p581
tp582
Rp583
sS'evclidiselement01euclgoog_0047'
p584
g2
(g6
S'u\x02<c\x1aSS?'
p585
tp586
Rp587
sS'evclidiselement01euclgoog_0048'
p588
g2
(g6
S'AxH\xa0\xef\xf9X?'
p589
tp590
Rp591
sS'evclidiselement01euclgoog_0049'
p592
g2
(g6
S'w\\\x920\x93KW?'
p593
tp594
Rp595
sS'evclidiselement01euclgoog_0132'
p596
g2
(g6
S'\xc9{\x88m\x8bkW?'
p597
tp598
Rp599
sS'evclidiselement01euclgoog_0111'
p600
g2
(g6
S'\xfbMD\xbd\xfdwS?'
p601
tp602
Rp603
sS'evclidiselement01euclgoog_0134'
p604
g2
(g6
S'\xe9F\xc4"\xc6\x946?'
p605
tp606
Rp607
sS'evclidiselement01euclgoog_0135'
p608
g2
(g6
S'\xba\xe7\xfc\x05\xb8GV?'
p609
tp610
Rp611
sS'evclidiselement01euclgoog_0136'
p612
g2
(g6
S'\x06\xc01S\xe5\xf5Q?'
p613
tp614
Rp615
sS'evclidiselement01euclgoog_0137'
p616
g2
(g6
S'\xe17\xbb.\x88uS?'
p617
tp618
Rp619
sS'evclidiselement01euclgoog_0240'
p620
g2
(g6
S'B\xbe\x91l\x17\xbdR?'
p621
tp622
Rp623
sS'evclidiselement01euclgoog_0273'
p624
g2
(g6
S'\xf8\x9d\x94\x92\xa2[U?'
p625
tp626
Rp627
sS'evclidiselement01euclgoog_0277'
p628
g2
(g6
S'\xd3Za\xae\x99hY?'
p629
tp630
Rp631
sS'evclidiselement01euclgoog_0161'
p632
g2
(g6
S'\xa5\xd3\xf1&\xb9)X?'
p633
tp634
Rp635
sS'evclidiselement01euclgoog_0226'
p636
g2
(g6
S'\xa5A\xe3]\xb3\xdeR?'
p637
tp638
Rp639
sS'evclidiselement01euclgoog_0059'
p640
g2
(g6
S'm\x95Q\xc9\x9c\xdfU?'
p641
tp642
Rp643
sS'evclidiselement01euclgoog_0058'
p644
g2
(g6
S'\x8e(\xd5\x82J\xb6S?'
p645
tp646
Rp647
sS'evclidiselement01euclgoog_0057'
p648
g2
(g6
S'\xceX\xe3\xfe"\x84W?'
p649
tp650
Rp651
sS'evclidiselement01euclgoog_0056'
p652
g2
(g6
S'\xf8P\xc9\t\xf1\x9dR?'
p653
tp654
Rp655
sS'evclidiselement01euclgoog_0055'
p656
g2
(g6
S'l\xad\xe9\xa2\xb4pV?'
p657
tp658
Rp659
sS'evclidiselement01euclgoog_0054'
p660
g2
(g6
S'\x8b\x885\xe9\xa9\xfaU?'
p661
tp662
Rp663
sS'evclidiselement01euclgoog_0053'
p664
g2
(g6
S'by\xbd\x90\x97\x851?'
p665
tp666
Rp667
sS'evclidiselement01euclgoog_0052'
p668
g2
(g6
S'\x90\xa2Kr8pX?'
p669
tp670
Rp671
sS'evclidiselement01euclgoog_0051'
p672
g2
(g6
S'\x00\xb5%\xcf=\xabX?'
p673
tp674
Rp675
sS'evclidiselement01euclgoog_0050'
p676
g2
(g6
S'>k\xbd[(\xbfW?'
p677
tp678
Rp679
sS'evclidiselement01euclgoog_0270'
p680
g2
(g6
S'\x93\xe5\x0f\xf2l\rS?'
p681
tp682
Rp683
sS'evclidiselement01euclgoog_0265'
p684
g2
(g6
S"\xe2'\xab\x9d\xcd\x14S?"
p685
tp686
Rp687
sS'evclidiselement01euclgoog_0216'
p688
g2
(g6
S'\x17P2\xe2\xf1\xbdL?'
p689
tp690
Rp691
sS'evclidiselement01euclgoog_0301'
p692
g2
(g6
S'\x83\xc6\xf7}\x1d\x99U?'
p693
tp694
Rp695
sS'evclidiselement01euclgoog_0276'
p696
g2
(g6
S'\xfbMD\xbd\xfdwS?'
p697
tp698
Rp699
sS'evclidiselement01euclgoog_0215'
p700
g2
(g6
S'\xb8}\x96\xa7\x84\xeeQ?'
p701
tp702
Rp703
sS'evclidiselement01euclgoog_0202'
p704
g2
(g6
S'\x94_\x86\xe1Z\xc7W?'
p705
tp706
Rp707
sS'evclidiselement01euclgoog_0227'
p708
g2
(g6
S'\xba,@F\x0c\xd5X?'
p709
tp710
Rp711
sS'evclidiselement01euclgoog_0299'
p712
g2
(g6
S'YP\x10\xab\x9aiO?'
p713
tp714
Rp715
sS'evclidiselement01euclgoog_0275'
p716
g2
(g6
S'\x03\xcb>\xe85LQ?'
p717
tp718
Rp719
sS'evclidiselement01euclgoog_0214'
p720
g2
(g6
S'\xa5\xf4\x17\xd5\x01!P?'
p721
tp722
Rp723
sS'evclidiselement01euclgoog_0295'
p724
g2
(g6
S'C(\xf8\xcaJ\x16W?'
p725
tp726
Rp727
sS'evclidiselement01euclgoog_0294'
p728
g2
(g6
S'X\xd7\x9fG\x80\xe5Q?'
p729
tp730
Rp731
sS'evclidiselement01euclgoog_0297'
p732
g2
(g6
S'L8\x07K\\kQ?'
p733
tp734
Rp735
sS'evclidiselement01euclgoog_0238'
p736
g2
(g6
S'\x17P2\xe2\xf1\xbdL?'
p737
tp738
Rp739
sS'evclidiselement01euclgoog_0291'
p740
g2
(g6
S'.\xe7A\x85\x0f\xfcV?'
p741
tp742
Rp743
sS'evclidiselement01euclgoog_0206'
p744
g2
(g6
S'\xed3/E\x18\x0eW?'
p745
tp746
Rp747
sS'evclidiselement01euclgoog_0293'
p748
g2
(g6
S'2\xc4\x9c\x16\xa7\x14G?'
p749
tp750
Rp751
sS'evclidiselement01euclgoog_0292'
p752
g2
(g6
S'\xdfw\xfbrr\xf8T?'
p753
tp754
Rp755
sS'evclidiselement01euclgoog_0127'
p756
g2
(g6
S'\xbf\n\xa1cw#0?'
p757
tp758
Rp759
sS'evclidiselement01euclgoog_0126'
p760
g2
(g6
S"\xbd\xe4w\xb9\xc4!'?"
p761
tp762
Rp763
sS'evclidiselement01euclgoog_0125'
p764
g2
(g6
S'nm\xa9^\xca\xed$?'
p765
tp766
Rp767
sS'evclidiselement01euclgoog_0124'
p768
g2
(g6
S'\x96\x95\xbf\x1c\xc8)A?'
p769
tp770
Rp771
sS'evclidiselement01euclgoog_0123'
p772
g2
(g6
S'7<\x94Eu\xdeS?'
p773
tp774
Rp775
sS'evclidiselement01euclgoog_0122'
p776
g2
(g6
S'\x00`\xd2\xfd.\xbdU?'
p777
tp778
Rp779
sS'evclidiselement01euclgoog_0121'
p780
g2
(g6
S'\x00\xf2\xe0\xc64\x08K?'
p781
tp782
Rp783
sS'evclidiselement01euclgoog_0120'
p784
g2
(g6
S'\xc5\x86\x95\x02\xdc\xc1V?'
p785
tp786
Rp787
sS'evclidiselement01euclgoog_0211'
p788
g2
(g6
S' \xc5\xa4\xc4\xccaZ?'
p789
tp790
Rp791
sS'evclidiselement01euclgoog_0219'
p792
g2
(g6
S'i\xed)\xe7\x9e\xf3W?'
p793
tp794
Rp795
sS'evclidiselement01euclgoog_0218'
p796
g2
(g6
S'5\x1e\xf3\xe3\x1f\rK?'
p797
tp798
Rp799
sS'evclidiselement01euclgoog_0129'
p800
g2
(g6
S'\xcf\x8e\x1c:\x90\xe6P?'
p801
tp802
Rp803
sS'evclidiselement01euclgoog_0128'
p804
g2
(g6
S'\xfbMD\xbd\xfdw\x13?'
p805
tp806
Rp807
sS'evclidiselement01euclgoog_0028'
p808
g2
(g6
S'\x89\xfe\xaeh\x01\xe0`?'
p809
tp810
Rp811
sS'evclidiselement01euclgoog_0029'
p812
g2
(g6
S'\xc0.\xbe\xf5\x82\xb9Z?'
p813
tp814
Rp815
sS'evclidiselement01euclgoog_0213'
p816
g2
(g6
S';E\x94\xb1u\xbd\x1e?'
p817
tp818
Rp819
sS'evclidiselement01euclgoog_0022'
p820
g2
(g6
S'\xcc\xa1\xb1\x17>mP?'
p821
tp822
Rp823
sS'evclidiselement01euclgoog_0023'
p824
g2
(g6
S'g-j+\x89vY?'
p825
tp826
Rp827
sS'evclidiselement01euclgoog_0020'
p828
g2
(g6
S'\xf3\xc09\x01\x0bCE?'
p829
tp830
Rp831
sS'evclidiselement01euclgoog_0021'
p832
g2
(g6
S'@#\xf5\xce\xe0\x0bV?'
p833
tp834
Rp835
sS'evclidiselement01euclgoog_0026'
p836
g2
(g6
S'S\xf1\xb6\xe1\xb7fZ?'
p837
tp838
Rp839
sS'evclidiselement01euclgoog_0027'
p840
g2
(g6
S'\xdf\xf9\xf9\xaa\xbd\xe2Y?'
p841
tp842
Rp843
sS'evclidiselement01euclgoog_0024'
p844
g2
(g6
S'\xb3\xed\x06\x9f\x9e\x93T?'
p845
tp846
Rp847
sS'evclidiselement01euclgoog_0025'
p848
g2
(g6
S'~\x94I\x1bw\x922?'
p849
tp850
Rp851
sS'evclidiselement01euclgoog_0236'
p852
g2
(g6
S'\x06\xb8\xa9\n\x88\xc5Q?'
p853
tp854
Rp855
sS'evclidiselement01euclgoog_0267'
p856
g2
(g6
S'\xb2j\x02\xdb\x7fsX?'
p857
tp858
Rp859
sS'evclidiselement01euclgoog_0210'
p860
g2
(g6
S'y\x8aC#\xa3}P?'
p861
tp862
Rp863
sS'evclidiselement01euclgoog_0230'
p864
g2
(g6
S')\xc5\xa3\xb3#VT?'
p865
tp866
Rp867
sS'evclidiselement01euclgoog_0274'
p868
g2
(g6
S'\xbb\xd7\xect\xfd\xe6U?'
p869
tp870
Rp871
sS'evclidiselement01euclgoog_0207'
p872
g2
(g6
S'\xdbij\xa2\xd7\x87L?'
p873
tp874
Rp875
sS'evclidiselement01euclgoog_0259'
p876
g2
(g6
S'1\xbb\x0eBv\xae_?'
p877
tp878
Rp879
sS'evclidiselement01euclgoog_0289'
p880
g2
(g6
S'\x8cX\x056z\xd8T?'
p881
tp882
Rp883
sS'evclidiselement01euclgoog_0252'
p884
g2
(g6
S':8\tm\xae\x82\xcd>'
p885
tp886
Rp887
sS'evclidiselement01euclgoog_0235'
p888
g2
(g6
S'\xa5A\xe3]\xb3\xdeR?'
p889
tp890
Rp891
sS'evclidiselement01euclgoog_0152'
p892
g2
(g6
S'\xe3<\xbe*\xf2\x7fT?'
p893
tp894
Rp895
sS'evclidiselement01euclgoog_0153'
p896
g2
(g6
S'\x83H\xf6\xb5h\x83:?'
p897
tp898
Rp899
sS'evclidiselement01euclgoog_0150'
p900
g2
(g6
S'z\xc7\xfe\x1a\x9a\xdaB?'
p901
tp902
Rp903
sS'evclidiselement01euclgoog_0151'
p904
g2
(g6
S"'\rl@k\tV?"
p905
tp906
Rp907
sS'evclidiselement01euclgoog_0156'
p908
g2
(g6
S'\x00\x1b\x8f\xbd\xda/S?'
p909
tp910
Rp911
sS'evclidiselement01euclgoog_0157'
p912
g2
(g6
S'u\xad\xe8\x91\x0beP?'
p913
tp914
Rp915
sS'evclidiselement01euclgoog_0154'
p916
g2
(g6
S'\xc71B1\xcd\xd3S?'
p917
tp918
Rp919
sS'evclidiselement01euclgoog_0155'
p920
g2
(g6
S'0A\x98R\x88\xf4J?'
p921
tp922
Rp923
sS'evclidiselement01euclgoog_0228'
p924
g2
(g6
S'\xe4$&Q\xda\xeeS?'
p925
tp926
Rp927
sS'evclidiselement01euclgoog_0229'
p928
g2
(g6
S'i\xed)\xe7\x9e\xf3W?'
p929
tp930
Rp931
sS'evclidiselement01euclgoog_0158'
p932
g2
(g6
S'\x03\xcb>\xe85LQ?'
p933
tp934
Rp935
sS'evclidiselement01euclgoog_0159'
p936
g2
(g6
S'\xbeg|}\xe3AS?'
p937
tp938
Rp939
sS'evclidiselement01euclgoog_0039'
p940
g2
(g6
S'\x84At\xf9\xde\x88Q?'
p941
tp942
Rp943
sS'evclidiselement01euclgoog_0038'
p944
g2
(g6
S'\xda\x92\x18\x99}\xafT?'
p945
tp946
Rp947
sS'evclidiselement01euclgoog_0239'
p948
g2
(g6
S'\xccKX\xba[IV?'
p949
tp950
Rp951
sS'evclidiselement01euclgoog_0205'
p952
g2
(g6
S'6+~(\xe7G,?'
p953
tp954
Rp955
sS'evclidiselement01euclgoog_0031'
p956
g2
(g6
S'V\xd2\x9cK\x16\xdb`?'
p957
tp958
Rp959
sS'evclidiselement01euclgoog_0030'
p960
g2
(g6
S'\x86!T\xd7i\xc7`?'
p961
tp962
Rp963
sS'evclidiselement01euclgoog_0033'
p964
g2
(g6
S'\xd3\x15\x1enE\xdbV?'
p965
tp966
Rp967
sS'evclidiselement01euclgoog_0032'
p968
g2
(g6
S'S\xc4\x0b{{jX?'
p969
tp970
Rp971
sS'evclidiselement01euclgoog_0035'
p972
g2
(g6
S'\xcb\xfe\x8c1\xaa\x8bS?'
p973
tp974
Rp975
sS'evclidiselement01euclgoog_0034'
p976
g2
(g6
S']\xd8\x17k#\x94\\?'
p977
tp978
Rp979
sS'evclidiselement01euclgoog_0037'
p980
g2
(g6
S'\x08\xc54OO\x00S?'
p981
tp982
Rp983
sS'evclidiselement01euclgoog_0036'
p984
g2
(g6
S"\xe8\xab'\x85\x8f\xe3Y?"
p985
tp986
Rp987
sS'evclidiselement01euclgoog_0212'
p988
g2
(g6
S'W` <U\xcaO?'
p989
tp990
Rp991
sS'evclidiselement01euclgoog_0195'
p992
g2
(g6
S'\xb3\x05\x9fx\xb6$U?'
p993
tp994
Rp995
sS'evclidiselement01euclgoog_0312'
p996
g2
(g6
S'\x1b)\x90\x03\xf3\x01S?'
p997
tp998
Rp999
sS'evclidiselement01euclgoog_0260'
p1000
g2
(g6
S'\x9f_\x85\xd0\xb1\xbbQ?'
p1001
tp1002
Rp1003
sS'evclidiselement01euclgoog_0281'
p1004
g2
(g6
S'\xe5$&Q\xda\xeeS?'
p1005
tp1006
Rp1007
sS'evclidiselement01euclgoog_0261'
p1008
g2
(g6
S'\x01\xad\x9d\x86\xe0zX?'
p1009
tp1010
Rp1011
sS'evclidiselement01euclgoog_0217'
p1012
g2
(g6
S'\x1f\xa0\x81\xa6\xed\x95H?'
p1013
tp1014
Rp1015
sS'evclidiselement01euclgoog_0138'
p1016
g2
(g6
S'-eCM\xc4\x11R?'
p1017
tp1018
Rp1019
sS'evclidiselement01euclgoog_0190'
p1020
g2
(g6
S'\xc8\xbc\xce=I$P?'
p1021
tp1022
Rp1023
sS'evclidiselement01euclgoog_0139'
p1024
g2
(g6
S'NM\x1a\xd8\x80\xd6R?'
p1025
tp1026
Rp1027
sS'evclidiselement01euclgoog_0233'
p1028
g2
(g6
S'47\x91I\x0b\xd4R?'
p1029
tp1030
Rp1031
sS'evclidiselement01euclgoog_0263'
p1032
g2
(g6
S'@#\xf5\xce\xe0\x0bV?'
p1033
tp1034
Rp1035
sS'evclidiselement01euclgoog_0262'
p1036
g2
(g6
S'`\xa1e\xfbiwR?'
p1037
tp1038
Rp1039
sS'evclidiselement01euclgoog_0204'
p1040
g2
(g6
S'6+~(\xe7GL?'
p1041
tp1042
Rp1043
sS'evclidiselement01euclgoog_0306'
p1044
g2
(g6
S'\xb6O\xe5\xb4t\xbcX?'
p1045
tp1046
Rp1047
sS'evclidiselement01euclgoog_0141'
p1048
g2
(g6
S'0Z6\xb8s\xbbR?'
p1049
tp1050
Rp1051
sS'evclidiselement01euclgoog_0140'
p1052
g2
(g6
S'@\xa1\xf6\x96\x95!Q?'
p1053
tp1054
Rp1055
sS'evclidiselement01euclgoog_0143'
p1056
g2
(g6
S'\xdcb\xe8\xe5M\x8dS?'
p1057
tp1058
Rp1059
sS'evclidiselement01euclgoog_0109'
p1060
g2
(g6
S'-\x9av\xfc]>T?'
p1061
tp1062
Rp1063
sS'evclidiselement01euclgoog_0145'
p1064
g2
(g6
S'\xe1/3\xe6*ES?'
p1065
tp1066
Rp1067
sS'evclidiselement01euclgoog_0144'
p1068
g2
(g6
S'_\x84\xca%\xe8\xdbP?'
p1069
tp1070
Rp1071
sS'evclidiselement01euclgoog_0147'
p1072
g2
(g6
S'u\xad\xe8\x91\x0be\xd0>'
p1073
tp1074
Rp1075
sS'evclidiselement01euclgoog_0146'
p1076
g2
(g6
S' 3\x96\xfb\xc6\x16U?'
p1077
tp1078
Rp1079
sS'evclidiselement01euclgoog_0149'
p1080
g2
(g6
S'\xe1\x06\x85\xef\x84\x1dK?'
p1081
tp1082
Rp1083
sS'evclidiselement01euclgoog_0148'
p1084
g2
(g6
S'\xeb&\xa4\x00Q\xd3U?'
p1085
tp1086
Rp1087
sS'evclidiselement01euclgoog_0296'
p1088
g2
(g6
S'\xa5\x966/\xc2\xccU?'
p1089
tp1090
Rp1091
sS'evclidiselement01euclgoog_0130'
p1092
g2
(g6
S'\xe1?Cw\xe5\xa5S?'
p1093
tp1094
Rp1095
sS'evclidiselement01euclgoog_0203'
p1096
g2
(g6
S'\xf7\xfao\xac\x0ezX?'
p1097
tp1098
Rp1099
sS'evclidiselement01euclgoog_0248'
p1100
g2
(g6
S"'\rl@k\tV?"
p1101
tp1102
Rp1103
sS'evclidiselement01euclgoog_0249'
p1104
g2
(g6
S'\xe6\xbf\xc2\xee\x10\xa0@?'
p1105
tp1106
Rp1107
sS'evclidiselement01euclgoog_0178'
p1108
g2
(g6
S'\xd88\xc2\xcb\x04\xb70?'
p1109
tp1110
Rp1111
sS'evclidiselement01euclgoog_0179'
p1112
g2
(g6
S'\x06\xa8\x99y\xcddQ?'
p1113
tp1114
Rp1115
sS'evclidiselement01euclgoog_0174'
p1116
g2
(g6
S'g\xd7\x10\xce\xa6RO?'
p1117
tp1118
Rp1119
sS'evclidiselement01euclgoog_0175'
p1120
g2
(g6
S'\x06B0\x8b0\xe06?'
p1121
tp1122
Rp1123
sS'evclidiselement01euclgoog_0176'
p1124
g2
(g6
S'\x9d\xf0\x8d\r\xe4\xd0O?'
p1125
tp1126
Rp1127
sS'evclidiselement01euclgoog_0177'
p1128
g2
(g6
S'\x16pR\x04g\x7fM?'
p1129
tp1130
Rp1131
sS'evclidiselement01euclgoog_0170'
p1132
g2
(g6
S'\x8a\x067\xb1^\x10Q?'
p1133
tp1134
Rp1135
sS'evclidiselement01euclgoog_0171'
p1136
g2
(g6
S'y\xd7\x0e\xacT;S?'
p1137
tp1138
Rp1139
sS'evclidiselement01euclgoog_0172'
p1140
g2
(g6
S'\xea\x8c\r\xef\xedWP?'
p1141
tp1142
Rp1143
sS'evclidiselement01euclgoog_0173'
p1144
g2
(g6
S'\xaac\x81/\x9f\x84U?'
p1145
tp1146
Rp1147
sS'evclidiselement01euclgoog_0266'
p1148
g2
(g6
S'$\xc3%\x04\xadq2?'
p1149
tp1150
Rp1151
sS'evclidiselement01euclgoog_0108'
p1152
g2
(g6
S'\xed`\xda\xabT\nY?'
p1153
tp1154
Rp1155
sS'evclidiselement01euclgoog_0290'
p1156
g2
(g6
S'\xac#A\xeb\xb4\x01T?'
p1157
tp1158
Rp1159
sS'evclidiselement01euclgoog_0131'
p1160
g2
(g6
S'hs\xb3\xf7\xb09S?'
p1161
tp1162
Rp1163
sS'evclidiselement01euclgoog_0300'
p1164
g2
(g6
S'\xe17\xbb.\x88uS?'
p1165
tp1166
Rp1167
sS'evclidiselement01euclgoog_0142'
p1168
g2
(g6
S'6\xee\xc20\xf0\xeaI?'
p1169
tp1170
Rp1171
sS'evclidiselement01euclgoog_0200'
p1172
g2
(g6
S'\xe3\x07\x8b{XSR?'
p1173
tp1174
Rp1175
sS'evclidiselement01euclgoog_0133'
p1176
g2
(g6
S'-\xf7Q\x16\xca\\W?'
p1177
tp1178
Rp1179
sS'evclidiselement01euclgoog_0231'
p1180
g2
(g6
S'\xf6g[W5\xf9[?'
p1181
tp1182
Rp1183
sS'evclidiselement01euclgoog_0088'
p1184
g2
(g6
S'Z\xfc\xc2e_\xb1S?'
p1185
tp1186
Rp1187
sS'evclidiselement01euclgoog_0089'
p1188
g2
(g6
S'\x1c\tp\xe1}@R?'
p1189
tp1190
Rp1191
sS'evclidiselement01euclgoog_0084'
p1192
g2
(g6
S'\xe8\x19\x19\xbc\x89\x98T?'
p1193
tp1194
Rp1195
sS'evclidiselement01euclgoog_0085'
p1196
g2
(g6
S'\x0f\xc7\xb2\xfe\xc5\xe4T?'
p1197
tp1198
Rp1199
sS'evclidiselement01euclgoog_0086'
p1200
g2
(g6
S'\x97l\x11&"\x02Y?'
p1201
tp1202
Rp1203
sS'evclidiselement01euclgoog_0087'
p1204
g2
(g6
S'g\x93\xd3\x19&\xfbS?'
p1205
tp1206
Rp1207
sS'evclidiselement01euclgoog_0080'
p1208
g2
(g6
S'\re\xd4\xe8\xef\xbb@?'
p1209
tp1210
Rp1211
sS'evclidiselement01euclgoog_0081'
p1212
g2
(g6
S'H\xb8\x87\xd30q$?'
p1213
tp1214
Rp1215
sS'evclidiselement01euclgoog_0082'
p1216
g2
(g6
S'\x07\x8f\xfb\x13\xe2\x9d)?'
p1217
tp1218
Rp1219
sS'evclidiselement01euclgoog_0083'
p1220
g2
(g6
S'\xb5\xbd\xd6\xebnqS?'
p1221
tp1222
Rp1223
s.