(dp0
I1
(lp1
S'Euclidis_Megarensis_Opera2-0015.png'
p2
aI344
aI46
aI193
aI610
aF117730.0
aF0.3163934426229508
aF0.8469633908094794
asI2
(lp3
S'Euclidis_Megarensis_Opera2-0016.png'
p4
aI20
aI33
aI177
aI476
aF84252.0
aF0.37184873949579833
aF0.7380477614774723
asI3
(lp5
S'Euclidis_Megarensis_Opera2-0017.png'
p6
aI328
aI47
aI195
aI304
aF59280.0
aF0.6414473684210527
aF0.3000337381916329
asI4
(lp7
g6
aI328
aI303
aI195
aI173
aF33735.0
aF1.1271676300578035
aF0.7227212094264117
asI5
(lp8
g6
aI338
aI742
aI122
aI29
aF3538.0
aF4.206896551724138
aF0.7990390050876202
asI6
(lp9
S'Euclidis_Megarensis_Opera2-0018.png'
p10
aI35
aI26
aI164
aI173
aF28372.0
aF0.9479768786127167
aF0.6322430565346115
asI7
(lp11
g10
aI48
aI207
aI105
aI40
aF4200.0
aF2.625
aF0.6595238095238095
asI8
(lp12
g10
aI30
aI262
aI177
aI289
aF51153.0
aF0.6124567474048442
aF0.5279260258440365
asI9
(lp13
S'Euclidis_Megarensis_Opera2-0019.png'
p14
aI337
aI13
aI199
aI29
aF5771.0
aF6.862068965517241
aF0.9194247097556749
asI10
(lp15
g14
aI337
aI74
aI13
aI141
aF1833.0
aF0.09219858156028368
aF0.8314238952536824
asI11
(lp16
g14
aI349
aI86
aI122
aI198
aF24156.0
aF0.6161616161616161
aF0.44071866203013743
asI12
(lp17
g14
aI351
aI284
aI157
aI208
aF32656.0
aF0.7548076923076923
aF0.46496815286624205
asI13
(lp18
g14
aI353
aI471
aI120
aI154
aF18480.0
aF0.7792207792207793
aF0.5395021645021645
asI14
(lp19
S'Euclidis_Megarensis_Opera2-0020.png'
p20
aI3
aI16
aI195
aI16
aF3120.0
aF12.1875
aF0.9032051282051282
asI15
(lp21
g20
aI17
aI44
aI190
aI625
aF118750.0
aF0.304
aF0.4579705263157895
asI16
(lp22
g20
aI20
aI71
aI29
aI35
aF1015.0
aF0.8285714285714286
aF0.6463054187192119
asI17
(lp23
g20
aI27
aI126
aI25
aI36
aF900.0
aF0.6944444444444444
aF0.5733333333333334
asI18
(lp24
g20
aI28
aI677
aI179
aI90
aF16110.0
aF1.988888888888889
aF0.5084419615145872
asI19
(lp25
S'Euclidis_Megarensis_Opera2-0021.png'
p26
aI356
aI34
aI156
aI579
aF90324.0
aF0.2694300518134715
aF0.4574088835746867
asI20
(lp27
S'Euclidis_Megarensis_Opera2-0022.png'
p28
aI28
aI91
aI154
aI155
aF23870.0
aF0.9935483870967742
aF0.613657310431504
asI21
(lp29
g28
aI19
aI278
aI165
aI167
aF27555.0
aF0.9880239520958084
aF0.3663581927054981
asI22
(lp30
g28
aI20
aI467
aI166
aI171
aF28386.0
aF0.9707602339181286
aF0.33858239977453675
asI23
(lp31
g28
aI194
aI573
aI12
aI96
aF1152.0
aF0.125
aF0.8272569444444444
asI24
(lp32
S'Euclidis_Megarensis_Opera2-0023.png'
p33
aI205
aI30
aI310
aI627
aF194370.0
aF0.4944178628389155
aF0.6695066111025364
asI25
(lp34
g33
aI205
aI743
aI307
aI24
aF7368.0
aF12.791666666666666
aF0.6980184581976113
asI26
(lp35
S'Euclidis_Megarensis_Opera2-0024.png'
p36
aI22
aI26
aI188
aI574
aF107912.0
aF0.32752613240418116
aF0.5495310994143376
asI27
(lp37
g36
aI144
aI749
aI45
aI19
aF855.0
aF2.3684210526315788
aF0.8327485380116959
asI28
(lp38
S'Euclidis_Megarensis_Opera2-0025.png'
p39
aI339
aI33
aI182
aI609
aF110838.0
aF0.2988505747126437
aF0.5240892112813295
asI29
(lp40
g39
aI333
aI742
aI146
aI29
aF4234.0
aF5.0344827586206895
aF0.7586206896551724
asI30
(lp41
S'Euclidis_Megarensis_Opera2-0026.png'
p42
aI31
aI165
aI165
aI192
aF31680.0
aF0.859375
aF0.36313131313131314
asI31
(lp43
g42
aI39
aI338
aI154
aI166
aF25564.0
aF0.927710843373494
aF0.3926224378031607
asI32
(lp44
g42
aI16
aI728
aI192
aI42
aF8064.0
aF4.571428571428571
aF0.3763640873015873
asI33
(lp45
S'Euclidis_Megarensis_Opera2-0027.png'
p46
aI339
aI61
aI180
aI558
aF100440.0
aF0.3225806451612903
aF0.4458980485862206
asI34
(lp47
g46
aI339
aI753
aI168
aI16
aF2688.0
aF10.5
aF0.8820684523809523
asI35
(lp48
S'Euclidis_Megarensis_Opera2-0028.png'
p49
aI74
aI49
aI137
aI147
aF20139.0
aF0.9319727891156463
aF0.6346392571627191
asI36
(lp50
g49
aI35
aI212
aI172
aI199
aF34228.0
aF0.864321608040201
aF0.4782341942269487
asI37
(lp51
g49
aI25
aI418
aI169
aI173
aF29237.0
aF0.976878612716763
aF0.6430550330061224
asI38
(lp52
g49
aI55
aI751
aI48
aI18
aF864.0
aF2.6666666666666665
aF0.8009259259259259
asI39
(lp53
S'Euclidis_Megarensis_Opera2-0029.png'
p54
aI302
aI10
aI219
aI17
aF3723.0
aF12.882352941176471
aF0.7888799355358582
asI40
(lp55
g54
aI302
aI53
aI164
aI445
aF72980.0
aF0.3685393258426966
aF0.5343244724582077
asI41
(lp56
g54
aI319
aI492
aI190
aI124
aF23560.0
aF1.532258064516129
aF0.6457979626485568
asI42
(lp57
g54
aI338
aI742
aI122
aI29
aF3538.0
aF4.206896551724138
aF0.7990390050876202
asI43
(lp58
S'Euclidis_Megarensis_Opera2-0030.png'
p59
aI30
aI34
aI203
aI596
aF120988.0
aF0.34060402684563756
aF0.6651568750619896
asI44
(lp60
S'Euclidis_Megarensis_Opera2-0031.png'
p61
aI317
aI101
aI191
aI400
aF76400.0
aF0.4775
aF0.6378795811518324
asI45
(lp62
g61
aI321
aI502
aI186
aI130
aF24180.0
aF1.4307692307692308
aF0.6906534325889164
asI46
(lp63
S'Euclidis_Megarensis_Opera2-0032.png'
p64
aI33
aI123
aI185
aI115
aF21275.0
aF1.608695652173913
aF0.6731374853113984
asI47
(lp65
g64
aI57
aI352
aI158
aI173
aF27334.0
aF0.9132947976878613
aF0.668727592009951
asI48
(lp66
g64
aI47
aI756
aI181
aI14
aF2534.0
aF12.928571428571429
aF0.824782951854775
asI49
(lp67
S'Euclidis_Megarensis_Opera2-0033.png'
p68
aI314
aI53
aI202
aI315
aF63630.0
aF0.6412698412698413
aF0.5836083608360836
asI50
(lp69
g68
aI317
aI431
aI120
aI142
aF17040.0
aF0.8450704225352113
aF0.5208333333333334
asI51
(lp70
g68
aI368
aI505
aI38
aI25
aF950.0
aF1.52
aF0.5957894736842105
asI52
(lp71
S'Euclidis_Megarensis_Opera2-0034.png'
p72
aI22
aI68
aI197
aI319
aF62843.0
aF0.6175548589341693
aF0.5939086294416244
asI53
(lp73
g72
aI57
aI392
aI161
aI151
aF24311.0
aF1.0662251655629138
aF0.4739418370285056
asI54
(lp74
S'Euclidis_Megarensis_Opera2-0035.png'
p75
aI319
aI147
aI181
aI153
aF27693.0
aF1.1830065359477124
aF0.5894991514101037
asI55
(lp76
g75
aI323
aI414
aI163
aI170
aF27710.0
aF0.9588235294117647
aF0.6772284373872248
asI56
(lp77
S'Euclidis_Megarensis_Opera2-0036.png'
p78
aI18
aI8
aI207
aI19
aF3933.0
aF10.894736842105264
aF0.7856598016781083
asI57
(lp79
g78
aI54
aI170
aI166
aI165
aF27390.0
aF1.006060606060606
aF0.6174881343556042
asI58
(lp80
g78
aI55
aI347
aI170
aI168
aF28560.0
aF1.0119047619047619
aF0.5917016806722689
asI59
(lp81
S'Euclidis_Megarensis_Opera2-0037.png'
p82
aI311
aI62
aI192
aI136
aF26112.0
aF1.411764705882353
aF0.5294500612745098
asI60
(lp83
g82
aI315
aI277
aI169
aI175
aF29575.0
aF0.9657142857142857
aF0.638174133558749
asI61
(lp84
g82
aI332
aI742
aI171
aI29
aF4959.0
aF5.896551724137931
aF0.7602339181286549
asI62
(lp85
S'Euclidis_Megarensis_Opera2-0038.png'
p86
aI33
aI65
aI193
aI551
aF106343.0
aF0.3502722323049002
aF0.6807688329274141
asI63
(lp87
S'Euclidis_Megarensis_Opera2-0039.png'
p88
aI314
aI85
aI198
aI121
aF23958.0
aF1.6363636363636365
aF0.5232072794056265
asI64
(lp89
g88
aI317
aI406
aI187
aI157
aF29359.0
aF1.1910828025477707
aF0.5868047276814605
asI65
(lp90
S'Euclidis_Megarensis_Opera2-0040.png'
p91
aI40
aI165
aI190
aI147
aF27930.0
aF1.2925170068027212
aF0.5846043680630146
asI66
(lp92
g91
aI33
aI368
aI184
aI121
aF22264.0
aF1.5206611570247934
aF0.5019762845849802
asI67
(lp93
g91
aI128
aI755
aI102
aI13
aF1326.0
aF7.846153846153846
aF0.7956259426847662
asI68
(lp94
S'Euclidis_Megarensis_Opera2-0041.png'
p95
aI315
aI204
aI178
aI183
aF32574.0
aF0.9726775956284153
aF0.4229446798059802
asI69
(lp96
g95
aI338
aI742
aI122
aI29
aF3538.0
aF4.206896551724138
aF0.7990390050876202
asI70
(lp97
S'Euclidis_Megarensis_Opera2-0042.png'
p98
aI31
aI49
aI189
aI488
aF92232.0
aF0.38729508196721313
aF0.4245055945875618
asI71
(lp99
g98
aI42
aI511
aI116
aI131
aF15196.0
aF0.8854961832061069
aF0.5120426428007371
asI72
(lp100
g98
aI57
aI756
aI175
aI13
aF2275.0
aF13.461538461538462
aF0.9367032967032967
asI73
(lp101
S'Euclidis_Megarensis_Opera2-0043.png'
p102
aI389
aI10
aI135
aI13
aF1755.0
aF10.384615384615385
aF0.8472934472934472
asI74
(lp103
g102
aI301
aI55
aI199
aI580
aF115420.0
aF0.3431034482758621
aF0.6651186969329406
asI75
(lp104
g102
aI428
aI749
aI75
aI19
aF1425.0
aF3.9473684210526314
aF0.7922807017543859
asI76
(lp105
S'Euclidis_Megarensis_Opera2-0044.png'
p106
aI55
aI42
aI159
aI198
aF31482.0
aF0.803030303030303
aF0.5540944031510069
asI77
(lp107
g106
aI55
aI254
aI159
aI162
aF25758.0
aF0.9814814814814815
aF0.5661930274089603
asI78
(lp108
g106
aI55
aI433
aI155
aI182
aF28210.0
aF0.8516483516483516
aF0.5428216944345977
asI79
(lp109
g106
aI55
aI753
aI181
aI16
aF2896.0
aF11.3125
aF0.9026243093922652
asI80
(lp110
S'Euclidis_Megarensis_Opera2-0045.png'
p111
aI315
aI44
aI176
aI360
aF63360.0
aF0.4888888888888889
aF0.5746212121212121
asI81
(lp112
g111
aI305
aI411
aI182
aI207
aF37674.0
aF0.8792270531400966
aF0.6144821362212667
asI82
(lp113
g111
aI409
aI751
aI99
aI18
aF1782.0
aF5.5
aF0.6924803591470258
asI83
(lp114
S'Euclidis_Megarensis_Opera2-0046.png'
p115
aI52
aI52
aI180
aI456
aF82080.0
aF0.39473684210526316
aF0.5955896686159844
asI84
(lp116
g115
aI52
aI515
aI180
aI122
aF21960.0
aF1.4754098360655739
aF0.6999544626593807
asI85
(lp117
g115
aI80
aI759
aI110
aI11
aF1210.0
aF10.0
aF0.815702479338843
asI86
(lp118
S'Euclidis_Megarensis_Opera2-0047.png'
p119
aI308
aI63
aI181
aI161
aF29141.0
aF1.124223602484472
aF0.644555780515425
asI87
(lp120
g119
aI308
aI224
aI183
aI172
aF31476.0
aF1.063953488372093
aF0.713400686237133
asI88
(lp121
g119
aI312
aI399
aI181
aI195
aF35295.0
aF0.9282051282051282
aF0.7362515937101572
asI89
(lp122
g119
aI431
aI752
aI72
aI18
aF1296.0
aF4.0
aF0.8433641975308642
asI90
(lp123
S'Euclidis_Megarensis_Opera2-0048.png'
p124
aI52
aI67
aI172
aI528
aF90816.0
aF0.32575757575757575
aF0.6988416138125441
asI91
(lp125
S'Euclidis_Megarensis_Opera2-0049.png'
p126
aI318
aI174
aI174
aI177
aF30798.0
aF0.9830508474576272
aF0.6145853626858887
asI92
(lp127
g126
aI311
aI424
aI180
aI188
aF33840.0
aF0.9574468085106383
aF0.4904846335697399
asI93
(lp128
g126
aI437
aI750
aI69
aI16
aF1104.0
aF4.3125
aF0.7536231884057971
asI94
(lp129
S'Euclidis_Megarensis_Opera2-0050.png'
p130
aI29
aI39
aI192
aI609
aF116928.0
aF0.31527093596059114
aF0.5556581828133552
asI95
(lp131
S'Euclidis_Megarensis_Opera2-0051.png'
p132
aI329
aI42
aI137
aI589
aF80693.0
aF0.23259762308998302
aF0.7534358618467525
asI96
(lp133
g132
aI309
aI90
aI11
aI79
aF869.0
aF0.13924050632911392
aF0.7376294591484465
asI97
(lp134
g132
aI338
aI742
aI171
aI29
aF4959.0
aF5.896551724137931
aF0.7614438394837669
asI98
(lp135
S'Euclidis_Megarensis_Opera2-0052.png'
p136
aI50
aI64
aI158
aI343
aF54194.0
aF0.4606413994169096
aF0.6883972395468133
asI99
(lp137
g136
aI57
aI404
aI137
aI220
aF30140.0
aF0.6227272727272727
aF0.43132050431320507
asI100
(lp138
g136
aI155
aI554
aI48
aI43
aF2064.0
aF1.1162790697674418
aF0.5915697674418605
asI101
(lp139
S'Euclidis_Megarensis_Opera2-0053.png'
p140
aI309
aI41
aI178
aI605
aF107690.0
aF0.29421487603305785
aF0.723196211347386
asI102
(lp141
g140
aI436
aI751
aI71
aI13
aF923.0
aF5.461538461538462
aF0.8645720476706392
asI103
(lp142
S'Euclidis_Megarensis_Opera2-0054.png'
p143
aI66
aI49
aI149
aI594
aF88506.0
aF0.25084175084175087
aF0.7540505728425192
asI104
(lp144
S'Euclidis_Megarensis_Opera2-0055.png'
p145
aI324
aI39
aI143
aI598
aF85514.0
aF0.2391304347826087
aF0.7059896625114016
asI105
(lp146
g145
aI305
aI102
aI12
aI80
aF960.0
aF0.15
aF0.7416666666666667
asI106
(lp147
g145
aI305
aI208
aI12
aI83
aF996.0
aF0.14457831325301204
aF0.7389558232931727
asI107
(lp148
g145
aI305
aI754
aI193
aI21
aF4053.0
aF9.19047619047619
aF0.8097705403404886
asI108
(lp149
S'Euclidis_Megarensis_Opera2-0056.png'
p150
aI45
aI30
aI183
aI618
aF113094.0
aF0.2961165048543689
aF0.5907652041664456
asI109
(lp151
S'Euclidis_Megarensis_Opera2-0057.png'
p152
aI302
aI70
aI175
aI408
aF71400.0
aF0.42892156862745096
aF0.6834453781512605
asI110
(lp153
g152
aI306
aI454
aI149
aI159
aF23691.0
aF0.9371069182389937
aF0.5494491579080664
asI111
(lp154
g152
aI301
aI593
aI30
aI56
aF1680.0
aF0.5357142857142857
aF0.4142857142857143
asI112
(lp155
S'Euclidis_Megarensis_Opera2-0058.png'
p156
aI76
aI43
aI137
aI516
aF70692.0
aF0.2655038759689923
aF0.6528602953658122
asI113
(lp157
g156
aI221
aI43
aI13
aI225
aF2925.0
aF0.057777777777777775
aF0.6735042735042736
asI114
(lp158
S'Euclidis_Megarensis_Opera2-0059.png'
p159
aI306
aI52
aI184
aI287
aF52808.0
aF0.6411149825783972
aF0.5893993334343282
asI115
(lp160
g159
aI306
aI345
aI176
aI133
aF23408.0
aF1.3233082706766917
aF0.5624145591250854
asI116
(lp161
g159
aI306
aI501
aI179
aI139
aF24881.0
aF1.2877697841726619
aF0.6016237289498011
asI117
(lp162
g159
aI306
aI747
aI192
aI24
aF4608.0
aF8.0
aF0.6825086805555556
asI118
(lp163
S'Euclidis_Megarensis_Opera2-0060.png'
p164
aI72
aI37
aI130
aI109
aF14170.0
aF1.1926605504587156
aF0.6343683839096683
asI119
(lp165
g164
aI45
aI157
aI179
aI478
aF85562.0
aF0.37447698744769875
aF0.61121759659662
asI120
(lp166
g164
aI53
aI747
aI174
aI21
aF3654.0
aF8.285714285714286
aF0.8015873015873016
asI121
(lp167
S'Euclidis_Megarensis_Opera2-0061.png'
p168
aI328
aI81
aI156
aI324
aF50544.0
aF0.48148148148148145
aF0.6455761316872428
asI122
(lp169
g168
aI317
aI462
aI178
aI169
aF30082.0
aF1.0532544378698225
aF0.7462269795891231
asI123
(lp170
g168
aI438
aI753
aI59
aI18
aF1062.0
aF3.2777777777777777
aF0.9303201506591338
asI124
(lp171
S'Euclidis_Megarensis_Opera2-0062.png'
p172
aI59
aI55
aI152
aI345
aF52440.0
aF0.4405797101449275
aF0.6693554538520213
asI125
(lp173
g172
aI218
aI55
aI8
aI146
aF1168.0
aF0.0547945205479452
aF0.7294520547945206
asI126
(lp174
g172
aI38
aI451
aI188
aI177
aF33276.0
aF1.0621468926553672
aF0.7660476018752254
asI127
(lp175
g172
aI58
aI756
aI168
aI14
aF2352.0
aF12.0
aF0.8966836734693877
asI128
(lp176
S'Euclidis_Megarensis_Opera2-0063.png'
p177
aI330
aI61
aI167
aI568
aF94856.0
aF0.29401408450704225
aF0.7166336341401703
asI129
(lp178
g177
aI322
aI755
aI175
aI18
aF3150.0
aF9.722222222222221
aF0.7917460317460318
asI130
(lp179
S'Euclidis_Megarensis_Opera2-0064.png'
p180
aI50
aI35
aI159
aI586
aF93174.0
aF0.2713310580204778
aF0.6963208620430592
asI131
(lp181
g180
aI50
aI752
aI172
aI17
aF2924.0
aF10.117647058823529
aF0.835499316005472
asI132
(lp182
S'Euclidis_Megarensis_Opera2-0065.png'
p183
aI336
aI59
aI145
aI155
aF22475.0
aF0.9354838709677419
aF0.6245161290322581
asI133
(lp184
g183
aI328
aI332
aI144
aI234
aF33696.0
aF0.6153846153846154
aF0.6092414529914529
asI134
(lp185
g183
aI318
aI754
aI172
aI19
aF3268.0
aF9.052631578947368
aF0.8769889840881273
asI135
(lp186
S'Euclidis_Megarensis_Opera2-0066.png'
p187
aI51
aI114
aI168
aI164
aF27552.0
aF1.024390243902439
aF0.6596980255516841
asI136
(lp188
S'Euclidis_Megarensis_Opera2-0067.png'
p189
aI324
aI108
aI174
aI181
aF31494.0
aF0.9613259668508287
aF0.6299930145424525
asI137
(lp190
g189
aI328
aI300
aI172
aI222
aF38184.0
aF0.7747747747747747
aF0.6181646763042112
asI138
(lp191
g189
aI443
aI306
aI48
aI61
aF2928.0
aF0.7868852459016393
aF0.4108606557377049
asI139
(lp192
S'Euclidis_Megarensis_Opera2-0068.png'
p193
aI34
aI51
aI183
aI476
aF87108.0
aF0.38445378151260506
aF0.664921706387473
asI140
(lp194
S'Euclidis_Megarensis_Opera2-0069.png'
p195
aI317
aI116
aI181
aI188
aF34028.0
aF0.9627659574468085
aF0.649171270718232
asI141
(lp196
S'Euclidis_Megarensis_Opera2-0070.png'
p197
aI215
aI48
aI10
aI92
aF920.0
aF0.10869565217391304
aF0.8065217391304348
asI142
(lp198
g197
aI39
aI115
aI172
aI172
aF29584.0
aF1.0
aF0.6203353163872364
asI143
(lp199
g197
aI49
aI294
aI167
aI173
aF28891.0
aF0.9653179190751445
aF0.736250043266069
asI144
(lp200
S'Euclidis_Megarensis_Opera2-0071.png'
p201
aI313
aI50
aI19
aI329
aF6251.0
aF0.057750759878419454
aF0.6632538793792994
asI145
(lp202
g201
aI338
aI742
aI122
aI29
aF3538.0
aF4.206896551724138
aF0.7990390050876202
asI146
(lp203
S'Euclidis_Megarensis_Opera2-0073.png'
p204
aI314
aI59
aI13
aI108
aF1404.0
aF0.12037037037037036
aF0.8062678062678063
asI147
(lp205
g204
aI314
aI179
aI12
aI109
aF1308.0
aF0.11009174311926606
aF0.6980122324159022
asI148
(lp206
S'Euclidis_Megarensis_Opera2-0075.png'
p207
aI322
aI753
aI176
aI17
aF2992.0
aF10.352941176470589
aF0.8308823529411765
asI149
(lp208
S'Euclidis_Megarensis_Opera2-0076.png'
p209
aI52
aI306
aI165
aI34
aF5610.0
aF4.852941176470588
aF0.6718360071301248
asI150
(lp210
g209
aI53
aI347
aI65
aI35
aF2275.0
aF1.8571428571428572
aF0.7103296703296703
asI151
(lp211
g209
aI145
aI348
aI72
aI33
aF2376.0
aF2.1818181818181817
aF0.7163299663299664
asI152
(lp212
g209
aI45
aI455
aI171
aI132
aF22572.0
aF1.2954545454545454
aF0.42122984228247384
asI153
(lp213
g209
aI41
aI752
aI185
aI17
aF3145.0
aF10.882352941176471
aF0.8403815580286168
asI154
(lp214
S'Euclidis_Megarensis_Opera2-0077.png'
p215
aI328
aI97
aI171
aI110
aF18810.0
aF1.5545454545454545
aF0.6669856459330143
asI155
(lp216
g215
aI329
aI331
aI77
aI85
aF6545.0
aF0.9058823529411765
aF0.7129106187929717
asI156
(lp217
g215
aI416
aI331
aI84
aI83
aF6972.0
aF1.0120481927710843
aF0.7071141709695926
asI157
(lp218
S'Euclidis_Megarensis_Opera2-0078.png'
p219
aI216
aI485
aI9
aI126
aF1134.0
aF0.07142857142857142
aF0.7125220458553791
asI158
(lp220
g219
aI98
aI753
aI108
aI13
aF1404.0
aF8.307692307692308
aF0.834045584045584
asI159
(lp221
S'Euclidis_Megarensis_Opera2-0079.png'
p222
aI327
aI132
aI175
aI140
aF24500.0
aF1.25
aF0.6884489795918367
asI160
(lp223
g222
aI332
aI304
aI70
aI51
aF3570.0
aF1.3725490196078431
aF0.5224089635854342
asI161
(lp224
g222
aI388
aI349
aI42
aI28
aF1176.0
aF1.5
aF0.5586734693877551
asI162
(lp225
g222
aI327
aI389
aI44
aI53
aF2332.0
aF0.8301886792452831
aF0.4318181818181818
asI163
(lp226
g222
aI369
aI392
aI80
aI72
aF5760.0
aF1.1111111111111112
aF0.3298611111111111
asI164
(lp227
g222
aI386
aI499
aI39
aI22
aF858.0
aF1.7727272727272727
aF0.5524475524475524
asI165
(lp228
S'Euclidis_Megarensis_Opera2-0080.png'
p229
aI35
aI43
aI183
aI554
aF101382.0
aF0.3303249097472924
aF0.7869148369533053
asI166
(lp230
S'Euclidis_Megarensis_Opera2-0081.png'
p231
aI363
aI399
aI37
aI25
aF925.0
aF1.48
aF0.5535135135135135
asI167
(lp232
g231
aI325
aI465
aI9
aI158
aF1422.0
aF0.056962025316455694
aF0.819971870604782
asI168
(lp233
S'Euclidis_Megarensis_Opera2-0082.png'
p234
aI40
aI95
aI175
aI97
aF16975.0
aF1.8041237113402062
aF0.5347275405007363
asI169
(lp235
g234
aI40
aI331
aI174
aI127
aF22098.0
aF1.3700787401574803
aF0.4994117114671011
asI170
(lp236
S'Euclidis_Megarensis_Opera2-0083.png'
p237
aI331
aI270
aI171
aI100
aF17100.0
aF1.71
aF0.5923976608187135
asI171
(lp238
g237
aI327
aI413
aI175
aI218
aF38150.0
aF0.8027522935779816
aF0.3892267365661861
asI172
(lp239
g237
aI360
aI559
aI56
aI26
aF1456.0
aF2.1538461538461537
aF0.6277472527472527
asI173
(lp240
S'Euclidis_Megarensis_Opera2-0084.png'
p241
aI37
aI107
aI169
aI67
aF11323.0
aF2.5223880597014925
aF0.648503046895699
asI174
(lp242
g241
aI37
aI220
aI173
aI65
aF11245.0
aF2.6615384615384614
aF0.6431302801244998
asI175
(lp243
g241
aI37
aI315
aI167
aI75
aF12525.0
aF2.2266666666666666
aF0.6013572854291417
asI176
(lp244
g241
aI37
aI409
aI167
aI66
aF11022.0
aF2.5303030303030303
aF0.6904373072037743
asI177
(lp245
g241
aI37
aI494
aI166
aI94
aF15604.0
aF1.7659574468085106
aF0.699115611381697
asI178
(lp246
S'Euclidis_Megarensis_Opera2-0085.png'
p247
aI337
aI190
aI169
aI101
aF17069.0
aF1.6732673267326732
aF0.4416778956002109
asI179
(lp248
g247
aI420
aI224
aI80
aI66
aF5280.0
aF1.2121212121212122
aF0.6672348484848485
asI180
(lp249
g247
aI333
aI291
aI173
aI35
aF6055.0
aF4.942857142857143
aF0.6698596201486375
asI181
(lp250
S'Euclidis_Megarensis_Opera2-0087.png'
p251
aI332
aI298
aI165
aI90
aF14850.0
aF1.8333333333333333
aF0.5573737373737374
asI182
(lp252
g251
aI432
aI748
aI65
aI18
aF1170.0
aF3.611111111111111
aF0.8683760683760684
asI183
(lp253
S'Euclidis_Megarensis_Opera2-0089.png'
p254
aI330
aI95
aI175
aI92
aF16100.0
aF1.9021739130434783
aF0.6750310559006211
asI184
(lp255
g254
aI324
aI199
aI181
aI159
aF28779.0
aF1.1383647798742138
aF0.537405747246256
asI185
(lp256
g254
aI335
aI391
aI170
aI118
aF20060.0
aF1.4406779661016949
aF0.6162512462612163
asI186
(lp257
g254
aI433
aI749
aI72
aI17
aF1224.0
aF4.235294117647059
aF0.920751633986928
asI187
(lp258
S'Euclidis_Megarensis_Opera2-0090.png'
p259
aI33
aI44
aI186
aI229
aF42594.0
aF0.8122270742358079
aF0.626496689674602
asI188
(lp260
g259
aI32
aI280
aI176
aI84
aF14784.0
aF2.0952380952380953
aF0.6628111471861472
asI189
(lp261
g259
aI33
aI381
aI179
aI155
aF27745.0
aF1.1548387096774193
aF0.6509641376824653
asI190
(lp262
g259
aI42
aI755
aI72
aI13
aF936.0
aF5.538461538461538
aF0.8611111111111112
asI191
(lp263
g259
aI138
aI756
aI81
aI12
aF972.0
aF6.75
aF0.8425925925925926
asI192
(lp264
S'Euclidis_Megarensis_Opera2-0091.png'
p265
aI318
aI91
aI182
aI118
aF21476.0
aF1.5423728813559323
aF0.6112404544607934
asI193
(lp266
g265
aI324
aI260
aI177
aI89
aF15753.0
aF1.9887640449438202
aF0.6434329968894814
asI194
(lp267
g265
aI357
aI338
aI121
aI36
aF4356.0
aF3.361111111111111
aF0.7059228650137741
asI195
(lp268
g265
aI320
aI399
aI180
aI143
aF25740.0
aF1.2587412587412588
aF0.715034965034965
asI196
(lp269
g265
aI318
aI478
aI11
aI79
aF869.0
aF0.13924050632911392
aF0.6547756041426928
asI197
(lp270
g265
aI318
aI750
aI183
aI19
aF3477.0
aF9.631578947368421
aF0.8823698590739143
asI198
(lp271
S'Euclidis_Megarensis_Opera2-0092.png'
p272
aI206
aI43
aI12
aI164
aF1968.0
aF0.07317073170731707
aF0.8445121951219512
asI199
(lp273
g272
aI37
aI257
aI174
aI66
aF11484.0
aF2.6363636363636362
aF0.6392371995820272
asI200
(lp274
g272
aI41
aI440
aI176
aI74
aF13024.0
aF2.3783783783783785
aF0.5760902948402948
asI201
(lp275
S'Euclidis_Megarensis_Opera2-0093.png'
p276
aI324
aI82
aI183
aI165
aF30195.0
aF1.1090909090909091
aF0.6633879781420765
asI202
(lp277
g276
aI324
aI251
aI183
aI37
aF6771.0
aF4.945945945945946
aF0.7316496824693546
asI203
(lp278
g276
aI329
aI293
aI178
aI102
aF18156.0
aF1.7450980392156863
aF0.7909781890284203
asI204
(lp279
g276
aI327
aI413
aI180
aI136
aF24480.0
aF1.3235294117647058
aF0.7867238562091503
asI205
(lp280
g276
aI324
aI749
aI180
aI21
aF3780.0
aF8.571428571428571
aF0.7939153439153439
asI206
(lp281
S'Euclidis_Megarensis_Opera2-0094.png'
p282
aI44
aI41
aI171
aI202
aF34542.0
aF0.8465346534653465
aF0.6327369579063169
asI207
(lp283
g282
aI44
aI289
aI170
aI179
aF30430.0
aF0.9497206703910615
aF0.7118304304962209
asI208
(lp284
g282
aI44
aI482
aI176
aI163
aF28688.0
aF1.0797546012269938
aF0.6548731176798661
asI209
(lp285
g282
aI59
aI754
aI161
aI15
aF2415.0
aF10.733333333333333
aF0.8873706004140787
asI210
(lp286
S'Euclidis_Megarensis_Opera2-0095.png'
p287
aI332
aI69
aI168
aI35
aF5880.0
aF4.8
aF0.73078231292517
asI211
(lp288
g287
aI411
aI108
aI83
aI36
aF2988.0
aF2.3055555555555554
aF0.7044846050870147
asI212
(lp289
g287
aI338
aI113
aI66
aI34
aF2244.0
aF1.9411764705882353
aF0.7967914438502673
asI213
(lp290
g287
aI326
aI218
aI177
aI69
aF12213.0
aF2.5652173913043477
aF0.7542782281175796
asI214
(lp291
g287
aI328
aI327
aI178
aI134
aF23852.0
aF1.328358208955224
aF0.7413214824752641
asI215
(lp292
g287
aI324
aI475
aI180
aI140
aF25200.0
aF1.2857142857142858
aF0.6982539682539682
asI216
(lp293
g287
aI333
aI749
aI167
aI18
aF3006.0
aF9.277777777777779
aF0.7079174983366601
asI217
(lp294
S'Euclidis_Megarensis_Opera2-0096.png'
p295
aI34
aI112
aI176
aI146
aF25696.0
aF1.2054794520547945
aF0.6992917185554172
asI218
(lp296
g295
aI34
aI276
aI182
aI84
aF15288.0
aF2.1666666666666665
aF0.6830193615907901
asI219
(lp297
g295
aI35
aI387
aI172
aI82
aF14104.0
aF2.097560975609756
aF0.6569767441860465
asI220
(lp298
g295
aI37
aI473
aI174
aI99
aF17226.0
aF1.7575757575757576
aF0.5780796470451642
asI221
(lp299
g295
aI52
aI751
aI151
aI15
aF2265.0
aF10.066666666666666
aF0.7947019867549668
asI222
(lp300
S'Euclidis_Megarensis_Opera2-0097.png'
p301
aI341
aI194
aI169
aI75
aF12675.0
aF2.2533333333333334
aF0.5218145956607495
asI223
(lp302
g301
aI344
aI233
aI74
aI36
aF2664.0
aF2.0555555555555554
aF0.7462462462462462
asI224
(lp303
g301
aI431
aI270
aI65
aI35
aF2275.0
aF1.8571428571428572
aF0.7595604395604396
asI225
(lp304
g301
aI348
aI273
aI65
aI34
aF2210.0
aF1.911764705882353
aF0.779185520361991
asI226
(lp305
g301
aI327
aI750
aI177
aI19
aF3363.0
aF9.31578947368421
aF0.7885816235504014
asI227
(lp306
S'Euclidis_Megarensis_Opera2-0098.png'
p307
aI36
aI61
aI182
aI124
aF22568.0
aF1.467741935483871
aF0.4910935838355193
asI228
(lp308
g307
aI134
aI152
aI60
aI33
aF1980.0
aF1.8181818181818181
aF0.8146464646464646
asI229
(lp309
g307
aI36
aI243
aI182
aI234
aF42588.0
aF0.7777777777777778
aF0.6641072602611064
asI230
(lp310
g307
aI36
aI752
aI182
aI15
aF2730.0
aF12.133333333333333
aF0.7864468864468864
asI231
(lp311
S'Euclidis_Megarensis_Opera2-0099.png'
p312
aI338
aI44
aI170
aI237
aF40290.0
aF0.7172995780590717
aF0.6842144452717795
asI232
(lp313
g312
aI336
aI294
aI172
aI72
aF12384.0
aF2.388888888888889
aF0.8261466408268734
asI233
(lp314
g312
aI336
aI371
aI172
aI133
aF22876.0
aF1.2932330827067668
aF0.6834236754677391
asI234
(lp315
g312
aI337
aI495
aI171
aI107
aF18297.0
aF1.5981308411214954
aF0.7193528993824124
asI235
(lp316
S'Euclidis_Megarensis_Opera2-0100.png'
p317
aI33
aI26
aI170
aI268
aF45560.0
aF0.6343283582089553
aF0.6188981562774364
asI236
(lp318
g317
aI33
aI316
aI171
aI99
aF16929.0
aF1.7272727272727273
aF0.6708606533167937
asI237
(lp319
g317
aI33
aI435
aI172
aI65
aF11180.0
aF2.646153846153846
aF0.6817531305903399
asI238
(lp320
S'Euclidis_Megarensis_Opera2-0101.png'
p321
aI320
aI4
aI215
aI28
aF6020.0
aF7.678571428571429
aF0.9041528239202657
asI239
(lp322
g321
aI320
aI56
aI177
aI131
aF23187.0
aF1.3511450381679388
aF0.4640531332212015
asI240
(lp323
g321
aI327
aI235
aI171
aI95
aF16245.0
aF1.8
aF0.6374269005847953
asI241
(lp324
g321
aI327
aI337
aI168
aI81
aF13608.0
aF2.074074074074074
aF0.6588036449147561
asI242
(lp325
g321
aI320
aI425
aI180
aI165
aF29700.0
aF1.0909090909090908
aF0.5962962962962963
asI243
(lp326
g321
aI417
aI754
aI72
aI13
aF936.0
aF5.538461538461538
aF0.8685897435897436
asI244
(lp327
S'Euclidis_Megarensis_Opera2-0102.png'
p328
aI36
aI47
aI175
aI155
aF27125.0
aF1.1290322580645162
aF0.6375299539170507
asI245
(lp329
g328
aI35
aI213
aI179
aI179
aF32041.0
aF1.0
aF0.6988545925532911
asI246
(lp330
g328
aI40
aI413
aI177
aI231
aF40887.0
aF0.7662337662337663
aF0.789957688262773
asI247
(lp331
g328
aI41
aI752
aI97
aI15
aF1455.0
aF6.466666666666667
aF0.6941580756013745
asI248
(lp332
S'Euclidis_Megarensis_Opera2-0103.png'
p333
aI329
aI64
aI181
aI112
aF20272.0
aF1.6160714285714286
aF0.5755228887134964
asI249
(lp334
g333
aI329
aI199
aI177
aI211
aF37347.0
aF0.8388625592417062
aF0.4813238011085228
asI250
(lp335
g333
aI326
aI432
aI176
aI119
aF20944.0
aF1.4789915966386555
aF0.8082505729564553
asI251
(lp336
S'Euclidis_Megarensis_Opera2-0104.png'
p337
aI36
aI39
aI177
aI131
aF23187.0
aF1.3511450381679388
aF0.74822098589727
asI252
(lp338
g337
aI36
aI164
aI169
aI179
aF30251.0
aF0.9441340782122905
aF0.5150904102343724
asI253
(lp339
g337
aI41
aI385
aI168
aI181
aF30408.0
aF0.9281767955801105
aF0.4588266245724809
asI254
(lp340
S'Euclidis_Megarensis_Opera2-0105.png'
p341
aI336
aI37
aI168
aI205
aF34440.0
aF0.8195121951219512
aF0.48304297328687573
asI255
(lp342
g341
aI332
aI319
aI171
aI210
aF35910.0
aF0.8142857142857143
aF0.4349763297131718
asI256
(lp343
g341
aI409
aI748
aI84
aI15
aF1260.0
aF5.6
aF0.8595238095238096
asI257
(lp344
S'Euclidis_Megarensis_Opera2-0106.png'
p345
aI45
aI40
aI175
aI131
aF22925.0
aF1.3358778625954197
aF0.5937186477644493
asI258
(lp346
g345
aI39
aI427
aI177
aI114
aF20178.0
aF1.5526315789473684
aF0.4642184557438795
asI259
(lp347
S'Euclidis_Megarensis_Opera2-0107.png'
p348
aI401
aI12
aI74
aI13
aF962.0
aF5.6923076923076925
aF0.8700623700623701
asI260
(lp349
g348
aI317
aI42
aI182
aI128
aF23296.0
aF1.421875
aF0.6574948489010989
asI261
(lp350
g348
aI345
aI163
aI79
aI52
aF4108.0
aF1.5192307692307692
aF0.5335929892891919
asI262
(lp351
g348
aI320
aI405
aI172
aI171
aF29412.0
aF1.0058479532163742
aF0.47123623011015914
asI263
(lp352
g348
aI344
aI749
aI152
aI16
aF2432.0
aF9.5
aF0.772203947368421
asI264
(lp353
S'Euclidis_Megarensis_Opera2-0108.png'
p354
aI41
aI46
aI176
aI242
aF42592.0
aF0.7272727272727273
aF0.5069027047332832
asI265
(lp355
g354
aI42
aI295
aI173
aI126
aF21798.0
aF1.373015873015873
aF0.5401412973667309
asI266
(lp356
g354
aI35
aI412
aI147
aI210
aF30870.0
aF0.7
aF0.617687074829932
asI267
(lp357
g354
aI52
aI751
aI132
aI17
aF2244.0
aF7.764705882352941
aF0.8462566844919787
asI268
(lp358
S'Euclidis_Megarensis_Opera2-0109.png'
p359
aI410
aI16
aI75
aI27
aF2025.0
aF2.7777777777777777
aF0.4874074074074074
asI269
(lp360
g359
aI320
aI28
aI176
aI170
aF29920.0
aF1.035294117647059
aF0.5598262032085561
asI270
(lp361
g359
aI328
aI220
aI172
aI137
aF23564.0
aF1.2554744525547445
aF0.5649295535562723
asI271
(lp362
g359
aI325
aI377
aI169
aI238
aF40222.0
aF0.7100840336134454
aF0.5191437521754264
asI272
(lp363
g359
aI341
aI752
aI159
aI18
aF2862.0
aF8.833333333333334
aF0.8742138364779874
asI273
(lp364
S'Euclidis_Megarensis_Opera2-0110.png'
p365
aI40
aI106
aI177
aI131
aF23187.0
aF1.3511450381679388
aF0.5209384568939492
asI274
(lp366
g365
aI46
aI392
aI180
aI123
aF22140.0
aF1.4634146341463414
aF0.6971544715447154
asI275
(lp367
S'Euclidis_Megarensis_Opera2-0111.png'
p368
aI318
aI418
aI177
aI130
aF23010.0
aF1.3615384615384616
aF0.6900912646675359
asI276
(lp369
g368
aI341
aI748
aI154
aI18
aF2772.0
aF8.555555555555555
aF0.8596681096681097
asI277
(lp370
S'Euclidis_Megarensis_Opera2-0112.png'
p371
aI39
aI78
aI180
aI131
aF23580.0
aF1.3740458015267176
aF0.5774809160305343
asI278
(lp372
g371
aI127
aI185
aI74
aI46
aF3404.0
aF1.608695652173913
aF0.5825499412455935
asI279
(lp373
g371
aI39
aI191
aI172
aI308
aF52976.0
aF0.5584415584415584
aF0.5106463304137723
asI280
(lp374
S'Euclidis_Megarensis_Opera2-0113.png'
p375
aI320
aI88
aI184
aI112
aF20608.0
aF1.6428571428571428
aF0.680172748447205
asI281
(lp376
g375
aI327
aI222
aI170
aI122
aF20740.0
aF1.3934426229508197
aF0.7858727097396335
asI282
(lp377
g375
aI327
aI397
aI173
aI180
aF31140.0
aF0.9611111111111111
aF0.6585099550417469
asI283
(lp378
g375
aI338
aI746
aI164
aI18
aF2952.0
aF9.11111111111111
aF0.8055555555555556
asI284
(lp379
S'Euclidis_Megarensis_Opera2-0114.png'
p380
aI37
aI22
aI186
aI342
aF63612.0
aF0.543859649122807
aF0.6682072564924857
asI285
(lp381
g380
aI44
aI358
aI170
aI121
aF20570.0
aF1.4049586776859504
aF0.6507049100631989
asI286
(lp382
g380
aI43
aI484
aI169
aI115
aF19435.0
aF1.4695652173913043
aF0.6886544893233857
asI287
(lp383
S'Euclidis_Megarensis_Opera2-0115.png'
p384
aI332
aI73
aI167
aI249
aF41583.0
aF0.6706827309236948
aF0.7422985354592021
asI288
(lp385
g384
aI411
aI411
aI34
aI25
aF850.0
aF1.36
aF0.5835294117647059
asI289
(lp386
g384
aI439
aI455
aI47
aI22
aF1034.0
aF2.1363636363636362
aF0.6131528046421664
asI290
(lp387
S'Euclidis_Megarensis_Opera2-0116.png'
p388
aI33
aI51
aI181
aI134
aF24254.0
aF1.3507462686567164
aF0.5378494268986559
asI291
(lp389
g388
aI30
aI163
aI172
aI122
aF20984.0
aF1.4098360655737705
aF0.6626477316050324
asI292
(lp390
g388
aI41
aI405
aI173
aI125
aF21625.0
aF1.384
aF0.4860578034682081
asI293
(lp391
S'Euclidis_Megarensis_Opera2-0117.png'
p392
aI322
aI60
aI181
aI314
aF56834.0
aF0.5764331210191083
aF0.4614315374599711
asI294
(lp393
g392
aI322
aI408
aI167
aI126
aF21042.0
aF1.3253968253968254
aF0.45917688432658493
asI295
(lp394
S'Euclidis_Megarensis_Opera2-0118.png'
p395
aI205
aI53
aI12
aI114
aF1368.0
aF0.10526315789473684
aF0.8216374269005848
asI296
(lp396
g395
aI35
aI155
aI167
aI105
aF17535.0
aF1.5904761904761904
aF0.5094952951240377
asI297
(lp397
g395
aI43
aI279
aI166
aI345
aF57270.0
aF0.4811594202898551
aF0.5683778592631396
asI298
(lp398
g395
aI39
aI750
aI178
aI20
aF3560.0
aF8.9
aF0.8974719101123596
asI299
(lp399
S'Euclidis_Megarensis_Opera2-0120.png'
p400
aI37
aI282
aI170
aI104
aF17680.0
aF1.6346153846153846
aF0.5738122171945701
asI300
(lp401
g400
aI39
aI402
aI170
aI124
aF21080.0
aF1.3709677419354838
aF0.5652277039848197
asI301
(lp402
S'Euclidis_Megarensis_Opera2-0121.png'
p403
aI325
aI69
aI10
aI132
aF1320.0
aF0.07575757575757576
aF0.7378787878787879
asI302
(lp404
g403
aI332
aI201
aI175
aI100
aF17500.0
aF1.75
aF0.6906285714285715
asI303
(lp405
S'Euclidis_Megarensis_Opera2-0122.png'
p406
aI38
aI52
aI182
aI197
aF35854.0
aF0.9238578680203046
aF0.3742399732247448
asI304
(lp407
g406
aI41
aI302
aI161
aI69
aF11109.0
aF2.3333333333333335
aF0.6518138446304798
asI305
(lp408
g406
aI40
aI372
aI175
aI37
aF6475.0
aF4.72972972972973
aF0.6285714285714286
asI306
(lp409
g406
aI43
aI465
aI173
aI78
aF13494.0
aF2.217948717948718
aF0.558766859344894
asI307
(lp410
S'Euclidis_Megarensis_Opera2-0123.png'
p411
aI315
aI48
aI184
aI208
aF38272.0
aF0.8846153846153846
aF0.2887489548494983
asI308
(lp412
g411
aI315
aI266
aI184
aI114
aF20976.0
aF1.6140350877192982
aF0.33638443935926776
asI309
(lp413
g411
aI408
aI328
aI75
aI36
aF2700.0
aF2.0833333333333335
aF0.6196296296296296
asI310
(lp414
g411
aI417
aI366
aI55
aI34
aF1870.0
aF1.6176470588235294
aF0.6390374331550802
asI311
(lp415
g411
aI335
aI368
aI57
aI30
aF1710.0
aF1.9
aF0.7017543859649122
asI312
(lp416
g411
aI330
aI406
aI155
aI76
aF11780.0
aF2.039473684210526
aF0.5930390492359932
asI313
(lp417
g411
aI315
aI748
aI184
aI20
aF3680.0
aF9.2
aF0.8467391304347827
asI314
(lp418
S'Euclidis_Megarensis_Opera2-0124.png'
p419
aI43
aI56
aI169
aI127
aF21463.0
aF1.330708661417323
aF0.4669431114010157
asI315
(lp420
g419
aI41
aI231
aI174
aI152
aF26448.0
aF1.144736842105263
aF0.5430278281911676
asI316
(lp421
g419
aI45
aI466
aI170
aI86
aF14620.0
aF1.9767441860465116
aF0.583515731874145
asI317
(lp422
S'Euclidis_Megarensis_Opera2-0125.png'
p423
aI325
aI94
aI177
aI48
aF8496.0
aF3.6875
aF0.567090395480226
asI318
(lp424
g423
aI331
aI135
aI156
aI55
aF8580.0
aF2.8363636363636364
aF0.4944055944055944
asI319
(lp425
g423
aI326
aI252
aI172
aI56
aF9632.0
aF3.0714285714285716
aF0.4899294019933555
asI320
(lp426
g423
aI331
aI303
aI73
aI46
aF3358.0
aF1.5869565217391304
aF0.604526503871352
asI321
(lp427
g423
aI418
aI303
aI67
aI45
aF3015.0
aF1.488888888888889
aF0.5927031509121061
asI322
(lp428
g423
aI318
aI470
aI11
aI83
aF913.0
aF0.13253012048192772
aF0.7294633077765608
asI323
(lp429
S'Euclidis_Megarensis_Opera2-0126.png'
p430
aI39
aI57
aI175
aI90
aF15750.0
aF1.9444444444444444
aF0.5920634920634921
asI324
(lp431
g430
aI40
aI262
aI181
aI81
aF14661.0
aF2.234567901234568
aF0.7311233885819521
asI325
(lp432
g430
aI42
aI461
aI173
aI75
aF12975.0
aF2.3066666666666666
aF0.6922543352601156
asI326
(lp433
S'Euclidis_Megarensis_Opera2-0127.png'
p434
aI327
aI59
aI168
aI73
aF12264.0
aF2.3013698630136985
aF0.7725864318330071
asI327
(lp435
g434
aI323
aI149
aI172
aI66
aF11352.0
aF2.606060606060606
aF0.7751057082452432
asI328
(lp436
g434
aI323
aI265
aI172
aI110
aF18920.0
aF1.5636363636363637
aF0.6952431289640592
asI329
(lp437
g434
aI327
aI388
aI168
aI73
aF12264.0
aF2.3013698630136985
aF0.7201565557729941
asI330
(lp438
g434
aI330
aI511
aI165
aI78
aF12870.0
aF2.1153846153846154
aF0.625019425019425
asI331
(lp439
S'Euclidis_Megarensis_Opera2-0128.png'
p440
aI41
aI96
aI164
aI73
aF11972.0
aF2.2465753424657535
aF0.7659538924156365
asI332
(lp441
g440
aI39
aI232
aI166
aI73
aF12118.0
aF2.2739726027397262
aF0.5203829014688892
asI333
(lp442
g440
aI69
aI236
aI22
aI40
aF880.0
aF0.55
aF0.8511363636363637
asI334
(lp443
g440
aI44
aI404
aI161
aI105
aF16905.0
aF1.5333333333333334
aF0.726885536823425
asI335
(lp444
S'Euclidis_Megarensis_Opera2-0129.png'
p445
aI334
aI64
aI166
aI212
aF35192.0
aF0.7830188679245284
aF0.5115651284382814
asI336
(lp446
g445
aI428
aI247
aI68
aI29
aF1972.0
aF2.3448275862068964
aF0.7652129817444219
asI337
(lp447
g445
aI332
aI317
aI168
aI106
aF17808.0
aF1.5849056603773586
aF0.7704402515723271
asI338
(lp448
g445
aI328
aI454
aI172
aI96
aF16512.0
aF1.7916666666666667
aF0.6549176356589147
asI339
(lp449
S'Euclidis_Megarensis_Opera2-0130.png'
p450
aI43
aI188
aI167
aI107
aF17869.0
aF1.560747663551402
aF0.6528065364597907
asI340
(lp451
g450
aI43
aI381
aI174
aI100
aF17400.0
aF1.74
aF0.7664942528735632
asI341
(lp452
S'Euclidis_Megarensis_Opera2-0131.png'
p453
aI325
aI30
aI181
aI327
aF59187.0
aF0.5535168195718655
aF0.5912953858110733
asI342
(lp454
g453
aI330
aI360
aI174
aI95
aF16530.0
aF1.831578947368421
aF0.6563823351482153
asI343
(lp455
g453
aI331
aI473
aI176
aI95
aF16720.0
aF1.8526315789473684
aF0.619377990430622
asI344
(lp456
g453
aI325
aI752
aI180
aI17
aF3060.0
aF10.588235294117647
aF0.8738562091503268
asI345
(lp457
S'Euclidis_Megarensis_Opera2-0132.png'
p458
aI37
aI43
aI169
aI67
aF11323.0
aF2.5223880597014925
aF0.7135034884747858
asI346
(lp459
g458
aI33
aI117
aI174
aI37
aF6438.0
aF4.702702702702703
aF0.7019260639950295
asI347
(lp460
g458
aI84
aI157
aI79
aI33
aF2607.0
aF2.393939393939394
aF0.7180667433831991
asI348
(lp461
g458
aI34
aI185
aI175
aI63
aF11025.0
aF2.7777777777777777
aF0.7108390022675737
asI349
(lp462
g458
aI35
aI256
aI179
aI105
aF18795.0
aF1.7047619047619047
aF0.5963820164937483
asI350
(lp463
g458
aI38
aI363
aI176
aI129
aF22704.0
aF1.3643410852713178
aF0.6658738548273432
asI351
(lp464
g458
aI39
aI527
aI170
aI96
aF16320.0
aF1.7708333333333333
aF0.7314950980392156
asI352
(lp465
S'Euclidis_Megarensis_Opera2-0133.png'
p466
aI335
aI75
aI168
aI84
aF14112.0
aF2.0
aF0.498015873015873
asI353
(lp467
g466
aI337
aI214
aI171
aI137
aF23427.0
aF1.2481751824817517
aF0.5323771716395612
asI354
(lp468
g466
aI334
aI351
aI170
aI42
aF7140.0
aF4.0476190476190474
aF0.5686274509803921
asI355
(lp469
g466
aI333
aI397
aI171
aI76
aF12996.0
aF2.25
aF0.525623268698061
asI356
(lp470
g466
aI335
aI510
aI172
aI98
aF16856.0
aF1.7551020408163265
aF0.7402112007593735
asI357
(lp471
S'Euclidis_Megarensis_Opera2-0134.png'
p472
aI46
aI38
aI172
aI323
aF55556.0
aF0.5325077399380805
aF0.5976312189502484
asI358
(lp473
g472
aI46
aI363
aI166
aI167
aF27722.0
aF0.9940119760479041
aF0.7012120337637977
asI359
(lp474
g472
aI46
aI525
aI172
aI115
aF19780.0
aF1.4956521739130435
aF0.68685540950455
asI360
(lp475
S'Euclidis_Megarensis_Opera2-0135.png'
p476
aI325
aI53
aI175
aI302
aF52850.0
aF0.5794701986754967
aF0.5188457899716178
asI361
(lp477
g476
aI331
aI374
aI169
aI113
aF19097.0
aF1.4955752212389382
aF0.6477980834686077
asI362
(lp478
g476
aI329
aI529
aI167
aI98
aF16366.0
aF1.7040816326530612
aF0.5609800806550165
asI363
(lp479
S'Euclidis_Megarensis_Opera2-0136.png'
p480
aI42
aI59
aI177
aI108
aF19116.0
aF1.6388888888888888
aF0.4505126595522076
asI364
(lp481
g480
aI40
aI212
aI172
aI166
aF28552.0
aF1.036144578313253
aF0.7034183244606332
asI365
(lp482
g480
aI48
aI346
aI49
aI34
aF1666.0
aF1.4411764705882353
aF0.7821128451380552
asI366
(lp483
g480
aI39
aI391
aI177
aI207
aF36639.0
aF0.855072463768116
aF0.6197494473102432
asI367
(lp484
g480
aI34
aI753
aI185
aI18
aF3330.0
aF10.277777777777779
aF0.8798798798798799
asI368
(lp485
S'Euclidis_Megarensis_Opera2-0137.png'
p486
aI321
aI58
aI13
aI89
aF1157.0
aF0.14606741573033707
aF0.783923941227312
asI369
(lp487
g486
aI321
aI173
aI180
aI209
aF37620.0
aF0.861244019138756
aF0.5594098883572568
asI370
(lp488
S'Euclidis_Megarensis_Opera2-0138.png'
p489
aI40
aI198
aI174
aI74
aF12876.0
aF2.3513513513513513
aF0.7560577819198508
asI371
(lp490
g489
aI40
aI317
aI182
aI106
aF19292.0
aF1.7169811320754718
aF0.7075471698113207
asI372
(lp491
g489
aI44
aI450
aI178
aI125
aF22250.0
aF1.424
aF0.7972584269662921
asI373
(lp492
S'Euclidis_Megarensis_Opera2-0139.png'
p493
aI316
aI47
aI178
aI185
aF32930.0
aF0.9621621621621622
aF0.6980868508958397
asI374
(lp494
g493
aI364
aI232
aI87
aI34
aF2958.0
aF2.5588235294117645
aF0.7498309668695065
asI375
(lp495
g493
aI323
aI266
aI171
aI189
aF32319.0
aF0.9047619047619048
aF0.611776354466413
asI376
(lp496
g493
aI316
aI486
aI178
aI141
aF25098.0
aF1.2624113475177305
aF0.6254681647940075
asI377
(lp497
S'Euclidis_Megarensis_Opera2-0140.png'
p498
aI208
aI64
aI14
aI135
aF1890.0
aF0.1037037037037037
aF0.8126984126984127
asI378
(lp499
g498
aI45
aI156
aI169
aI146
aF24674.0
aF1.1575342465753424
aF0.7508308340763556
asI379
(lp500
g498
aI44
aI312
aI171
aI230
aF39330.0
aF0.7434782608695653
aF0.5737604881769641
asI380
(lp501
S'Euclidis_Megarensis_Opera2-0141.png'
p502
aI330
aI109
aI170
aI128
aF21760.0
aF1.328125
aF0.6292279411764706
asI381
(lp503
g502
aI327
aI263
aI173
aI116
aF20068.0
aF1.4913793103448276
aF0.6694737891170022
asI382
(lp504
g502
aI322
aI416
aI181
aI228
aF41268.0
aF0.793859649122807
aF0.5766453426383639
asI383
(lp505
S'Euclidis_Megarensis_Opera2-0142.png'
p506
aI38
aI31
aI128
aI101
aF12928.0
aF1.2673267326732673
aF0.6628248762376238
asI384
(lp507
g506
aI40
aI248
aI171
aI130
aF22230.0
aF1.3153846153846154
aF0.6631578947368421
asI385
(lp508
g506
aI47
aI448
aI164
aI69
aF11316.0
aF2.3768115942028984
aF0.7320607988688582
asI386
(lp509
S'Euclidis_Megarensis_Opera2-0143.png'
p510
aI323
aI11
aI181
aI137
aF24797.0
aF1.3211678832116789
aF0.6570552889462435
asI387
(lp511
g510
aI327
aI165
aI175
aI129
aF22575.0
aF1.3565891472868217
aF0.6470431893687708
asI388
(lp512
g510
aI327
aI291
aI174
aI350
aF60900.0
aF0.49714285714285716
aF0.710032840722496
asI389
(lp513
g510
aI338
aI742
aI122
aI29
aF3538.0
aF4.206896551724138
aF0.7990390050876202
asI390
(lp514
S'Euclidis_Megarensis_Opera2-0144.png'
p515
aI37
aI35
aI188
aI142
aF26696.0
aF1.323943661971831
aF0.48100839077015284
asI391
(lp516
g515
aI39
aI170
aI186
aI323
aF60078.0
aF0.5758513931888545
aF0.7613768767269217
asI392
(lp517
g515
aI42
aI499
aI183
aI117
aF21411.0
aF1.564102564102564
aF0.8073887254215123
asI393
(lp518
g515
aI30
aI752
aI187
aI17
aF3179.0
aF11.0
aF0.827618748033973
asI394
(lp519
S'Euclidis_Megarensis_Opera2-0145.png'
p520
aI341
aI238
aI167
aI87
aF14529.0
aF1.9195402298850575
aF0.6848372221075091
asI395
(lp521
g520
aI331
aI512
aI176
aI87
aF15312.0
aF2.0229885057471266
aF0.6791405433646813
asI396
(lp522
S'Euclidis_Megarensis_Opera2-0146.png'
p523
aI32
aI19
aI238
aI311
aF74018.0
aF0.7652733118971061
aF0.6109865167932125
asI397
(lp524
g523
aI32
aI305
aI238
aI345
aF82110.0
aF0.6898550724637681
aF0.4721592985020095
asI398
(lp525
g523
aI41
aI383
aI157
aI95
aF14915.0
aF1.6526315789473685
aF0.5920214549111633
asI399
(lp526
S'Euclidis_Megarensis_Opera2-0147.png'
p527
aI330
aI12
aI177
aI290
aF51330.0
aF0.6103448275862069
aF0.5076953048899279
asI400
(lp528
g527
aI325
aI159
aI9
aI98
aF882.0
aF0.09183673469387756
aF0.8049886621315193
asI401
(lp529
g527
aI332
aI332
aI169
aI293
aF49517.0
aF0.5767918088737202
aF0.6166165155401175
asI402
(lp530
g527
aI337
aI750
aI160
aI18
aF2880.0
aF8.88888888888889
aF0.7538194444444445
asI403
(lp531
S'Euclidis_Megarensis_Opera2-0148.png'
p532
aI33
aI86
aI182
aI154
aF28028.0
aF1.1818181818181819
aF0.6016126730412444
asI404
(lp533
g532
aI33
aI254
aI177
aI195
aF34515.0
aF0.9076923076923077
aF0.4994350282485876
asI405
(lp534
g532
aI33
aI481
aI177
aI146
aF25842.0
aF1.2123287671232876
aF0.6150452751335036
asI406
(lp535
g532
aI44
aI750
aI171
aI19
aF3249.0
aF9.0
aF0.7639273622653124
asI407
(lp536
S'Euclidis_Megarensis_Opera2-0149.png'
p537
aI315
aI49
aI184
aI363
aF66792.0
aF0.5068870523415978
aF0.3765121571445682
asI408
(lp538
g537
aI404
aI155
aI100
aI123
aF12300.0
aF0.8130081300813008
aF0.5820325203252033
asI409
(lp539
g537
aI317
aI422
aI180
aI151
aF27180.0
aF1.1920529801324504
aF0.720971302428256
asI410
(lp540
S'Euclidis_Megarensis_Opera2-0150.png'
p541
aI33
aI53
aI185
aI232
aF42920.0
aF0.7974137931034483
aF0.4348322460391426
asI411
(lp542
g541
aI98
aI276
aI56
aI32
aF1792.0
aF1.75
aF0.6930803571428571
asI412
(lp543
g541
aI40
aI389
aI170
aI99
aF16830.0
aF1.7171717171717171
aF0.7119429590017825
asI413
(lp544
S'Euclidis_Megarensis_Opera2-0151.png'
p545
aI316
aI32
aI189
aI338
aF63882.0
aF0.5591715976331361
aF0.6937791553176168
asI414
(lp546
g545
aI329
aI369
aI170
aI88
aF14960.0
aF1.9318181818181819
aF0.4491310160427808
asI415
(lp547
g545
aI325
aI445
aI172
aI93
aF15996.0
aF1.8494623655913978
aF0.6163415853963491
asI416
(lp548
g545
aI360
aI753
aI129
aI16
aF2064.0
aF8.0625
aF0.7955426356589147
asI417
(lp549
S'Euclidis_Megarensis_Opera2-0152.png'
p550
aI44
aI50
aI173
aI44
aF7612.0
aF3.9318181818181817
aF0.668286915396742
asI418
(lp551
g550
aI44
aI123
aI170
aI52
aF8840.0
aF3.269230769230769
aF0.551923076923077
asI419
(lp552
g550
aI44
aI239
aI178
aI55
aF9790.0
aF3.2363636363636363
aF0.5730337078651685
asI420
(lp553
g550
aI44
aI381
aI170
aI53
aF9010.0
aF3.207547169811321
aF0.6009988901220865
asI421
(lp554
g550
aI44
aI499
aI170
aI52
aF8840.0
aF3.269230769230769
aF0.6229638009049774
asI422
(lp555
g550
aI44
aI749
aI178
aI19
aF3382.0
aF9.368421052631579
aF0.764340626848019
asI423
(lp556
S'Euclidis_Megarensis_Opera2-0153.png'
p557
aI336
aI61
aI171
aI42
aF7182.0
aF4.071428571428571
aF0.6182121971595655
asI424
(lp558
g557
aI328
aI140
aI179
aI37
aF6623.0
aF4.837837837837838
aF0.6939453419900348
asI425
(lp559
g557
aI336
aI232
aI171
aI52
aF8892.0
aF3.2884615384615383
aF0.585357624831309
asI426
(lp560
g557
aI333
aI345
aI174
aI89
aF15486.0
aF1.9550561797752808
aF0.49715872400878214
asI427
(lp561
g557
aI332
aI518
aI175
aI83
aF14525.0
aF2.108433734939759
aF0.5299139414802065
asI428
(lp562
S'Euclidis_Megarensis_Opera2-0154.png'
p563
aI38
aI51
aI181
aI144
aF26064.0
aF1.2569444444444444
aF0.42714088397790057
asI429
(lp564
g563
aI39
aI204
aI177
aI80
aF14160.0
aF2.2125
aF0.623587570621469
asI430
(lp565
g563
aI43
aI293
aI172
aI53
aF9116.0
aF3.2452830188679247
aF0.6291136463361123
asI431
(lp566
g563
aI42
aI351
aI173
aI52
aF8996.0
aF3.326923076923077
aF0.5754779902178746
asI432
(lp567
g563
aI49
aI489
aI170
aI80
aF13600.0
aF2.125
aF0.5696323529411764
asI433
(lp568
S'Euclidis_Megarensis_Opera2-0155.png'
p569
aI323
aI8
aI202
aI18
aF3636.0
aF11.222222222222221
aF0.9598459845984598
asI434
(lp570
g569
aI323
aI54
aI185
aI47
aF8695.0
aF3.9361702127659575
aF0.5953996549741231
asI435
(lp571
g569
aI323
aI113
aI186
aI86
aF15996.0
aF2.1627906976744184
aF0.614403600900225
asI436
(lp572
g569
aI330
aI213
aI175
aI53
aF9275.0
aF3.30188679245283
aF0.5994609164420485
asI437
(lp573
g569
aI330
aI295
aI169
aI49
aF8281.0
aF3.4489795918367347
aF0.6365173288250211
asI438
(lp574
g569
aI329
aI399
aI169
aI114
aF19266.0
aF1.4824561403508771
aF0.4969376102979342
asI439
(lp575
g569
aI330
aI465
aI64
aI51
aF3264.0
aF1.2549019607843137
aF0.5649509803921569
asI440
(lp576
g569
aI323
aI518
aI171
aI67
aF11457.0
aF2.5522388059701493
aF0.5666404818015187
asI441
(lp577
S'Euclidis_Megarensis_Opera2-0156.png'
p578
aI48
aI25
aI168
aI158
aF26544.0
aF1.0632911392405062
aF0.476416515973478
asI442
(lp579
g578
aI48
aI211
aI165
aI94
aF15510.0
aF1.7553191489361701
aF0.7230818826563508
asI443
(lp580
g578
aI48
aI331
aI158
aI91
aF14378.0
aF1.7362637362637363
aF0.7176241480038948
asI444
(lp581
g578
aI48
aI459
aI169
aI145
aF24505.0
aF1.1655172413793105
aF0.5907365843705367
asI445
(lp582
g578
aI48
aI755
aI106
aI14
aF1484.0
aF7.571428571428571
aF0.8530997304582211
asI446
(lp583
S'Euclidis_Megarensis_Opera2-0157.png'
p584
aI318
aI10
aI207
aI18
aF3726.0
aF11.5
aF0.9264626945786366
asI447
(lp585
g584
aI325
aI178
aI176
aI196
aF34496.0
aF0.8979591836734694
aF0.6293773191094619
asI448
(lp586
g584
aI343
aI366
aI61
aI33
aF2013.0
aF1.8484848484848484
aF0.6790859413810233
asI449
(lp587
g584
aI418
aI367
aI79
aI32
aF2528.0
aF2.46875
aF0.6918512658227848
asI450
(lp588
g584
aI318
aI518
aI10
aI134
aF1340.0
aF0.07462686567164178
aF0.8
asI451
(lp589
g584
aI415
aI758
aI87
aI13
aF1131.0
aF6.6923076923076925
aF0.8514588859416445
asI452
(lp590
S'Euclidis_Megarensis_Opera2-0158.png'
p591
aI50
aI376
aI165
aI83
aF13695.0
aF1.9879518072289157
aF0.7758305951077036
asI453
(lp592
g591
aI50
aI753
aI137
aI14
aF1918.0
aF9.785714285714286
aF0.8561001042752867
asI454
(lp593
S'Euclidis_Megarensis_Opera2-0159.png'
p594
aI328
aI154
aI168
aI100
aF16800.0
aF1.68
aF0.5238095238095238
asI455
(lp595
g594
aI330
aI319
aI165
aI75
aF12375.0
aF2.2
aF0.5678383838383838
asI456
(lp596
g594
aI326
aI397
aI168
aI38
aF6384.0
aF4.421052631578948
aF0.6973684210526315
asI457
(lp597
g594
aI322
aI476
aI173
aI144
aF24912.0
aF1.2013888888888888
aF0.47800256904303146
asI458
(lp598
g594
aI419
aI516
aI67
aI70
aF4690.0
aF0.9571428571428572
aF0.5628997867803838
asI459
(lp599
g594
aI335
aI753
aI156
aI18
aF2808.0
aF8.666666666666666
aF0.8447293447293447
asI460
(lp600
S'Euclidis_Megarensis_Opera2-0160.png'
p601
aI42
aI200
aI179
aI100
aF17900.0
aF1.79
aF0.7272067039106145
asI461
(lp602
g601
aI42
aI305
aI175
aI69
aF12075.0
aF2.536231884057971
aF0.699544513457557
asI462
(lp603
g601
aI48
aI416
aI159
aI231
aF36729.0
aF0.6883116883116883
aF0.6744262027280895
asI463
(lp604
g601
aI56
aI756
aI137
aI14
aF1918.0
aF9.785714285714286
aF0.8884254431699687
asI464
(lp605
S'Euclidis_Megarensis_Opera2-0161.png'
p606
aI330
aI99
aI172
aI36
aF6192.0
aF4.777777777777778
aF0.7635658914728682
asI465
(lp607
g606
aI329
aI141
aI173
aI35
aF6055.0
aF4.942857142857143
aF0.7734104046242775
asI466
(lp608
g606
aI321
aI178
aI181
aI73
aF13213.0
aF2.4794520547945207
aF0.5800348141981382
asI467
(lp609
g606
aI328
aI402
aI171
aI88
aF15048.0
aF1.9431818181818181
aF0.5112307283359915
asI468
(lp610
g606
aI340
aI739
aI164
aI29
aF4756.0
aF5.655172413793103
aF0.5962994112699748
asI469
(lp611
S'Euclidis_Megarensis_Opera2-0162.png'
p612
aI206
aI56
aI13
aI118
aF1534.0
aF0.11016949152542373
aF0.81877444589309
asI470
(lp613
g612
aI49
aI131
aI74
aI33
aF2442.0
aF2.242424242424242
aF0.7841932841932842
asI471
(lp614
g612
aI130
aI133
aI74
aI31
aF2294.0
aF2.3870967741935485
aF0.7894507410636443
asI472
(lp615
g612
aI49
aI170
aI170
aI73
aF12410.0
aF2.328767123287671
aF0.5351329572925061
asI473
(lp616
g612
aI52
aI243
aI141
aI36
aF5076.0
aF3.9166666666666665
aF0.6973995271867612
asI474
(lp617
g612
aI49
aI354
aI166
aI141
aF23406.0
aF1.177304964539007
aF0.4190805776296676
asI475
(lp618
g612
aI124
aI499
aI86
aI36
aF3096.0
aF2.388888888888889
aF0.7729328165374677
asI476
(lp619
g612
aI49
aI507
aI61
aI32
aF1952.0
aF1.90625
aF0.7167008196721312
asI477
(lp620
g612
aI49
aI740
aI170
aI29
aF4930.0
aF5.862068965517241
aF0.5283975659229209
asI478
(lp621
S'Euclidis_Megarensis_Opera2-0163.png'
p622
aI318
aI60
aI179
aI286
aF51194.0
aF0.6258741258741258
aF0.3907098488104075
asI479
(lp623
g622
aI338
aI742
aI122
aI29
aF3538.0
aF4.206896551724138
aF0.7990390050876202
asI480
(lp624
S'Euclidis_Megarensis_Opera2-0164.png'
p625
aI41
aI51
aI179
aI175
aF31325.0
aF1.022857142857143
aF0.4234956105347167
asI481
(lp626
g625
aI45
aI348
aI155
aI218
aF33790.0
aF0.7110091743119266
aF0.4424977804084049
asI482
(lp627
g625
aI131
aI348
aI85
aI168
aF14280.0
aF0.5059523809523809
aF0.7011904761904761
asI483
(lp628
S'Euclidis_Megarensis_Opera2-0165.png'
p629
aI317
aI8
aI212
aI15
aF3180.0
aF14.133333333333333
aF0.9547169811320755
asI484
(lp630
g629
aI317
aI94
aI179
aI163
aF29177.0
aF1.098159509202454
aF0.6382081776741955
asI485
(lp631
g629
aI322
aI352
aI164
aI114
aF18696.0
aF1.4385964912280702
aF0.6428112965340179
asI486
(lp632
g629
aI324
aI476
aI170
aI73
aF12410.0
aF2.328767123287671
aF0.797743755036261
asI487
(lp633
S'Euclidis_Megarensis_Opera2-0166.png'
p634
aI61
aI7
aI161
aI14
aF2254.0
aF11.5
aF0.8358473824312334
asI488
(lp635
g634
aI209
aI57
aI13
aI101
aF1313.0
aF0.12871287128712872
aF0.7227722772277227
asI489
(lp636
g634
aI39
aI163
aI179
aI146
aF26134.0
aF1.226027397260274
aF0.796395500114793
asI490
(lp637
g634
aI44
aI325
aI174
aI164
aF28536.0
aF1.0609756097560976
aF0.6290299971965236
asI491
(lp638
g634
aI83
aI756
aI139
aI14
aF1946.0
aF9.928571428571429
aF0.9023638232271326
asI492
(lp639
S'Euclidis_Megarensis_Opera2-0167.png'
p640
aI328
aI119
aI165
aI216
aF35640.0
aF0.7638888888888888
aF0.565263748597082
asI493
(lp641
g640
aI380
aI244
aI47
aI28
aF1316.0
aF1.6785714285714286
aF0.7917933130699089
asI494
(lp642
g640
aI325
aI389
aI168
aI229
aF38472.0
aF0.7336244541484717
aF0.5363381160324392
asI495
(lp643
S'Euclidis_Megarensis_Opera2-0168.png'
p644
aI21
aI8
aI206
aI18
aF3708.0
aF11.444444444444445
aF0.906957928802589
asI496
(lp645
g644
aI52
aI132
aI167
aI35
aF5845.0
aF4.771428571428571
aF0.6306244653550043
asI497
(lp646
g644
aI62
aI171
aI147
aI35
aF5145.0
aF4.2
aF0.7255587949465501
asI498
(lp647
g644
aI78
aI207
aI117
aI74
aF8658.0
aF1.5810810810810811
aF0.6495726495726496
asI499
(lp648
g644
aI57
aI431
aI161
aI49
aF7889.0
aF3.2857142857142856
aF0.499176067942705
asI500
(lp649
g644
aI72
aI482
aI134
aI108
aF14472.0
aF1.2407407407407407
aF0.5754560530679934
asI501
(lp650
g644
aI70
aI759
aI108
aI14
aF1512.0
aF7.714285714285714
aF0.8194444444444444
asI502
(lp651
S'Euclidis_Megarensis_Opera2-0169.png'
p652
aI314
aI184
aI170
aI190
aF32300.0
aF0.8947368421052632
aF0.5062229102167183
asI503
(lp653
S'Euclidis_Megarensis_Opera2-0170.png'
p654
aI19
aI10
aI204
aI14
aF2856.0
aF14.571428571428571
aF0.9859943977591037
asI504
(lp655
g654
aI42
aI94
aI170
aI180
aF30600.0
aF0.9444444444444444
aF0.631078431372549
asI505
(lp656
g654
aI47
aI425
aI164
aI125
aF20500.0
aF1.312
aF0.6168292682926829
asI506
(lp657
g654
aI57
aI554
aI155
aI33
aF5115.0
aF4.696969696969697
aF0.6807429130009776
asI507
(lp658
g654
aI61
aI756
aI62
aI15
aF930.0
aF4.133333333333334
aF0.7849462365591398
asI508
(lp659
S'Euclidis_Megarensis_Opera2-0171.png'
p660
aI312
aI91
aI169
aI122
aF20618.0
aF1.3852459016393444
aF0.6416238238432438
asI509
(lp661
g660
aI326
aI222
aI155
aI39
aF6045.0
aF3.9743589743589745
aF0.6754342431761786
asI510
(lp662
g660
aI312
aI286
aI11
aI77
aF847.0
aF0.14285714285714285
aF0.8229043683589138
asI511
(lp663
g660
aI331
aI409
aI103
aI30
aF3090.0
aF3.433333333333333
aF0.47896440129449835
asI512
(lp664
g660
aI328
aI418
aI153
aI134
aF20502.0
aF1.1417910447761195
aF0.31592039800995025
asI513
(lp665
g660
aI312
aI426
aI12
aI226
aF2712.0
aF0.05309734513274336
aF0.8764749262536873
asI514
(lp666
g660
aI338
aI742
aI122
aI29
aF3538.0
aF4.206896551724138
aF0.7990390050876202
asI515
(lp667
S'Euclidis_Megarensis_Opera2-0172.png'
p668
aI14
aI9
aI206
aI20
aF4120.0
aF10.3
aF0.8383495145631068
asI516
(lp669
g668
aI50
aI52
aI170
aI187
aF31790.0
aF0.9090909090909091
aF0.19298521547656497
asI517
(lp670
g668
aI51
aI150
aI151
aI154
aF23254.0
aF0.9805194805194806
aF0.5082566440182334
asI518
(lp671
g668
aI53
aI409
aI160
aI41
aF6560.0
aF3.902439024390244
aF0.6047256097560976
asI519
(lp672
g668
aI57
aI461
aI150
aI143
aF21450.0
aF1.048951048951049
aF0.5521678321678322
asI520
(lp673
g668
aI57
aI759
aI159
aI13
aF2067.0
aF12.23076923076923
aF0.7073052733430092
asI521
(lp674
S'Euclidis_Megarensis_Opera2-0173.png'
p675
aI327
aI133
aI171
aI98
aF16758.0
aF1.7448979591836735
aF0.26536579544098343
asI522
(lp676
g675
aI343
aI178
aI140
aI155
aF21700.0
aF0.9032258064516129
aF0.5421658986175115
asI523
(lp677
g675
aI339
aI439
aI159
aI36
aF5724.0
aF4.416666666666667
aF0.7071977638015374
asI524
(lp678
g675
aI350
aI481
aI142
aI159
aF22578.0
aF0.8930817610062893
aF0.5139959252369564
asI525
(lp679
g675
aI327
aI742
aI157
aI29
aF4553.0
aF5.413793103448276
aF0.726993191302438
asI526
(lp680
S'Euclidis_Megarensis_Opera2-0174.png'
p681
aI21
aI7
aI195
aI16
aF3120.0
aF12.1875
aF0.9384615384615385
asI527
(lp682
g681
aI47
aI199
aI157
aI34
aF5338.0
aF4.617647058823529
aF0.6506182090670664
asI528
(lp683
g681
aI55
aI249
aI138
aI155
aF21390.0
aF0.8903225806451613
aF0.5213183730715287
asI529
(lp684
g681
aI21
aI760
aI98
aI13
aF1274.0
aF7.538461538461538
aF0.8021978021978022
asI530
(lp685
S'Euclidis_Megarensis_Opera2-0175.png'
p686
aI338
aI63
aI157
aI166
aF26062.0
aF0.9457831325301205
aF0.7809838078428363
asI531
(lp687
g686
aI341
aI271
aI162
aI42
aF6804.0
aF3.857142857142857
aF0.6903292181069959
asI532
(lp688
g686
aI339
aI392
aI164
aI39
aF6396.0
aF4.205128205128205
aF0.7048155096935584
asI533
(lp689
g686
aI362
aI436
aI109
aI192
aF20928.0
aF0.5677083333333334
aF0.5634556574923547
asI534
(lp690
g686
aI338
aI742
aI122
aI29
aF3538.0
aF4.206896551724138
aF0.7990390050876202
asI535
(lp691
S'Euclidis_Megarensis_Opera2-0176.png'
p692
aI14
aI8
aI196
aI18
aF3528.0
aF10.88888888888889
aF0.9308390022675737
asI536
(lp693
g692
aI38
aI186
aI162
aI36
aF5832.0
aF4.5
aF0.6949588477366255
asI537
(lp694
g692
aI48
aI234
aI130
aI206
aF26780.0
aF0.6310679611650486
aF0.5400298730395818
asI538
(lp695
S'Euclidis_Megarensis_Opera2-0177.png'
p696
aI324
aI60
aI9
aI110
aF990.0
aF0.08181818181818182
aF0.7676767676767676
asI539
(lp697
g696
aI333
aI189
aI166
aI36
aF5976.0
aF4.611111111111111
aF0.6926037483266398
asI540
(lp698
g696
aI351
aI238
aI127
aI203
aF25781.0
aF0.625615763546798
aF0.5651060858771964
asI541
(lp699
S'Euclidis_Megarensis_Opera2-0178.png'
p700
aI23
aI52
aI168
aI145
aF24360.0
aF1.1586206896551725
aF0.5894499178981938
asI542
(lp701
g700
aI65
aI189
aI92
aI53
aF4876.0
aF1.7358490566037736
aF0.46841673502871206
asI543
(lp702
g700
aI34
aI230
aI166
aI49
aF8134.0
aF3.3877551020408165
aF0.6032702237521514
asI544
(lp703
g700
aI35
aI345
aI167
aI103
aF17201.0
aF1.6213592233009708
aF0.581942910295913
asI545
(lp704
g700
aI59
aI445
aI120
aI69
aF8280.0
aF1.7391304347826086
aF0.590096618357488
asI546
(lp705
g700
aI38
aI519
aI167
aI46
aF7682.0
aF3.630434782608696
aF0.5779744858109868
asI547
(lp706
g700
aI43
aI753
aI56
aI18
aF1008.0
aF3.111111111111111
aF0.7609126984126984
asI548
(lp707
g700
aI102
aI755
aI108
aI16
aF1728.0
aF6.75
aF0.8697916666666666
asI549
(lp708
S'Euclidis_Megarensis_Opera2-0179.png'
p709
aI322
aI59
aI11
aI126
aF1386.0
aF0.0873015873015873
aF0.7619047619047619
asI550
(lp710
g709
aI367
aI63
aI96
aI32
aF3072.0
aF3.0
aF0.7037760416666666
asI551
(lp711
g709
aI377
aI100
aI74
aI34
aF2516.0
aF2.176470588235294
aF0.7321144674085851
asI552
(lp712
g709
aI332
aI134
aI173
aI205
aF35465.0
aF0.8439024390243902
aF0.6503877061892006
asI553
(lp713
g709
aI365
aI340
aI98
aI34
aF3332.0
aF2.8823529411764706
aF0.7073829531812725
asI554
(lp714
g709
aI332
aI374
aI178
aI238
aF42364.0
aF0.7478991596638656
aF0.5899584552922292
asI555
(lp715
g709
aI338
aI742
aI122
aI29
aF3538.0
aF4.206896551724138
aF0.7990390050876202
asI556
(lp716
S'Euclidis_Megarensis_Opera2-0180.png'
p717
aI40
aI43
aI171
aI162
aF27702.0
aF1.0555555555555556
aF0.5718720669987727
asI557
(lp718
g717
aI40
aI205
aI169
aI430
aF72670.0
aF0.3930232558139535
aF0.5924177790009633
asI558
(lp719
S'Euclidis_Megarensis_Opera2-0181.png'
p720
aI334
aI97
aI79
aI106
aF8374.0
aF0.7452830188679245
aF0.6818724623835681
asI559
(lp721
g720
aI417
aI97
aI81
aI104
aF8424.0
aF0.7788461538461539
aF0.6545584045584045
asI560
(lp722
g720
aI324
aI257
aI174
aI238
aF41412.0
aF0.7310924369747899
aF0.5075099005119289
asI561
(lp723
g720
aI338
aI742
aI122
aI29
aF3538.0
aF4.206896551724138
aF0.7990390050876202
asI562
(lp724
S'Euclidis_Megarensis_Opera2-0182.png'
p725
aI42
aI78
aI175
aI182
aF31850.0
aF0.9615384615384616
aF0.6270329670329671
asI563
(lp726
g725
aI42
aI303
aI171
aI234
aF40014.0
aF0.7307692307692307
aF0.44167041535462587
asI564
(lp727
S'Euclidis_Megarensis_Opera2-0183.png'
p728
aI316
aI55
aI177
aI251
aF44427.0
aF0.7051792828685259
aF0.4525176131631665
asI565
(lp729
g728
aI316
aI289
aI177
aI286
aF50622.0
aF0.6188811188811189
aF0.5692386709335862
asI566
(lp730
g728
aI323
aI563
aI162
aI73
aF11826.0
aF2.219178082191781
aF0.6035007610350076
asI567
(lp731
S'Euclidis_Megarensis_Opera2-0184.png'
p732
aI39
aI57
aI183
aI269
aF49227.0
aF0.6802973977695167
aF0.7187519044426839
asI568
(lp733
S'Euclidis_Megarensis_Opera2-0185.png'
p734
aI452
aI7
aI80
aI20
aF1600.0
aF4.0
aF0.960625
asI569
(lp735
g734
aI343
aI51
aI160
aI173
aF27680.0
aF0.9248554913294798
aF0.6445447976878613
asI570
(lp736
g734
aI349
aI257
aI120
aI177
aF21240.0
aF0.6779661016949152
aF0.7043785310734463
asI571
(lp737
g734
aI336
aI465
aI160
aI177
aF28320.0
aF0.903954802259887
aF0.6582274011299435
asI572
(lp738
S'Euclidis_Megarensis_Opera2-0186.png'
p739
aI55
aI48
aI161
aI169
aF27209.0
aF0.9526627218934911
aF0.7369987871660112
asI573
(lp740
g739
aI70
aI224
aI112
aI230
aF25760.0
aF0.48695652173913045
aF0.6690217391304348
asI574
(lp741
g739
aI151
aI459
aI44
aI34
aF1496.0
aF1.2941176470588236
aF0.4445187165775401
asI575
(lp742
S'Euclidis_Megarensis_Opera2-0187.png'
p743
aI312
aI8
aI216
aI13
aF2808.0
aF16.615384615384617
aF0.9907407407407407
asI576
(lp744
g743
aI334
aI172
aI159
aI182
aF28938.0
aF0.8736263736263736
aF0.7257239615730182
asI577
(lp745
g743
aI336
aI376
aI121
aI231
aF27951.0
aF0.5238095238095238
aF0.6584379807520303
asI578
(lp746
S'Euclidis_Megarensis_Opera2-0188.png'
p747
aI65
aI43
aI150
aI170
aF25500.0
aF0.8823529411764706
aF0.727764705882353
asI579
(lp748
g747
aI65
aI213
aI115
aI229
aF26335.0
aF0.5021834061135371
aF0.6499715207898235
asI580
(lp749
g747
aI65
aI455
aI151
aI177
aF26727.0
aF0.8531073446327684
aF0.7164664945560669
asI581
(lp750
S'Euclidis_Megarensis_Opera2-0189.png'
p751
aI351
aI36
aI113
aI232
aF26216.0
aF0.4870689655172414
aF0.649183704607873
asI582
(lp752
g751
aI331
aI335
aI160
aI75
aF12000.0
aF2.1333333333333333
aF0.5840833333333333
asI583
(lp753
S'Euclidis_Megarensis_Opera2-0190.png'
p754
aI57
aI58
aI171
aI175
aF29925.0
aF0.9771428571428571
aF0.6627568922305764
asI584
(lp755
g754
aI67
aI228
aI131
aI255
aF33405.0
aF0.5137254901960784
aF0.4713964975303098
asI585
(lp756
g754
aI57
aI502
aI156
aI144
aF22464.0
aF1.0833333333333333
aF0.5651264245014245
asI586
(lp757
g754
aI57
aI758
aI66
aI13
aF858.0
aF5.076923076923077
aF0.7797202797202797
asI587
(lp758
S'Euclidis_Megarensis_Opera2-0191.png'
p759
aI317
aI57
aI143
aI160
aF22880.0
aF0.89375
aF0.5454108391608392
asI588
(lp760
g759
aI349
aI252
aI125
aI268
aF33500.0
aF0.4664179104477612
aF0.48235820895522385
asI589
(lp761
S'Euclidis_Megarensis_Opera2-0192.png'
p762
aI50
aI55
aI177
aI229
aF40533.0
aF0.7729257641921398
aF0.4699874176596847
asI590
(lp763
g762
aI77
aI293
aI132
aI193
aF25476.0
aF0.6839378238341969
aF0.4861045690061234
asI591
(lp764
g762
aI63
aI753
aI85
aI16
aF1360.0
aF5.3125
aF0.7779411764705882
asI592
(lp765
S'Euclidis_Megarensis_Opera2-0193.png'
p766
aI334
aI49
aI153
aI34
aF5202.0
aF4.5
aF0.6268742791234141
asI593
(lp767
g766
aI354
aI101
aI120
aI172
aF20640.0
aF0.6976744186046512
aF0.5088178294573643
asI594
(lp768
g766
aI327
aI320
aI160
aI39
aF6240.0
aF4.102564102564102
aF0.6524038461538462
asI595
(lp769
g766
aI346
aI381
aI126
aI171
aF21546.0
aF0.7368421052631579
aF0.5264550264550265
asI596
(lp770
g766
aI319
aI751
aI168
aI20
aF3360.0
aF8.4
aF0.9282738095238096
asI597
(lp771
S'Euclidis_Megarensis_Opera2-0194.png'
p772
aI52
aI188
aI161
aI37
aF5957.0
aF4.351351351351352
aF0.6170891388282692
asI598
(lp773
g772
aI63
aI256
aI136
aI177
aF24072.0
aF0.768361581920904
aF0.3768278497839814
asI599
(lp774
g772
aI69
aI354
aI48
aI79
aF3792.0
aF0.6075949367088608
aF0.40901898734177217
asI600
(lp775
g772
aI61
aI754
aI160
aI18
aF2880.0
aF8.88888888888889
aF0.7458333333333333
asI601
(lp776
S'Euclidis_Megarensis_Opera2-0195.png'
p777
aI336
aI166
aI101
aI33
aF3333.0
aF3.0606060606060606
aF0.690969096909691
asI602
(lp778
g777
aI449
aI166
aI48
aI32
aF1536.0
aF1.5
aF0.6875
asI603
(lp779
g777
aI356
aI202
aI125
aI36
aF4500.0
aF3.4722222222222223
aF0.6648888888888889
asI604
(lp780
g777
aI365
aI243
aI108
aI34
aF3672.0
aF3.176470588235294
aF0.6938997821350763
asI605
(lp781
g777
aI376
aI281
aI83
aI34
aF2822.0
aF2.4411764705882355
aF0.7083628632175761
asI606
(lp782
g777
aI332
aI327
aI165
aI36
aF5940.0
aF4.583333333333333
aF0.7609427609427609
asI607
(lp783
g777
aI332
aI372
aI141
aI269
aF37929.0
aF0.5241635687732342
aF0.625563552954204
asI608
(lp784
S'Euclidis_Megarensis_Opera2-0196.png'
p785
aI213
aI49
aI12
aI182
aF2184.0
aF0.06593406593406594
aF0.7651098901098901
asI609
(lp786
g785
aI61
aI754
aI133
aI14
aF1862.0
aF9.5
aF0.7701396348012889
asI610
(lp787
S'Euclidis_Megarensis_Opera2-0197.png'
p788
aI386
aI12
aI77
aI13
aF1001.0
aF5.923076923076923
aF0.8161838161838162
asI611
(lp789
g788
aI326
aI58
aI14
aI116
aF1624.0
aF0.1206896551724138
aF0.7229064039408867
asI612
(lp790
g788
aI334
aI249
aI168
aI34
aF5712.0
aF4.9411764705882355
aF0.7102591036414566
asI613
(lp791
g788
aI346
aI307
aI130
aI215
aF27950.0
aF0.6046511627906976
aF0.5216457960644008
asI614
(lp792
S'Euclidis_Megarensis_Opera2-0198.png'
p793
aI16
aI9
aI206
aI15
aF3090.0
aF13.733333333333333
aF0.9715210355987055
asI615
(lp794
g793
aI39
aI51
aI167
aI110
aF18370.0
aF1.518181818181818
aF0.563037561241154
asI616
(lp795
g793
aI209
aI56
aI13
aI86
aF1118.0
aF0.1511627906976744
aF0.8935599284436494
asI617
(lp796
g793
aI73
aI155
aI96
aI34
aF3264.0
aF2.823529411764706
aF0.6856617647058824
asI618
(lp797
g793
aI41
aI190
aI165
aI50
aF8250.0
aF3.3
aF0.5762424242424242
asI619
(lp798
g793
aI42
aI242
aI170
aI140
aF23800.0
aF1.2142857142857142
aF0.518109243697479
asI620
(lp799
g793
aI69
aI456
aI120
aI36
aF4320.0
aF3.3333333333333335
aF0.7050925925925926
asI621
(lp800
g793
aI88
aI499
aI84
aI32
aF2688.0
aF2.625
aF0.6941964285714286
asI622
(lp801
g793
aI51
aI536
aI171
aI48
aF8208.0
aF3.5625
aF0.5964912280701754
asI623
(lp802
g793
aI84
aI574
aI95
aI33
aF3135.0
aF2.878787878787879
aF0.6889952153110048
asI624
(lp803
S'Euclidis_Megarensis_Opera2-0199.png'
p804
aI354
aI159
aI127
aI240
aF30480.0
aF0.5291666666666667
aF0.5754921259842519
asI625
(lp805
g804
aI337
aI440
aI165
aI158
aF26070.0
aF1.0443037974683544
aF0.6418872266973533
asI626
(lp806
S'Euclidis_Megarensis_Opera2-0200.png'
p807
aI209
aI57
aI12
aI147
aF1764.0
aF0.08163265306122448
aF0.8514739229024944
asI627
(lp808
S'Euclidis_Megarensis_Opera2-0201.png'
p809
aI339
aI224
aI160
aI166
aF26560.0
aF0.963855421686747
aF0.6472515060240964
asI628
(lp810
g809
aI347
aI386
aI134
aI251
aF33634.0
aF0.5338645418326693
aF0.5295534280787298
asI629
(lp811
S'Euclidis_Megarensis_Opera2-0202.png'
p812
aI22
aI8
aI199
aI18
aF3582.0
aF11.055555555555555
aF0.9416527079843663
asI630
(lp813
g812
aI40
aI208
aI168
aI168
aF28224.0
aF1.0
aF0.6382511337868481
asI631
(lp814
g812
aI66
aI380
aI134
aI243
aF32562.0
aF0.551440329218107
aF0.5620355015048216
asI632
(lp815
S'Euclidis_Megarensis_Opera2-0203.png'
p816
aI331
aI236
aI166
aI43
aF7138.0
aF3.86046511627907
aF0.5488932474082376
asI633
(lp817
g816
aI355
aI279
aI121
aI47
aF5687.0
aF2.574468085106383
aF0.5291014594689643
asI634
(lp818
S'Euclidis_Megarensis_Opera2-0204.png'
p819
aI50
aI80
aI167
aI169
aF28223.0
aF0.9881656804733728
aF0.6897920136059242
asI635
(lp820
g819
aI45
aI250
aI170
aI151
aF25670.0
aF1.1258278145695364
aF0.5044799376704324
asI636
(lp821
g819
aI45
aI403
aI152
aI225
aF34200.0
aF0.6755555555555556
aF0.5158479532163742
asI637
(lp822
g819
aI147
aI758
aI77
aI14
aF1078.0
aF5.5
aF0.8339517625231911
asI638
(lp823
S'Euclidis_Megarensis_Opera2-0205.png'
p824
aI367
aI212
aI88
aI161
aF14168.0
aF0.546583850931677
aF0.6643139469226426
asI639
(lp825
g824
aI366
aI382
aI84
aI224
aF18816.0
aF0.375
aF0.6194196428571429
asI640
(lp826
S'Euclidis_Megarensis_Opera2-0206.png'
p827
aI19
aI10
aI204
aI14
aF2856.0
aF14.571428571428571
aF0.9635854341736695
asI641
(lp828
g827
aI77
aI118
aI126
aI337
aF42462.0
aF0.37388724035608306
aF0.37261551504874946
asI642
(lp829
g827
aI60
aI758
aI104
aI13
aF1352.0
aF8.0
aF0.8165680473372781
asI643
(lp830
S'Euclidis_Megarensis_Opera2-0207.png'
p831
aI328
aI233
aI168
aI139
aF23352.0
aF1.20863309352518
aF0.5724563206577595
asI644
(lp832
g831
aI320
aI407
aI15
aI246
aF3690.0
aF0.06097560975609756
aF0.7365853658536585
asI645
(lp833
S'Euclidis_Megarensis_Opera2-0208.png'
p834
aI55
aI219
aI150
aI36
aF5400.0
aF4.166666666666667
aF0.6603703703703704
asI646
(lp835
g834
aI55
aI261
aI158
aI174
aF27492.0
aF0.9080459770114943
aF0.5948275862068966
asI647
(lp836
g834
aI97
aI751
aI124
aI15
aF1860.0
aF8.266666666666667
aF0.8435483870967742
asI648
(lp837
S'Euclidis_Megarensis_Opera2-0209.png'
p838
aI328
aI41
aI182
aI617
aF112294.0
aF0.29497568881685576
aF0.5605820435642154
asI649
(lp839
g838
aI338
aI742
aI122
aI29
aF3538.0
aF4.206896551724138
aF0.7990390050876202
asI650
(lp840
S'Euclidis_Megarensis_Opera2-0210.png'
p841
aI33
aI39
aI176
aI173
aF30448.0
aF1.0173410404624277
aF0.2923016290068313
asI651
(lp842
g841
aI34
aI249
aI167
aI142
aF23714.0
aF1.176056338028169
aF0.6276039470355065
asI652
(lp843
g841
aI36
aI426
aI175
aI84
aF14700.0
aF2.0833333333333335
aF0.8668027210884354
asI653
(lp844
g841
aI62
aI516
aI126
aI133
aF16758.0
aF0.9473684210526315
aF0.7002625611648168
asI654
(lp845
g841
aI60
aI755
aI80
aI14
aF1120.0
aF5.714285714285714
aF0.7348214285714286
asI655
(lp846
S'Euclidis_Megarensis_Opera2-0211.png'
p847
aI324
aI40
aI175
aI239
aF41825.0
aF0.7322175732217573
aF0.5817573221757322
asI656
(lp848
g847
aI360
aI288
aI113
aI361
aF40793.0
aF0.31301939058171746
aF0.7360086289314343
asI657
(lp849
S'Euclidis_Megarensis_Opera2-0212.png'
p850
aI40
aI148
aI166
aI89
aF14774.0
aF1.8651685393258426
aF0.3548801949370516
asI658
(lp851
g850
aI44
aI349
aI166
aI170
aF28220.0
aF0.9764705882352941
aF0.33447909284195604
asI659
(lp852
g850
aI49
aI751
aI151
aI15
aF2265.0
aF10.066666666666666
aF0.7293598233995585
asI660
(lp853
S'Euclidis_Megarensis_Opera2-0213.png'
p854
aI333
aI80
aI152
aI177
aF26904.0
aF0.8587570621468926
aF0.5210005947071068
asI661
(lp855
g854
aI333
aI277
aI146
aI125
aF18250.0
aF1.168
aF0.687945205479452
asI662
(lp856
g854
aI327
aI384
aI156
aI240
aF37440.0
aF0.65
aF0.6083600427350427
asI663
(lp857
g854
aI314
aI485
aI13
aI145
aF1885.0
aF0.0896551724137931
aF0.7204244031830239
asI664
(lp858
S'Euclidis_Megarensis_Opera2-0214.png'
p859
aI55
aI36
aI130
aI318
aF41340.0
aF0.4088050314465409
aF0.5528785679729076
asI665
(lp860
g859
aI68
aI332
aI136
aI295
aF40120.0
aF0.4610169491525424
aF0.4768693918245264
asI666
(lp861
S'Euclidis_Megarensis_Opera2-0215.png'
p862
aI314
aI53
aI186
aI303
aF56358.0
aF0.6138613861386139
aF0.24411796018311507
asI667
(lp863
g862
aI337
aI201
aI153
aI224
aF34272.0
aF0.6830357142857143
aF0.5422794117647058
asI668
(lp864
g862
aI326
aI433
aI150
aI196
aF29400.0
aF0.7653061224489796
aF0.43918367346938775
asI669
(lp865
S'Euclidis_Megarensis_Opera2-0216.png'
p866
aI211
aI70
aI14
aI249
aF3486.0
aF0.05622489959839357
aF0.7581755593803786
asI670
(lp867
g866
aI48
aI74
aI160
aI165
aF26400.0
aF0.9696969696969697
aF0.44083333333333335
asI671
(lp868
S'Euclidis_Megarensis_Opera2-0217.png'
p869
aI322
aI9
aI200
aI14
aF2800.0
aF14.285714285714286
aF0.9328571428571428
asI672
(lp870
g869
aI340
aI65
aI151
aI189
aF28539.0
aF0.798941798941799
aF0.5901748484529942
asI673
(lp871
g869
aI322
aI112
aI12
aI171
aF2052.0
aF0.07017543859649122
aF0.7699805068226121
asI674
(lp872
S'Euclidis_Megarensis_Opera2-0218.png'
p873
aI207
aI55
aI13
aI65
aF845.0
aF0.2
aF0.8201183431952662
asI675
(lp874
g873
aI43
aI156
aI162
aI160
aF25920.0
aF1.0125
aF0.34594907407407405
asI676
(lp875
g873
aI50
aI446
aI157
aI147
aF23079.0
aF1.0680272108843538
aF0.6418389011655617
asI677
(lp876
g873
aI85
aI756
aI135
aI14
aF1890.0
aF9.642857142857142
aF0.7835978835978836
asI678
(lp877
S'Euclidis_Megarensis_Opera2-0219.png'
p878
aI318
aI40
aI178
aI595
aF105910.0
aF0.2991596638655462
aF0.5059106788782929
asI679
(lp879
g878
aI318
aI66
aI14
aI276
aF3864.0
aF0.050724637681159424
aF0.8082298136645962
asI680
(lp880
S'Euclidis_Megarensis_Opera2-0220.png'
p881
aI29
aI6
aI193
aI24
aF4632.0
aF8.041666666666666
aF0.5297927461139896
asI681
(lp882
g881
aI44
aI58
aI174
aI126
aF21924.0
aF1.380952380952381
aF0.6870552818828681
asI682
(lp883
g881
aI44
aI200
aI166
aI184
aF30544.0
aF0.9021739130434783
aF0.5992338920900995
asI683
(lp884
g881
aI41
aI472
aI174
aI119
aF20706.0
aF1.4621848739495797
aF0.6437747512798223
asI684
(lp885
S'Euclidis_Megarensis_Opera2-0221.png'
p886
aI319
aI58
aI187
aI248
aF46376.0
aF0.7540322580645161
aF0.3685095739175436
asI685
(lp887
g886
aI319
aI385
aI176
aI116
aF20416.0
aF1.5172413793103448
aF0.7000881661442007
asI686
(lp888
S'Euclidis_Megarensis_Opera2-0222.png'
p889
aI47
aI48
aI170
aI96
aF16320.0
aF1.7708333333333333
aF0.9221813725490197
asI687
(lp890
g889
aI47
aI260
aI175
aI103
aF18025.0
aF1.6990291262135921
aF0.6379472954230235
asI688
(lp891
g889
aI56
aI385
aI140
aI182
aF25480.0
aF0.7692307692307693
aF0.46244113029827316
asI689
(lp892
S'Euclidis_Megarensis_Opera2-0223.png'
p893
aI317
aI38
aI175
aI248
aF43400.0
aF0.7056451612903226
aF0.3316589861751152
asI690
(lp894
g893
aI320
aI282
aI181
aI127
aF22987.0
aF1.4251968503937007
aF0.7219297864010092
asI691
(lp895
g893
aI321
aI414
aI173
aI113
aF19549.0
aF1.5309734513274336
aF0.7498593278428564
asI692
(lp896
S'Euclidis_Megarensis_Opera2-0224.png'
p897
aI56
aI38
aI120
aI153
aF18360.0
aF0.7843137254901961
aF0.72260348583878
asI693
(lp898
g897
aI211
aI49
aI13
aI123
aF1599.0
aF0.10569105691056911
aF0.7967479674796748
asI694
(lp899
g897
aI56
aI201
aI135
aI151
aF20385.0
aF0.8940397350993378
aF0.7840078489085112
asI695
(lp900
g897
aI56
aI365
aI149
aI255
aF37995.0
aF0.5843137254901961
aF0.6308988024740098
asI696
(lp901
g897
aI63
aI754
aI71
aI15
aF1065.0
aF4.733333333333333
aF0.7690140845070422
asI697
(lp902
g897
aI145
aI756
aI79
aI13
aF1027.0
aF6.076923076923077
aF0.8227848101265823
asI698
(lp903
S'Euclidis_Megarensis_Opera2-0225.png'
p904
aI335
aI266
aI168
aI82
aF13776.0
aF2.048780487804878
aF0.5485627177700348
asI699
(lp905
g904
aI329
aI352
aI178
aI183
aF32574.0
aF0.9726775956284153
aF0.49453551912568305
asI700
(lp906
S'Euclidis_Megarensis_Opera2-0226.png'
p907
aI44
aI286
aI170
aI62
aF10540.0
aF2.7419354838709675
aF0.6722960151802656
asI701
(lp908
g907
aI54
aI364
aI160
aI127
aF20320.0
aF1.2598425196850394
aF0.5795767716535433
asI702
(lp909
S'Euclidis_Megarensis_Opera2-0227.png'
p910
aI326
aI142
aI184
aI128
aF23552.0
aF1.4375
aF0.7281759510869565
asI703
(lp911
g910
aI339
aI287
aI158
aI173
aF27334.0
aF0.9132947976878613
aF0.7306651057291286
asI704
(lp912
g910
aI338
aI742
aI122
aI29
aF3538.0
aF4.206896551724138
aF0.8010175240248728
asI705
(lp913
S'Euclidis_Megarensis_Opera2-0228.png'
p914
aI42
aI126
aI159
aI152
aF24168.0
aF1.0460526315789473
aF0.6081181727904668
asI706
(lp915
g914
aI35
aI342
aI183
aI186
aF34038.0
aF0.9838709677419355
aF0.5486515071390798
asI707
(lp916
g914
aI60
aI756
aI158
aI14
aF2212.0
aF11.285714285714286
aF0.8508137432188065
asI708
(lp917
S'Euclidis_Megarensis_Opera2-0229.png'
p918
aI312
aI60
aI13
aI145
aF1885.0
aF0.0896551724137931
aF0.8307692307692308
asI709
(lp919
g918
aI312
aI214
aI10
aI85
aF850.0
aF0.11764705882352941
aF0.648235294117647
asI710
(lp920
g918
aI325
aI284
aI161
aI257
aF41377.0
aF0.6264591439688716
aF0.40307417164125
asI711
(lp921
S'Euclidis_Megarensis_Opera2-0230.png'
p922
aI54
aI68
aI159
aI229
aF36411.0
aF0.6943231441048034
aF0.4356650462772239
asI712
(lp923
g922
aI54
aI326
aI166
aI66
aF10956.0
aF2.515151515151515
aF0.5544906900328587
asI713
(lp924
g922
aI64
aI389
aI143
aI58
aF8294.0
aF2.4655172413793105
aF0.6666264769713045
asI714
(lp925
g922
aI54
aI466
aI163
aI146
aF23798.0
aF1.1164383561643836
aF0.6447600638709136
asI715
(lp926
g922
aI116
aI757
aI112
aI13
aF1456.0
aF8.615384615384615
aF0.9478021978021978
asI716
(lp927
S'Euclidis_Megarensis_Opera2-0231.png'
p928
aI317
aI60
aI174
aI176
aF30624.0
aF0.9886363636363636
aF0.1746342737722048
asI717
(lp929
g928
aI357
aI60
aI122
aI121
aF14762.0
aF1.0082644628099173
aF0.7152824820485029
asI718
(lp930
g928
aI328
aI250
aI163
aI125
aF20375.0
aF1.304
aF0.7624049079754601
asI719
(lp931
g928
aI417
aI377
aI74
aI82
aF6068.0
aF0.9024390243902439
aF0.8724456163480554
asI720
(lp932
g928
aI330
aI380
aI82
aI78
aF6396.0
aF1.0512820512820513
aF0.8691369606003753
asI721
(lp933
g928
aI331
aI479
aI133
aI90
aF11970.0
aF1.4777777777777779
aF0.8681704260651629
asI722
(lp934
S'Euclidis_Megarensis_Opera2-0232.png'
p935
aI208
aI47
aI18
aI388
aF6984.0
aF0.04639175257731959
aF0.7472794959908362
asI723
(lp936
g935
aI50
aI246
aI161
aI184
aF29624.0
aF0.875
aF0.8077234674588172
asI724
(lp937
S'Euclidis_Megarensis_Opera2-0233.png'
p938
aI315
aI60
aI14
aI69
aF966.0
aF0.2028985507246377
aF0.8581780538302277
asI725
(lp939
g938
aI340
aI78
aI145
aI123
aF17835.0
aF1.1788617886178863
aF0.7232968881412952
asI726
(lp940
g938
aI315
aI203
aI11
aI86
aF946.0
aF0.12790697674418605
aF0.6152219873150105
asI727
(lp941
g938
aI332
aI221
aI151
aI128
aF19328.0
aF1.1796875
aF0.6535596026490066
asI728
(lp942
g938
aI338
aI742
aI122
aI29
aF3538.0
aF4.206896551724138
aF0.7990390050876202
asI729
(lp943
S'Euclidis_Megarensis_Opera2-0234.png'
p944
aI212
aI57
aI12
aI105
aF1260.0
aF0.11428571428571428
aF0.7817460317460317
asI730
(lp945
g944
aI50
aI130
aI160
aI480
aF76800.0
aF0.3333333333333333
aF0.5988541666666667
asI731
(lp946
S'Euclidis_Megarensis_Opera2-0235.png'
p947
aI315
aI59
aI10
aI89
aF890.0
aF0.11235955056179775
aF0.7471910112359551
asI732
(lp948
g947
aI324
aI72
aI168
aI166
aF27888.0
aF1.0120481927710843
aF0.5655120481927711
asI733
(lp949
g947
aI315
aI237
aI183
aI64
aF11712.0
aF2.859375
aF0.6214139344262295
asI734
(lp950
g947
aI326
aI439
aI170
aI171
aF29070.0
aF0.9941520467836257
aF0.49886480908152736
asI735
(lp951
S'Euclidis_Megarensis_Opera2-0236.png'
p952
aI43
aI149
aI157
aI181
aF28417.0
aF0.8674033149171271
aF0.5098708519548157
asI736
(lp953
g952
aI46
aI370
aI163
aI181
aF29503.0
aF0.9005524861878453
aF0.5096769820018303
asI737
(lp954
S'Euclidis_Megarensis_Opera2-0237.png'
p955
aI317
aI54
aI15
aI77
aF1155.0
aF0.19480519480519481
aF0.8606060606060606
asI738
(lp956
g955
aI317
aI110
aI120
aI252
aF30240.0
aF0.47619047619047616
aF0.2508267195767196
asI739
(lp957
g955
aI440
aI121
aI47
aI78
aF3666.0
aF0.6025641025641025
aF0.8840698308783416
asI740
(lp958
g955
aI335
aI217
aI86
aI79
aF6794.0
aF1.0886075949367089
aF0.6479246393876951
asI741
(lp959
g955
aI447
aI225
aI44
aI72
aF3168.0
aF0.6111111111111112
aF0.9150883838383839
asI742
(lp960
g955
aI323
aI463
aI168
aI99
aF16632.0
aF1.696969696969697
aF0.6803751803751804
asI743
(lp961
g955
aI338
aI742
aI122
aI29
aF3538.0
aF4.206896551724138
aF0.7990390050876202
asI744
(lp962
S'Euclidis_Megarensis_Opera2-0238.png'
p963
aI218
aI64
aI11
aI82
aF902.0
aF0.13414634146341464
aF0.7937915742793792
asI745
(lp964
g963
aI94
aI360
aI85
aI122
aF10370.0
aF0.6967213114754098
aF0.5783992285438766
asI746
(lp965
g963
aI76
aI491
aI122
aI126
aF15372.0
aF0.9682539682539683
aF0.6693338537600833
asI747
(lp966
g963
aI55
aI753
aI174
aI16
aF2784.0
aF10.875
aF0.8566810344827587
asI748
(lp967
S'Euclidis_Megarensis_Opera2-0239.png'
p968
aI319
aI56
aI197
aI370
aF72890.0
aF0.5324324324324324
aF0.28725476745781314
asI749
(lp969
g968
aI319
aI349
aI181
aI119
aF21539.0
aF1.5210084033613445
aF0.6030456381447606
asI750
(lp970
g968
aI338
aI742
aI122
aI29
aF3538.0
aF4.206896551724138
aF0.8024307518371961
asI751
(lp971
S'Euclidis_Megarensis_Opera2-0240.png'
p972
aI70
aI51
aI116
aI101
aF11716.0
aF1.1485148514851484
aF0.5171560259474224
asI752
(lp973
g972
aI79
aI162
aI101
aI141
aF14241.0
aF0.7163120567375887
aF0.4920300540692367
asI753
(lp974
g972
aI55
aI309
aI147
aI340
aF49980.0
aF0.4323529411764706
aF0.5735494197679072
asI754
(lp975
S'Euclidis_Megarensis_Opera2-0241.png'
p976
aI323
aI6
aI202
aI20
aF4040.0
aF10.1
aF0.9341584158415842
asI755
(lp977
g976
aI323
aI85
aI102
aI273
aF27846.0
aF0.37362637362637363
aF0.853192559074912
asI756
(lp978
g976
aI431
aI86
aI77
aI264
aF20328.0
aF0.2916666666666667
aF0.7895513577331759
asI757
(lp979
g976
aI338
aI742
aI122
aI29
aF3538.0
aF4.206896551724138
aF0.7990390050876202
asI758
(lp980
S'Euclidis_Megarensis_Opera2-0243.png'
p981
aI317
aI8
aI202
aI16
aF3232.0
aF12.625
aF0.9381188118811881
asI759
(lp982
g981
aI317
aI57
aI13
aI204
aF2652.0
aF0.06372549019607843
aF0.9023378582202112
asI760
(lp983
g981
aI334
aI96
aI158
aI153
aF24174.0
aF1.0326797385620916
aF0.6697278067345082
asI761
(lp984
g981
aI344
aI257
aI140
aI59
aF8260.0
aF2.3728813559322033
aF0.8002421307506054
asI762
(lp985
S'Euclidis_Megarensis_Opera2-0244.png'
p986
aI47
aI53
aI153
aI138
aF21114.0
aF1.108695652173913
aF0.8240030311641565
asI763
(lp987
g986
aI51
aI199
aI142
aI57
aF8094.0
aF2.491228070175439
aF0.8296268841116877
asI764
(lp988
g986
aI64
aI264
aI113
aI50
aF5650.0
aF2.26
aF0.8446017699115044
asI765
(lp989
g986
aI58
aI330
aI126
aI125
aF15750.0
aF1.008
aF0.7848253968253969
asI766
(lp990
S'Euclidis_Megarensis_Opera2-0245.png'
p991
aI314
aI55
aI16
aI351
aF5616.0
aF0.045584045584045586
aF0.7327279202279202
asI767
(lp992
S'Euclidis_Megarensis_Opera2-0246.png'
p993
aI39
aI49
aI178
aI597
aF106266.0
aF0.2981574539363484
aF0.5945928142585587
asI768
(lp994
g993
aI45
aI747
aI175
aI18
aF3150.0
aF9.722222222222221
aF0.854920634920635
asI769
(lp995
S'Euclidis_Megarensis_Opera2-0247.png'
p996
aI320
aI54
aI14
aI273
aF3822.0
aF0.05128205128205128
aF0.8351648351648352
asI770
(lp997
g996
aI320
aI362
aI9
aI100
aF900.0
aF0.09
aF0.6855555555555556
asI771
(lp998
S'Euclidis_Megarensis_Opera2-0248.png'
p999
aI86
aI47
aI82
aI260
aF21320.0
aF0.3153846153846154
aF0.874859287054409
asI772
(lp1000
g999
aI210
aI49
aI13
aI127
aF1651.0
aF0.10236220472440945
aF0.8152634766807996
asI773
(lp1001
g999
aI80
aI312
aI99
aI192
aF19008.0
aF0.515625
aF0.8675294612794613
asI774
(lp1002
g999
aI44
aI751
aI179
aI19
aF3401.0
aF9.421052631578947
aF0.8315201411349603
asI775
(lp1003
S'Euclidis_Megarensis_Opera2-0249.png'
p1004
aI317
aI59
aI181
aI252
aF45612.0
aF0.7182539682539683
aF0.46025168815224066
asI776
(lp1005
g1004
aI322
aI433
aI164
aI154
aF25256.0
aF1.0649350649350648
aF0.6331168831168831
asI777
(lp1006
S'Euclidis_Megarensis_Opera2-0250.png'
p1007
aI223
aI61
aI10
aI146
aF1460.0
aF0.0684931506849315
aF0.7356164383561644
asI778
(lp1008
S'Euclidis_Megarensis_Opera2-0251.png'
p1009
aI317
aI8
aI206
aI14
aF2884.0
aF14.714285714285714
aF0.9497226074895978
asI779
(lp1010
g1009
aI317
aI53
aI188
aI276
aF51888.0
aF0.6811594202898551
aF0.6419981498612396
asI780
(lp1011
S'Euclidis_Megarensis_Opera2-0252.png'
p1012
aI212
aI51
aI15
aI146
aF2190.0
aF0.10273972602739725
aF0.7730593607305936
asI781
(lp1013
g1012
aI54
aI72
aI146
aI162
aF23652.0
aF0.9012345679012346
aF0.6820987654320988
asI782
(lp1014
g1012
aI69
aI271
aI129
aI151
aF19479.0
aF0.8543046357615894
aF0.6844807228297141
asI783
(lp1015
g1012
aI68
aI434
aI143
aI160
aF22880.0
aF0.89375
aF0.3743006993006993
asI784
(lp1016
S'Euclidis_Megarensis_Opera2-0253.png'
p1017
aI319
aI123
aI183
aI175
aF32025.0
aF1.0457142857142858
aF0.6946760343481655
asI785
(lp1018
S'Euclidis_Megarensis_Opera2-0254.png'
p1019
aI217
aI45
aI15
aI202
aF3030.0
aF0.07425742574257425
aF0.7851485148514852
asI786
(lp1020
g1019
aI60
aI313
aI166
aI167
aF27722.0
aF0.9940119760479041
aF0.7635451987591083
asI787
(lp1021
g1019
aI52
aI752
aI180
aI18
aF3240.0
aF10.0
aF0.8870370370370371
asI788
(lp1022
S'Euclidis_Megarensis_Opera2-0255.png'
p1023
aI329
aI273
aI174
aI45
aF7830.0
aF3.8666666666666667
aF0.6660280970625798
asI789
(lp1024
g1023
aI324
aI408
aI172
aI45
aF7740.0
aF3.8222222222222224
aF0.6887596899224806
asI790
(lp1025
g1023
aI332
aI571
aI163
aI38
aF6194.0
aF4.2894736842105265
aF0.6625766871165644
asI791
(lp1026
S'Euclidis_Megarensis_Opera2-0256.png'
p1027
aI49
aI137
aI168
aI43
aF7224.0
aF3.9069767441860463
aF0.6532392026578073
asI792
(lp1028
g1027
aI54
aI271
aI168
aI47
aF7896.0
aF3.574468085106383
aF0.64209726443769
asI793
(lp1029
g1027
aI57
aI398
aI169
aI93
aF15717.0
aF1.8172043010752688
aF0.5945154927785201
asI794
(lp1030
g1027
aI162
aI569
aI51
aI33
aF1683.0
aF1.5454545454545454
aF0.5347593582887701
asI795
(lp1031
g1027
aI52
aI752
aI178
aI18
aF3204.0
aF9.88888888888889
aF0.8358302122347067
asI796
(lp1032
S'Euclidis_Megarensis_Opera2-0257.png'
p1033
aI339
aI72
aI161
aI153
aF24633.0
aF1.0522875816993464
aF0.5825112653757155
asI797
(lp1034
g1033
aI323
aI185
aI167
aI320
aF53440.0
aF0.521875
aF0.3967065868263473
asI798
(lp1035
g1033
aI323
aI557
aI10
aI88
aF880.0
aF0.11363636363636363
aF0.5261363636363636
asI799
(lp1036
g1033
aI338
aI742
aI122
aI29
aF3538.0
aF4.206896551724138
aF0.7990390050876202
asI800
(lp1037
S'Euclidis_Megarensis_Opera2-0258.png'
p1038
aI40
aI143
aI158
aI203
aF32074.0
aF0.7783251231527094
aF0.48260273118413666
asI801
(lp1039
g1038
aI51
aI453
aI153
aI149
aF22797.0
aF1.0268456375838926
aF0.3818923542571391
asI802
(lp1040
g1038
aI54
aI747
aI164
aI25
aF4100.0
aF6.56
aF0.8341463414634146
asI803
(lp1041
S'Euclidis_Megarensis_Opera2-0259.png'
p1042
aI312
aI47
aI177
aI409
aF72393.0
aF0.43276283618581907
aF0.4057712762283646
asI804
(lp1043
g1042
aI330
aI72
aI163
aI114
aF18582.0
aF1.4298245614035088
aF0.6282962006242601
asI805
(lp1044
S'Euclidis_Megarensis_Opera2-0260.png'
p1045
aI49
aI28
aI168
aI161
aF27048.0
aF1.0434782608695652
aF0.582815734989648
asI806
(lp1046
g1045
aI218
aI182
aI8
aI116
aF928.0
aF0.06896551724137931
aF0.7887931034482759
asI807
(lp1047
g1045
aI51
aI196
aI159
aI105
aF16695.0
aF1.5142857142857142
aF0.7226714585205152
asI808
(lp1048
g1045
aI54
aI365
aI157
aI105
aF16485.0
aF1.4952380952380953
aF0.6855929632999697
asI809
(lp1049
g1045
aI45
aI476
aI160
aI163
aF26080.0
aF0.9815950920245399
aF0.7162576687116564
asI810
(lp1050
S'Euclidis_Megarensis_Opera2-0261.png'
p1051
aI337
aI85
aI165
aI117
aF19305.0
aF1.4102564102564104
aF0.6373996373996375
asI811
(lp1052
g1051
aI337
aI222
aI167
aI322
aF53774.0
aF0.5186335403726708
aF0.5755569606129356
asI812
(lp1053
S'Euclidis_Megarensis_Opera2-0262.png'
p1054
aI214
aI69
aI11
aI90
aF990.0
aF0.12222222222222222
aF0.6515151515151515
asI813
(lp1055
g1054
aI45
aI84
aI167
aI111
aF18537.0
aF1.5045045045045045
aF0.5986945028861197
asI814
(lp1056
g1054
aI45
aI307
aI180
aI232
aF41760.0
aF0.7758620689655172
aF0.6305795019157088
asI815
(lp1057
g1054
aI62
aI753
aI163
aI20
aF3260.0
aF8.15
aF0.9239263803680982
asI816
(lp1058
S'Euclidis_Megarensis_Opera2-0263.png'
p1059
aI320
aI58
aI14
aI270
aF3780.0
aF0.05185185185185185
aF0.7103174603174603
asI817
(lp1060
g1059
aI333
aI308
aI156
aI162
aF25272.0
aF0.9629629629629629
aF0.6159781576448243
asI818
(lp1061
S'Euclidis_Megarensis_Opera2-0264.png'
p1062
aI207
aI55
aI13
aI143
aF1859.0
aF0.09090909090909091
aF0.6390532544378699
asI819
(lp1063
g1062
aI55
aI228
aI153
aI167
aF25551.0
aF0.9161676646706587
aF0.6166490548315134
asI820
(lp1064
S'Euclidis_Megarensis_Opera2-0265.png'
p1065
aI319
aI70
aI13
aI190
aF2470.0
aF0.06842105263157895
aF0.7271255060728745
asI821
(lp1066
g1065
aI335
aI206
aI167
aI179
aF29893.0
aF0.9329608938547486
aF0.646070986518583
asI822
(lp1067
S'Euclidis_Megarensis_Opera2-0266.png'
p1068
aI52
aI45
aI177
aI326
aF57702.0
aF0.5429447852760736
aF0.6182627985165159
asI823
(lp1069
g1068
aI54
aI387
aI163
aI156
aF25428.0
aF1.044871794871795
aF0.6136935661475539
asI824
(lp1070
S'Euclidis_Megarensis_Opera2-0267.png'
p1071
aI321
aI215
aI82
aI171
aF14022.0
aF0.47953216374269003
aF0.3265582655826558
asI825
(lp1072
S'Euclidis_Megarensis_Opera2-0268.png'
p1073
aI215
aI53
aI13
aI124
aF1612.0
aF0.10483870967741936
aF0.8753101736972705
asI826
(lp1074
g1073
aI43
aI115
aI185
aI273
aF50505.0
aF0.6776556776556777
aF0.6553806553806554
asI827
(lp1075
S'Euclidis_Megarensis_Opera2-0269.png'
p1076
aI320
aI60
aI14
aI216
aF3024.0
aF0.06481481481481481
aF0.8015873015873016
asI828
(lp1077
S'Euclidis_Megarensis_Opera2-0270.png'
p1078
aI39
aI217
aI175
aI197
aF34475.0
aF0.8883248730964467
aF0.5582015953589557
asI829
(lp1079
S'Euclidis_Megarensis_Opera2-0271.png'
p1080
aI326
aI62
aI10
aI206
aF2060.0
aF0.04854368932038835
aF0.7533980582524272
asI830
(lp1081
S'Euclidis_Megarensis_Opera2-0272.png'
p1082
aI48
aI347
aI163
aI188
aF30644.0
aF0.8670212765957447
aF0.495202976112779
asI831
(lp1083
g1082
aI210
aI514
aI11
aI128
aF1408.0
aF0.0859375
aF0.6669034090909091
asI832
(lp1084
S'Euclidis_Megarensis_Opera2-0273.png'
p1085
aI316
aI50
aI12
aI98
aF1176.0
aF0.12244897959183673
aF0.6726190476190477
asI833
(lp1086
S'Euclidis_Megarensis_Opera2-0274.png'
p1087
aI42
aI197
aI177
aI85
aF15045.0
aF2.0823529411764707
aF0.5633100697906281
asI834
(lp1088
g1087
aI53
aI560
aI172
aI71
aF12212.0
aF2.4225352112676055
aF0.39420242384539794
asI835
(lp1089
g1087
aI131
aI599
aI80
aI31
aF2480.0
aF2.5806451612903225
aF0.6165322580645162
asI836
(lp1090
S'Euclidis_Megarensis_Opera2-0275.png'
p1091
aI333
aI210
aI166
aI184
aF30544.0
aF0.9021739130434783
aF0.5969748559455212
asI837
(lp1092
g1091
aI317
aI742
aI143
aI29
aF4147.0
aF4.931034482758621
aF0.7646491439594888
asI838
(lp1093
S'Euclidis_Megarensis_Opera2-0276.png'
p1094
aI46
aI55
aI178
aI280
aF49840.0
aF0.6357142857142857
aF0.21183788121990368
asI839
(lp1095
g1094
aI50
aI72
aI152
aI152
aF23104.0
aF1.0
aF0.6138331024930748
asI840
(lp1096
g1094
aI59
aI286
aI146
aI154
aF22484.0
aF0.948051948051948
aF0.673945917096602
asI841
(lp1097
g1094
aI47
aI441
aI166
aI167
aF27722.0
aF0.9940119760479041
aF0.5190101724262318
asI842
(lp1098
S'Euclidis_Megarensis_Opera2-0277.png'
p1099
aI334
aI135
aI162
aI160
aF25920.0
aF1.0125
aF0.6275077160493827
asI843
(lp1100
g1099
aI326
aI353
aI165
aI160
aF26400.0
aF1.03125
aF0.6990530303030303
asI844
(lp1101
g1099
aI319
aI742
aI141
aI29
aF4089.0
aF4.862068965517241
aF0.7495720224993886
asI845
(lp1102
S'Euclidis_Megarensis_Opera2-0278.png'
p1103
aI54
aI224
aI161
aI38
aF6118.0
aF4.2368421052631575
aF0.5377574370709383
asI846
(lp1104
g1103
aI89
aI267
aI113
aI34
aF3842.0
aF3.323529411764706
aF0.6202498698594482
asI847
(lp1105
g1103
aI54
aI310
aI162
aI198
aF32076.0
aF0.8181818181818182
aF0.6841252026437211
asI848
(lp1106
S'Euclidis_Megarensis_Opera2-0279.png'
p1107
aI321
aI7
aI205
aI19
aF3895.0
aF10.789473684210526
aF0.934017971758665
asI849
(lp1108
g1107
aI321
aI728
aI205
aI46
aF9430.0
aF4.456521739130435
aF0.5412513255567338
asI850
(lp1109
S'Euclidis_Megarensis_Opera2-0280.png'
p1110
aI51
aI31
aI156
aI172
aF26832.0
aF0.9069767441860465
aF0.6690146094215862
asI851
(lp1111
g1110
aI51
aI231
aI163
aI178
aF29014.0
aF0.9157303370786517
aF0.6888398704073896
asI852
(lp1112
S'Euclidis_Megarensis_Opera2-0281.png'
p1113
aI320
aI17
aI207
aI17
aF3519.0
aF12.176470588235293
aF0.8914464336459221
asI853
(lp1114
g1113
aI320
aI57
aI183
aI302
aF55266.0
aF0.6059602649006622
aF0.41606050736438316
asI854
(lp1115
g1113
aI359
aI292
aI115
aI75
aF8625.0
aF1.5333333333333334
aF0.6107826086956522
asI855
(lp1116
g1113
aI349
aI405
aI143
aI107
aF15301.0
aF1.3364485981308412
aF0.6219854911443696
asI856
(lp1117
g1113
aI338
aI742
aI122
aI29
aF3538.0
aF4.206896551724138
aF0.7990390050876202
asI857
(lp1118
S'Euclidis_Megarensis_Opera2-0282.png'
p1119
aI219
aI54
aI13
aI188
aF2444.0
aF0.06914893617021277
aF0.7761865793780688
asI858
(lp1120
g1119
aI56
aI74
aI157
aI210
aF32970.0
aF0.7476190476190476
aF0.5184106763724599
asI859
(lp1121
g1119
aI75
aI297
aI146
aI319
aF46574.0
aF0.45768025078369906
aF0.5125177137458667
asI860
(lp1122
S'Euclidis_Megarensis_Opera2-0283.png'
p1123
aI305
aI45
aI18
aI412
aF7416.0
aF0.043689320388349516
aF0.6290453074433657
asI861
(lp1124
g1123
aI305
aI743
aI187
aI28
aF5236.0
aF6.678571428571429
aF0.8724216959511077
asI862
(lp1125
S'Euclidis_Megarensis_Opera2-0284.png'
p1126
aI219
aI54
aI15
aI157
aF2355.0
aF0.09554140127388536
aF0.7787685774946922
asI863
(lp1127
g1126
aI64
aI143
aI161
aI160
aF25760.0
aF1.00625
aF0.47138975155279506
asI864
(lp1128
g1126
aI66
aI753
aI168
aI16
aF2688.0
aF10.5
aF0.9363839285714286
asI865
(lp1129
S'Euclidis_Megarensis_Opera2-0285.png'
p1130
aI333
aI167
aI150
aI98
aF14700.0
aF1.530612244897959
aF0.5716326530612245
asI866
(lp1131
g1130
aI326
aI362
aI148
aI256
aF37888.0
aF0.578125
aF0.5573268581081081
asI867
(lp1132
g1130
aI318
aI738
aI167
aI33
aF5511.0
aF5.0606060606060606
aF0.8052984939212484
asI868
(lp1133
S'Euclidis_Megarensis_Opera2-0286.png'
p1134
aI64
aI287
aI137
aI318
aF43566.0
aF0.4308176100628931
aF0.5887618785291282
asI869
(lp1135
g1134
aI64
aI745
aI163
aI21
aF3423.0
aF7.761904761904762
aF0.8442886356996786
asI870
(lp1136
S'Euclidis_Megarensis_Opera2-0288.png'
p1137
aI38
aI7
aI181
aI12
aF2172.0
aF15.083333333333334
aF0.7523020257826888
asI871
(lp1138
g1137
aI57
aI80
aI156
aI178
aF27768.0
aF0.8764044943820225
aF0.5543071161048689
asI872
(lp1139
g1137
aI68
aI321
aI121
aI291
aF35211.0
aF0.41580756013745707
aF0.671295901848854
asI873
(lp1140
g1137
aI52
aI741
aI170
aI18
aF3060.0
aF9.444444444444445
aF0.8555555555555555
asI874
(lp1141
S'Euclidis_Megarensis_Opera2-0289.png'
p1142
aI340
aI48
aI135
aI76
aF10260.0
aF1.7763157894736843
aF0.6685185185185185
asI875
(lp1143
g1142
aI361
aI131
aI101
aI104
aF10504.0
aF0.9711538461538461
aF0.7261043412033511
asI876
(lp1144
g1142
aI329
aI243
aI156
aI103
aF16068.0
aF1.5145631067961165
aF0.5771720189195917
asI877
(lp1145
g1142
aI349
aI347
aI130
aI135
aF17550.0
aF0.9629629629629629
aF0.5321367521367522
asI878
(lp1146
g1142
aI358
aI497
aI137
aI137
aF18769.0
aF1.0
aF0.5728595023709308
asI879
(lp1147
g1142
aI321
aI742
aI161
aI30
aF4830.0
aF5.366666666666666
aF0.7089026915113872
asI880
(lp1148
S'Euclidis_Megarensis_Opera2-0290.png'
p1149
aI114
aI755
aI109
aI13
aF1417.0
aF8.384615384615385
aF0.7988708539167255
asI881
(lp1150
S'Euclidis_Megarensis_Opera2-0291.png'
p1151
aI321
aI10
aI204
aI15
aF3060.0
aF13.6
aF0.9212418300653594
asI882
(lp1152
g1151
aI358
aI63
aI113
aI288
aF32544.0
aF0.3923611111111111
aF0.6539147000983284
asI883
(lp1153
g1151
aI333
aI389
aI144
aI242
aF34848.0
aF0.5950413223140496
aF0.5837637741046832
asI884
(lp1154
S'Euclidis_Megarensis_Opera2-0292.png'
p1155
aI206
aI57
aI13
aI139
aF1807.0
aF0.09352517985611511
aF0.8976203652462645
asI885
(lp1156
g1155
aI106
aI754
aI61
aI14
aF854.0
aF4.357142857142857
aF0.8161592505854801
asI886
(lp1157
S'Euclidis_Megarensis_Opera2-0293.png'
p1158
aI317
aI123
aI13
aI215
aF2795.0
aF0.06046511627906977
aF0.7463327370304115
asI887
(lp1159
g1158
aI317
aI742
aI165
aI29
aF4785.0
aF5.689655172413793
aF0.69717868338558
asI888
(lp1160
S'Euclidis_Megarensis_Opera2-0294.png'
p1161
aI212
aI57
aI12
aI242
aF2904.0
aF0.049586776859504134
aF0.7885674931129476
asI889
(lp1162
S'Euclidis_Megarensis_Opera2-0295.png'
p1163
aI320
aI58
aI13
aI198
aF2574.0
aF0.06565656565656566
aF0.8131313131313131
asI890
(lp1164
g1163
aI338
aI742
aI116
aI29
aF3364.0
aF4.0
aF0.8091557669441142
asI891
(lp1165
S'Euclidis_Megarensis_Opera2-0296.png'
p1166
aI214
aI49
aI17
aI171
aF2907.0
aF0.09941520467836257
aF0.8555211558307534
asI892
(lp1167
g1166
aI218
aI236
aI13
aI104
aF1352.0
aF0.125
aF0.775887573964497
asI893
(lp1168
g1166
aI65
aI755
aI65
aI16
aF1040.0
aF4.0625
aF0.7490384615384615
asI894
(lp1169
g1166
aI144
aI756
aI87
aI15
aF1305.0
aF5.8
aF0.9302681992337165
asI895
(lp1170
S'Euclidis_Megarensis_Opera2-0297.png'
p1171
aI319
aI19
aI210
aI40
aF8400.0
aF5.25
aF0.5895238095238096
asI896
(lp1172
g1171
aI319
aI66
aI12
aI182
aF2184.0
aF0.06593406593406594
aF0.7834249084249084
asI897
(lp1173
g1171
aI319
aI751
aI64
aI15
aF960.0
aF4.266666666666667
aF0.6989583333333333
asI898
(lp1174
S'Euclidis_Megarensis_Opera2-0298.png'
p1175
aI1
aI17
aI35
aI65
aF2275.0
aF0.5384615384615384
aF0.44263736263736264
asI899
(lp1176
g1175
aI47
aI17
aI173
aI65
aF11245.0
aF2.6615384615384614
aF0.3378390395731436
asI900
(lp1177
g1175
aI207
aI60
aI13
aI153
aF1989.0
aF0.08496732026143791
aF0.7390648567119156
asI901
(lp1178
g1175
aI1
aI170
aI31
aI116
aF3596.0
aF0.2672413793103448
aF0.5086206896551724
asI902
(lp1179
g1175
aI1
aI311
aI13
aI98
aF1274.0
aF0.1326530612244898
aF0.7472527472527473
asI903
(lp1180
g1175
aI1
aI539
aI41
aI145
aF5945.0
aF0.2827586206896552
aF0.30748528174936923
asI904
(lp1181
g1175
aI1
aI675
aI219
aI89
aF19491.0
aF2.460674157303371
aF0.21722846441947566
as.