(dp0
S'simson_1781_v1_2_0018'
p1
cnumpy.core.multiarray
scalar
p2
(cnumpy
dtype
p3
(S'f8'
p4
I0
I1
tp5
Rp6
(I3
S'<'
p7
NNNI-1
I-1
I0
tp8
bS'\xaa\xf6\xd7\x84\xdf\x0e\x9d>'
p9
tp10
Rp11
sS'simson_1781_v1_2_0016'
p12
g2
(g6
S'\xaa\xf6\xd7\x84\xdf\x0e\x9d>'
p13
tp14
Rp15
s.