(dp0
S'simson_1781_v1_2_0018'
p1
cnumpy.core.multiarray
scalar
p2
(cnumpy
dtype
p3
(S'f8'
p4
I0
I1
tp5
Rp6
(I3
S'<'
p7
NNNI-1
I-1
I0
tp8
bS"'\xf5\x14\x831\xadA?"
p9
tp10
Rp11
sS'simson_1781_v1_2_0016'
p12
g2
(g6
S'[\x98g\xc0\x99\x0c??'
p13
tp14
Rp15
s.