(dp0
S'simson_1781_v1_2_0018.tif'
p1
(lp2
((I1618
I375
tp3
(I336
I439
tp4
tp5
a((I2069
I381
tp6
(I443
I437
tp7
tp8
a((I957
I386
tp9
(I497
I430
tp10
tp11
a((I325
I446
tp12
(I280
I57
tp13
tp14
a((I2063
I1514
tp15
(I397
I328
tp16
tp17
a((I955
I1515
tp18
(I435
I323
tp19
tp20
a((I1499
I1545
tp21
(I555
I291
tp22
tp23
a((I1862
I2393
tp24
(I307
I481
tp25
tp26
a((I1216
I2395
tp27
(I486
I485
tp28
tp29
a((I1093
I3577
tp30
(I727
I412
tp31
tp32
a((I1717
I3579
tp33
(I572
I417
tp34
tp35
asS'simson_1781_v1_2_0016.tif'
p36
(lp37
((I1105
I383
tp38
(I561
I563
tp39
tp40
a((I295
I457
tp41
(I295
I75
tp42
tp43
a((I1839
I551
tp44
(I650
I399
tp45
tp46
a((I2053
I2397
tp47
(I722
I492
tp48
tp49
a((I903
I2585
tp50
(I2
I9
tp51
tp52
a((I1119
I3269
tp53
(I861
I399
tp54
tp55
a((I1847
I3343
tp56
(I504
I335
tp57
tp58
as.