(dp0
S'sixfirsttogethe00euclgoog_0020'
p1
cnumpy.core.multiarray
scalar
p2
(cnumpy
dtype
p3
(S'f8'
p4
I0
I1
tp5
Rp6
(I3
S'<'
p7
NNNI-1
I-1
I0
tp8
bS'\x07+{7\x14\xe3@?'
p9
tp10
Rp11
sS'sixfirsttogethe00euclgoog_0021'
p12
g2
(g6
S'\xdd\xc8\xa2\xee\xdd\xf6J?'
p13
tp14
Rp15
sS'sixfirsttogethe00euclgoog_0022'
p16
g2
(g6
S'B\xdd\x81M\x883@?'
p17
tp18
Rp19
sS'sixfirsttogethe00euclgoog_0023'
p20
g2
(g6
S'\xe7D\x85\xbe\xae\xc6E?'
p21
tp22
Rp23
sS'sixfirsttogethe00euclgoog_0024'
p24
g2
(g6
S'2\xbam\xc2\x0f\xae@?'
p25
tp26
Rp27
sS'sixfirsttogethe00euclgoog_0025'
p28
g2
(g6
S'!3\xb2\xe5\x1c\x86B?'
p29
tp30
Rp31
sS'sixfirsttogethe00euclgoog_0026'
p32
g2
(g6
S'\xc9\xdd?\xc0p,N?'
p33
tp34
Rp35
sS'sixfirsttogethe00euclgoog_0027'
p36
g2
(g6
S'\xad0\x97Z_\rF?'
p37
tp38
Rp39
sS'sixfirsttogethe00euclgoog_0028'
p40
g2
(g6
S'\xb4\x87\xe7\x8d\xf4\x99\x1d?'
p41
tp42
Rp43
sS'sixfirsttogethe00euclgoog_0029'
p44
g2
(g6
S'{_I\x06\xdc\xe5O?'
p45
tp46
Rp47
sS'sixfirsttogethe00euclgoog_0143'
p48
g2
(g6
S'\x05\xefB\xa6\xe5MM?'
p49
tp50
Rp51
sS'sixfirsttogethe00euclgoog_0142'
p52
g2
(g6
S'z1\xcek/$D?'
p53
tp54
Rp55
sS'sixfirsttogethe00euclgoog_0141'
p56
g2
(g6
S'\x8c5\x92\xcdZ\xc2J?'
p57
tp58
Rp59
sS'sixfirsttogethe00euclgoog_0140'
p60
g2
(g6
S'\xf4\xe7\xc1^8t9?'
p61
tp62
Rp63
sS'sixfirsttogethe00euclgoog_0147'
p64
g2
(g6
S'N~\xc4Rz\x8dF?'
p65
tp66
Rp67
sS'sixfirsttogethe00euclgoog_0146'
p68
g2
(g6
S'\xa58^\xaf"};?'
p69
tp70
Rp71
sS'sixfirsttogethe00euclgoog_0145'
p72
g2
(g6
S'q\xf4\xcf\x8bP\xd8D?'
p73
tp74
Rp75
sS'sixfirsttogethe00euclgoog_0144'
p76
g2
(g6
S'hG\x0e\x7f\x17\x9fB?'
p77
tp78
Rp79
sS'sixfirsttogethe00euclgoog_0222'
p80
g2
(g6
S'\x1bp\xfc\rY(A?'
p81
tp82
Rp83
sS'sixfirsttogethe00euclgoog_0223'
p84
g2
(g6
S'||\xe59\x9d&D?'
p85
tp86
Rp87
sS'sixfirsttogethe00euclgoog_0149'
p88
g2
(g6
S'\xc8\x19u\xd9\x99\xb0G?'
p89
tp90
Rp91
sS'sixfirsttogethe00euclgoog_0148'
p92
g2
(g6
S'\xd9x\xbf\x9fO\xcc:?'
p93
tp94
Rp95
sS'sixfirsttogethe00euclgoog_0226'
p96
g2
(g6
S'\x01\x02?\xe9\xb1\x89A?'
p97
tp98
Rp99
sS'sixfirsttogethe00euclgoog_0170'
p100
g2
(g6
S'\xd6\x071\xa3\t\x85E?'
p101
tp102
Rp103
sS'sixfirsttogethe00euclgoog_0224'
p104
g2
(g6
S']\xa9\x98\x15\x1f\x05;?'
p105
tp106
Rp107
sS'sixfirsttogethe00euclgoog_0225'
p108
g2
(g6
S'\x86\xb2\xc9gf\x01C?'
p109
tp110
Rp111
sS'sixfirsttogethe00euclgoog_0171'
p112
g2
(g6
S'\x17@\xe1P\xf9eE?'
p113
tp114
Rp115
sS'sixfirsttogethe00euclgoog_0235'
p116
g2
(g6
S'\xaf\x83\x91R\x8bxG?'
p117
tp118
Rp119
sS'sixfirsttogethe00euclgoog_0234'
p120
g2
(g6
S'\x08\x9eb\xbfe\x86D?'
p121
tp122
Rp123
sS'sixfirsttogethe00euclgoog_0220'
p124
g2
(g6
S'5+\x8eW\x11/B?'
p125
tp126
Rp127
sS'sixfirsttogethe00euclgoog_0237'
p128
g2
(g6
S'Z%\xaaV\xb4\xdfA?'
p129
tp130
Rp131
sS'sixfirsttogethe00euclgoog_0236'
p132
g2
(g6
S'\xadqQ\xcaAaD?'
p133
tp134
Rp135
sS'sixfirsttogethe00euclgoog_0136'
p136
g2
(g6
S'\x1b;\xa6|\xcb\x02:?'
p137
tp138
Rp139
sS'sixfirsttogethe00euclgoog_0137'
p140
g2
(g6
S'\x86\xf6p\x81\x98\x8eE?'
p141
tp142
Rp143
sS'sixfirsttogethe00euclgoog_0134'
p144
g2
(g6
S'\xac\xe9v\x1b|EB?'
p145
tp146
Rp147
sS'sixfirsttogethe00euclgoog_0135'
p148
g2
(g6
S'\x01:X\x89\xafoG?'
p149
tp150
Rp151
sS'sixfirsttogethe00euclgoog_0132'
p152
g2
(g6
S' I\x99\x0f\xe06>?'
p153
tp154
Rp155
sS'sixfirsttogethe00euclgoog_0133'
p156
g2
(g6
S'\x90\r\xff\x87\x9c\x9cF?'
p157
tp158
Rp159
sS'sixfirsttogethe00euclgoog_0130'
p160
g2
(g6
S'\xb6_\xa4\xaeY\x178?'
p161
tp162
Rp163
sS'sixfirsttogethe00euclgoog_0131'
p164
g2
(g6
S'\xbc\x05\xa4\xb8\x17\xdeC?'
p165
tp166
Rp167
sS'sixfirsttogethe00euclgoog_0138'
p168
g2
(g6
S'\xe0\x01\xfeNx>D?'
p169
tp170
Rp171
sS'sixfirsttogethe00euclgoog_0139'
p172
g2
(g6
S'\xda\xb7\xc3\xa0\x1a\tD?'
p173
tp174
Rp175
sS'sixfirsttogethe00euclgoog_0239'
p176
g2
(g6
S'\xc1\xa2y\x02\x13?G?'
p177
tp178
Rp179
sS'sixfirsttogethe00euclgoog_0238'
p180
g2
(g6
S'\x84\xa9\xa9\xa3\xc1uA?'
p181
tp182
Rp183
sS'sixfirsttogethe00euclgoog_0039'
p184
g2
(g6
S'\rX\xab\x1fx@>?'
p185
tp186
Rp187
sS'sixfirsttogethe00euclgoog_0038'
p188
g2
(g6
S'\x87\x840 \xb1\x1dB?'
p189
tp190
Rp191
sS'sixfirsttogethe00euclgoog_0037'
p192
g2
(g6
S'\xe6\x85O$=\xa0M?'
p193
tp194
Rp195
sS'sixfirsttogethe00euclgoog_0036'
p196
g2
(g6
S'\x91E\x133\x04\x05D?'
p197
tp198
Rp199
sS'sixfirsttogethe00euclgoog_0035'
p200
g2
(g6
S'\xd8!q36AF?'
p201
tp202
Rp203
sS'sixfirsttogethe00euclgoog_0034'
p204
g2
(g6
S'\x02\x08\x93\xf8\xd8ZH?'
p205
tp206
Rp207
sS'sixfirsttogethe00euclgoog_0033'
p208
g2
(g6
S'\x80\xc0\x0c\x07aWB?'
p209
tp210
Rp211
sS'sixfirsttogethe00euclgoog_0032'
p212
g2
(g6
S'r\xff\xea\x1c\x13\xfaD?'
p213
tp214
Rp215
sS'sixfirsttogethe00euclgoog_0031'
p216
g2
(g6
S'\xe9OH%2\xa0E?'
p217
tp218
Rp219
sS'sixfirsttogethe00euclgoog_0030'
p220
g2
(g6
S'~\x056{?fA?'
p221
tp222
Rp223
sS'sixfirsttogethe00euclgoog_0228'
p224
g2
(g6
S']\xa9\x98\x15\x1f\x05;?'
p225
tp226
Rp227
sS'sixfirsttogethe00euclgoog_0229'
p228
g2
(g6
S'v\xa5!@(RF?'
p229
tp230
Rp231
sS'sixfirsttogethe00euclgoog_0125'
p232
g2
(g6
S'HG\xb8\x0b_\xefE?'
p233
tp234
Rp235
sS'sixfirsttogethe00euclgoog_0124'
p236
g2
(g6
S'Tw\x0b\x90\xa0\x02\x1d?'
p237
tp238
Rp239
sS'sixfirsttogethe00euclgoog_0127'
p240
g2
(g6
S'=\xd8`\x86R\x9fE?'
p241
tp242
Rp243
sS'sixfirsttogethe00euclgoog_0126'
p244
g2
(g6
S'Q-\x18Y\xb5\xfdE?'
p245
tp246
Rp247
sS'sixfirsttogethe00euclgoog_0121'
p248
g2
(g6
S'\xe9Q\xcf\x13\xd1\xe1*?'
p249
tp250
Rp251
sS'sixfirsttogethe00euclgoog_0109'
p252
g2
(g6
S'\x80=C\x10\x980J?'
p253
tp254
Rp255
sS'sixfirsttogethe00euclgoog_0123'
p256
g2
(g6
S'p\xb3a\xa7/\x83,?'
p257
tp258
Rp259
sS'sixfirsttogethe00euclgoog_0122'
p260
g2
(g6
S':eT\x9b`0"?'
p261
tp262
Rp263
sS'sixfirsttogethe00euclgoog_0108'
p264
g2
(g6
S'.\xcc\x90(\x82\xbf\x17?'
p265
tp266
Rp267
sS'sixfirsttogethe00euclgoog_0129'
p268
g2
(g6
S'\xb10\xadl\xe5\x0eL?'
p269
tp270
Rp271
sS'sixfirsttogethe00euclgoog_0128'
p272
g2
(g6
S'\x91\xd78\x85B=@?'
p273
tp274
Rp275
sS'sixfirsttogethe00euclgoog_0204'
p276
g2
(g6
S'?\x9eQ\x92Mk=?'
p277
tp278
Rp279
sS'sixfirsttogethe00euclgoog_0205'
p280
g2
(g6
S'eB\x91\xb6-6C?'
p281
tp282
Rp283
sS'sixfirsttogethe00euclgoog_0048'
p284
g2
(g6
S'\xe2-\xdb\xbf\xf58*?'
p285
tp286
Rp287
sS'sixfirsttogethe00euclgoog_0049'
p288
g2
(g6
S'T\x17KF\xad"??'
p289
tp290
Rp291
sS'sixfirsttogethe00euclgoog_0200'
p292
g2
(g6
S'N\x1a\xebp\x91\x92:?'
p293
tp294
Rp295
sS'sixfirsttogethe00euclgoog_0201'
p296
g2
(g6
S'g\xeem\x01\xa0\x96L?'
p297
tp298
Rp299
sS'sixfirsttogethe00euclgoog_0202'
p300
g2
(g6
S'N<\x08\x03\x86\xa29?'
p301
tp302
Rp303
sS'sixfirsttogethe00euclgoog_0203'
p304
g2
(g6
S'\xc0L\x85\x19]KD?'
p305
tp306
Rp307
sS'sixfirsttogethe00euclgoog_0042'
p308
g2
(g6
S'\xf9\xd5\xaeu\x12d9?'
p309
tp310
Rp311
sS'sixfirsttogethe00euclgoog_0043'
p312
g2
(g6
S'\x81\x96\xec\xbb/(H?'
p313
tp314
Rp315
sS'sixfirsttogethe00euclgoog_0040'
p316
g2
(g6
S'W.\xb8\x87\x0f\xd0H?'
p317
tp318
Rp319
sS'sixfirsttogethe00euclgoog_0041'
p320
g2
(g6
S'C\xa8\xb4Ar\xa9I?'
p321
tp322
Rp323
sS'sixfirsttogethe00euclgoog_0046'
p324
g2
(g6
S's\xa7\xa3\xf1T@\x19?'
p325
tp326
Rp327
sS'sixfirsttogethe00euclgoog_0047'
p328
g2
(g6
S'\xd8\x81\xae#\x11\xefK?'
p329
tp330
Rp331
sS'sixfirsttogethe00euclgoog_0044'
p332
g2
(g6
S'\xb66\xd7e<\xba ?'
p333
tp334
Rp335
sS'sixfirsttogethe00euclgoog_0045'
p336
g2
(g6
S'[\xf7\xbe\xc1Y\x16E?'
p337
tp338
Rp339
sS'sixfirsttogethe00euclgoog_0221'
p340
g2
(g6
S'p\x12\xa4\xf1\x95$C?'
p341
tp342
Rp343
sS'sixfirsttogethe00euclgoog_0103'
p344
g2
(g6
S'\xd3W\x9e\xa5\xf8\x00G?'
p345
tp346
Rp347
sS'sixfirsttogethe00euclgoog_0069'
p348
g2
(g6
S'\xfc\xfc\xc4>\x06\xc2F?'
p349
tp350
Rp351
sS'sixfirsttogethe00euclgoog_0110'
p352
g2
(g6
S'\xbf\x98H\xbd?\x05G?'
p353
tp354
Rp355
sS'sixfirsttogethe00euclgoog_0111'
p356
g2
(g6
S'\xac\xf8a.\xf4\\\x1c?'
p357
tp358
Rp359
sS'sixfirsttogethe00euclgoog_0112'
p360
g2
(g6
S'\xd8\x04\xddw\x16\x05\x1b?'
p361
tp362
Rp363
sS'sixfirsttogethe00euclgoog_0113'
p364
g2
(g6
S'\x88@d\xb8\x83\x93L?'
p365
tp366
Rp367
sS'sixfirsttogethe00euclgoog_0114'
p368
g2
(g6
S'\x08\xfb*@9LG?'
p369
tp370
Rp371
sS'sixfirsttogethe00euclgoog_0115'
p372
g2
(g6
S'p\x96\xa0L\x9a.J?'
p373
tp374
Rp375
sS'sixfirsttogethe00euclgoog_0116'
p376
g2
(g6
S'\xe6\x8d\xcf\xb7\xa7\xb2=?'
p377
tp378
Rp379
sS'sixfirsttogethe00euclgoog_0117'
p380
g2
(g6
S'!\x8fs\x1e|\xf5L?'
p381
tp382
Rp383
sS'sixfirsttogethe00euclgoog_0118'
p384
g2
(g6
S'\x1c\xb00Vi\x99K?'
p385
tp386
Rp387
sS'sixfirsttogethe00euclgoog_0119'
p388
g2
(g6
S'\xc9\\\x92\x02\xb43I?'
p389
tp390
Rp391
sS'sixfirsttogethe00euclgoog_0059'
p392
g2
(g6
S'\x01c,\x94\x1f\x9eC?'
p393
tp394
Rp395
sS'sixfirsttogethe00euclgoog_0058'
p396
g2
(g6
S']\xfe\x17\xc7=\xfb\x0b?'
p397
tp398
Rp399
sS'sixfirsttogethe00euclgoog_0211'
p400
g2
(g6
S'E\xfd\x0f\x98\x11\xc3E?'
p401
tp402
Rp403
sS'sixfirsttogethe00euclgoog_0210'
p404
g2
(g6
S'\x8c\x89\x8da\xdb\xd5@?'
p405
tp406
Rp407
sS'sixfirsttogethe00euclgoog_0217'
p408
g2
(g6
S'G1m\xb2O\xea7?'
p409
tp410
Rp411
sS'sixfirsttogethe00euclgoog_0216'
p412
g2
(g6
S'\xa5\xd5-V>x4?'
p413
tp414
Rp415
sS'sixfirsttogethe00euclgoog_0215'
p416
g2
(g6
S'*[\x01\xe0%\x84@?'
p417
tp418
Rp419
sS'sixfirsttogethe00euclgoog_0213'
p420
g2
(g6
S'\xcc\x84\x0bE=\xb99?'
p421
tp422
Rp423
sS'sixfirsttogethe00euclgoog_0051'
p424
g2
(g6
S'\xc5r?i\x12\xa5H?'
p425
tp426
Rp427
sS'sixfirsttogethe00euclgoog_0050'
p428
g2
(g6
S'\xb0\x92\x94N\xd9\xf49?'
p429
tp430
Rp431
sS'sixfirsttogethe00euclgoog_0053'
p432
g2
(g6
S'6\xaf\xcbTz\x12F?'
p433
tp434
Rp435
sS'sixfirsttogethe00euclgoog_0052'
p436
g2
(g6
S'\xb1\xef\xe2\x9ao\xb2A?'
p437
tp438
Rp439
sS'sixfirsttogethe00euclgoog_0055'
p440
g2
(g6
S'\xcd\x9c\x8b\x00\x81\xd1I?'
p441
tp442
Rp443
sS'sixfirsttogethe00euclgoog_0054'
p444
g2
(g6
S'-\x0f\xdd\xf8\x17\xc3D?'
p445
tp446
Rp447
sS'sixfirsttogethe00euclgoog_0057'
p448
g2
(g6
S'\xd4m\xdd\x06Z\xb6H?'
p449
tp450
Rp451
sS'sixfirsttogethe00euclgoog_0056'
p452
g2
(g6
S'\xc8\x93r\xf7\xfd\xb2D?'
p453
tp454
Rp455
sS'sixfirsttogethe00euclgoog_0154'
p456
g2
(g6
S'i\xa0\x16\xf5\xf5\xf4@?'
p457
tp458
Rp459
sS'sixfirsttogethe00euclgoog_0212'
p460
g2
(g6
S'\x0fS\x83ci\x07E?'
p461
tp462
Rp463
sS'sixfirsttogethe00euclgoog_0219'
p464
g2
(g6
S'\xfeg~\x91\x9c\xabE?'
p465
tp466
Rp467
sS'sixfirsttogethe00euclgoog_0198'
p468
g2
(g6
S'\x0b\xfd\x82\xf3\xb9\x8cE?'
p469
tp470
Rp471
sS'sixfirsttogethe00euclgoog_0199'
p472
g2
(g6
S'\x81(\xe6\x19\xfc\x1bC?'
p473
tp474
Rp475
sS'sixfirsttogethe00euclgoog_0248'
p476
g2
(g6
S'D\xe4\xfa\xbb\xce0??'
p477
tp478
Rp479
sS'sixfirsttogethe00euclgoog_0190'
p480
g2
(g6
S'\xf2\xe43\xf4K\x9e:?'
p481
tp482
Rp483
sS'sixfirsttogethe00euclgoog_0191'
p484
g2
(g6
S'\xac\x02\xdaO\xbf\xa5E?'
p485
tp486
Rp487
sS'sixfirsttogethe00euclgoog_0192'
p488
g2
(g6
S'\xfb\xe6\xc6\x8e\xd0\xd8C?'
p489
tp490
Rp491
sS'sixfirsttogethe00euclgoog_0193'
p492
g2
(g6
S'\x83:\xace\xc2vD?'
p493
tp494
Rp495
sS'sixfirsttogethe00euclgoog_0194'
p496
g2
(g6
S'\xd1\xf3\xd5\x8a\xbd\xca\x13?'
p497
tp498
Rp499
sS'sixfirsttogethe00euclgoog_0195'
p500
g2
(g6
S'\xa4\x7f-\x84\xde\xe91?'
p501
tp502
Rp503
sS'sixfirsttogethe00euclgoog_0196'
p504
g2
(g6
S'\x93\xe1v\x13\xa6\xb2\x15?'
p505
tp506
Rp507
sS'sixfirsttogethe00euclgoog_0197'
p508
g2
(g6
S'\x1e\xbf\xad\xed\x8bkK?'
p509
tp510
Rp511
sS'sixfirsttogethe00euclgoog_0266'
p512
g2
(g6
S'SNT\x12\xc9@)?'
p513
tp514
Rp515
sS'sixfirsttogethe00euclgoog_0267'
p516
g2
(g6
S'\x11\xcb\xac\xec\x06\x19@?'
p517
tp518
Rp519
sS'sixfirsttogethe00euclgoog_0264'
p520
g2
(g6
S'\xee\xa2B\xf8\xd3\x9fA?'
p521
tp522
Rp523
sS'sixfirsttogethe00euclgoog_0265'
p524
g2
(g6
S'\x8c\x92\xa1\x9e\x86\xdaE?'
p525
tp526
Rp527
sS'sixfirsttogethe00euclgoog_0262'
p528
g2
(g6
S'eB\x91\xb6-6C?'
p529
tp530
Rp531
sS'sixfirsttogethe00euclgoog_0259'
p532
g2
(g6
S'\xd1\xf3\xd5\x8a\xbd\xcaC?'
p533
tp534
Rp535
sS'sixfirsttogethe00euclgoog_0260'
p536
g2
(g6
S'\xf4e\xdfo\x1e\xea??'
p537
tp538
Rp539
sS'sixfirsttogethe00euclgoog_0261'
p540
g2
(g6
S'\xd9\xdc_\xd0\xf8\xf9B?'
p541
tp542
Rp543
sS'sixfirsttogethe00euclgoog_0214'
p544
g2
(g6
S'q\xa7\x9f\x8c\x84\xb6:?'
p545
tp546
Rp547
sS'sixfirsttogethe00euclgoog_0268'
p548
g2
(g6
S'\xc1R\xc1[\x8b\xbd1?'
p549
tp550
Rp551
sS'sixfirsttogethe00euclgoog_0269'
p552
g2
(g6
S'\x8a\xab\x9el\xd6^C?'
p553
tp554
Rp555
sS'sixfirsttogethe00euclgoog_0064'
p556
g2
(g6
S'\\\xe3s<\x97\xe8\x1e?'
p557
tp558
Rp559
sS'sixfirsttogethe00euclgoog_0065'
p560
g2
(g6
S'\xb2\x1e\xa7:5LF?'
p561
tp562
Rp563
sS'sixfirsttogethe00euclgoog_0066'
p564
g2
(g6
S'C~\x89\xa3\xf1\xba=?'
p565
tp566
Rp567
sS'sixfirsttogethe00euclgoog_0067'
p568
g2
(g6
S'\xf2\xdb{\n|5G?'
p569
tp570
Rp571
sS'sixfirsttogethe00euclgoog_0060'
p572
g2
(g6
S'\xef\x95\xa0\xc1\xbeo\x1b?'
p573
tp574
Rp575
sS'sixfirsttogethe00euclgoog_0061'
p576
g2
(g6
S't\x90\xa1]\x03\xbcK?'
p577
tp578
Rp579
sS'sixfirsttogethe00euclgoog_0062'
p580
g2
(g6
S'qj\xd5\xcd\xd2\x02\x17?'
p581
tp582
Rp583
sS'sixfirsttogethe00euclgoog_0063'
p584
g2
(g6
S'\x06Z\xd0v|\xc7\x05?'
p585
tp586
Rp587
sS'sixfirsttogethe00euclgoog_0107'
p588
g2
(g6
S'\x8e\x02\xe6%\x01\x9bK?'
p589
tp590
Rp591
sS'sixfirsttogethe00euclgoog_0106'
p592
g2
(g6
S'\xb3\x9b\x1f\xa8Z\xc8D?'
p593
tp594
Rp595
sS'sixfirsttogethe00euclgoog_0105'
p596
g2
(g6
S'\xcb>\x92\xb0H\xcbG?'
p597
tp598
Rp599
sS'sixfirsttogethe00euclgoog_0104'
p600
g2
(g6
S'\x00O\x04\xdf\x9d.\x05?'
p601
tp602
Rp603
sS'sixfirsttogethe00euclgoog_0068'
p604
g2
(g6
S'\x15\xa5\xbe\xfc3\xb7"?'
p605
tp606
Rp607
sS'sixfirsttogethe00euclgoog_0102'
p608
g2
(g6
S'\x0eK\xdd7!\x830?'
p609
tp610
Rp611
sS'sixfirsttogethe00euclgoog_0101'
p612
g2
(g6
S'j~\xd3N\xc0\x0cJ?'
p613
tp614
Rp615
sS'sixfirsttogethe00euclgoog_0100'
p616
g2
(g6
S'\xb6_\xa4\xaeY\x178?'
p617
tp618
Rp619
sS'sixfirsttogethe00euclgoog_0218'
p620
g2
(g6
S'\xa2\xa1>\x8f\xd9rD?'
p621
tp622
Rp623
sS'sixfirsttogethe00euclgoog_0253'
p624
g2
(g6
S'\xbd\x9f\xa9\xc2\xb0\x05>?'
p625
tp626
Rp627
sS'sixfirsttogethe00euclgoog_0252'
p628
g2
(g6
S'\x9bV\xbc@\xf5\x15@?'
p629
tp630
Rp631
sS'sixfirsttogethe00euclgoog_0187'
p632
g2
(g6
S'\xea\x86@!Ia!?'
p633
tp634
Rp635
sS'sixfirsttogethe00euclgoog_0186'
p636
g2
(g6
S'\xd8\x81\x13\x9c\xccu.?'
p637
tp638
Rp639
sS'sixfirsttogethe00euclgoog_0185'
p640
g2
(g6
S'}&G\x94\n|A?'
p641
tp642
Rp643
sS'sixfirsttogethe00euclgoog_0184'
p644
g2
(g6
S'W\xbek\r\x85\x05D?'
p645
tp646
Rp647
sS'sixfirsttogethe00euclgoog_0183'
p648
g2
(g6
S'\x062\xf0\xaa\xa1\xab>?'
p649
tp650
Rp651
sS'sixfirsttogethe00euclgoog_0182'
p652
g2
(g6
S'"\xfc\xa1\tQ\x9c*?'
p653
tp654
Rp655
sS'sixfirsttogethe00euclgoog_0181'
p656
g2
(g6
S'\x9c\xbfs6\xc3oH?'
p657
tp658
Rp659
sS'sixfirsttogethe00euclgoog_0180'
p660
g2
(g6
S'\xfc\xb4\\.Q}#?'
p661
tp662
Rp663
sS'sixfirsttogethe00euclgoog_0189'
p664
g2
(g6
S's$\xf0\x00\xd9\xc2B?'
p665
tp666
Rp667
sS'sixfirsttogethe00euclgoog_0188'
p668
g2
(g6
S'tS\xca\x9a\xf2\xdb!?'
p669
tp670
Rp671
sS'sixfirsttogethe00euclgoog_0275'
p672
g2
(g6
S'<z\xe9\x8f\xadJ@?'
p673
tp674
Rp675
sS'sixfirsttogethe00euclgoog_0274'
p676
g2
(g6
S'\xbfe\x82\xe7\xac\xcfA?'
p677
tp678
Rp679
sS'sixfirsttogethe00euclgoog_0277'
p680
g2
(g6
S'a\x05\x08QQ\xfcB?'
p681
tp682
Rp683
sS'sixfirsttogethe00euclgoog_0276'
p684
g2
(g6
S'2\x94\xe52{\xa47?'
p685
tp686
Rp687
sS'sixfirsttogethe00euclgoog_0271'
p688
g2
(g6
S'\xcdY\t\xac\xaee;?'
p689
tp690
Rp691
sS'sixfirsttogethe00euclgoog_0270'
p692
g2
(g6
S'\xf6\xe4W\x8983@?'
p693
tp694
Rp695
sS'sixfirsttogethe00euclgoog_0273'
p696
g2
(g6
S'T#/\xca"\xb3A?'
p697
tp698
Rp699
sS'sixfirsttogethe00euclgoog_0272'
p700
g2
(g6
S'\x8a\xab\x9el\xd6^C?'
p701
tp702
Rp703
sS'sixfirsttogethe00euclgoog_0280'
p704
g2
(g6
S'\xfc\xff\x93\x1b\x869;?'
p705
tp706
Rp707
sS'sixfirsttogethe00euclgoog_0279'
p708
g2
(g6
S'\xe9z\n\xba7\xaaB?'
p709
tp710
Rp711
sS'sixfirsttogethe00euclgoog_0278'
p712
g2
(g6
S'\x88X\xb5\xc9\x8fd@?'
p713
tp714
Rp715
sS'sixfirsttogethe00euclgoog_0073'
p716
g2
(g6
S'\xcc\x0b\xd5\xbf\x90\x0fC?'
p717
tp718
Rp719
sS'sixfirsttogethe00euclgoog_0072'
p720
g2
(g6
S'\xa3|\xed\x87\xe4\x03E?'
p721
tp722
Rp723
sS'sixfirsttogethe00euclgoog_0071'
p724
g2
(g6
S')\xd1\xeb\x90/[G?'
p725
tp726
Rp727
sS'sixfirsttogethe00euclgoog_0070'
p728
g2
(g6
S'\xb1(x\x9f4\xcaE?'
p729
tp730
Rp731
sS'sixfirsttogethe00euclgoog_0077'
p732
g2
(g6
S'#\xe3\xdb\xb0Y\x1cG?'
p733
tp734
Rp735
sS'sixfirsttogethe00euclgoog_0076'
p736
g2
(g6
S'#Gc\xce5\x88:?'
p737
tp738
Rp739
sS'sixfirsttogethe00euclgoog_0075'
p740
g2
(g6
S'\x9c\x0b\xce\x1e\x97\rJ?'
p741
tp742
Rp743
sS'sixfirsttogethe00euclgoog_0074'
p744
g2
(g6
S'\x1b:\xea\xf1\x12-D?'
p745
tp746
Rp747
sS'sixfirsttogethe00euclgoog_0172'
p748
g2
(g6
S'\x0b\xeeJ&\x82j7?'
p749
tp750
Rp751
sS'sixfirsttogethe00euclgoog_0173'
p752
g2
(g6
S'55\x1eb\x16\x14G?'
p753
tp754
Rp755
sS'sixfirsttogethe00euclgoog_0079'
p756
g2
(g6
S's\xc3\xc4\x0b\x19\x8bG?'
p757
tp758
Rp759
sS'sixfirsttogethe00euclgoog_0078'
p760
g2
(g6
S'\x0b \xd9\xc9~GF?'
p761
tp762
Rp763
sS'sixfirsttogethe00euclgoog_0176'
p764
g2
(g6
S'\xcf\xd2\xa2J\x9a\x0eC?'
p765
tp766
Rp767
sS'sixfirsttogethe00euclgoog_0177'
p768
g2
(g6
S'\x18\xd0\xae\x96\x80)+?'
p769
tp770
Rp771
sS'sixfirsttogethe00euclgoog_0174'
p772
g2
(g6
S'\xac\xf8a.\xf4\\\x1c?'
p773
tp774
Rp775
sS'sixfirsttogethe00euclgoog_0175'
p776
g2
(g6
S'\xff%\xeb*\x97\xc4H?'
p777
tp778
Rp779
sS'sixfirsttogethe00euclgoog_0206'
p780
g2
(g6
S'.\x10\x84\xb2\xb9\xb39?'
p781
tp782
Rp783
sS'sixfirsttogethe00euclgoog_0207'
p784
g2
(g6
S'\x9c0\xd2KB\xceC?'
p785
tp786
Rp787
sS'sixfirsttogethe00euclgoog_0263'
p788
g2
(g6
S'\xacX\xc2\xb1{\x12<?'
p789
tp790
Rp791
sS'sixfirsttogethe00euclgoog_0227'
p792
g2
(g6
S'RE@\xd5\x1d<D?'
p793
tp794
Rp795
sS'sixfirsttogethe00euclgoog_0240'
p796
g2
(g6
S'\x02\xe0\xa7\x1a:\xbd@?'
p797
tp798
Rp799
sS'sixfirsttogethe00euclgoog_0241'
p800
g2
(g6
S'o4\xb5\xfc\x90\xadE?'
p801
tp802
Rp803
sS'sixfirsttogethe00euclgoog_0242'
p804
g2
(g6
S'\x19\xc6\xd8\xe8\x1b\x0e;?'
p805
tp806
Rp807
sS'sixfirsttogethe00euclgoog_0243'
p808
g2
(g6
S'\xe0\x00\xf8\xee~6B?'
p809
tp810
Rp811
sS'sixfirsttogethe00euclgoog_0244'
p812
g2
(g6
S'Tp\x89\xb2\xb0^A?'
p813
tp814
Rp815
sS'sixfirsttogethe00euclgoog_0245'
p816
g2
(g6
S'\xf5S\xc3|\xc1gB?'
p817
tp818
Rp819
sS'sixfirsttogethe00euclgoog_0246'
p820
g2
(g6
S'\xb9\x1f,T\x13(\x12?'
p821
tp822
Rp823
sS'sixfirsttogethe00euclgoog_0247'
p824
g2
(g6
S'\xe7\x93\xfb\x00\x8e\xa7C?'
p825
tp826
Rp827
sS'sixfirsttogethe00euclgoog_0231'
p828
g2
(g6
S'\x0f\x87Z\xba*\xebH?'
p829
tp830
Rp831
sS'sixfirsttogethe00euclgoog_0249'
p832
g2
(g6
S's\x14\x81\xac\xb7\xff;?'
p833
tp834
Rp835
sS'sixfirsttogethe00euclgoog_0258'
p836
g2
(g6
S'\xac\xa1\xb4\xf1\xb4\xca9?'
p837
tp838
Rp839
sS'sixfirsttogethe00euclgoog_0169'
p840
g2
(g6
S'K\xff_\x0e\x17\tI?'
p841
tp842
Rp843
sS'sixfirsttogethe00euclgoog_0168'
p844
g2
(g6
S'\xdb\xde^fuKB?'
p845
tp846
Rp847
sS'sixfirsttogethe00euclgoog_0161'
p848
g2
(g6
S'\x9d\x9b\xdc\xcd\\\x99@?'
p849
tp850
Rp851
sS'sixfirsttogethe00euclgoog_0160'
p852
g2
(g6
S'\xc6\xd6W\xb0\x7f-F?'
p853
tp854
Rp855
sS'sixfirsttogethe00euclgoog_0163'
p856
g2
(g6
S'\x0eK\xdd7!\x830?'
p857
tp858
Rp859
sS'sixfirsttogethe00euclgoog_0162'
p860
g2
(g6
S'b\x02,\xf0\xde\xc39?'
p861
tp862
Rp863
sS'sixfirsttogethe00euclgoog_0165'
p864
g2
(g6
S'\x145\xc8\xee]dJ?'
p865
tp866
Rp867
sS'sixfirsttogethe00euclgoog_0164'
p868
g2
(g6
S'zm\x15\x87x%@?'
p869
tp870
Rp871
sS'sixfirsttogethe00euclgoog_0167'
p872
g2
(g6
S'\xa2\x96\xa1\xf9.6E?'
p873
tp874
Rp875
sS'sixfirsttogethe00euclgoog_0166'
p876
g2
(g6
S'~\xc3`\x17\xd5?A?'
p877
tp878
Rp879
sS'sixfirsttogethe00euclgoog_0230'
p880
g2
(g6
S'\x0f\x87Z\xba*\xebH?'
p881
tp882
Rp883
sS'sixfirsttogethe00euclgoog_0208'
p884
g2
(g6
S'nxi]\xfd\x89E?'
p885
tp886
Rp887
sS'sixfirsttogethe00euclgoog_0209'
p888
g2
(g6
S'\x99I\xc3\x92\x98\xcbD?'
p889
tp890
Rp891
sS'sixfirsttogethe00euclgoog_0088'
p892
g2
(g6
S'\xecH\x05\xc6\xec9B?'
p893
tp894
Rp895
sS'sixfirsttogethe00euclgoog_0089'
p896
g2
(g6
S'\xf3\xa4\xa45\x1e\xf1G?'
p897
tp898
Rp899
sS'sixfirsttogethe00euclgoog_0086'
p900
g2
(g6
S'\xbaJ\x9d/\xa43B?'
p901
tp902
Rp903
sS'sixfirsttogethe00euclgoog_0087'
p904
g2
(g6
S'\x84}\xa3\x96!\x82A?'
p905
tp906
Rp907
sS'sixfirsttogethe00euclgoog_0084'
p908
g2
(g6
S'\xfe\xa3\xeb\xa6^\xb89?'
p909
tp910
Rp911
sS'sixfirsttogethe00euclgoog_0085'
p912
g2
(g6
S'G \x17\n\x05\x06H?'
p913
tp914
Rp915
sS'sixfirsttogethe00euclgoog_0082'
p916
g2
(g6
S'\x8d\x1d\x92\xf2\x83\xd1B?'
p917
tp918
Rp919
sS'sixfirsttogethe00euclgoog_0083'
p920
g2
(g6
S'\xe7X@5\xc7\x80E?'
p921
tp922
Rp923
sS'sixfirsttogethe00euclgoog_0080'
p924
g2
(g6
S'\x1fF\xb7y\xafaC?'
p925
tp926
Rp927
sS'sixfirsttogethe00euclgoog_0081'
p928
g2
(g6
S'\xe8\x89\xb9\x85\xdc\x94F?'
p929
tp930
Rp931
sS'sixfirsttogethe00euclgoog_0233'
p932
g2
(g6
S'\xca\xb64\x17\xee\x82J?'
p933
tp934
Rp935
sS'sixfirsttogethe00euclgoog_0019'
p936
g2
(g6
S'\xfb\x84\r\xe8\xca\xb4@?'
p937
tp938
Rp939
sS'sixfirsttogethe00euclgoog_0018'
p940
g2
(g6
S'@y5\x0f\x9e\xe1G?'
p941
tp942
Rp943
sS'sixfirsttogethe00euclgoog_0120'
p944
g2
(g6
S'\xe6\xa5\x7fj\x8a\xdd!?'
p945
tp946
Rp947
sS'sixfirsttogethe00euclgoog_0155'
p948
g2
(g6
S'\x9e\x8eE}\x15pG?'
p949
tp950
Rp951
sS'sixfirsttogethe00euclgoog_0156'
p952
g2
(g6
S'\x9a\xde\xb2\x7f\x04\xec8?'
p953
tp954
Rp955
sS'sixfirsttogethe00euclgoog_0157'
p956
g2
(g6
S'\x80{\x08\x1a\x8dYD?'
p957
tp958
Rp959
sS'sixfirsttogethe00euclgoog_0150'
p960
g2
(g6
S'\x14\xe1A\xc4\x1f\xa2@?'
p961
tp962
Rp963
sS'sixfirsttogethe00euclgoog_0151'
p964
g2
(g6
S'\xb8\xa3\x00\xcfI\xaeH?'
p965
tp966
Rp967
sS'sixfirsttogethe00euclgoog_0152'
p968
g2
(g6
S'\x99\xd7\xdcq3jC?'
p969
tp970
Rp971
sS'sixfirsttogethe00euclgoog_0153'
p972
g2
(g6
S'~\xf4\x8e\xd0\x82?B?'
p973
tp974
Rp975
sS'sixfirsttogethe00euclgoog_0257'
p976
g2
(g6
S'\xd2\x0e\x1e\xc9\xb8_??'
p977
tp978
Rp979
sS'sixfirsttogethe00euclgoog_0256'
p980
g2
(g6
S'\xe15\x06\t\xaa56?'
p981
tp982
Rp983
sS'sixfirsttogethe00euclgoog_0255'
p984
g2
(g6
S'\xb1\xbak\x8c\xf7>9?'
p985
tp986
Rp987
sS'sixfirsttogethe00euclgoog_0254'
p988
g2
(g6
S'\xaeT\xba\xe4%\x0c2?'
p989
tp990
Rp991
sS'sixfirsttogethe00euclgoog_0158'
p992
g2
(g6
S'\x1f0\xd4\x91\xa21H?'
p993
tp994
Rp995
sS'sixfirsttogethe00euclgoog_0159'
p996
g2
(g6
S'\xcf\x1e\x14p1;H?'
p997
tp998
Rp999
sS'sixfirsttogethe00euclgoog_0251'
p1000
g2
(g6
S'\xe35\x18\xaf\x13\xacA?'
p1001
tp1002
Rp1003
sS'sixfirsttogethe00euclgoog_0250'
p1004
g2
(g6
S'u\ru\x80)\xd6\x08?'
p1005
tp1006
Rp1007
sS'sixfirsttogethe00euclgoog_0232'
p1008
g2
(g6
S'\x04\x14\x055x\xe4B?'
p1009
tp1010
Rp1011
sS'sixfirsttogethe00euclgoog_0178'
p1012
g2
(g6
S'a\x18\x17=\xa3\x96&?'
p1013
tp1014
Rp1015
sS'sixfirsttogethe00euclgoog_0179'
p1016
g2
(g6
S'\xcb\xf3_\x82\x87\xb2!?'
p1017
tp1018
Rp1019
sS'sixfirsttogethe00euclgoog_0099'
p1020
g2
(g6
S'\xb3\x11n#\xa4\x92K?'
p1021
tp1022
Rp1023
sS'sixfirsttogethe00euclgoog_0098'
p1024
g2
(g6
S'EJu\xf1\xe0*C?'
p1025
tp1026
Rp1027
sS'sixfirsttogethe00euclgoog_0095'
p1028
g2
(g6
S'\x91\r\xff\x87\x9c\x9cF?'
p1029
tp1030
Rp1031
sS'sixfirsttogethe00euclgoog_0094'
p1032
g2
(g6
S'\x96Xx-\xd0\xe5%?'
p1033
tp1034
Rp1035
sS'sixfirsttogethe00euclgoog_0097'
p1036
g2
(g6
S'Em\xcdbq\xedK?'
p1037
tp1038
Rp1039
sS'sixfirsttogethe00euclgoog_0096'
p1040
g2
(g6
S'\xfc\xab\x8b\xd6qh@?'
p1041
tp1042
Rp1043
sS'sixfirsttogethe00euclgoog_0091'
p1044
g2
(g6
S'\xbb\x98.\xe4 \xddF?'
p1045
tp1046
Rp1047
sS'sixfirsttogethe00euclgoog_0090'
p1048
g2
(g6
S'EJu\xf1\xe0*C?'
p1049
tp1050
Rp1051
sS'sixfirsttogethe00euclgoog_0093'
p1052
g2
(g6
S'\xd0\x8b\x89D(<E?'
p1053
tp1054
Rp1055
sS'sixfirsttogethe00euclgoog_0092'
p1056
g2
(g6
S'L^sEW\xa8\x1c?'
p1057
tp1058
Rp1059
s.