(dp0
S'10-38'
p1
(lp2
S'modena_alfa_t_8_21_0257.png'
p3
aI1350
aI1800
aI127
aI1175
aI770
aI183
asS'10-39'
p4
(lp5
S'modena_alfa_t_8_21_0258.png'
p6
aI1350
aI1800
aI400
aI1202
aI473
aI252
asS'10-30'
p7
(lp8
S'modena_alfa_t_8_21_0252.png'
p9
aI1350
aI1800
aI453
aI1094
aI564
aI207
asS'10-31'
p10
(lp11
S'modena_alfa_t_8_21_0253.png'
p12
aI1350
aI1800
aI129
aI525
aI499
aI189
asS'10-32'
p13
(lp14
S'modena_alfa_t_8_21_0253.png'
p15
aI1350
aI1800
aI120
aI1263
aI701
aI179
asS'10-33'
p16
(lp17
S'modena_alfa_t_8_21_0254.png'
p18
aI1350
aI1800
aI399
aI952
aI563
aI207
asS'10-34'
p19
(lp20
S'modena_alfa_t_8_21_0255.png'
p21
aI1350
aI1800
aI128
aI876
aI505
aI219
asS'10-35'
p22
(lp23
S'modena_alfa_t_8_21_0256.png'
p24
aI1350
aI1800
aI423
aI564
aI611
aI265
asS'10-36'
p25
(lp26
S'modena_alfa_t_8_21_0257.png'
p27
aI1350
aI1800
aI140
aI267
aI445
aI179
asS'10-37'
p28
(lp29
S'modena_alfa_t_8_21_0257.png'
p30
aI1350
aI1800
aI129
aI767
aI757
aI165
asS'10-114'
p31
(lp32
S'modena_alfa_t_8_21_0329.png'
p33
aI1350
aI1800
aI178
aI645
aI748
aI176
asS'10-115'
p34
(lp35
S'modena_alfa_t_8_21_0330.png'
p36
aI1350
aI1800
aI486
aI550
aI385
aI100
asS'10-110'
p37
(lp38
S'modena_alfa_t_8_21_0324.png'
p39
aI1350
aI1800
aI499
aI903
aI522
aI173
asS'10-111'
p40
(lp41
S'modena_alfa_t_8_21_0325.png'
p42
aI1350
aI1800
aI170
aI557
aI389
aI92
asS'10-112'
p43
(lp44
S'modena_alfa_t_8_21_0326.png'
p45
aI1350
aI1800
aI430
aI959
aI771
aI161
asS'10-113'
p46
(lp47
S'modena_alfa_t_8_21_0327.png'
p48
aI1350
aI1800
aI168
aI1250
aI748
aI210
asS'1-6'
p49
(lp50
S'modena_alfa_t_8_21_0009.png'
p51
aI1350
aI1800
aI203
aI696
aI700
aI162
asS'7-9'
p52
(lp53
S'modena_alfa_t_8_21_0168.png'
p54
aI1350
aI1800
aI396
aI783
aI827
aI174
asS'4-3'
p55
(lp56
S'modena_alfa_t_8_21_0098.png'
p57
aI1350
aI1800
aI358
aI572
aI841
aI204
asS'10-49'
p58
(lp59
S'modena_alfa_t_8_21_0266.png'
p60
aI1350
aI1800
aI413
aI961
aI444
aI123
asS'10-48'
p61
(lp62
S'modena_alfa_t_8_21_0265.png'
p63
aI1350
aI1800
aI169
aI1169
aI385
aI62
asS'10-45'
p64
(lp65
S'modena_alfa_t_8_21_0263.png'
p66
aI1350
aI1800
aI167
aI831
aI422
aI85
asS'10-44'
p67
(lp68
S'modena_alfa_t_8_21_0262.png'
p69
aI1350
aI1800
aI467
aI695
aI709
aI89
asS'10-47'
p70
(lp71
S'modena_alfa_t_8_21_0264.png'
p72
aI1350
aI1800
aI461
aI659
aI457
aI89
asS'10-46'
p73
(lp74
S'modena_alfa_t_8_21_0263.png'
p75
aI1350
aI1800
aI162
aI1321
aI643
aI62
asS'7-19'
p76
(lp77
S'modena_alfa_t_8_21_0172.png'
p78
aI1350
aI1800
aI449
aI857
aI789
aI223
asS'10-40'
p79
(lp80
S'modena_alfa_t_8_21_0259.png'
p81
aI1350
aI1800
aI148
aI944
aI760
aI182
asS'10-43'
p82
(lp83
S'modena_alfa_t_8_21_0261.png'
p84
aI1350
aI1800
aI131
aI1314
aI638
aI124
asS'10-42'
p85
(lp86
S'modena_alfa_t_8_21_0261.png'
p87
aI1350
aI1800
aI134
aI609
aI478
aI108
asS'6-29'
p88
(lp89
S'modena_alfa_t_8_21_0156.png'
p90
aI1350
aI1800
aI390
aI606
aI826
aI131
asS'6-28'
p91
(lp92
S'modena_alfa_t_8_21_0155.png'
p93
aI1350
aI1800
aI153
aI373
aI805
aI184
asS'6-21'
p94
(lp95
S'modena_alfa_t_8_21_0149.png'
p96
aI1350
aI1800
aI161
aI541
aI577
aI63
asS'6-20'
p97
(lp98
S'modena_alfa_t_8_21_0146.png'
p99
aI1350
aI1800
aI409
aI761
aI827
aI127
asS'6-23'
p100
(lp101
S'modena_alfa_t_8_21_0150.png'
p102
aI1350
aI1800
aI389
aI1127
aI826
aI81
asS'6-22'
p103
(lp104
S'modena_alfa_t_8_21_0149.png'
p105
aI1350
aI1800
aI139
aI832
aI846
aI188
asS'6-25'
p106
(lp107
S'modena_alfa_t_8_21_0152.png'
p108
aI1350
aI1800
aI381
aI1057
aI489
aI81
asS'6-24'
p109
(lp110
S'modena_alfa_t_8_21_0151.png'
p111
aI1350
aI1800
aI166
aI914
aI644
aI82
asS'6-27'
p112
(lp113
S'modena_alfa_t_8_21_0153.png'
p114
aI1350
aI1800
aI147
aI1348
aI703
aI91
asS'6-26'
p115
(lp116
S'modena_alfa_t_8_21_0153.png'
p117
aI1350
aI1800
aI151
aI645
aI807
aI171
asS'4-8'
p118
(lp119
S'modena_alfa_t_8_21_0102.png'
p120
aI1350
aI1800
aI451
aI658
aI414
aI82
asS'4-9'
p121
(lp122
S'modena_alfa_t_8_21_0103.png'
p123
aI1350
aI1800
aI122
aI322
aI472
aI182
asS'11-15'
p124
(lp125
S'modena_alfa_t_8_21_0345.png'
p126
aI1350
aI1800
aI181
aI919
aI559
aI194
asS'11-14'
p127
(lp128
S'modena_alfa_t_8_21_0345.png'
p129
aI1350
aI1800
aI155
aI411
aI595
aI121
asS'11-17'
p130
(lp131
S'modena_alfa_t_8_21_0346.png'
p132
aI1350
aI1800
aI409
aI1442
aI439
aI90
asS'11-16'
p133
(lp134
S'modena_alfa_t_8_21_0346.png'
p135
aI1350
aI1800
aI403
aI789
aI495
aI164
asS'11-11'
p136
(lp137
S'modena_alfa_t_8_21_0343.png'
p138
aI1350
aI1800
aI162
aI880
aI514
aI92
asS'11-10'
p139
(lp140
S'modena_alfa_t_8_21_0343.png'
p141
aI1350
aI1800
aI168
aI294
aI762
aI97
asS'11-13'
p142
(lp143
S'modena_alfa_t_8_21_0344.png'
p144
aI1350
aI1800
aI442
aI1088
aI580
aI107
asS'11-12'
p145
(lp146
S'modena_alfa_t_8_21_0344.png'
p147
aI1350
aI1800
aI428
aI677
aI497
aI130
asS'11-19'
p148
(lp149
S'modena_alfa_t_8_21_0348.png'
p150
aI1350
aI1800
aI443
aI611
aI507
aI170
asS'11-18'
p151
(lp152
S'modena_alfa_t_8_21_0347.png'
p153
aI1350
aI1800
aI175
aI878
aI576
aI158
asS'1-48'
p154
(lp155
S'modena_alfa_t_8_21_0045.png'
p156
aI1350
aI1800
aI201
aI1171
aI630
aI149
asS'6-9'
p157
(lp158
S'modena_alfa_t_8_21_0139.png'
p159
aI1350
aI1800
aI175
aI1157
aI591
aI54
asS'6-6'
p160
(lp161
S'modena_alfa_t_8_21_0136.png'
p162
aI1350
aI1800
aI355
aI1212
aI817
aI143
asS'6-7'
p163
(lp164
S'modena_alfa_t_8_21_0137.png'
p165
aI1350
aI1800
aI175
aI899
aI815
aI149
asS'1-44'
p166
(lp167
S'modena_alfa_t_8_21_0041.png'
p168
aI1350
aI1800
aI211
aI557
aI236
aI175
asS'6-5'
p169
(lp170
S'modena_alfa_t_8_21_0136.png'
p171
aI1350
aI1800
aI369
aI315
aI800
aI117
asS'1-42'
p172
(lp173
S'modena_alfa_t_8_21_0039.png'
p174
aI1350
aI1800
aI190
aI966
aI619
aI120
asS'6-3'
p175
(lp176
S'modena_alfa_t_8_21_0134.png'
p177
aI1350
aI1800
aI351
aI505
aI834
aI235
asS'1-40'
p178
(lp179
S'modena_alfa_t_8_21_0038.png'
p180
aI1350
aI1800
aI455
aI819
aI709
aI188
asS'6-1'
p181
(lp182
S'modena_alfa_t_8_21_0132.png'
p183
aI1350
aI1800
aI342
aI624
aI841
aI100
asS'9-18'
p184
(lp185
S'modena_alfa_t_8_21_0217.png'
p186
aI1350
aI1800
aI121
aI886
aI776
aI156
asS'7-35'
p187
(lp188
S'modena_alfa_t_8_21_0182.png'
p189
aI1350
aI1800
aI443
aI1275
aI771
aI131
asS'7-34'
p190
(lp191
S'modena_alfa_t_8_21_0181.png'
p192
aI1350
aI1800
aI117
aI710
aI773
aI97
asS'7-37'
p193
(lp194
S'modena_alfa_t_8_21_0184.png'
p195
aI1350
aI1800
aI456
aI527
aI770
aI114
asS'7-36'
p196
(lp197
S'modena_alfa_t_8_21_0183.png'
p198
aI1350
aI1800
aI134
aI511
aI635
aI106
asS'7-31'
p199
(lp200
S'modena_alfa_t_8_21_0179.png'
p201
aI1350
aI1800
aI128
aI1143
aI669
aI95
asS'7-30'
p202
(lp203
S'modena_alfa_t_8_21_0179.png'
p204
aI1350
aI1800
aI143
aI278
aI762
aI139
asS'7-33'
p205
(lp206
S'modena_alfa_t_8_21_0180.png'
p207
aI1350
aI1800
aI460
aI788
aI792
aI118
asS'7-32'
p208
(lp209
S'modena_alfa_t_8_21_0180.png'
p210
aI1350
aI1800
aI445
aI520
aI800
aI165
asS'7-39'
p211
(lp212
S'modena_alfa_t_8_21_0184.png'
p213
aI1350
aI1800
aI450
aI1397
aI638
aI67
asS'7-38'
p214
(lp215
S'modena_alfa_t_8_21_0184.png'
p216
aI1350
aI1800
aI446
aI1042
aI785
aI126
asS'9-1'
p217
(lp218
S'modena_alfa_t_8_21_0206.png'
p219
aI1350
aI1800
aI405
aI717
aI772
aI152
asS'9-3'
p220
(lp221
S'modena_alfa_t_8_21_0207.png'
p222
aI1350
aI1800
aI131
aI397
aI757
aI145
asS'9-2'
p223
(lp224
S'modena_alfa_t_8_21_0206.png'
p225
aI1350
aI1800
aI375
aI1124
aI568
aI141
asS'9-5'
p226
(lp227
S'modena_alfa_t_8_21_0208.png'
p228
aI1350
aI1800
aI434
aI260
aI780
aI119
asS'9-4'
p229
(lp230
S'modena_alfa_t_8_21_0207.png'
p231
aI1350
aI1800
aI132
aI1062
aI551
aI161
asS'9-7'
p232
(lp233
S'modena_alfa_t_8_21_0208.png'
p234
aI1350
aI1800
aI401
aI1192
aI580
aI132
asS'9-6'
p235
(lp236
S'modena_alfa_t_8_21_0208.png'
p237
aI1350
aI1800
aI418
aI667
aI586
aI134
asS'9-9'
p238
(lp239
S'modena_alfa_t_8_21_0210.png'
p240
aI1350
aI1800
aI427
aI424
aI515
aI212
asS'9-8'
p241
(lp242
S'modena_alfa_t_8_21_0209.png'
p243
aI1350
aI1800
aI138
aI467
aI491
aI253
asS'6-10'
p244
(lp245
S'modena_alfa_t_8_21_0140.png'
p246
aI1350
aI1800
aI362
aI481
aI805
aI64
asS'6-11'
p247
(lp248
S'modena_alfa_t_8_21_0140.png'
p249
aI1350
aI1800
aI333
aI949
aI606
aI91
asS'10-98'
p250
(lp251
S'modena_alfa_t_8_21_0313.png'
p252
aI1350
aI1800
aI166
aI888
aI450
aI139
asS'6-13'
p253
(lp254
S'modena_alfa_t_8_21_0141.png'
p255
aI1350
aI1800
aI406
aI530
aI576
aI62
asS'6-14'
p256
(lp257
S'modena_alfa_t_8_21_0141.png'
p258
aI1350
aI1800
aI164
aI831
aI821
aI157
asS'6-15'
p259
(lp260
S'modena_alfa_t_8_21_0142.png'
p261
aI1350
aI1800
aI382
aI657
aI820
aI124
asS'6-16'
p262
(lp263
S'modena_alfa_t_8_21_0143.png'
p264
aI1350
aI1800
aI154
aI291
aI833
aI184
asS'6-17'
p265
(lp266
S'modena_alfa_t_8_21_0144.png'
p267
aI1350
aI1800
aI362
aI381
aI832
aI188
asS'10-92'
p268
(lp269
S'modena_alfa_t_8_21_0305.png'
p270
aI1350
aI1800
aI173
aI629
aI431
aI170
asS'6-19'
p271
(lp272
S'modena_alfa_t_8_21_0145.png'
p273
aI1350
aI1800
aI145
aI924
aI531
aI90
asS'10-90'
p274
(lp275
S'modena_alfa_t_8_21_0302.png'
p276
aI1350
aI1800
aI514
aI457
aI380
aI62
asS'10-91'
p277
(lp278
S'modena_alfa_t_8_21_0303.png'
p279
aI1350
aI1800
aI147
aI1185
aI737
aI109
asS'10-96'
p280
(lp281
S'modena_alfa_t_8_21_0310.png'
p282
aI1350
aI1800
aI468
aI1321
aI375
aI127
asS'10-97'
p283
(lp284
S'modena_alfa_t_8_21_0312.png'
p285
aI1350
aI1800
aI488
aI447
aI373
aI129
asS'10-94'
p286
(lp287
S'modena_alfa_t_8_21_0308.png'
p288
aI1350
aI1800
aI471
aI815
aI441
aI132
asS'10-95'
p289
(lp290
S'modena_alfa_t_8_21_0309.png'
p291
aI1350
aI1800
aI169
aI1234
aI445
aI167
asS'7-17'
p292
(lp293
S'modena_alfa_t_8_21_0171.png'
p294
aI1350
aI1800
aI133
aI1206
aI771
aI160
asS'7-16'
p295
(lp296
S'modena_alfa_t_8_21_0171.png'
p297
aI1350
aI1800
aI127
aI750
aI649
aI113
asS'3-31'
p298
(lp299
S'modena_alfa_t_8_21_0088.png'
p300
aI1350
aI1800
aI529
aI802
aI683
aI162
asS'3-30'
p301
(lp302
S'modena_alfa_t_8_21_0088.png'
p303
aI1350
aI1800
aI538
aI417
aI356
aI64
asS'3-33'
p304
(lp305
S'modena_alfa_t_8_21_0090.png'
p306
aI1350
aI1800
aI498
aI1057
aI727
aI171
asS'3-32'
p307
(lp308
S'modena_alfa_t_8_21_0089.png'
p309
aI1350
aI1800
aI98
aI1118
aI640
aI155
asS'3-35'
p310
(lp311
S'modena_alfa_t_8_21_0093.png'
p312
aI1350
aI1800
aI83
aI342
aI673
aI171
asS'8-14'
p313
(lp314
S'modena_alfa_t_8_21_0198.png'
p315
aI1350
aI1800
aI432
aI803
aI814
aI146
asS'3-37'
p316
(lp317
S'modena_alfa_t_8_21_0095.png'
p318
aI1350
aI1800
aI92
aI511
aI679
aI220
asS'3-36'
p319
(lp320
S'modena_alfa_t_8_21_0094.png'
p321
aI1350
aI1800
aI488
aI402
aI711
aI143
asS'7-22_v'
p322
(lp323
S'modena_alfa_t_8_21_0174.png'
p324
aI1350
aI1800
aI452
aI671
aI785
aI171
asS'7-14'
p325
(lp326
S'modena_alfa_t_8_21_0170.png'
p327
aI1350
aI1800
aI440
aI731
aI782
aI145
asS'7-13'
p328
(lp329
S'modena_alfa_t_8_21_0170.png'
p330
aI1350
aI1800
aI435
aI430
aI735
aI137
asS'6-12'
p331
(lp332
S'modena_alfa_t_8_21_0140.png'
p333
aI1350
aI1800
aI359
aI1347
aI635
aI52
asS'7-12'
p334
(lp335
S'modena_alfa_t_8_21_0169.png'
p336
aI1350
aI1800
aI131
aI1211
aI814
aI167
asS'10-99'
p337
(lp338
S'modena_alfa_t_8_21_0314.png'
p339
aI1350
aI1800
aI478
aI1185
aI706
aI90
asS'7-11'
p340
(lp341
S'modena_alfa_t_8_21_0169.png'
p342
aI1350
aI1800
aI128
aI865
aI781
aI119
asS'6-27_2'
p343
(lp344
S'modena_alfa_t_8_21_0154.png'
p345
aI1350
aI1800
aI427
aI352
aI768
aI112
asS'7-10'
p346
(lp347
S'modena_alfa_t_8_21_0169.png'
p348
aI1350
aI1800
aI119
aI332
aI772
aI145
asS'12-14'
p349
(lp350
S'modena_alfa_t_8_21_0395.png'
p351
aI1350
aI1800
aI162
aI438
aI348
aI109
asS'12-15'
p352
(lp353
S'modena_alfa_t_8_21_0395.png'
p354
aI1350
aI1800
aI162
aI941
aI558
aI117
asS'12-16'
p355
(lp356
S'modena_alfa_t_8_21_0396.png'
p357
aI1350
aI1800
aI375
aI1243
aI460
aI151
asS'12-17'
p358
(lp359
S'modena_alfa_t_8_21_0397.png'
p360
aI1350
aI1800
aI168
aI777
aI535
aI169
asS'12-10'
p361
(lp362
S'modena_alfa_t_8_21_0386.png'
p363
aI1350
aI1800
aI381
aI880
aI331
aI194
asS'12-11'
p364
(lp365
S'modena_alfa_t_8_21_0389.png'
p366
aI1350
aI1800
aI165
aI410
aI423
aI157
asS'12-12'
p367
(lp368
S'modena_alfa_t_8_21_0391.png'
p369
aI1350
aI1800
aI214
aI268
aI335
aI164
asS'12-13'
p370
(lp371
S'modena_alfa_t_8_21_0394.png'
p372
aI1350
aI1800
aI375
aI665
aI431
aI184
asS'12-18'
p373
(lp374
S'modena_alfa_t_8_21_0401.png'
p375
aI1350
aI1800
aI152
aI1004
aI524
aI92
asS'11-30_2'
p376
(lp377
S'modena_alfa_t_8_21_0360.png'
p378
aI1350
aI1800
aI489
aI372
aI697
aI90
asS'7-20_v'
p379
(lp380
S'modena_alfa_t_8_21_0173.png'
p381
aI1350
aI1800
aI144
aI646
aI770
aI128
asS'2-14'
p382
(lp383
S'modena_alfa_t_8_21_0062.png'
p384
aI1350
aI1800
aI434
aI1316
aI660
aI243
asS'6-18'
p385
(lp386
S'modena_alfa_t_8_21_0144.png'
p387
aI1350
aI1800
aI380
aI1217
aI824
aI114
asS'2-10'
p388
(lp389
S'modena_alfa_t_8_21_0060.png'
p390
aI1350
aI1800
aI434
aI805
aI774
aI190
asS'2-11'
p391
(lp392
S'modena_alfa_t_8_21_0058.png'
p393
aI1350
aI1800
aI551
aI483
aI638
aI121
asS'2-12'
p394
(lp395
S'modena_alfa_t_8_21_0061.png'
p396
aI1350
aI1800
aI178
aI358
aI677
aI199
asS'2-13'
p397
(lp398
S'modena_alfa_t_8_21_0062.png'
p399
aI1350
aI1800
aI473
aI369
aI735
aI200
asS'8-23'
p400
(lp401
S'modena_alfa_t_8_21_0204.png'
p402
aI1350
aI1800
aI421
aI1012
aI782
aI117
asS'8-22'
p403
(lp404
S'modena_alfa_t_8_21_0204.png'
p405
aI1350
aI1800
aI426
aI560
aI788
aI104
asS'8-21'
p406
(lp407
S'modena_alfa_t_8_21_0203.png'
p408
aI1350
aI1800
aI120
aI581
aI758
aI125
asS'8-20'
p409
(lp410
S'modena_alfa_t_8_21_0202.png'
p411
aI1350
aI1800
aI412
aI979
aI781
aI136
asS'8-27'
p412
(lp413
S'modena_alfa_t_8_21_0205.png'
p414
aI1350
aI1800
aI138
aI1341
aI559
aI100
asS'8-26'
p415
(lp416
S'modena_alfa_t_8_21_0205.png'
p417
aI1350
aI1800
aI130
aI989
aI785
aI105
asS'8-25'
p418
(lp419
S'modena_alfa_t_8_21_0205.png'
p420
aI1350
aI1800
aI131
aI391
aI767
aI107
asS'8-24'
p421
(lp422
S'modena_alfa_t_8_21_0204.png'
p423
aI1350
aI1800
aI420
aI1199
aI780
aI138
asS'11-2'
p424
(lp425
S'modena_alfa_t_8_21_0336.png'
p426
aI1350
aI1800
aI435
aI1287
aI710
aI120
asS'1-15'
p427
(lp428
S'modena_alfa_t_8_21_0016.png'
p429
aI1350
aI1800
aI499
aI948
aI712
aI210
asS'1-14'
p430
(lp431
S'modena_alfa_t_8_21_0015.png'
p432
aI1350
aI1800
aI177
aI1039
aI625
aI155
asS'1-17'
p433
(lp434
S'modena_alfa_t_8_21_0018.png'
p435
aI1350
aI1800
aI521
aI493
aI674
aI110
asS'1-16'
p436
(lp437
S'modena_alfa_t_8_21_0017.png'
p438
aI1350
aI1800
aI147
aI524
aI659
aI104
asS'10-62_2'
p439
(lp440
S'modena_alfa_t_8_21_0280.png'
p441
aI1350
aI1800
aI476
aI334
aI91
aI53
asS'1-10'
p442
(lp443
S'modena_alfa_t_8_21_0012.png'
p444
aI1350
aI1800
aI359
aI537
aI600
aI395
asS'1-13'
p445
(lp446
S'modena_alfa_t_8_21_0015.png'
p447
aI1350
aI1800
aI178
aI375
aI649
aI113
asS'1-12'
p448
(lp449
S'modena_alfa_t_8_21_0013.png'
p450
aI1350
aI1800
aI181
aI719
aI673
aI175
asS'1-19'
p451
(lp452
S'modena_alfa_t_8_21_0019.png'
p453
aI1350
aI1800
aI204
aI712
aI619
aI82
asS'1-18'
p454
(lp455
S'modena_alfa_t_8_21_0018.png'
p456
aI1350
aI1800
aI505
aI1160
aI691
aI116
asS'12-2'
p457
(lp458
S'modena_alfa_t_8_21_0373.png'
p459
aI1350
aI1800
aI168
aI1164
aI468
aI97
asS'11-8'
p460
(lp461
S'modena_alfa_t_8_21_0341.png'
p462
aI1350
aI1800
aI149
aI510
aI524
aI128
asS'10-103'
p463
(lp464
S'modena_alfa_t_8_21_0320.png'
p465
aI1350
aI1800
aI499
aI477
aI439
aI92
asS'10-102'
p466
(lp467
S'modena_alfa_t_8_21_0318.png'
p468
aI1350
aI1800
aI458
aI1274
aI382
aI136
asS'10-101'
p469
(lp470
S'modena_alfa_t_8_21_0317.png'
p471
aI1350
aI1800
aI166
aI1006
aI449
aI131
asS'10-100'
p472
(lp473
S'modena_alfa_t_8_21_0316.png'
p474
aI1350
aI1800
aI490
aI439
aI412
aI123
asS'10-107'
p475
(lp476
S'modena_alfa_t_8_21_0322.png'
p477
aI1350
aI1800
aI490
aI1123
aI627
aI105
asS'10-106'
p478
(lp479
S'modena_alfa_t_8_21_0322.png'
p480
aI1350
aI1800
aI498
aI642
aI421
aI122
asS'10-105'
p481
(lp482
S'modena_alfa_t_8_21_0321.png'
p483
aI1350
aI1800
aI174
aI992
aI400
aI57
asS'10-104'
p484
(lp485
S'modena_alfa_t_8_21_0320.png'
p486
aI1350
aI1800
aI480
aI1380
aI513
aI67
asS'10-109'
p487
(lp488
S'modena_alfa_t_8_21_0323.png'
p489
aI1350
aI1800
aI169
aI1355
aI623
aI133
asS'10-108'
p490
(lp491
S'modena_alfa_t_8_21_0323.png'
p492
aI1350
aI1800
aI171
aI527
aI455
aI131
asS'3-34'
p493
(lp494
S'modena_alfa_t_8_21_0092.png'
p495
aI1350
aI1800
aI511
aI869
aI699
aI100
asS'10-104_2'
p496
(lp497
S'modena_alfa_t_8_21_0321.png'
p498
aI1350
aI1800
aI168
aI298
aI252
aI57
asS'13-5_2'
p499
(lp500
S'modena_alfa_t_8_21_0406.png'
p501
aI1350
aI1800
aI419
aI309
aI254
aI63
asS'10-58'
p502
(lp503
S'modena_alfa_t_8_21_0276.png'
p504
aI1350
aI1800
aI480
aI393
aI404
aI184
asS'10-59'
p505
(lp506
S'modena_alfa_t_8_21_0276.png'
p507
aI1350
aI1800
aI433
aI1246
aI413
aI177
asS'10-56'
p508
(lp509
S'modena_alfa_t_8_21_0274.png'
p510
aI1350
aI1800
aI464
aI1003
aI388
aI168
asS'10-57'
p511
(lp512
S'modena_alfa_t_8_21_0275.png'
p513
aI1350
aI1800
aI162
aI515
aI452
aI187
asS'10-54'
p514
(lp515
S'modena_alfa_t_8_21_0271.png'
p516
aI1350
aI1800
aI159
aI1353
aI484
aI94
asS'10-55'
p517
(lp518
S'modena_alfa_t_8_21_0273.png'
p519
aI1350
aI1800
aI148
aI684
aI401
aI170
asS'10-52'
p520
(lp521
S'modena_alfa_t_8_21_0269.png'
p522
aI1350
aI1800
aI161
aI716
aI386
aI54
asS'10-53'
p523
(lp524
S'modena_alfa_t_8_21_0270.png'
p525
aI1350
aI1800
aI489
aI335
aI367
aI51
asS'10-50'
p526
(lp527
S'modena_alfa_t_8_21_0267.png'
p528
aI1350
aI1800
aI164
aI764
aI381
aI96
asS'10-51'
p529
(lp530
S'modena_alfa_t_8_21_0268.png'
p531
aI1350
aI1800
aI462
aI1008
aI466
aI57
asS'5-11'
p532
(lp533
S'modena_alfa_t_8_21_0121.png'
p534
aI1350
aI1800
aI127
aI826
aI543
aI61
asS'8-15_2'
p535
(lp536
S'modena_alfa_t_8_21_0199.png'
p537
aI1350
aI1800
aI195
aI318
aI650
aI48
asS'1-1'
p538
(lp539
S'modena_alfa_t_8_21_0004.png'
p540
aI1350
aI1800
aI514
aI1302
aI606
aI75
asS'10-29_2'
p541
(lp542
S'modena_alfa_t_8_21_0252.png'
p543
aI1350
aI1800
aI510
aI295
aI290
aI61
asS'8-19'
p544
(lp545
S'modena_alfa_t_8_21_0200.png'
p546
aI1350
aI1800
aI448
aI1387
aI640
aI91
asS'10-25'
p547
(lp548
S'modena_alfa_t_8_21_0247.png'
p549
aI1350
aI1800
aI147
aI1321
aI782
aI103
asS'5-10'
p550
(lp551
S'modena_alfa_t_8_21_0120.png'
p552
aI1350
aI1800
aI317
aI1280
aI862
aI121
asS'10-24'
p553
(lp554
S'modena_alfa_t_8_21_0247.png'
p555
aI1350
aI1800
aI151
aI1056
aI771
aI101
asS'10-23'
p556
(lp557
S'modena_alfa_t_8_21_0246.png'
p558
aI1350
aI1800
aI766
aI1389
aI368
aI61
asS'1-4'
p559
(lp560
S'modena_alfa_t_8_21_0006.png'
p561
aI1350
aI1800
aI359
aI863
aI792
aI393
asS'9-19'
p562
(lp563
S'modena_alfa_t_8_21_0218.png'
p564
aI1350
aI1800
aI426
aI447
aI757
aI94
asS'1-7'
p565
(lp566
S'modena_alfa_t_8_21_0010.png'
p567
aI1350
aI1800
aI320
aI294
aI813
aI348
asS'9-15'
p568
(lp569
S'modena_alfa_t_8_21_0215.png'
p570
aI1350
aI1800
aI140
aI894
aI767
aI142
asS'9-14'
p571
(lp572
S'modena_alfa_t_8_21_0214.png'
p573
aI1350
aI1800
aI414
aI1368
aI787
aI169
asS'9-17'
p574
(lp575
S'modena_alfa_t_8_21_0217.png'
p576
aI1350
aI1800
aI133
aI255
aI754
aI176
asS'9-16'
p577
(lp578
S'modena_alfa_t_8_21_0216.png'
p579
aI1350
aI1800
aI395
aI1016
aI788
aI160
asS'9-11'
p580
(lp581
S'modena_alfa_t_8_21_0211.png'
p582
aI1350
aI1800
aI139
aI1105
aI802
aI152
asS'9-10'
p583
(lp584
S'modena_alfa_t_8_21_0210.png'
p585
aI1350
aI1800
aI423
aI1246
aI486
aI265
asS'9-13'
p586
(lp587
S'modena_alfa_t_8_21_0213.png'
p588
aI1350
aI1800
aI138
aI674
aI471
aI218
asS'9-12'
p589
(lp590
S'modena_alfa_t_8_21_0212.png'
p591
aI1350
aI1800
aI438
aI426
aI478
aI241
asS'8-8'
p592
(lp593
S'modena_alfa_t_8_21_0192.png'
p594
aI1350
aI1800
aI456
aI805
aI782
aI197
asS'8-9'
p595
(lp596
S'modena_alfa_t_8_21_0193.png'
p597
aI1350
aI1800
aI135
aI758
aI794
aI250
asS'8-4'
p598
(lp599
S'modena_alfa_t_8_21_0188.png'
p600
aI1350
aI1800
aI426
aI758
aI797
aI111
asS'8-5'
p601
(lp602
S'modena_alfa_t_8_21_0190.png'
p603
aI1350
aI1800
aI439
aI967
aI810
aI136
asS'8-6'
p604
(lp605
S'modena_alfa_t_8_21_0191.png'
p606
aI1350
aI1800
aI137
aI930
aI779
aI130
asS'8-7'
p607
(lp608
S'modena_alfa_t_8_21_0192.png'
p609
aI1350
aI1800
aI480
aI548
aI752
aI122
asS'8-1'
p610
(lp611
S'modena_alfa_t_8_21_0185.png'
p612
aI1350
aI1800
aI139
aI852
aI776
aI176
asS'8-2'
p613
(lp614
S'modena_alfa_t_8_21_0186.png'
p615
aI1350
aI1800
aI437
aI440
aI782
aI141
asS'8-3'
p616
(lp617
S'modena_alfa_t_8_21_0187.png'
p618
aI1350
aI1800
aI155
aI1070
aI781
aI149
asS'2-2'
p619
(lp620
S'modena_alfa_t_8_21_0048.png'
p621
aI1350
aI1800
aI573
aI850
aI621
aI136
asS'2-3'
p622
(lp623
S'modena_alfa_t_8_21_0049.png'
p624
aI1350
aI1800
aI151
aI413
aI667
aI348
asS'5-13'
p625
(lp626
S'modena_alfa_t_8_21_0122.png'
p627
aI1350
aI1800
aI378
aI1116
aI835
aI190
asS'2-1'
p628
(lp629
S'modena_alfa_t_8_21_0047.png'
p630
aI1350
aI1800
aI185
aI834
aI656
aI152
asS'5-15'
p631
(lp632
S'modena_alfa_t_8_21_0124.png'
p633
aI1350
aI1800
aI441
aI530
aI779
aI83
asS'2-7'
p634
(lp635
S'modena_alfa_t_8_21_0056.png'
p636
aI1350
aI1800
aI519
aI600
aI686
aI195
asS'5-17'
p637
(lp638
S'modena_alfa_t_8_21_0125.png'
p639
aI1350
aI1800
aI101
aI681
aI701
aI99
asS'2-5'
p640
(lp641
S'modena_alfa_t_8_21_0052.png'
p642
aI1350
aI1800
aI497
aI529
aI697
aI157
asS'5-19'
p643
(lp644
S'modena_alfa_t_8_21_0127.png'
p645
aI1350
aI1800
aI116
aI346
aI779
aI101
asS'5-18'
p646
(lp647
S'modena_alfa_t_8_21_0126.png'
p648
aI1350
aI1800
aI378
aI837
aI687
aI145
asS'2-8'
p649
(lp650
S'modena_alfa_t_8_21_0053.png'
p651
aI1350
aI1800
aI190
aI652
aI645
aI164
asS'2-9'
p652
(lp653
S'modena_alfa_t_8_21_0059.png'
p654
aI1350
aI1800
aI176
aI363
aI661
aI140
asS'13-3'
p655
(lp656
S'modena_alfa_t_8_21_0404.png'
p657
aI1350
aI1800
aI331
aI950
aI458
aI238
asS'13-2'
p658
(lp659
S'modena_alfa_t_8_21_0403.png'
p660
aI1350
aI1800
aI156
aI1025
aI519
aI207
asS'13-1'
p661
(lp662
S'modena_alfa_t_8_21_0403.png'
p663
aI1350
aI1800
aI157
aI297
aI825
aI188
asS'13-7'
p664
(lp665
S'modena_alfa_t_8_21_0410.png'
p666
aI1350
aI1800
aI356
aI561
aI780
aI86
asS'13-6'
p667
(lp668
S'modena_alfa_t_8_21_0409.png'
p669
aI1350
aI1800
aI170
aI1066
aI797
aI97
asS'13-5'
p670
(lp671
S'modena_alfa_t_8_21_0405.png'
p672
aI1350
aI1800
aI173
aI1194
aI495
aI211
asS'13-4'
p673
(lp674
S'modena_alfa_t_8_21_0405.png'
p675
aI1350
aI1800
aI170
aI597
aI537
aI205
asS'13-9'
p676
(lp677
S'modena_alfa_t_8_21_0411.png'
p678
aI1350
aI1800
aI170
aI1333
aI599
aI89
asS'13-8'
p679
(lp680
S'modena_alfa_t_8_21_0411.png'
p681
aI1350
aI1800
aI191
aI372
aI623
aI159
asS'1-28'
p682
(lp683
S'modena_alfa_t_8_21_0028.png'
p684
aI1350
aI1800
aI513
aI789
aI664
aI129
asS'1-29'
p685
(lp686
S'modena_alfa_t_8_21_0029.png'
p687
aI1350
aI1800
aI186
aI622
aI639
aI178
asS'1-24'
p688
(lp689
S'modena_alfa_t_8_21_0023.png'
p690
aI1350
aI1800
aI205
aI901
aI631
aI166
asS'1-25'
p691
(lp692
S'modena_alfa_t_8_21_0024.png'
p693
aI1350
aI1800
aI498
aI1100
aI667
aI133
asS'1-26'
p694
(lp695
S'modena_alfa_t_8_21_0025.png'
p696
aI1350
aI1800
aI197
aI857
aI638
aI238
asS'1-27'
p697
(lp698
S'modena_alfa_t_8_21_0027.png'
p699
aI1350
aI1800
aI217
aI1024
aI654
aI95
asS'1-20'
p700
(lp701
S'modena_alfa_t_8_21_0019.png'
p702
aI1350
aI1800
aI172
aI1247
aI630
aI78
asS'1-21'
p703
(lp704
S'modena_alfa_t_8_21_0020.png'
p705
aI1350
aI1800
aI471
aI924
aI699
aI272
asS'1-22'
p706
(lp707
S'modena_alfa_t_8_21_0021.png'
p708
aI1350
aI1800
aI196
aI1054
aI645
aI173
asS'1-23'
p709
(lp710
S'modena_alfa_t_8_21_0022.png'
p711
aI1350
aI1800
aI459
aI1146
aI700
aI112
asS'10-8'
p712
(lp713
S'modena_alfa_t_8_21_0232.png'
p714
aI1350
aI1800
aI428
aI1285
aI761
aI129
asS'10-9'
p715
(lp716
S'modena_alfa_t_8_21_0233.png'
p717
aI1350
aI1800
aI185
aI328
aI737
aI343
asS'10-1'
p718
(lp719
S'modena_alfa_t_8_21_0226.png'
p720
aI1350
aI1800
aI421
aI936
aI778
aI234
asS'10-2'
p721
(lp722
S'modena_alfa_t_8_21_0227.png'
p723
aI1350
aI1800
aI183
aI1267
aI759
aI159
asS'10-3'
p724
(lp725
S'modena_alfa_t_8_21_0228.png'
p726
aI1350
aI1800
aI401
aI950
aI784
aI148
asS'10-4'
p727
(lp728
S'modena_alfa_t_8_21_0229.png'
p729
aI1350
aI1800
aI173
aI845
aI435
aI102
asS'10-5'
p730
(lp731
S'modena_alfa_t_8_21_0230.png'
p732
aI1350
aI1800
aI453
aI1065
aI727
aI112
asS'10-6'
p733
(lp734
S'modena_alfa_t_8_21_0231.png'
p735
aI1350
aI1800
aI164
aI501
aI505
aI156
asS'10-7'
p736
(lp737
S'modena_alfa_t_8_21_0232.png'
p738
aI1350
aI1800
aI461
aI1064
aI728
aI110
asS'10-12'
p739
(lp740
S'modena_alfa_t_8_21_0237.png'
p741
aI1350
aI1800
aI172
aI1291
aI541
aI99
asS'10-13'
p742
(lp743
S'modena_alfa_t_8_21_0238.png'
p744
aI1350
aI1800
aI453
aI1349
aI721
aI145
asS'10-10'
p745
(lp746
S'modena_alfa_t_8_21_0236.png'
p747
aI1350
aI1800
aI442
aI1103
aI756
aI138
asS'10-11'
p748
(lp749
S'modena_alfa_t_8_21_0237.png'
p750
aI1350
aI1800
aI157
aI671
aI515
aI200
asS'10-16'
p751
(lp752
S'modena_alfa_t_8_21_0240.png'
p753
aI1350
aI1800
aI458
aI1160
aI801
aI176
asS'10-17'
p754
(lp755
S'modena_alfa_t_8_21_0241.png'
p756
aI1350
aI1800
aI157
aI936
aI778
aI354
asS'10-14'
p757
(lp758
S'modena_alfa_t_8_21_0239.png'
p759
aI1350
aI1800
aI160
aI812
aI552
aI256
asS'10-15'
p760
(lp761
S'modena_alfa_t_8_21_0240.png'
p762
aI1350
aI1800
aI451
aI462
aI596
aI181
asS'10-18'
p763
(lp764
S'modena_alfa_t_8_21_0243.png'
p765
aI1350
aI1800
aI165
aI250
aI773
aI348
asS'10-19'
p766
(lp767
S'modena_alfa_t_8_21_0244.png'
p768
aI1350
aI1800
aI539
aI1242
aI756
aI130
asS'5-12'
p769
(lp770
S'modena_alfa_t_8_21_0122.png'
p771
aI1350
aI1800
aI412
aI456
aI797
aI156
asS'2-6'
p772
(lp773
S'modena_alfa_t_8_21_0055.png'
p774
aI1350
aI1800
aI183
aI470
aI695
aI224
asS'5-14'
p775
(lp776
S'modena_alfa_t_8_21_0123.png'
p777
aI1350
aI1800
aI111
aI998
aI784
aI150
asS'2-4'
p778
(lp779
S'modena_alfa_t_8_21_0050.png'
p780
aI1350
aI1800
aI508
aI385
aI690
aI142
asS'5-16'
p781
(lp782
S'modena_alfa_t_8_21_0124.png'
p783
aI1350
aI1800
aI385
aI1015
aI667
aI107
asS'13-17'
p784
(lp785
S'modena_alfa_t_8_21_0423.png'
p786
aI1350
aI1800
aI199
aI393
aI698
aI112
asS'13-16'
p787
(lp788
S'modena_alfa_t_8_21_0420.png'
p789
aI1350
aI1800
aI392
aI670
aI759
aI101
asS'13-15'
p790
(lp791
S'modena_alfa_t_8_21_0419.png'
p792
aI1350
aI1800
aI181
aI559
aI743
aI132
asS'13-14'
p793
(lp794
S'modena_alfa_t_8_21_0418.png'
p795
aI1350
aI1800
aI414
aI403
aI737
aI110
asS'13-13'
p796
(lp797
S'modena_alfa_t_8_21_0416.png'
p798
aI1350
aI1800
aI354
aI488
aI586
aI169
asS'13-12'
p799
(lp800
S'modena_alfa_t_8_21_0415.png'
p801
aI1350
aI1800
aI162
aI960
aI533
aI148
asS'13-11'
p802
(lp803
S'modena_alfa_t_8_21_0413.png'
p804
aI1350
aI1800
aI168
aI1270
aI542
aI240
asS'13-10'
p805
(lp806
S'modena_alfa_t_8_21_0412.png'
p807
aI1350
aI1800
aI339
aI1068
aI519
aI166
asS'13-18'
p808
(lp809
S'modena_alfa_t_8_21_0426.png'
p810
aI1350
aI1800
aI382
aI327
aI716
aI105
asS'5-5'
p811
(lp812
S'modena_alfa_t_8_21_0116.png'
p813
aI1350
aI1800
aI389
aI1220
aI825
aI178
asS'5-4'
p814
(lp815
S'modena_alfa_t_8_21_0115.png'
p816
aI1350
aI1800
aI100
aI1126
aI720
aI179
asS'5-7'
p817
(lp818
S'modena_alfa_t_8_21_0118.png'
p819
aI1350
aI1800
aI420
aI647
aI642
aI237
asS'5-6'
p820
(lp821
S'modena_alfa_t_8_21_0117.png'
p822
aI1350
aI1800
aI110
aI966
aI750
aI129
asS'5-1'
p823
(lp824
S'modena_alfa_t_8_21_0113.png'
p825
aI1350
aI1800
aI109
aI974
aI718
aI284
asS'5-3'
p826
(lp827
S'modena_alfa_t_8_21_0115.png'
p828
aI1350
aI1800
aI97
aI313
aI736
aI170
asS'5-2'
p829
(lp830
S'modena_alfa_t_8_21_0114.png'
p831
aI1350
aI1800
aI530
aI678
aI703
aI140
asS'5-9'
p832
(lp833
S'modena_alfa_t_8_21_0120.png'
p834
aI1350
aI1800
aI290
aI920
aI729
aI271
asS'5-8'
p835
(lp836
S'modena_alfa_t_8_21_0118.png'
p837
aI1350
aI1800
aI333
aI1283
aI862
aI273
asS'9-24'
p838
(lp839
S'modena_alfa_t_8_21_0220.png'
p840
aI1350
aI1800
aI441
aI372
aI639
aI131
asS'9-25'
p841
(lp842
S'modena_alfa_t_8_21_0220.png'
p843
aI1350
aI1800
aI450
aI581
aI742
aI105
asS'9-26'
p844
(lp845
S'modena_alfa_t_8_21_0220.png'
p846
aI1350
aI1800
aI431
aI767
aI363
aI170
asS'9-27'
p847
(lp848
S'modena_alfa_t_8_21_0220.png'
p849
aI1350
aI1800
aI446
aI1018
aI738
aI128
asS'9-20'
p850
(lp851
S'modena_alfa_t_8_21_0218.png'
p852
aI1350
aI1800
aI411
aI1173
aI460
aI174
asS'9-21'
p853
(lp854
S'modena_alfa_t_8_21_0219.png'
p855
aI1350
aI1800
aI195
aI790
aI711
aI125
asS'9-22'
p856
(lp857
S'modena_alfa_t_8_21_0219.png'
p858
aI1350
aI1800
aI196
aI990
aI767
aI139
asS'9-23'
p859
(lp860
S'modena_alfa_t_8_21_0219.png'
p861
aI1350
aI1800
aI174
aI1269
aI798
aI143
asS'9-28'
p862
(lp863
S'modena_alfa_t_8_21_0220.png'
p864
aI1350
aI1800
aI408
aI1209
aI762
aI128
asS'9-29'
p865
(lp866
S'modena_alfa_t_8_21_0221.png'
p867
aI1350
aI1800
aI167
aI279
aI715
aI132
asS'10-78_2'
p868
(lp869
S'modena_alfa_t_8_21_0292.png'
p870
aI1350
aI1800
aI486
aI329
aI719
aI101
asS'13-5_allws'
p871
(lp872
S'modena_alfa_t_8_21_0406.png'
p873
aI1350
aI1800
aI377
aI834
aI515
aI171
asS'8-18'
p874
(lp875
S'modena_alfa_t_8_21_0200.png'
p876
aI1350
aI1800
aI432
aI286
aI791
aI165
asS'7-18'
p877
(lp878
S'modena_alfa_t_8_21_0172.png'
p879
aI1350
aI1800
aI438
aI532
aI809
aI148
asS'8-16'
p880
(lp881
S'modena_alfa_t_8_21_0199.png'
p882
aI1350
aI1800
aI149
aI820
aI772
aI117
asS'8-17'
p883
(lp884
S'modena_alfa_t_8_21_0199.png'
p885
aI1350
aI1800
aI142
aI1072
aI771
aI178
asS'7-15'
p886
(lp887
S'modena_alfa_t_8_21_0170.png'
p888
aI1350
aI1800
aI426
aI1155
aI807
aI207
asS'8-15'
p889
(lp890
S'modena_alfa_t_8_21_0198.png'
p891
aI1350
aI1800
aI421
aI1372
aI725
aI148
asS'8-12'
p892
(lp893
S'modena_alfa_t_8_21_0196.png'
p894
aI1350
aI1800
aI438
aI1225
aI800
aI158
asS'8-13'
p895
(lp896
S'modena_alfa_t_8_21_0197.png'
p897
aI1350
aI1800
aI151
aI1136
aI770
aI208
asS'8-10'
p898
(lp899
S'modena_alfa_t_8_21_0194.png'
p900
aI1350
aI1800
aI442
aI1162
aI811
aI223
asS'8-11'
p901
(lp902
S'modena_alfa_t_8_21_0196.png'
p903
aI1350
aI1800
aI455
aI410
aI783
aI151
asS'11-5'
p904
(lp905
S'modena_alfa_t_8_21_0339.png'
p906
aI1350
aI1800
aI149
aI448
aI528
aI132
asS'11-4'
p907
(lp908
S'modena_alfa_t_8_21_0337.png'
p909
aI1350
aI1800
aI145
aI1217
aI517
aI180
asS'11-7'
p910
(lp911
S'modena_alfa_t_8_21_0340.png'
p912
aI1350
aI1800
aI226
aI1002
aI977
aI272
asS'11-6'
p913
(lp914
S'modena_alfa_t_8_21_0339.png'
p915
aI1350
aI1800
aI152
aI1220
aI524
aI104
asS'11-1'
p916
(lp917
S'modena_alfa_t_8_21_0336.png'
p918
aI1350
aI1800
aI460
aI915
aI747
aI113
asS'11-3'
p919
(lp920
S'modena_alfa_t_8_21_0337.png'
p921
aI1350
aI1800
aI152
aI795
aI578
aI99
asS'12-9'
p922
(lp923
S'modena_alfa_t_8_21_0385.png'
p924
aI1350
aI1800
aI145
aI270
aI763
aI289
asS'12-6'
p925
(lp926
S'modena_alfa_t_8_21_0381.png'
p927
aI1350
aI1800
aI155
aI941
aI377
aI155
asS'12-7'
p928
(lp929
S'modena_alfa_t_8_21_0382.png'
p930
aI1350
aI1800
aI351
aI787
aI403
aI150
asS'12-4'
p931
(lp932
S'modena_alfa_t_8_21_0378.png'
p933
aI1350
aI1800
aI383
aI863
aI778
aI329
asS'12-5'
p934
(lp935
S'modena_alfa_t_8_21_0380.png'
p936
aI1350
aI1800
aI417
aI681
aI398
aI123
asS'11-9'
p937
(lp938
S'modena_alfa_t_8_21_0342.png'
p939
aI1350
aI1800
aI425
aI699
aI509
aI139
asS'12-3'
p940
(lp941
S'modena_alfa_t_8_21_0376.png'
p942
aI1350
aI1800
aI386
aI492
aI769
aI262
asS'12-1'
p943
(lp944
S'modena_alfa_t_8_21_0373.png'
p945
aI1350
aI1800
aI159
aI273
aI791
aI187
asS'1-41'
p946
(lp947
S'modena_alfa_t_8_21_0039.png'
p948
aI1350
aI1800
aI160
aI354
aI662
aI200
asS'1-11'
p949
(lp950
S'modena_alfa_t_8_21_0012.png'
p951
aI1350
aI1800
aI363
aI1084
aI799
aI351
asS'4-12'
p952
(lp953
S'modena_alfa_t_8_21_0105.png'
p954
aI1350
aI1800
aI117
aI791
aI692
aI166
asS'4-13'
p955
(lp956
S'modena_alfa_t_8_21_0106.png'
p957
aI1350
aI1800
aI482
aI1300
aI710
aI145
asS'4-10'
p958
(lp959
S'modena_alfa_t_8_21_0103.png'
p960
aI1350
aI1800
aI137
aI939
aI748
aI200
asS'4-11'
p961
(lp962
S'modena_alfa_t_8_21_0104.png'
p963
aI1350
aI1800
aI463
aI982
aI684
aI160
asS'4-16'
p964
(lp965
S'modena_alfa_t_8_21_0109.png'
p966
aI1350
aI1800
aI121
aI1233
aI644
aI94
asS'4-14'
p967
(lp968
S'modena_alfa_t_8_21_0108.png'
p969
aI1350
aI1800
aI371
aI392
aI743
aI131
asS'4-15'
p970
(lp971
S'modena_alfa_t_8_21_0108.png'
p972
aI1350
aI1800
aI354
aI986
aI759
aI205
asS'5-20'
p973
(lp974
S'modena_alfa_t_8_21_0127.png'
p975
aI1350
aI1800
aI106
aI1230
aI780
aI136
asS'5-21'
p976
(lp977
S'modena_alfa_t_8_21_0128.png'
p978
aI1350
aI1800
aI397
aI958
aI825
aI187
asS'5-22'
p979
(lp980
S'modena_alfa_t_8_21_0129.png'
p981
aI1350
aI1800
aI194
aI493
aI797
aI119
asS'5-23'
p982
(lp983
S'modena_alfa_t_8_21_0129.png'
p984
aI1350
aI1800
aI188
aI1111
aI863
aI120
asS'5-24'
p985
(lp986
S'modena_alfa_t_8_21_0130.png'
p987
aI1350
aI1800
aI378
aI1081
aI849
aI177
asS'5-25'
p988
(lp989
S'modena_alfa_t_8_21_0131.png'
p990
aI1350
aI1800
aI189
aI626
aI826
aI104
asS'11-38_v'
p991
(lp992
S'modena_alfa_t_8_21_0370.png'
p993
aI1350
aI1800
aI224
aI1163
aI253
aI177
asS'13-9_2'
p994
(lp995
S'modena_alfa_t_8_21_0412.png'
p996
aI1350
aI1800
aI386
aI308
aI771
aI95
asS'10-41'
p997
(lp998
S'modena_alfa_t_8_21_0260.png'
p999
aI1350
aI1800
aI430
aI281
aI717
aI226
asS'10-69'
p1000
(lp1001
S'modena_alfa_t_8_21_0285.png'
p1002
aI1350
aI1800
aI175
aI1007
aI470
aI112
asS'10-68'
p1003
(lp1004
S'modena_alfa_t_8_21_0284.png'
p1005
aI1350
aI1800
aI459
aI1203
aI413
aI86
asS'10-63'
p1006
(lp1007
S'modena_alfa_t_8_21_0280.png'
p1008
aI1350
aI1800
aI450
aI1195
aI557
aI100
asS'10-62'
p1009
(lp1010
S'modena_alfa_t_8_21_0279.png'
p1011
aI1350
aI1800
aI166
aI1373
aI519
aI96
asS'10-61'
p1012
(lp1013
S'modena_alfa_t_8_21_0279.png'
p1014
aI1350
aI1800
aI173
aI489
aI535
aI134
asS'10-60'
p1015
(lp1016
S'modena_alfa_t_8_21_0277.png'
p1017
aI1350
aI1800
aI172
aI1325
aI750
aI104
asS'10-67'
p1018
(lp1019
S'modena_alfa_t_8_21_0284.png'
p1020
aI1350
aI1800
aI477
aI383
aI467
aI122
asS'10-66'
p1021
(lp1022
S'modena_alfa_t_8_21_0283.png'
p1023
aI1350
aI1800
aI169
aI315
aI472
aI100
asS'10-65'
p1024
(lp1025
S'modena_alfa_t_8_21_0282.png'
p1026
aI1350
aI1800
aI458
aI688
aI468
aI145
asS'10-64'
p1027
(lp1028
S'modena_alfa_t_8_21_0281.png'
p1029
aI1350
aI1800
aI208
aI1016
aI433
aI148
asS'6-8'
p1030
(lp1031
S'modena_alfa_t_8_21_0138.png'
p1032
aI1350
aI1800
aI332
aI1117
aI826
aI151
asS'6-33'
p1033
(lp1034
S'modena_alfa_t_8_21_0159.png'
p1035
aI1350
aI1800
aI164
aI1011
aI788
aI122
asS'1-46'
p1036
(lp1037
S'modena_alfa_t_8_21_0043.png'
p1038
aI1350
aI1800
aI169
aI1018
aI525
aI114
asS'1-47'
p1039
(lp1040
S'modena_alfa_t_8_21_0044.png'
p1041
aI1350
aI1800
aI567
aI785
aI628
aI153
asS'10-96_2'
p1042
(lp1043
S'modena_alfa_t_8_21_0311.png'
p1044
aI1350
aI1800
aI181
aI293
aI272
aI56
asS'6-4'
p1045
(lp1046
S'modena_alfa_t_8_21_0135.png'
p1047
aI1350
aI1800
aI191
aI541
aI804
aI88
asS'1-45'
p1048
(lp1049
S'modena_alfa_t_8_21_0042.png'
p1050
aI1350
aI1800
aI580
aI793
aI605
aI76
asS'6-2'
p1051
(lp1052
S'modena_alfa_t_8_21_0133.png'
p1053
aI1350
aI1800
aI172
aI598
aI840
aI159
asS'1-43'
p1054
(lp1055
S'modena_alfa_t_8_21_0040.png'
p1056
aI1350
aI1800
aI512
aI869
aI701
aI78
asS'3-13'
p1057
(lp1058
S'modena_alfa_t_8_21_0076.png'
p1059
aI1350
aI1800
aI486
aI498
aI743
aI159
asS'3-12'
p1060
(lp1061
S'modena_alfa_t_8_21_0075.png'
p1062
aI1350
aI1800
aI143
aI897
aI665
aI146
asS'3-11'
p1063
(lp1064
S'modena_alfa_t_8_21_0074.png'
p1065
aI1350
aI1800
aI515
aI990
aI718
aI188
asS'3-10'
p1066
(lp1067
S'modena_alfa_t_8_21_0073.png'
p1068
aI1350
aI1800
aI121
aI823
aI509
aI100
asS'3-17'
p1069
(lp1070
S'modena_alfa_t_8_21_0080.png'
p1071
aI1350
aI1800
aI542
aI570
aI692
aI123
asS'3-16'
p1072
(lp1073
S'modena_alfa_t_8_21_0078.png'
p1074
aI1350
aI1800
aI529
aI1080
aI697
aI255
asS'8-19_2'
p1075
(lp1076
S'modena_alfa_t_8_21_0201.png'
p1077
aI1350
aI1800
aI150
aI276
aI707
aI127
asS'3-14'
p1078
(lp1079
S'modena_alfa_t_8_21_0077.png'
p1080
aI1350
aI1800
aI111
aI314
aI673
aI185
asS'3-19'
p1081
(lp1082
S'modena_alfa_t_8_21_0081.png'
p1083
aI1350
aI1800
aI125
aI846
aI649
aI162
asS'3-18'
p1084
(lp1085
S'modena_alfa_t_8_21_0080.png'
p1086
aI1350
aI1800
aI540
aI1270
aI692
aI129
asS'12-8'
p1087
(lp1088
S'modena_alfa_t_8_21_0383.png'
p1089
aI1350
aI1800
aI146
aI898
aI453
aI122
asS'11-33'
p1090
(lp1091
S'modena_alfa_t_8_21_0363.png'
p1092
aI1350
aI1800
aI145
aI412
aI269
aI177
asS'11-32'
p1093
(lp1094
S'modena_alfa_t_8_21_0362.png'
p1095
aI1350
aI1800
aI422
aI903
aI280
aI195
asS'11-31'
p1096
(lp1097
S'modena_alfa_t_8_21_0360.png'
p1098
aI1350
aI1800
aI401
aI1047
aI391
aI156
asS'11-30'
p1099
(lp1100
S'modena_alfa_t_8_21_0359.png'
p1101
aI1350
aI1800
aI150
aI1420
aI460
aI95
asS'11-37'
p1102
(lp1103
S'modena_alfa_t_8_21_0370.png'
p1104
aI1350
aI1800
aI435
aI956
aI764
aI337
asS'11-36'
p1105
(lp1106
S'modena_alfa_t_8_21_0369.png'
p1107
aI1350
aI1800
aI150
aI1130
aI780
aI149
asS'11-35'
p1108
(lp1109
S'modena_alfa_t_8_21_0367.png'
p1110
aI1350
aI1800
aI153
aI964
aI767
aI421
asS'11-34'
p1111
(lp1112
S'modena_alfa_t_8_21_0364.png'
p1113
aI1350
aI1800
aI394
aI761
aI344
aI313
asS'11-39'
p1114
(lp1115
S'modena_alfa_t_8_21_0372.png'
p1116
aI1350
aI1800
aI444
aI637
aI311
aI273
asS'11-38'
p1117
(lp1118
S'modena_alfa_t_8_21_0371.png'
p1119
aI1350
aI1800
aI152
aI591
aI785
aI238
asS'4-1'
p1120
(lp1121
S'modena_alfa_t_8_21_0097.png'
p1122
aI1350
aI1800
aI98
aI368
aI656
aI124
asS'4-2'
p1123
(lp1124
S'modena_alfa_t_8_21_0097.png'
p1125
aI1350
aI1800
aI79
aI867
aI627
aI148
asS'7-8'
p1126
(lp1127
S'modena_alfa_t_8_21_0167.png'
p1128
aI1350
aI1800
aI135
aI1079
aI774
aI136
asS'4-4'
p1129
(lp1130
S'modena_alfa_t_8_21_0099.png'
p1131
aI1350
aI1800
aI78
aI385
aI382
aI159
asS'4-5'
p1132
(lp1133
S'modena_alfa_t_8_21_0099.png'
p1134
aI1350
aI1800
aI78
aI1130
aI415
aI80
asS'4-6'
p1135
(lp1136
S'modena_alfa_t_8_21_0101.png'
p1137
aI1350
aI1800
aI149
aI316
aI424
aI76
asS'4-7'
p1138
(lp1139
S'modena_alfa_t_8_21_0101.png'
p1140
aI1350
aI1800
aI158
aI823
aI466
aI58
asS'7-3'
p1141
(lp1142
S'modena_alfa_t_8_21_0164.png'
p1143
aI1350
aI1800
aI421
aI980
aI810
aI87
asS'7-2'
p1144
(lp1145
S'modena_alfa_t_8_21_0163.png'
p1146
aI1350
aI1800
aI144
aI1010
aI656
aI130
asS'7-1'
p1147
(lp1148
S'modena_alfa_t_8_21_0163.png'
p1149
aI1350
aI1800
aI150
aI287
aI756
aI204
asS'11-17_2'
p1150
(lp1151
S'modena_alfa_t_8_21_0347.png'
p1152
aI1350
aI1800
aI188
aI303
aI471
aI78
asS'7-7'
p1153
(lp1154
S'modena_alfa_t_8_21_0167.png'
p1155
aI1350
aI1800
aI130
aI508
aI775
aI115
asS'7-6'
p1156
(lp1157
S'modena_alfa_t_8_21_0166.png'
p1158
aI1350
aI1800
aI442
aI1113
aI782
aI142
asS'7-5'
p1159
(lp1160
S'modena_alfa_t_8_21_0166.png'
p1161
aI1350
aI1800
aI490
aI558
aI752
aI132
asS'7-4'
p1162
(lp1163
S'modena_alfa_t_8_21_0165.png'
p1164
aI1350
aI1800
aI145
aI1113
aI759
aI111
asS'10-add1'
p1165
(lp1166
S'modena_alfa_t_8_21_0331.png'
p1167
aI1350
aI1800
aI172
aI347
aI410
aI55
asS'10-add2'
p1168
(lp1169
S'modena_alfa_t_8_21_0331.png'
p1170
aI1350
aI1800
aI164
aI925
aI436
aI130
asS'10-add3'
p1171
(lp1172
S'modena_alfa_t_8_21_0332.png'
p1173
aI1350
aI1800
aI492
aI382
aI452
aI124
asS'10-93'
p1174
(lp1175
S'modena_alfa_t_8_21_0306.png'
p1176
aI1350
aI1800
aI481
aI1194
aI559
aI135
asS'1-39'
p1177
(lp1178
S'modena_alfa_t_8_21_0037.png'
p1179
aI1350
aI1800
aI184
aI1116
aI653
aI109
asS'1-38'
p1180
(lp1181
S'modena_alfa_t_8_21_0037.png'
p1182
aI1350
aI1800
aI177
aI367
aI663
aI102
asS'1-37'
p1183
(lp1184
S'modena_alfa_t_8_21_0036.png'
p1185
aI1350
aI1800
aI473
aI618
aI705
aI117
asS'1-36'
p1186
(lp1187
S'modena_alfa_t_8_21_0035.png'
p1188
aI1350
aI1800
aI171
aI807
aI682
aI117
asS'1-35'
p1189
(lp1190
S'modena_alfa_t_8_21_0034.png'
p1191
aI1350
aI1800
aI499
aI982
aI680
aI122
asS'1-34'
p1192
(lp1193
S'modena_alfa_t_8_21_0033.png'
p1194
aI1350
aI1800
aI164
aI867
aI671
aI130
asS'1-33'
p1195
(lp1196
S'modena_alfa_t_8_21_0032.png'
p1197
aI1350
aI1800
aI580
aI933
aI654
aI106
asS'1-32'
p1198
(lp1199
S'modena_alfa_t_8_21_0031.png'
p1200
aI1350
aI1800
aI157
aI888
aI677
aI124
asS'1-31'
p1201
(lp1202
S'modena_alfa_t_8_21_0030.png'
p1203
aI1350
aI1800
aI559
aI1290
aI604
aI59
asS'1-30'
p1204
(lp1205
S'modena_alfa_t_8_21_0030.png'
p1206
aI1350
aI1800
aI604
aI753
aI399
aI82
asS'1-9'
p1207
(lp1208
S'modena_alfa_t_8_21_0011.png'
p1209
aI1350
aI1800
aI247
aI1136
aI402
aI60
asS'1-8'
p1210
(lp1211
S'modena_alfa_t_8_21_0010.png'
p1212
aI1350
aI1800
aI266
aI1079
aI872
aI348
asS'10-29'
p1213
(lp1214
S'modena_alfa_t_8_21_0251.png'
p1215
aI1350
aI1800
aI151
aI1343
aI752
aI106
asS'10-28'
p1216
(lp1217
S'modena_alfa_t_8_21_0250.png'
p1218
aI1350
aI1800
aI428
aI326
aI654
aI74
asS'10-27'
p1219
(lp1220
S'modena_alfa_t_8_21_0249.png'
p1221
aI1350
aI1800
aI138
aI863
aI667
aI88
asS'10-26'
p1222
(lp1223
S'modena_alfa_t_8_21_0248.png'
p1224
aI1350
aI1800
aI481
aI1278
aI369
aI82
asS'1-3'
p1225
(lp1226
S'modena_alfa_t_8_21_0006.png'
p1227
aI1350
aI1800
aI469
aI428
aI663
aI152
asS'1-2'
p1228
(lp1229
S'modena_alfa_t_8_21_0005.png'
p1230
aI1350
aI1800
aI142
aI786
aI733
aI229
asS'1-5'
p1231
(lp1232
S'modena_alfa_t_8_21_0008.png'
p1233
aI1350
aI1800
aI489
aI433
aI651
aI111
asS'10-22'
p1234
(lp1235
S'modena_alfa_t_8_21_0246.png'
p1236
aI1350
aI1800
aI487
aI526
aI775
aI105
asS'10-21'
p1237
(lp1238
S'modena_alfa_t_8_21_0245.png'
p1239
aI1350
aI1800
aI144
aI865
aI770
aI126
asS'10-20'
p1240
(lp1241
S'modena_alfa_t_8_21_0245.png'
p1242
aI1350
aI1800
aI138
aI352
aI770
aI153
asS'5-20_2'
p1243
(lp1244
S'modena_alfa_t_8_21_0128.png'
p1245
aI1350
aI1800
aI494
aI413
aI504
aI53
asS'6-32'
p1246
(lp1247
S'modena_alfa_t_8_21_0158.png'
p1248
aI1350
aI1800
aI451
aI1253
aI799
aI164
asS'3-7_2'
p1249
(lp1250
S'modena_alfa_t_8_21_0069.png'
p1251
aI1350
aI1800
aI215
aI337
aI636
aI117
asS'6-30'
p1252
(lp1253
S'modena_alfa_t_8_21_0157.png'
p1254
aI1350
aI1800
aI178
aI430
aI752
aI106
asS'6-31'
p1255
(lp1256
S'modena_alfa_t_8_21_0157.png'
p1257
aI1350
aI1800
aI152
aI1073
aI818
aI137
asS'10-13_v'
p1258
(lp1259
S'modena_alfa_t_8_21_0238.png'
p1260
aI1350
aI1800
aI420
aI1015
aI520
aI198
asS'9-36'
p1261
(lp1262
S'modena_alfa_t_8_21_0223.png'
p1263
aI1350
aI1800
aI156
aI757
aI468
aI245
asS'9-35'
p1264
(lp1265
S'modena_alfa_t_8_21_0222.png'
p1266
aI1350
aI1800
aI405
aI1271
aI791
aI228
asS'9-34'
p1267
(lp1268
S'modena_alfa_t_8_21_0222.png'
p1269
aI1350
aI1800
aI401
aI762
aI532
aI181
asS'9-33'
p1270
(lp1271
S'modena_alfa_t_8_21_0222.png'
p1272
aI1350
aI1800
aI422
aI502
aI690
aI126
asS'9-32'
p1273
(lp1274
S'modena_alfa_t_8_21_0221.png'
p1275
aI1350
aI1800
aI171
aI1298
aI503
aI96
asS'9-31'
p1276
(lp1277
S'modena_alfa_t_8_21_0221.png'
p1278
aI1350
aI1800
aI171
aI865
aI760
aI146
asS'9-30'
p1279
(lp1280
S'modena_alfa_t_8_21_0221.png'
p1281
aI1350
aI1800
aI166
aI532
aI740
aI151
asS'7-28'
p1282
(lp1283
S'modena_alfa_t_8_21_0178.png'
p1284
aI1350
aI1800
aI500
aI304
aI780
aI173
asS'7-29'
p1285
(lp1286
S'modena_alfa_t_8_21_0178.png'
p1287
aI1350
aI1800
aI490
aI1087
aI799
aI123
asS'9-10_2'
p1288
(lp1289
S'modena_alfa_t_8_21_0211.png'
p1290
aI1350
aI1800
aI156
aI290
aI371
aI65
asS'7-23'
p1291
(lp1292
S'modena_alfa_t_8_21_0175.png'
p1293
aI1350
aI1800
aI132
aI1048
aI600
aI119
asS'7-20'
p1294
(lp1295
S'modena_alfa_t_8_21_0173.png'
p1296
aI1350
aI1800
aI141
aI1057
aI771
aI152
asS'7-21'
p1297
(lp1298
S'modena_alfa_t_8_21_0174.png'
p1299
aI1350
aI1800
aI469
aI1117
aI570
aI120
asS'7-26'
p1300
(lp1301
S'modena_alfa_t_8_21_0177.png'
p1302
aI1350
aI1800
aI148
aI294
aI750
aI128
asS'7-27'
p1303
(lp1304
S'modena_alfa_t_8_21_0177.png'
p1305
aI1350
aI1800
aI156
aI720
aI761
aI236
asS'7-24'
p1306
(lp1307
S'modena_alfa_t_8_21_0176.png'
p1308
aI1350
aI1800
aI464
aI311
aI777
aI115
asS'7-25'
p1309
(lp1310
S'modena_alfa_t_8_21_0176.png'
p1311
aI1350
aI1800
aI465
aI1078
aI786
aI130
asS'9-14_2'
p1312
(lp1313
S'modena_alfa_t_8_21_0215.png'
p1314
aI1350
aI1800
aI157
aI286
aI718
aI68
asS'10-74'
p1315
(lp1316
S'modena_alfa_t_8_21_0290.png'
p1317
aI1350
aI1800
aI497
aI326
aI708
aI128
asS'10-75'
p1318
(lp1319
S'modena_alfa_t_8_21_0290.png'
p1320
aI1350
aI1800
aI481
aI736
aI714
aI140
asS'10-76'
p1321
(lp1322
S'modena_alfa_t_8_21_0291.png'
p1323
aI1350
aI1800
aI178
aI563
aI722
aI176
asS'10-77'
p1324
(lp1325
S'modena_alfa_t_8_21_0291.png'
p1326
aI1350
aI1800
aI171
aI955
aI741
aI162
asS'10-70'
p1327
(lp1328
S'modena_alfa_t_8_21_0286.png'
p1329
aI1350
aI1800
aI492
aI347
aI406
aI95
asS'10-71'
p1330
(lp1331
S'modena_alfa_t_8_21_0286.png'
p1332
aI1350
aI1800
aI449
aI873
aI607
aI144
asS'10-72'
p1333
(lp1334
S'modena_alfa_t_8_21_0288.png'
p1335
aI1350
aI1800
aI476
aI504
aI490
aI129
asS'10-73'
p1336
(lp1337
S'modena_alfa_t_8_21_0289.png'
p1338
aI1350
aI1800
aI160
aI1012
aI737
aI110
asS'10-78'
p1339
(lp1340
S'modena_alfa_t_8_21_0291.png'
p1341
aI1350
aI1800
aI174
aI1368
aI748
aI93
asS'10-79'
p1342
(lp1343
S'modena_alfa_t_8_21_0292.png'
p1344
aI1350
aI1800
aI480
aI1078
aI383
aI117
asS'1-12_c'
p1345
(lp1346
S'modena_alfa_t_8_21_0014.png'
p1347
aI1350
aI1800
aI342
aI522
aI486
aI229
asS'7-22'
p1348
(lp1349
S'modena_alfa_t_8_21_0175.png'
p1350
aI1350
aI1800
aI138
aI600
aI751
aI106
asS'3-15'
p1351
(lp1352
S'modena_alfa_t_8_21_0078.png'
p1353
aI1350
aI1800
aI540
aI412
aI675
aI126
asS'10-89'
p1354
(lp1355
S'modena_alfa_t_8_21_0301.png'
p1356
aI1350
aI1800
aI146
aI601
aI416
aI65
asS'10-88'
p1357
(lp1358
S'modena_alfa_t_8_21_0300.png'
p1359
aI1350
aI1800
aI490
aI799
aI437
aI63
asS'10-81'
p1360
(lp1361
S'modena_alfa_t_8_21_0293.png'
p1362
aI1350
aI1800
aI182
aI1232
aI750
aI106
asS'10-80'
p1363
(lp1364
S'modena_alfa_t_8_21_0293.png'
p1365
aI1350
aI1800
aI174
aI543
aI727
aI100
asS'10-83'
p1366
(lp1367
S'modena_alfa_t_8_21_0295.png'
p1368
aI1350
aI1800
aI172
aI966
aI723
aI174
asS'10-82'
p1369
(lp1370
S'modena_alfa_t_8_21_0295.png'
p1371
aI1350
aI1800
aI169
aI362
aI491
aI169
asS'10-85'
p1372
(lp1373
S'modena_alfa_t_8_21_0297.png'
p1374
aI1350
aI1800
aI163
aI868
aI325
aI48
asS'10-84'
p1375
(lp1376
S'modena_alfa_t_8_21_0296.png'
p1377
aI1350
aI1800
aI495
aI345
aI722
aI123
asS'10-87'
p1378
(lp1379
S'modena_alfa_t_8_21_0299.png'
p1380
aI1350
aI1800
aI176
aI308
aI348
aI80
asS'10-86'
p1381
(lp1382
S'modena_alfa_t_8_21_0298.png'
p1383
aI1350
aI1800
aI498
aI644
aI300
aI57
asS'3-28'
p1384
(lp1385
S'modena_alfa_t_8_21_0086.png'
p1386
aI1350
aI1800
aI533
aI1316
aI667
aI119
asS'3-29'
p1387
(lp1388
S'modena_alfa_t_8_21_0087.png'
p1389
aI1350
aI1800
aI108
aI882
aI634
aI132
asS'3-26'
p1390
(lp1391
S'modena_alfa_t_8_21_0085.png'
p1392
aI1350
aI1800
aI114
aI907
aI644
aI97
asS'3-27'
p1393
(lp1394
S'modena_alfa_t_8_21_0086.png'
p1395
aI1350
aI1800
aI539
aI559
aI670
aI115
asS'3-24'
p1396
(lp1397
S'modena_alfa_t_8_21_0084.png'
p1398
aI1350
aI1800
aI540
aI414
aI556
aI79
asS'3-25'
p1399
(lp1400
S'modena_alfa_t_8_21_0084.png'
p1401
aI1350
aI1800
aI553
aI973
aI657
aI88
asS'3-22'
p1402
(lp1403
S'modena_alfa_t_8_21_0083.png'
p1404
aI1350
aI1800
aI129
aI438
aI651
aI68
asS'3-23'
p1405
(lp1406
S'modena_alfa_t_8_21_0083.png'
p1407
aI1350
aI1800
aI114
aI923
aI635
aI117
asS'3-20'
p1408
(lp1409
S'modena_alfa_t_8_21_0082.png'
p1410
aI1350
aI1800
aI495
aI463
aI753
aI92
asS'3-21'
p1411
(lp1412
S'modena_alfa_t_8_21_0082.png'
p1413
aI1350
aI1800
aI526
aI1055
aI603
aI125
asS'11-28'
p1414
(lp1415
S'modena_alfa_t_8_21_0358.png'
p1416
aI1350
aI1800
aI429
aI1083
aI393
aI213
asS'11-29'
p1417
(lp1418
S'modena_alfa_t_8_21_0359.png'
p1419
aI1350
aI1800
aI144
aI536
aI444
aI204
asS'11-24'
p1420
(lp1421
S'modena_alfa_t_8_21_0354.png'
p1422
aI1350
aI1800
aI433
aI1185
aI516
aI135
asS'11-25'
p1423
(lp1424
S'modena_alfa_t_8_21_0355.png'
p1425
aI1350
aI1800
aI146
aI848
aI419
aI234
asS'11-26'
p1426
(lp1427
S'modena_alfa_t_8_21_0356.png'
p1428
aI1350
aI1800
aI436
aI935
aI350
aI176
asS'11-27'
p1429
(lp1430
S'modena_alfa_t_8_21_0357.png'
p1431
aI1350
aI1800
aI144
aI1272
aI514
aI210
asS'11-20'
p1432
(lp1433
S'modena_alfa_t_8_21_0348.png'
p1434
aI1350
aI1800
aI412
aI1287
aI540
aI175
asS'11-21'
p1435
(lp1436
S'modena_alfa_t_8_21_0349.png'
p1437
aI1350
aI1800
aI137
aI1080
aI524
aI141
asS'11-22'
p1438
(lp1439
S'modena_alfa_t_8_21_0350.png'
p1440
aI1350
aI1800
aI465
aI837
aI751
aI214
asS'11-23'
p1441
(lp1442
S'modena_alfa_t_8_21_0352.png'
p1443
aI1350
aI1800
aI436
aI714
aI764
aI214
asS'1-31_2'
p1444
(lp1445
S'modena_alfa_t_8_21_0031.png'
p1446
aI1350
aI1800
aI205
aI362
aI257
aI46
asS'9-35_2'
p1447
(lp1448
S'modena_alfa_t_8_21_0223.png'
p1449
aI1350
aI1800
aI186
aI291
aI96
aI40
asS'3-9'
p1450
(lp1451
S'modena_alfa_t_8_21_0072.png'
p1452
aI1350
aI1800
aI509
aI480
aI703
aI185
asS'3-8'
p1453
(lp1454
S'modena_alfa_t_8_21_0070.png'
p1455
aI1350
aI1800
aI451
aI611
aI767
aI383
asS'3-7'
p1456
(lp1457
S'modena_alfa_t_8_21_0068.png'
p1458
aI1350
aI1800
aI516
aI1226
aI710
aI187
asS'3-6'
p1459
(lp1460
S'modena_alfa_t_8_21_0068.png'
p1461
aI1350
aI1800
aI481
aI729
aI745
aI208
asS'3-5'
p1462
(lp1463
S'modena_alfa_t_8_21_0067.png'
p1464
aI1350
aI1800
aI139
aI1118
aI626
aI175
asS'3-4'
p1465
(lp1466
S'modena_alfa_t_8_21_0067.png'
p1467
aI1350
aI1800
aI125
aI461
aI390
aI171
asS'3-3'
p1468
(lp1469
S'modena_alfa_t_8_21_0066.png'
p1470
aI1350
aI1800
aI373
aI654
aI842
aI234
asS'3-2'
p1471
(lp1472
S'modena_alfa_t_8_21_0065.png'
p1473
aI1350
aI1800
aI134
aI916
aI687
aI263
asS'3-1'
p1474
(lp1475
S'modena_alfa_t_8_21_0065.png'
p1476
aI1350
aI1800
aI130
aI236
aI402
aI343
asS'3-28_2'
p1477
(lp1478
S'modena_alfa_t_8_21_0087.png'
p1479
aI1350
aI1800
aI158
aI380
aI412
aI46
as.