(dp0
S'heiberg-diag-0419'
p1
(lp2
S'heiberg_1886_v3_1_0356.jpg'
p3
aI2474
aI3908
aI180
aI2292
aI318
aI732
asS'heiberg-diag-0418'
p4
(lp5
S'heiberg_1886_v3_1_0356.jpg'
p6
aI2474
aI3908
aI198
aI306
aI312
aI762
asS'heiberg-diag-0398'
p7
(lp8
S'heiberg_1886_v3_1_0276.jpg'
p9
aI2474
aI3908
aI138
aI2490
aI792
aI696
asS'heiberg-diag-0399'
p10
(lp11
S'heiberg_1886_v3_1_0282.jpg'
p12
aI2474
aI3908
aI186
aI270
aI936
aI354
asS'heiberg-diag-0394'
p13
(lp14
S'heiberg_1886_v3_1_0264.jpg'
p15
aI2474
aI3908
aI66
aI1428
aI924
aI180
asS'heiberg-diag-0413'
p16
(lp17
S'heiberg_1886_v3_1_0342.jpg'
p18
aI2474
aI3908
aI186
aI528
aI774
aI606
asS'heiberg-diag-0412'
p19
(lp20
S'heiberg_1886_v3_1_0340.jpg'
p21
aI2474
aI3914
aI192
aI534
aI756
aI588
asS'heiberg-diag-0396'
p22
(lp23
S'heiberg_1886_v3_1_0272.jpg'
p24
aI2474
aI3908
aI96
aI822
aI1056
aI312
asS'heiberg-diag-0397'
p25
(lp26
S'heiberg_1886_v3_1_0274.jpg'
p27
aI2474
aI3908
aI102
aI2466
aI912
aI588
asS'heiberg-diag-0417'
p28
(lp29
S'heiberg_1886_v3_1_0352.jpg'
p30
aI2474
aI3908
aI174
aI2052
aI330
aI690
asS'heiberg-diag-0391'
p31
(lp32
S'heiberg_1886_v3_1_0256.jpg'
p33
aI2474
aI3908
aI174
aI342
aI186
aI732
asS'heiberg-diag-0415'
p34
(lp35
S'heiberg_1886_v3_1_0348.jpg'
p36
aI2474
aI3908
aI1206
aI2928
aI522
aI294
asS'heiberg-diag-0414'
p37
(lp38
S'heiberg_1886_v3_1_0346.jpg'
p39
aI2474
aI3908
aI162
aI294
aI786
aI516
asS'heiberg-diag-0395'
p40
(lp41
S'heiberg_1886_v3_1_0266.jpg'
p42
aI2474
aI3908
aI108
aI1194
aI1020
aI714
asS'heiberg-diag-0314'
p43
(lp44
S'heiberg_1886_v3_1_0054.jpg'
p45
aI2474
aI3908
aI210
aI498
aI864
aI438
asS'heiberg-diag-0315'
p46
(lp47
S'heiberg_1886_v3_1_0056.jpg'
p48
aI2474
aI3908
aI114
aI828
aI696
aI684
asS'heiberg-diag-0316'
p49
(lp50
S'heiberg_1886_v3_1_0058.jpg'
p51
aI2474
aI3908
aI150
aI726
aI990
aI306
asS'heiberg-diag-0317'
p52
(lp53
S'heiberg_1886_v3_1_0060.jpg'
p54
aI2474
aI3908
aI198
aI534
aI318
aI822
asS'heiberg-diag-0310'
p55
(lp56
S'heiberg_1886_v3_1_0046.jpg'
p57
aI2474
aI3908
aI180
aI1854
aI690
aI576
asS'heiberg-diag-0311'
p58
(lp59
S'heiberg_1886_v3_1_0048.jpg'
p60
aI2474
aI3908
aI90
aI1602
aI1134
aI258
asS'heiberg-diag-0312'
p61
(lp62
S'heiberg_1886_v3_1_0050.jpg'
p63
aI2474
aI3908
aI168
aI1716
aI1242
aI576
asS'heiberg-diag-0313'
p64
(lp65
S'heiberg_1886_v3_1_0052.jpg'
p66
aI2474
aI3908
aI90
aI1524
aI714
aI330
asS'heiberg-diag-0318'
p67
(lp68
S'heiberg_1886_v3_1_0062.jpg'
p69
aI2474
aI3908
aI198
aI348
aI672
aI354
asS'heiberg-diag-0319'
p70
(lp71
S'heiberg_1886_v3_1_0064.jpg'
p72
aI2474
aI3908
aI204
aI324
aI642
aI390
asS'heiberg-diag-0410'
p73
(lp74
S'heiberg_1886_v3_1_0330.jpg'
p75
aI2474
aI3908
aI162
aI990
aI816
aI564
asS'heiberg-diag-0408'
p76
(lp77
S'heiberg_1886_v3_1_0320.jpg'
p78
aI2474
aI3908
aI138
aI2094
aI780
aI576
asS'heiberg-diag-0409'
p79
(lp80
S'heiberg_1886_v3_1_0326.jpg'
p81
aI2474
aI3908
aI180
aI324
aI774
aI588
asS'heiberg-diag-0404'
p82
(lp83
S'heiberg_1886_v3_1_0302.jpg'
p84
aI2474
aI3908
aI150
aI1062
aI942
aI1050
asS'heiberg-diag-0390'
p85
(lp86
S'heiberg_1886_v3_1_0254.jpg'
p87
aI2474
aI3908
aI192
aI324
aI162
aI810
asS'heiberg-diag-0406'
p88
(lp89
S'heiberg_1886_v3_1_0312.jpg'
p90
aI2474
aI3908
aI132
aI2310
aI960
aI1116
asS'heiberg-diag-0407'
p91
(lp92
S'heiberg_1886_v3_1_0316.jpg'
p93
aI2474
aI3908
aI126
aI1896
aI906
aI1050
asS'heiberg-diag-0400'
p94
(lp95
S'heiberg_1886_v3_1_0284.jpg'
p96
aI2474
aI3908
aI168
aI1248
aI486
aI834
asS'heiberg-diag-0401'
p97
(lp98
S'heiberg_1886_v3_1_0286.jpg'
p99
aI2474
aI3908
aI120
aI2148
aI750
aI612
asS'heiberg-diag-0402'
p100
(lp101
S'heiberg_1886_v3_1_0290.jpg'
p102
aI2474
aI3908
aI156
aI2250
aI948
aI996
asS'heiberg-diag-0403'
p103
(lp104
S'heiberg_1886_v3_1_0296.jpg'
p105
aI2474
aI3908
aI138
aI2004
aI948
aI936
asS'heiberg-diag-0411'
p106
(lp107
S'heiberg_1886_v3_1_0334.jpg'
p108
aI2474
aI3908
aI168
aI2028
aI828
aI588
asS'heiberg-diag-0392'
p109
(lp110
S'heiberg_1886_v3_1_0258.jpg'
p111
aI2474
aI3908
aI108
aI774
aI918
aI936
asS'heiberg-diag-0393'
p112
(lp113
S'heiberg_1886_v3_1_0262.jpg'
p114
aI2474
aI3908
aI168
aI1428
aI918
aI186
asS'heiberg-diag-0361'
p115
(lp116
S'heiberg_1886_v3_1_0172.jpg'
p117
aI2474
aI3908
aI174
aI2208
aI840
aI936
asS'heiberg-diag-0360'
p118
(lp119
S'heiberg_1886_v3_1_0170.jpg'
p120
aI2474
aI3908
aI204
aI1848
aI516
aI534
asS'heiberg-diag-0363'
p121
(lp122
S'heiberg_1886_v3_1_0184.jpg'
p123
aI2474
aI3908
aI132
aI720
aI942
aI1038
asS'heiberg-diag-0362'
p124
(lp125
S'heiberg_1886_v3_1_0180.jpg'
p126
aI2474
aI3908
aI198
aI282
aI966
aI1032
asS'heiberg-diag-0365'
p127
(lp128
S'heiberg_1886_v3_1_0190.jpg'
p129
aI2474
aI3908
aI222
aI714
aI918
aI1032
asS'heiberg-diag-0364'
p130
(lp131
S'heiberg_1886_v3_1_0186.jpg'
p132
aI2474
aI3908
aI222
aI1464
aI912
aI1038
asS'heiberg-diag-0367'
p133
(lp134
S'heiberg_1886_v3_1_0194.jpg'
p135
aI2474
aI3908
aI180
aI1416
aI168
aI666
asS'heiberg-diag-0366'
p136
(lp137
S'heiberg_1886_v3_1_0192.jpg'
p138
aI2474
aI3908
aI228
aI1920
aI924
aI1026
asS'heiberg-diag-0369'
p139
(lp140
S'heiberg_1886_v3_1_0200.jpg'
p141
aI2474
aI3908
aI210
aI1236
aI768
aI546
asS'heiberg-diag-0368'
p142
(lp143
S'heiberg_1886_v3_1_0196.jpg'
p144
aI2474
aI3908
aI198
aI690
aI780
aI546
asS'heiberg-diag-0424'
p145
(lp146
S'heiberg_1886_v3_1_0372.jpg'
p147
aI2474
aI3908
aI522
aI2724
aI1422
aI468
asS'heiberg-diag-0425'
p148
(lp149
S'heiberg_1886_v3_1_0378.jpg'
p150
aI856
aI1104
aI168
aI226
aI144
aI224
asS'heiberg-diag-0372'
p151
(lp152
S'heiberg_1886_v3_1_0208.jpg'
p153
aI2474
aI3908
aI210
aI2676
aI768
aI546
asS'heiberg-diag-0373'
p154
(lp155
S'heiberg_1886_v3_1_0212.jpg'
p156
aI2474
aI3908
aI204
aI270
aI774
aI540
asS'heiberg-diag-0370'
p157
(lp158
S'heiberg_1886_v3_1_0202.jpg'
p159
aI2474
aI3908
aI198
aI2214
aI780
aI528
asS'heiberg-diag-0371'
p160
(lp161
S'heiberg_1886_v3_1_0206.jpg'
p162
aI2474
aI3908
aI90
aI858
aI798
aI558
asS'heiberg-diag-0376'
p163
(lp164
S'heiberg_1886_v3_1_0220.jpg'
p165
aI2474
aI3908
aI210
aI2088
aI264
aI618
asS'heiberg-diag-0377'
p166
(lp167
S'heiberg_1886_v3_1_0224.jpg'
p168
aI2474
aI3908
aI174
aI702
aI318
aI618
asS'heiberg-diag-0374'
p169
(lp170
S'heiberg_1886_v3_1_0214.jpg'
p171
aI2474
aI3908
aI174
aI1170
aI1080
aI318
asS'heiberg-diag-0375'
p172
(lp173
S'heiberg_1886_v3_1_0218.jpg'
p174
aI2474
aI3908
aI162
aI1338
aI462
aI330
asS'heiberg-diag-0378'
p175
(lp176
S'heiberg_1886_v3_1_0224.jpg'
p177
aI2474
aI3908
aI168
aI2910
aI312
aI684
asS'heiberg-diag-0379'
p178
(lp179
S'heiberg_1886_v3_1_0226.jpg'
p180
aI2474
aI3908
aI180
aI1896
aI972
aI732
asS'heiberg-diag-0416'
p181
(lp182
S'heiberg_1886_v3_1_0350.jpg'
p183
aI2474
aI3908
aI210
aI420
aI696
aI294
asS'heiberg-diag-0428'
p184
(lp185
S'heiberg_1886_v3_1_0390.jpg'
p186
aI2474
aI3908
aI192
aI1350
aI828
aI504
asS'heiberg-diag-0384'
p187
(lp188
S'heiberg_1886_v3_1_0242.jpg'
p189
aI2474
aI3908
aI168
aI1266
aI912
aI750
asS'heiberg-diag-0347'
p190
(lp191
S'heiberg_1886_v3_1_0132.jpg'
p192
aI2474
aI3908
aI186
aI510
aI540
aI846
asS'heiberg-diag-0346'
p193
(lp194
S'heiberg_1886_v3_1_0130.jpg'
p195
aI2474
aI3908
aI162
aI510
aI204
aI648
asS'heiberg-diag-0345'
p196
(lp197
S'heiberg_1886_v3_1_0128.jpg'
p198
aI2474
aI3908
aI90
aI1104
aI684
aI168
asS'heiberg-diag-0344'
p199
(lp200
S'heiberg_1886_v3_1_0124.jpg'
p201
aI2474
aI3908
aI78
aI2268
aI1236
aI588
asS'heiberg-diag-0343'
p202
(lp203
S'heiberg_1886_v3_1_0124.jpg'
p204
aI2474
aI3908
aI84
aI516
aI588
aI180
asS'heiberg-diag-0342'
p205
(lp206
S'heiberg_1886_v3_1_0120.jpg'
p207
aI2474
aI3908
aI174
aI2754
aI870
aI162
asS'heiberg-diag-0341'
p208
(lp209
S'heiberg_1886_v3_1_0118.jpg'
p210
aI2474
aI3908
aI204
aI2454
aI1176
aI444
asS'heiberg-diag-0340'
p211
(lp212
S'heiberg_1886_v3_1_0116.jpg'
p213
aI2474
aI3908
aI228
aI1428
aI1050
aI414
asS'heiberg-diag-0349'
p214
(lp215
S'heiberg_1886_v3_1_0138.jpg'
p216
aI2474
aI3908
aI102
aI510
aI936
aI186
asS'heiberg-diag-0348'
p217
(lp218
S'heiberg_1886_v3_1_0136.jpg'
p219
aI2474
aI3908
aI180
aI312
aI174
aI930
asS'heiberg-diag-0358'
p220
(lp221
S'heiberg_1886_v3_1_0164.jpg'
p222
aI2474
aI3908
aI168
aI894
aI516
aI756
asS'heiberg-diag-0359'
p223
(lp224
S'heiberg_1886_v3_1_0166.jpg'
p225
aI2474
aI3908
aI120
aI2394
aI432
aI954
asS'heiberg-diag-0350'
p226
(lp227
S'heiberg_1886_v3_1_0140.jpg'
p228
aI2474
aI3908
aI612
aI810
aI1272
aI522
asS'heiberg-diag-0351'
p229
(lp230
S'heiberg_1886_v3_1_0144.jpg'
p231
aI2474
aI3908
aI198
aI966
aI174
aI732
asS'heiberg-diag-0352'
p232
(lp233
S'heiberg_1886_v3_1_0146.jpg'
p234
aI2474
aI3908
aI192
aI540
aI156
aI786
asS'heiberg-diag-0353'
p235
(lp236
S'heiberg_1886_v3_1_0148.jpg'
p237
aI2474
aI3908
aI174
aI504
aI852
aI846
asS'heiberg-diag-0354'
p238
(lp239
S'heiberg_1886_v3_1_0152.jpg'
p240
aI2474
aI3908
aI210
aI516
aI1140
aI516
asS'heiberg-diag-0355'
p241
(lp242
S'heiberg_1886_v3_1_0154.jpg'
p243
aI2474
aI3908
aI144
aI1572
aI624
aI690
asS'heiberg-diag-0356'
p244
(lp245
S'heiberg_1886_v3_1_0156.jpg'
p246
aI2474
aI3908
aI510
aI2388
aI1230
aI402
asS'heiberg-diag-0357'
p247
(lp248
S'heiberg_1886_v3_1_0160.jpg'
p249
aI856
aI1104
aI156
aI630
aI124
aI210
asS'heiberg-diag-0440'
p250
(lp251
S'heiberg_1886_v3_1_0416.jpg'
p252
aI2474
aI3908
aI126
aI2550
aI540
aI180
asS'heiberg-diag-0441'
p253
(lp254
S'heiberg_1886_v3_1_0418.jpg'
p255
aI2474
aI3908
aI174
aI1764
aI762
aI408
asS'heiberg-diag-0442'
p256
(lp257
S'heiberg_1886_v3_1_0420.jpg'
p258
aI2474
aI3908
aI204
aI1002
aI690
aI522
asS'heiberg-diag-0443'
p259
(lp260
S'heiberg_1886_v3_1_0422.jpg'
p261
aI2474
aI3908
aI186
aI1260
aI774
aI492
asS'heiberg-diag-0444'
p262
(lp263
S'heiberg_1886_v3_1_0424.jpg'
p264
aI2474
aI3908
aI186
aI1404
aI1014
aI522
asS'heiberg-diag-0445'
p265
(lp266
S'heiberg_1886_v3_1_0428.jpg'
p267
aI2474
aI3908
aI174
aI324
aI582
aI588
asS'heiberg-diag-0446'
p268
(lp269
S'heiberg_1886_v3_1_0430.jpg'
p270
aI2474
aI3908
aI180
aI546
aI354
aI594
asS'heiberg-diag-0329'
p271
(lp272
S'heiberg_1886_v3_1_0088.jpg'
p273
aI2474
aI3908
aI180
aI1728
aI498
aI1116
asS'heiberg-diag-0328'
p274
(lp275
S'heiberg_1886_v3_1_0084.jpg'
p276
aI856
aI1104
aI164
aI730
aI220
aI160
asS'heiberg-diag-0325'
p277
(lp278
S'heiberg_1886_v3_1_0078.jpg'
p279
aI856
aI1104
aI170
aI606
aI172
aI160
asS'heiberg-diag-0324'
p280
(lp281
S'heiberg_1886_v3_1_0076.jpg'
p282
aI2474
aI3908
aI60
aI2136
aI786
aI420
asS'heiberg-diag-0327'
p283
(lp284
S'heiberg_1886_v3_1_0084.jpg'
p285
aI856
aI1104
aI166
aI374
aI96
aI178
asS'heiberg-diag-0326'
p286
(lp287
S'heiberg_1886_v3_1_0080.jpg'
p288
aI2474
aI3908
aI156
aI2124
aI684
aI690
asS'heiberg-diag-0321'
p289
(lp290
S'heiberg_1886_v3_1_0072.jpg'
p291
aI2474
aI3908
aI180
aI1494
aI528
aI432
asS'heiberg-diag-0320'
p292
(lp293
S'heiberg_1886_v3_1_0068.jpg'
p294
aI2474
aI3908
aI174
aI660
aI330
aI756
asS'heiberg-diag-0323'
p295
(lp296
S'heiberg_1886_v3_1_0076.jpg'
p297
aI2474
aI3908
aI66
aI294
aI444
aI780
asS'heiberg-diag-0322'
p298
(lp299
S'heiberg_1886_v3_1_0074.jpg'
p300
aI2474
aI3908
aI174
aI1056
aI444
aI726
asS'heiberg-diag-0435'
p301
(lp302
S'heiberg_1886_v3_1_0406.jpg'
p303
aI2474
aI3908
aI174
aI324
aI630
aI372
asS'heiberg-diag-0434'
p304
(lp305
S'heiberg_1886_v3_1_0404.jpg'
p306
aI2474
aI3908
aI162
aI1680
aI558
aI588
asS'heiberg-diag-0437'
p307
(lp308
S'heiberg_1886_v3_1_0410.jpg'
p309
aI2474
aI3908
aI156
aI336
aI522
aI600
asS'heiberg-diag-0436'
p310
(lp311
S'heiberg_1886_v3_1_0406.jpg'
p312
aI2474
aI3908
aI186
aI2454
aI768
aI342
asS'heiberg-diag-0431'
p313
(lp314
S'heiberg_1886_v3_1_0398.jpg'
p315
aI2474
aI3908
aI180
aI1260
aI462
aI426
asS'heiberg-diag-0430'
p316
(lp317
S'heiberg_1886_v3_1_0394.jpg'
p318
aI2474
aI3908
aI180
aI1146
aI738
aI786
asS'heiberg-diag-0433'
p319
(lp320
S'heiberg_1886_v3_1_0402.jpg'
p321
aI2474
aI3908
aI192
aI2952
aI720
aI606
asS'heiberg-diag-0432'
p322
(lp323
S'heiberg_1886_v3_1_0400.jpg'
p324
aI2474
aI3908
aI168
aI2292
aI612
aI324
asS'heiberg-diag-0439'
p325
(lp326
S'heiberg_1886_v3_1_0414.jpg'
p327
aI2474
aI3908
aI180
aI516
aI642
aI186
asS'heiberg-diag-0438'
p328
(lp329
S'heiberg_1886_v3_1_0410.jpg'
p330
aI2474
aI3908
aI180
aI1836
aI690
aI576
asS'heiberg-diag-0338'
p331
(lp332
S'heiberg_1886_v3_1_0110.jpg'
p333
aI2474
aI3908
aI216
aI1986
aI630
aI480
asS'heiberg-diag-0339'
p334
(lp335
S'heiberg_1886_v3_1_0114.jpg'
p336
aI2474
aI3908
aI228
aI270
aI1014
aI432
asS'heiberg-diag-0336'
p337
(lp338
S'heiberg_1886_v3_1_0106.jpg'
p339
aI2474
aI3908
aI168
aI480
aI462
aI540
asS'heiberg-diag-0337'
p340
(lp341
S'heiberg_1886_v3_1_0108.jpg'
p342
aI2474
aI3908
aI180
aI858
aI1020
aI408
asS'heiberg-diag-0334'
p343
(lp344
S'heiberg_1886_v3_1_0100.jpg'
p345
aI2474
aI3908
aI198
aI1566
aI642
aI522
asS'heiberg-diag-0335'
p346
(lp347
S'heiberg_1886_v3_1_0102.jpg'
p348
aI2474
aI3908
aI162
aI2664
aI822
aI624
asS'heiberg-diag-0332'
p349
(lp350
S'heiberg_1886_v3_1_0094.jpg'
p351
aI2474
aI3908
aI198
aI2214
aI162
aI654
asS'heiberg-diag-0333'
p352
(lp353
S'heiberg_1886_v3_1_0096.jpg'
p354
aI2474
aI3908
aI180
aI1800
aI234
aI846
asS'heiberg-diag-0330'
p355
(lp356
S'heiberg_1886_v3_1_0092.jpg'
p357
aI2474
aI3908
aI66
aI708
aI408
aI666
asS'heiberg-diag-0331'
p358
(lp359
S'heiberg_1886_v3_1_0092.jpg'
p360
aI2474
aI3908
aI54
aI2292
aI930
aI432
asS'heiberg-diag-0405'
p361
(lp362
S'heiberg_1886_v3_1_0308.jpg'
p363
aI2474
aI3908
aI156
aI1188
aI936
aI1050
asS'heiberg-diag-0426'
p364
(lp365
S'heiberg_1886_v3_1_0382.jpg'
p366
aI2474
aI3908
aI120
aI2424
aI618
aI714
asS'heiberg-diag-0427'
p367
(lp368
S'heiberg_1886_v3_1_0386.jpg'
p369
aI2474
aI3908
aI192
aI1638
aI804
aI426
asS'heiberg-diag-0389'
p370
(lp371
S'heiberg_1886_v3_1_0250.jpg'
p372
aI2474
aI3908
aI168
aI2556
aI888
aI504
asS'heiberg-diag-0388'
p373
(lp374
S'heiberg_1886_v3_1_0250.jpg'
p375
aI2474
aI3908
aI174
aI336
aI186
aI720
asS'heiberg-diag-0422'
p376
(lp377
S'heiberg_1886_v3_1_0364.jpg'
p378
aI2474
aI3908
aI174
aI2316
aI972
aI828
asS'heiberg-diag-0423'
p379
(lp380
S'heiberg_1886_v3_1_0366.jpg'
p381
aI2474
aI3908
aI162
aI2340
aI870
aI1038
asS'heiberg-diag-0420'
p382
(lp383
S'heiberg_1886_v3_1_0358.jpg'
p384
aI2474
aI3908
aI168
aI2244
aI1230
aI1002
asS'heiberg-diag-0421'
p385
(lp386
S'heiberg_1886_v3_1_0362.jpg'
p387
aI856
aI1104
aI158
aI246
aI250
aI262
asS'heiberg-diag-0383'
p388
(lp389
S'heiberg_1886_v3_1_0240.jpg'
p390
aI2474
aI3908
aI192
aI1656
aI168
aI738
asS'heiberg-diag-0382'
p391
(lp392
S'heiberg_1886_v3_1_0238.jpg'
p393
aI2474
aI3908
aI108
aI1926
aI678
aI174
asS'heiberg-diag-0381'
p394
(lp395
S'heiberg_1886_v3_1_0232.jpg'
p396
aI2474
aI3908
aI180
aI2916
aI840
aI732
asS'heiberg-diag-0380'
p397
(lp398
S'heiberg_1886_v3_1_0230.jpg'
p399
aI2474
aI3908
aI120
aI2256
aI834
aI726
asS'heiberg-diag-0387'
p400
(lp401
S'heiberg_1886_v3_1_0248.jpg'
p402
aI2474
aI3914
aI132
aI2538
aI894
aI540
asS'heiberg-diag-0386'
p403
(lp404
S'heiberg_1886_v3_1_0248.jpg'
p405
aI2474
aI3914
aI144
aI336
aI168
aI708
asS'heiberg-diag-0385'
p406
(lp407
S'heiberg_1886_v3_1_0244.jpg'
p408
aI2474
aI3908
aI150
aI2880
aI804
aI192
asS'heiberg-diag-0429'
p409
(lp410
S'heiberg_1886_v3_1_0392.jpg'
p411
aI2474
aI3908
aI162
aI2034
aI894
aI390
asS'heiberg-diag-0303'
p412
(lp413
S'heiberg_1886_v3_1_0024.jpg'
p414
aI2474
aI3908
aI378
aI258
aI1668
aI384
asS'heiberg-diag-0302'
p415
(lp416
S'heiberg_1886_v3_1_0020.jpg'
p417
aI2474
aI3908
aI156
aI2514
aI1254
aI384
asS'heiberg-diag-0301'
p418
(lp419
S'heiberg_1886_v3_1_0018.jpg'
p420
aI2474
aI3908
aI144
aI2346
aI948
aI372
asS'heiberg-diag-0307'
p421
(lp422
S'heiberg_1886_v3_1_0036.jpg'
p423
aI2474
aI3908
aI150
aI1158
aI360
aI312
asS'heiberg-diag-0306'
p424
(lp425
S'heiberg_1886_v3_1_0032.jpg'
p426
aI2474
aI3908
aI96
aI1938
aI1122
aI390
asS'heiberg-diag-0305'
p427
(lp428
S'heiberg_1886_v3_1_0030.jpg'
p429
aI2474
aI3908
aI168
aI2814
aI918
aI384
asS'heiberg-diag-0304'
p430
(lp431
S'heiberg_1886_v3_1_0026.jpg'
p432
aI2474
aI3908
aI168
aI2388
aI708
aI516
asS'heiberg-diag-0309'
p433
(lp434
S'heiberg_1886_v3_1_0038.jpg'
p435
aI2474
aI3908
aI180
aI1938
aI798
aI480
asS'heiberg-diag-0308'
p436
(lp437
S'heiberg_1886_v3_1_0036.jpg'
p438
aI2474
aI3908
aI156
aI2316
aI348
aI276
as.