(lp0
I6
aI7
aI9
aI10
aI5
aI6
aI5
aI6
aI7
aI3
aI5
aI5
aI4
aI12
aI12
aI7
aI11
aI9
aI3
aI14
aI9
aI12
aI17
aI19
aI21
aI9
aI6
aI8
aI8
aI11
aI12
aI21
aI6
aI5
aI5
aI8
aI11
aI6
aI14
aI8
aI12
aI12
aI10
aI19
aI18
aI10
aI12
aI9
aI13
aI10
aI8
aI9
aI2
aI1
aI14
aI11
aI12
aI9
aI31
aI15
aI15
aI7
aI3
aI8
aI18
aI7
aI19
aI6
aI4
aI3
aI14
aI14
aI1
aI9
aI2
aI5
aI29
aI5
aI7
aI7
aI20
aI7
aI7
aI7
aI19
aI5
aI20
aI7
aI9
aI6
aI19
aI16
aI7
aI6
aI8
aI8
aI13
aI8
aI7
aI5
aI9
aI21
aI8
aI9
aI14
aI6
aI4
aI3
aI3
aI16
aI4
aI10
aI13
aI26
aI9
aI7
aI8
aI9
aI26
aI9
aI7
aI8
aI4
aI18
aI1
aI6
aI11
aI14
aI20
aI23
aI22
aI7
aI5
aI3
aI4
aI19
aI7
aI4
aI1
aI5
aI7
aI3
aI2
aI25
aI7
aI15
aI6
aI4
aI58
aI17
aI19
aI11
aI6
aI18
aI6
aI7
aI22
aI4
aI6
aI5
aI4
aI6
aI6
aI17
aI4
aI20
aI6
aI16
aI6
aI11
aI7
aI19
aI5
aI7
aI27
aI7
aI4
aI2
aI5
aI2
aI3
aI19
aI8
aI21
aI5
aI5
aI6
aI2
aI8
aI8
aI3
aI7
aI5
aI3
aI8
aI9
aI10
aI11
aI10
aI12
aI8
aI7
aI8
aI5
aI13
aI18
aI5
aI7
aI15
aI6
aI16
aI3
aI19
aI21
aI22
aI4
aI4
aI3
aI11
aI7
aI4
aI4
aI5
aI11
aI8
aI5
aI4
aI4
aI3
aI12
aI7
aI5
aI12
aI7
aI5
aI6
aI3
aI3
aI3
aI4
aI4
aI4
aI3
aI4
aI5
aI5
aI5
aI3
aI3
aI10
aI8
aI17
aI4
aI4
aI3
aI3
aI3
aI3
aI3
aI18
aI19
aI5
aI3
aI17
aI23
aI25
aI5
aI4
aI18
aI5
aI4
aI6
aI4
aI4
aI4
aI5
aI3
aI3
aI18
aI4
aI5
aI6
aI4
aI3
aI4
aI5
aI4
aI4
aI4
aI5
aI5
aI3
aI4
aI4
aI4
aI4
aI5
aI12
aI6
aI5
aI4
aI5
aI5
aI4
aI3
aI6
aI4
aI3
aI5
aI5
aI5
aI5
aI19
aI5
aI4
aI4
aI4
aI5
aI3
aI4
aI4
aI11
aI4
aI5
aI4
aI4
aI8
aI25
aI6
aI4
aI3
aI5
aI7
aI3
aI9
aI7
aI19
aI27
aI5
aI3
aI6
aI5
aI4
aI3
aI4
aI6
aI5
aI6
aI12
aI6
aI9
aI11
aI8
aI9
aI6
aI2
aI8
aI7
aI5
aI14
aI8
aI8
aI10
aI4
aI3
aI5
aI4
aI3
aI3
aI5
aI9
aI9
aI5
aI13
aI8
aI8
aI4
aI11
aI7
aI15
aI4
aI8
aI8
aI9
aI7
aI6
aI8
aI14
aI9
aI19
aI14
aI8
aI9
aI7
aI10
aI9
aI11
aI9
aI5
aI3
aI3
aI9
aI2
aI5
aI16
aI7
aI2
aI10
aI11
aI8
aI8
aI9
aI12
aI8
aI11
aI11
aI12
aI10
aI2
aI9
aI8
aI8
aI5
aI8
aI9
aI18
aI13
aI8
aI3
aI10
aI22
aI3
aI9
aI7
aI10
aI12
aI8
aI23
aI9
aI2
aI21
aI20
aI9
aI11
aI8
aI9
aI7
aI17
aI1
aI4
aI8
aI11
aI1
aI3
aI8
aI22
aI8
aI9
aI10
aI12
aI3
aI8
aI2
aI12
aI8
aI8
aI11
aI10
aI9
aI13
aI7
aI20
aI10
aI8
aI8
aI2
aI10
aI20
aI9
aI19
aI11
aI19
aI8
aI3
aI15
aI11
aI7
aI20
aI13
aI11
aI11
aI9
aI5
aI5
aI21
aI13
aI11
aI10
a.