(dp0
S'elemensdegeomet00blasgoog_0365'
p1
cnumpy.core.multiarray
scalar
p2
(cnumpy
dtype
p3
(S'f8'
p4
I0
I1
tp5
Rp6
(I3
S'<'
p7
NNNI-1
I-1
I0
tp8
bS'\xceC\xd0~\xebI2?'
p9
tp10
Rp11
sS'elemensdegeomet00blasgoog_0364'
p12
g2
(g6
S';\xa0id\x07\x071?'
p13
tp14
Rp15
sS'elemensdegeomet00blasgoog_0367'
p16
g2
(g6
S';\x83aO\xc2@\xec>'
p17
tp18
Rp19
sS'elemensdegeomet00blasgoog_0366'
p20
g2
(g6
S'\x8d\xa5\x9cP\xdc\x140?'
p21
tp22
Rp23
sS'elemensdegeomet00blasgoog_0361'
p24
g2
(g6
S'\x10-\xef\x93;L3?'
p25
tp26
Rp27
sS'elemensdegeomet00blasgoog_0360'
p28
g2
(g6
S';\xa0id\x07\x071?'
p29
tp30
Rp31
sS'elemensdegeomet00blasgoog_0363'
p32
g2
(g6
S':U~}\xc692?'
p33
tp34
Rp35
sS'elemensdegeomet00blasgoog_0362'
p36
g2
(g6
S'a\xe76\x99\xcf\x8c3?'
p37
tp38
Rp39
sS'elemensdegeomet00blasgoog_0369'
p40
g2
(g6
S';\xa0id\x07\x071?'
p41
tp42
Rp43
sS'elemensdegeomet00blasgoog_0368'
p44
g2
(g6
S't\xc7\x04\x10\xd29\xe9>'
p45
tp46
Rp47
sS'elemensdegeomet00blasgoog_0208'
p48
g2
(g6
S'\x16<\x94\x1a\xfa\xba)?'
p49
tp50
Rp51
sS'elemensdegeomet00blasgoog_0209'
p52
g2
(g6
S"d}\rgQ'1?"
p53
tp54
Rp55
sS'elemensdegeomet00blasgoog_0202'
p56
g2
(g6
S'\x08kk*\xb6|*?'
p57
tp58
Rp59
sS'elemensdegeomet00blasgoog_0203'
p60
g2
(g6
S'\x06=\x88X\xbau0?'
p61
tp62
Rp63
sS'elemensdegeomet00blasgoog_0200'
p64
g2
(g6
S'\xbeU\x9fybE.?'
p65
tp66
Rp67
sS'elemensdegeomet00blasgoog_0201'
p68
g2
(g6
S'\x0e\xe2\x03\xad\xfa~$?'
p69
tp70
Rp71
sS'elemensdegeomet00blasgoog_0206'
p72
g2
(g6
S"h\x8c\xb2\xed\x0f\x96'?"
p73
tp74
Rp75
sS'elemensdegeomet00blasgoog_0207'
p76
g2
(g6
S'S\x8f\xdca\xc8"-?'
p77
tp78
Rp79
sS'elemensdegeomet00blasgoog_0204'
p80
g2
(g6
S"\xd9a\x1a\x8ch'/?"
p81
tp82
Rp83
sS'elemensdegeomet00blasgoog_0205'
p84
g2
(g6
S'_3=\x9b\x0c\xc39?'
p85
tp86
Rp87
sS'elemensdegeomet00blasgoog_0101'
p88
g2
(g6
S'S\x8f\xdca\xc8"-?'
p89
tp90
Rp91
sS'elemensdegeomet00blasgoog_0100'
p92
g2
(g6
S'b`\x05R\x0ca,?'
p93
tp94
Rp95
sS'elemensdegeomet00blasgoog_0103'
p96
g2
(g6
S'\xf8\x99B:r>+?'
p97
tp98
Rp99
sS'elemensdegeomet00blasgoog_0102'
p100
g2
(g6
S'\xdd\xf7\xf0Y\xea\xc1,?'
p101
tp102
Rp103
sS'elemensdegeomet00blasgoog_0105'
p104
g2
(g6
S'\xddB\xdc@+\x8f+?'
p105
tp106
Rp107
sS'elemensdegeomet00blasgoog_0104'
p108
g2
(g6
S'!w\xe6<\xbc^+?'
p109
tp110
Rp111
sS'elemensdegeomet00blasgoog_0107'
p112
g2
(g6
S'\xbfU\x9fybE.?'
p113
tp114
Rp115
sS'elemensdegeomet00blasgoog_0106'
p116
g2
(g6
S'\x8d\xa5\x9cP\xdc\x140?'
p117
tp118
Rp119
sS'elemensdegeomet00blasgoog_0109'
p120
g2
(g6
S'*9j\xa6A.\xe4>'
p121
tp122
Rp123
sS'elemensdegeomet00blasgoog_0108'
p124
g2
(g6
S' I\x03k\xc0W1?'
p125
tp126
Rp127
sS'elemensdegeomet00blasgoog_0198'
p128
g2
(g6
S'\xb47Ul\xe5g1?'
p129
tp130
Rp131
sS'elemensdegeomet00blasgoog_0199'
p132
g2
(g6
S';\xa0id\x07\x071?'
p133
tp134
Rp135
sS'elemensdegeomet00blasgoog_0192'
p136
g2
(g6
S'\x16<\x94\x1a\xfa\xba)?'
p137
tp138
Rp139
sS'elemensdegeomet00blasgoog_0193'
p140
g2
(g6
S'\xcb\x90\xf1\x9b$\xe9/?'
p141
tp142
Rp143
sS'elemensdegeomet00blasgoog_0190'
p144
g2
(g6
S'9\n\x93\x96\x85l#?'
p145
tp146
Rp147
sS'elemensdegeomet00blasgoog_0191'
p148
g2
(g6
S'\xeb\xe5!_s\xc60?'
p149
tp150
Rp151
sS'elemensdegeomet00blasgoog_0196'
p152
g2
(g6
S'\xbeU\x9fybE.?'
p153
tp154
Rp155
sS'elemensdegeomet00blasgoog_0197'
p156
g2
(g6
S'\xeb\xe5!_s\xc60?'
p157
tp158
Rp159
sS'elemensdegeomet00blasgoog_0194'
p160
g2
(g6
S'l\x8b\x97\xd2\x13-0?'
p161
tp162
Rp163
sS'elemensdegeomet00blasgoog_0195'
p164
g2
(g6
S'\x8e\xa5\x9cP\xdc\x140?'
p165
tp166
Rp167
sS'elemensdegeomet00blasgoog_0291'
p168
g2
(g6
S'\xae\x0b\xa8\xd0\xe12\x06?'
p169
tp170
Rp171
sS'elemensdegeomet00blasgoog_0290'
p172
g2
(g6
S'3\xde\xe5\xfa\x817\x18?'
p173
tp174
Rp175
sS'elemensdegeomet00blasgoog_0293'
p176
g2
(g6
S'Q\xf9\x05\x94F\x88/?'
p177
tp178
Rp179
sS'elemensdegeomet00blasgoog_0292'
p180
g2
(g6
S'\x08kk*\xb6|*?'
p181
tp182
Rp183
sS'elemensdegeomet00blasgoog_0295'
p184
g2
(g6
S'\xdb\xc9\r\x88\xee\xba2?'
p185
tp186
Rp187
sS'elemensdegeomet00blasgoog_0294'
p188
g2
(g6
S'\xa6f,|\xa1)2?'
p189
tp190
Rp191
sS'elemensdegeomet00blasgoog_0297'
p192
g2
(g6
S'\xbfU\x9fybE.?'
p193
tp194
Rp195
sS'elemensdegeomet00blasgoog_0296'
p196
g2
(g6
S'j@\xac\xeb\xd2_1?'
p197
tp198
Rp199
sS'elemensdegeomet00blasgoog_0299'
p200
g2
(g6
S'\xe5"\x83\xda\xf1\x8d0?'
p201
tp202
Rp203
sS'elemensdegeomet00blasgoog_0298'
p204
g2
(g6
S'\xa2\xb3M\x99\xda\xc8/?'
p205
tp206
Rp207
sS'elemensdegeomet00blasgoog_0039'
p208
g2
(g6
S'1G\xf4\x11\x0443?'
p209
tp210
Rp211
sS'elemensdegeomet00blasgoog_0038'
p212
g2
(g6
S'\x97\x95\x03\x8c]\xeb2?'
p213
tp214
Rp215
sS'elemensdegeomet00blasgoog_0035'
p216
g2
(g6
S'E\x90\xd0\x9f\x88\xdd3?'
p217
tp218
Rp219
sS'elemensdegeomet00blasgoog_0034'
p220
g2
(g6
S'\xf8k_hv71?'
p221
tp222
Rp223
sS'elemensdegeomet00blasgoog_0037'
p224
g2
(g6
S'\x1e\xfe\x17\x84\x7f\x8a2?'
p225
tp226
Rp227
sS'elemensdegeomet00blasgoog_0036'
p228
g2
(g6
S'\xa5f,|\xa1)2?'
p229
tp230
Rp231
sS'elemensdegeomet00blasgoog_0031'
p232
g2
(g6
S'\xf7k_hv71?'
p233
tp234
Rp235
sS'elemensdegeomet00blasgoog_0030'
p236
g2
(g6
S'f_\xea6\x10\xf84?'
p237
tp238
Rp239
sS'elemensdegeomet00blasgoog_0033'
p240
g2
(g6
S' I\x03k\xc0W1?'
p241
tp242
Rp243
sS'elemensdegeomet00blasgoog_0032'
p244
g2
(g6
S'\xa6f,|\xa1)2?'
p245
tp246
Rp247
sS'elemensdegeomet00blasgoog_0083'
p248
g2
(g6
S"\r\x00'\xdd;\xae0?"
p249
tp250
Rp251
sS'elemensdegeomet00blasgoog_0398'
p252
g2
(g6
S'G\xdb\xbb\x86\xc9\xaa2?'
p253
tp254
Rp255
sS'elemensdegeomet00blasgoog_0399'
p256
g2
(g6
S'i\xf5\xc0\x04\x92\x922?'
p257
tp258
Rp259
sS'elemensdegeomet00blasgoog_0390'
p260
g2
(g6
S'=\xceL6\x03\x0e+?'
p261
tp262
Rp263
sS'elemensdegeomet00blasgoog_0391'
p264
g2
(g6
S'\xc2\xebuG\xe4\xdf+?'
p265
tp266
Rp267
sS'elemensdegeomet00blasgoog_0329'
p268
g2
(g6
S';\xa0id\x07\x071?'
p269
tp270
Rp271
sS'elemensdegeomet00blasgoog_0328'
p272
g2
(g6
S'\xcd&\xc8i\xa6\x83-?'
p273
tp274
Rp275
sS'elemensdegeomet00blasgoog_0321'
p276
g2
(g6
S"\xd9a\x1a\x8ch'/?"
p277
tp278
Rp279
sS'elemensdegeomet00blasgoog_0320'
p280
g2
(g6
S'\xc2\xebuG\xe4\xdf+?'
p281
tp282
Rp283
sS'elemensdegeomet00blasgoog_0323'
p284
g2
(g6
S'\x06=\x88X\xbau0?'
p285
tp286
Rp287
sS'elemensdegeomet00blasgoog_0322'
p288
g2
(g6
S'l\x8b\x97\xd2\x13-0?'
p289
tp290
Rp291
sS'elemensdegeomet00blasgoog_0325'
p292
g2
(g6
S'rN6W\x95e0?'
p293
tp294
Rp295
sS'elemensdegeomet00blasgoog_0324'
p296
g2
(g6
S'l\x8b\x97\xd2\x13-0?'
p297
tp298
Rp299
sS'elemensdegeomet00blasgoog_0327'
p300
g2
(g6
S'l\x8b\x97\xd2\x13-0?'
p301
tp302
Rp303
sS'elemensdegeomet00blasgoog_0326'
p304
g2
(g6
S'l\x8b\x97\xd2\x13-0?'
p305
tp306
Rp307
sS'elemensdegeomet00blasgoog_0255'
p308
g2
(g6
S'^\x7fC\x9dI\xf9/?'
p309
tp310
Rp311
sS'elemensdegeomet00blasgoog_0254'
p312
g2
(g6
S'\x0f-\xef\x93;L3?'
p313
tp314
Rp315
sS'elemensdegeomet00blasgoog_0257'
p316
g2
(g6
S'l"\x89\xbb\x910\xf5>'
p317
tp318
Rp319
sS'elemensdegeomet00blasgoog_0256'
p320
g2
(g6
S'\xcd&\xc8i\xa6\x83-?'
p321
tp322
Rp323
sS'elemensdegeomet00blasgoog_0251'
p324
g2
(g6
S'\xf7k_hv71?'
p325
tp326
Rp327
sS'elemensdegeomet00blasgoog_0250'
p328
g2
(g6
S'\xf8k_hv71?'
p329
tp330
Rp331
sS'elemensdegeomet00blasgoog_0253'
p332
g2
(g6
S'\xe9\x9a6x2\xf91?'
p333
tp334
Rp335
sS'elemensdegeomet00blasgoog_0252'
p336
g2
(g6
S'\xf8k_hv71?'
p337
tp338
Rp339
sS'elemensdegeomet00blasgoog_0394'
p340
g2
(g6
S'\xd3Ru\x05\xaa\xb8(?'
p341
tp342
Rp343
sS'elemensdegeomet00blasgoog_0395'
p344
g2
(g6
S'\xc65F\x13)D3?'
p345
tp346
Rp347
sS'elemensdegeomet00blasgoog_0396'
p348
g2
(g6
S'l\x8b\x97\xd2\x13-0?'
p349
tp350
Rp351
sS'elemensdegeomet00blasgoog_0397'
p352
g2
(g6
S'\x99\x0e\xd2D\x9a\xbf+?'
p353
tp354
Rp355
sS'elemensdegeomet00blasgoog_0259'
p356
g2
(g6
S'\xbc\xdc\xd0\xc0%q5?'
p357
tp358
Rp359
sS'elemensdegeomet00blasgoog_0258'
p360
g2
(g6
S't\xc7\x04\x10\xd29\xe9>'
p361
tp362
Rp363
sS'elemensdegeomet00blasgoog_0392'
p364
g2
(g6
S'\xbfU\x9fybE\x1e?'
p365
tp366
Rp367
sS'elemensdegeomet00blasgoog_0393'
p368
g2
(g6
S'\xeb\x13\x051o\xcd*?'
p369
tp370
Rp371
sS'elemensdegeomet00blasgoog_0178'
p372
g2
(g6
S'\xee\xa9\xdb\xfe\xf0g8?'
p373
tp374
Rp375
sS'elemensdegeomet00blasgoog_0179'
p376
g2
(g6
S'b`\x05R\x0ca,?'
p377
tp378
Rp379
sS'elemensdegeomet00blasgoog_0073'
p380
g2
(g6
S'\x06=\x88X\xbau0?'
p381
tp382
Rp383
sS'elemensdegeomet00blasgoog_0072'
p384
g2
(g6
S'q\x03KpT\x981?'
p385
tp386
Rp387
sS'elemensdegeomet00blasgoog_0075'
p388
g2
(g6
S'i\xf5\xc0\x04\x92\x922?'
p389
tp390
Rp391
sS'elemensdegeomet00blasgoog_0074'
p392
g2
(g6
S'q\x03KpT\x981?'
p393
tp394
Rp395
sS'elemensdegeomet00blasgoog_0077'
p396
g2
(g6
S'Q\xf9\x05\x94F\x88/?'
p397
tp398
Rp399
sS'elemensdegeomet00blasgoog_0076'
p400
g2
(g6
S'|l\x80d\x12C-?'
p401
tp402
Rp403
sS'elemensdegeomet00blasgoog_0170'
p404
g2
(g6
S'\x05\xf2\x9cqy\xa81?'
p405
tp406
Rp407
sS'elemensdegeomet00blasgoog_0171'
p408
g2
(g6
S'\x89\xc4\xda\x9b\x19\xad#?'
p409
tp410
Rp411
sS'elemensdegeomet00blasgoog_0172'
p412
g2
(g6
S'\xf8k_hv71?'
p413
tp414
Rp415
sS'elemensdegeomet00blasgoog_0173'
p416
g2
(g6
S'O\xe9E\xf2\x8b\xb01?'
p417
tp418
Rp419
sS'elemensdegeomet00blasgoog_0174'
p420
g2
(g6
S'\x8d\xa5\x9cP\xdc\x140?'
p421
tp422
Rp423
sS'elemensdegeomet00blasgoog_0175'
p424
g2
(g6
S"d}\rgQ'1?"
p425
tp426
Rp427
sS'elemensdegeomet00blasgoog_0176'
p428
g2
(g6
S'y\x11\xd5\xdb\x16\x9e0?'
p429
tp430
Rp431
sS'elemensdegeomet00blasgoog_0177'
p432
g2
(g6
S'\xceC\xd0~\xebI2?'
p433
tp434
Rp435
sS'elemensdegeomet00blasgoog_0071'
p436
g2
(g6
S'G\xdb\xbb\x86\xc9\xaa2?'
p437
tp438
Rp439
sS'elemensdegeomet00blasgoog_0231'
p440
g2
(g6
S"\r\x00'\xdd;\xae0?"
p441
tp442
Rp443
sS'elemensdegeomet00blasgoog_0230'
p444
g2
(g6
S'Q\xf9\x05\x94F\x88/?'
p445
tp446
Rp447
sS'elemensdegeomet00blasgoog_0350'
p448
g2
(g6
S'\xacu\xd1\x02`\x98(?'
p449
tp450
Rp451
sS'elemensdegeomet00blasgoog_0351'
p452
g2
(g6
S'\xceC\xd0~\xebI2?'
p453
tp454
Rp455
sS'elemensdegeomet00blasgoog_0352'
p456
g2
(g6
S';\xa0id\x07\x071?'
p457
tp458
Rp459
sS'elemensdegeomet00blasgoog_0353'
p460
g2
(g6
S'rN6W\x95e0?'
p461
tp462
Rp463
sS'elemensdegeomet00blasgoog_0354'
p464
g2
(g6
S'\xf9\x99B:r>+?'
p465
tp466
Rp467
sS'elemensdegeomet00blasgoog_0355'
p468
g2
(g6
S';\xa0id\x07\x071?'
p469
tp470
Rp471
sS'elemensdegeomet00blasgoog_0356'
p472
g2
(g6
S'\xa5f,|\xa1)2?'
p473
tp474
Rp475
sS'elemensdegeomet00blasgoog_0357'
p476
g2
(g6
S'%\xc1\xb6\x08\x01\xc32?'
p477
tp478
Rp479
sS'elemensdegeomet00blasgoog_0358'
p480
g2
(g6
S'G\xdb\xbb\x86\xc9\xaa2?'
p481
tp482
Rp483
sS'elemensdegeomet00blasgoog_0359'
p484
g2
(g6
S'rN6W\x95e0?'
p485
tp486
Rp487
sS'elemensdegeomet00blasgoog_0219'
p488
g2
(g6
S'\x19\x1dV\xcf\xbc"6?'
p489
tp490
Rp491
sS'elemensdegeomet00blasgoog_0218'
p492
g2
(g6
S'\x05\xf2\x9cqy\xa81?'
p493
tp494
Rp495
sS'elemensdegeomet00blasgoog_0211'
p496
g2
(g6
S'\xa2\x85j\xc7\xde\xc15?'
p497
tp498
Rp499
sS'elemensdegeomet00blasgoog_0210'
p500
g2
(g6
S'\x07kk*\xb6|*?'
p501
tp502
Rp503
sS'elemensdegeomet00blasgoog_0213'
p504
g2
(g6
S"d}\rgQ'1?"
p505
tp506
Rp507
sS'elemensdegeomet00blasgoog_0212'
p508
g2
(g6
S'\xdd\xf7\xf0Y\xea\xc1,?'
p509
tp510
Rp511
sS'elemensdegeomet00blasgoog_0215'
p512
g2
(g6
S'\x86.\x04\xce\x97\x12&?'
p513
tp514
Rp515
sS'elemensdegeomet00blasgoog_0214'
p516
g2
(g6
S'\x93\x1dP\xee\x1c\x801?'
p517
tp518
Rp519
sS'elemensdegeomet00blasgoog_0217'
p520
g2
(g6
S';\xa0id\x07\x071?'
p521
tp522
Rp523
sS'elemensdegeomet00blasgoog_0216'
p524
g2
(g6
S'\xa6f,|\xa1)\x02?'
p525
tp526
Rp527
sS'elemensdegeomet00blasgoog_0331'
p528
g2
(g6
S'\xda\xac\x05s\xa9\xf4-?'
p529
tp530
Rp531
sS'elemensdegeomet00blasgoog_0079'
p532
g2
(g6
S'\x05\xf2\x9cqy\xa81?'
p533
tp534
Rp535
sS'elemensdegeomet00blasgoog_0078'
p536
g2
(g6
S';\xa0id\x07\x071?'
p537
tp538
Rp539
sS'elemensdegeomet00blasgoog_0138'
p540
g2
(g6
S'\xc3\x08~\\)\xa60?'
p541
tp542
Rp543
sS'elemensdegeomet00blasgoog_0139'
p544
g2
(g6
S"\xfb\x98'\x1fv\xd53?"
p545
tp546
Rp547
sS'elemensdegeomet00blasgoog_0134'
p548
g2
(g6
S'%\xc1\xb6\x08\x01\xc32?'
p549
tp550
Rp551
sS'elemensdegeomet00blasgoog_0135'
p552
g2
(g6
S"\xfb\x98'\x1fv\xd53?"
p553
tp554
Rp555
sS'elemensdegeomet00blasgoog_0136'
p556
g2
(g6
S'"\x94\xeeQ\x01%0?'
p557
tp558
Rp559
sS'elemensdegeomet00blasgoog_0137'
p560
g2
(g6
S'l"\x89\xbb\x9105?'
p561
tp562
Rp563
sS'elemensdegeomet00blasgoog_0130'
p564
g2
(g6
S'l\x8b\x97\xd2\x13-0?'
p565
tp566
Rp567
sS'elemensdegeomet00blasgoog_0131'
p568
g2
(g6
S'\x0b\xb5;\xf6\xfa\xe01?'
p569
tp570
Rp571
sS'elemensdegeomet00blasgoog_0132'
p572
g2
(g6
S'\xf7k_hv71?'
p573
tp574
Rp575
sS'elemensdegeomet00blasgoog_0133'
p576
g2
(g6
S'\xa2\xb3M\x99\xda\xc8/?'
p577
tp578
Rp579
sS'elemensdegeomet00blasgoog_0189'
p580
g2
(g6
S'2\xde\xe5\xfa\x817(?'
p581
tp582
Rp583
sS'elemensdegeomet00blasgoog_0188'
p584
g2
(g6
S"\xe1#\x9e\xf5\xed\xf6'?"
p585
tp586
Rp587
sS'elemensdegeomet00blasgoog_0181'
p588
g2
(g6
S'\xf8\x99B:r>\xfb>'
p589
tp590
Rp591
sS'elemensdegeomet00blasgoog_0180'
p592
g2
(g6
S't\xc7\x04\x10\xd29\xe9>'
p593
tp594
Rp595
sS'elemensdegeomet00blasgoog_0183'
p596
g2
(g6
S'z\xf3\xb1\xab\xd5n4?'
p597
tp598
Rp599
sS'elemensdegeomet00blasgoog_0182'
p600
g2
(g6
S't\xc7\x04\x10\xd29\xe9>'
p601
tp602
Rp603
sS'elemensdegeomet00blasgoog_0185'
p604
g2
(g6
S'SD\xf1z\x87U.?'
p605
tp606
Rp607
sS'elemensdegeomet00blasgoog_0184'
p608
g2
(g6
S"\xe2#\x9e\xf5\xed\xf6'?"
p609
tp610
Rp611
sS'elemensdegeomet00blasgoog_0187'
p612
g2
(g6
S"\xe2#\x9e\xf5\xed\xf6'?"
p613
tp614
Rp615
sS'elemensdegeomet00blasgoog_0186'
p616
g2
(g6
S'\xc9\x90\xf1\x9b$\xe9/?'
p617
tp618
Rp619
sS'elemensdegeomet00blasgoog_0070'
p620
g2
(g6
S'\\o\x83\xfb\x8e!2?'
p621
tp622
Rp623
sS'elemensdegeomet00blasgoog_0314'
p624
g2
(g6
S'\x07kk*\xb6|*?'
p625
tp626
Rp627
sS'elemensdegeomet00blasgoog_0315'
p628
g2
(g6
S'j@\xac\xeb\xd2_1?'
p629
tp630
Rp631
sS'elemensdegeomet00blasgoog_0316'
p632
g2
(g6
S'l\x8b\x97\xd2\x13-0?'
p633
tp634
Rp635
sS'elemensdegeomet00blasgoog_0317'
p636
g2
(g6
S'.\xfd#F\xbf\xcf+?'
p637
tp638
Rp639
sS'elemensdegeomet00blasgoog_0310'
p640
g2
(g6
S'E\x90\xd0\x9f\x88\xdd3?'
p641
tp642
Rp643
sS'elemensdegeomet00blasgoog_0311'
p644
g2
(g6
S'\xe6\x04`\xaa\xb0^4?'
p645
tp646
Rp647
sS'elemensdegeomet00blasgoog_0312'
p648
g2
(g6
S'\xd3\xbb\x83\x1c,\xb53?'
p649
tp650
Rp651
sS'elemensdegeomet00blasgoog_0313'
p652
g2
(g6
S'\xbfU\x9fybE.?'
p653
tp654
Rp655
sS'elemensdegeomet00blasgoog_0318'
p656
g2
(g6
S';\xa0id\x07\x071?'
p657
tp658
Rp659
sS'elemensdegeomet00blasgoog_0319'
p660
g2
(g6
S'\xdb\xc9\r\x88\xee\xba2?'
p661
tp662
Rp663
sS'elemensdegeomet00blasgoog_0260'
p664
g2
(g6
S'\x97\x95\x03\x8c]\xeb2?'
p665
tp666
Rp667
sS'elemensdegeomet00blasgoog_0261'
p668
g2
(g6
S'N\x807\xdb\t\xb4\xf6>'
p669
tp670
Rp671
sS'elemensdegeomet00blasgoog_0262'
p672
g2
(g6
S'l\x8b\x97\xd2\x13-0?'
p673
tp674
Rp675
sS'elemensdegeomet00blasgoog_0263'
p676
g2
(g6
S'~\x89\x88yW\t\x12?'
p677
tp678
Rp679
sS'elemensdegeomet00blasgoog_0264'
p680
g2
(g6
S'\xc2\x08~\\)\xa60?'
p681
tp682
Rp683
sS'elemensdegeomet00blasgoog_0265'
p684
g2
(g6
S' I\x03k\xc0W1?'
p685
tp686
Rp687
sS'elemensdegeomet00blasgoog_0266'
p688
g2
(g6
S'\xba\xfa\xf3\xf0f\xa01?'
p689
tp690
Rp691
sS'elemensdegeomet00blasgoog_0267'
p692
g2
(g6
S'\xe9\x9a6x2\xf91?'
p693
tp694
Rp695
sS'elemensdegeomet00blasgoog_0268'
p696
g2
(g6
S'1\x93\xfa\x13Aj)?'
p697
tp698
Rp699
sS'elemensdegeomet00blasgoog_0269'
p700
g2
(g6
S'\\o\x83\xfb\x8e!2?'
p701
tp702
Rp703
sS'elemensdegeomet00blasgoog_0239'
p704
g2
(g6
S'\xa0:\x7f\xe0\x9d\xf46?'
p705
tp706
Rp707
sS'elemensdegeomet00blasgoog_0380'
p708
g2
(g6
S"c}\rgQ'1?"
p709
tp710
Rp711
sS'elemensdegeomet00blasgoog_0387'
p712
g2
(g6
S'l\x8b\x97\xd2\x13-0?'
p713
tp714
Rp715
sS'elemensdegeomet00blasgoog_0386'
p716
g2
(g6
S'{!\x95}\xd1u.?'
p717
tp718
Rp719
sS'elemensdegeomet00blasgoog_0385'
p720
g2
(g6
S'O\xe9E\xf2\x8b\xb01?'
p721
tp722
Rp723
sS'elemensdegeomet00blasgoog_0384'
p724
g2
(g6
S'\xeb\xe5!_s\xc6 ?'
p725
tp726
Rp727
sS'elemensdegeomet00blasgoog_0167'
p728
g2
(g6
S"d}\rgQ'1?"
p729
tp730
Rp731
sS'elemensdegeomet00blasgoog_0166'
p732
g2
(g6
S',\xcf@t\xc3\xc81?'
p733
tp734
Rp735
sS'elemensdegeomet00blasgoog_0165'
p736
g2
(g6
S'9\n\x93\x96\x85l3?'
p737
tp738
Rp739
sS'elemensdegeomet00blasgoog_0164'
p740
g2
(g6
S'E\x90\xd0\x9f\x88\xdd3?'
p741
tp742
Rp743
sS'elemensdegeomet00blasgoog_0163'
p744
g2
(g6
S'\xf8k_hv71?'
p745
tp746
Rp747
sS'elemensdegeomet00blasgoog_0162'
p748
g2
(g6
S'O\xe9E\xf2\x8b\xb01?'
p749
tp750
Rp751
sS'elemensdegeomet00blasgoog_0161'
p752
g2
(g6
S'\xf8\x02QQ\xf4:6?'
p753
tp754
Rp755
sS'elemensdegeomet00blasgoog_0160'
p756
g2
(g6
S't\xc7\x04\x10\xd29\xe9>'
p757
tp758
Rp759
sS'elemensdegeomet00blasgoog_0169'
p760
g2
(g6
S'\xf9\x99B:r>+?'
p761
tp762
Rp763
sS'elemensdegeomet00blasgoog_0168'
p764
g2
(g6
S' I\x03k\xc0W1?'
p765
tp766
Rp767
sS'elemensdegeomet00blasgoog_0048'
p768
g2
(g6
S';\xa0id\x07\x071?'
p769
tp770
Rp771
sS'elemensdegeomet00blasgoog_0049'
p772
g2
(g6
S'\xe4"\x83\xda\xf1\x8d0?'
p773
tp774
Rp775
sS'elemensdegeomet00blasgoog_0044'
p776
g2
(g6
S'\x0f-\xef\x93;L3?'
p777
tp778
Rp779
sS'elemensdegeomet00blasgoog_0045'
p780
g2
(g6
S'\xc3\x08~\\)\xa60?'
p781
tp782
Rp783
sS'elemensdegeomet00blasgoog_0046'
p784
g2
(g6
S'mPl\x8d\x8d7/?'
p785
tp786
Rp787
sS'elemensdegeomet00blasgoog_0047'
p788
g2
(g6
S'\xef\x12\xea\x15sd3?'
p789
tp790
Rp791
sS'elemensdegeomet00blasgoog_0040'
p792
g2
(g6
S'\xae\x0b\xa8\xd0\xe126?'
p793
tp794
Rp795
sS'elemensdegeomet00blasgoog_0041'
p796
g2
(g6
S'<\xa0id\x07\x071?'
p797
tp798
Rp799
sS'elemensdegeomet00blasgoog_0042'
p800
g2
(g6
S'\xe4"\x83\xda\xf1\x8d0?'
p801
tp802
Rp803
sS'elemensdegeomet00blasgoog_0043'
p804
g2
(g6
S'y\x11\xd5\xdb\x16\x9e0?'
p805
tp806
Rp807
sS'elemensdegeomet00blasgoog_0224'
p808
g2
(g6
S'\x06=\x88X\xbau0?'
p809
tp810
Rp811
sS'elemensdegeomet00blasgoog_0225'
p812
g2
(g6
S'+\x84U\x8d\x82\xfb2?'
p813
tp814
Rp815
sS'elemensdegeomet00blasgoog_0226'
p816
g2
(g6
S'E\x90\xd0\x9f\x88\xdd3?'
p817
tp818
Rp819
sS'elemensdegeomet00blasgoog_0227'
p820
g2
(g6
S'\xe9\x9a6x2\xf91?'
p821
tp822
Rp823
sS'elemensdegeomet00blasgoog_0220'
p824
g2
(g6
S'\x06=\x88X\xbau0?'
p825
tp826
Rp827
sS'elemensdegeomet00blasgoog_0221'
p828
g2
(g6
S'\xf8k_hv71?'
p829
tp830
Rp831
sS'elemensdegeomet00blasgoog_0222'
p832
g2
(g6
S' I\x03k\xc0W1?'
p833
tp834
Rp835
sS'elemensdegeomet00blasgoog_0223'
p836
g2
(g6
S'A\x18\x1d\x02Hr2?'
p837
tp838
Rp839
sS'elemensdegeomet00blasgoog_0347'
p840
g2
(g6
S'\x97\x95\x03\x8c]\xeb2?'
p841
tp842
Rp843
sS'elemensdegeomet00blasgoog_0346'
p844
g2
(g6
S'\x0f-\xef\x93;L3?'
p845
tp846
Rp847
sS'elemensdegeomet00blasgoog_0345'
p848
g2
(g6
S'\xe8OK\x91\xf1+3?'
p849
tp850
Rp851
sS'elemensdegeomet00blasgoog_0344'
p852
g2
(g6
S'\x97\x95\x03\x8c]\xeb2?'
p853
tp854
Rp855
sS'elemensdegeomet00blasgoog_0343'
p856
g2
(g6
S'\xbc\xdc\xd0\xc0%q5?'
p857
tp858
Rp859
sS'elemensdegeomet00blasgoog_0342'
p860
g2
(g6
S'\x0b\xb5;\xf6\xfa\xe01?'
p861
tp862
Rp863
sS'elemensdegeomet00blasgoog_0341'
p864
g2
(g6
S'\x0f\x10\xe7~\xf6\x85.?'
p865
tp866
Rp867
sS'elemensdegeomet00blasgoog_0340'
p868
g2
(g6
S'?d#\x04\x85\xa8(?'
p869
tp870
Rp871
sS'elemensdegeomet00blasgoog_0349'
p872
g2
(g6
S':U~}\xc692?'
p873
tp874
Rp875
sS'elemensdegeomet00blasgoog_0348'
p876
g2
(g6
S'\xe9\x9a6x2\xf91?'
p877
tp878
Rp879
sS'elemensdegeomet00blasgoog_0080'
p880
g2
(g6
S'\x99\x0e\xd2D\x9a\xbf+?'
p881
tp882
Rp883
sS'elemensdegeomet00blasgoog_0081'
p884
g2
(g6
S'y\x11\xd5\xdb\x16\x9e0?'
p885
tp886
Rp887
sS'elemensdegeomet00blasgoog_0129'
p888
g2
(g6
S'\xe5"\x83\xda\xf1\x8d0?'
p889
tp890
Rp891
sS'elemensdegeomet00blasgoog_0128'
p892
g2
(g6
S'l"\x89\xbb\x9105?'
p893
tp894
Rp895
sS'elemensdegeomet00blasgoog_0084'
p896
g2
(g6
S'O\xe9E\xf2\x8b\xb01?'
p897
tp898
Rp899
sS'elemensdegeomet00blasgoog_0085'
p900
g2
(g6
S'P\x807\xdb\t\xb4\xf6>'
p901
tp902
Rp903
sS'elemensdegeomet00blasgoog_0086'
p904
g2
(g6
S'*9j\xa6A.\xf4>'
p905
tp906
Rp907
sS'elemensdegeomet00blasgoog_0087'
p908
g2
(g6
S'\xeb\xe5!_s\xc60?'
p909
tp910
Rp911
sS'elemensdegeomet00blasgoog_0123'
p912
g2
(g6
S'\x97\x95\x03\x8c]\xeb2?'
p913
tp914
Rp915
sS'elemensdegeomet00blasgoog_0122'
p916
g2
(g6
S'\xdd\xf7\xf0Y\xea\xc1,?'
p917
tp918
Rp919
sS'elemensdegeomet00blasgoog_0121'
p920
g2
(g6
S'\xe6\x04`\xaa\xb0^4?'
p921
tp922
Rp923
sS'elemensdegeomet00blasgoog_0120'
p924
g2
(g6
S'\r\x97\x18\xc6\xb9\xb15?'
p925
tp926
Rp927
sS'elemensdegeomet00blasgoog_0127'
p928
g2
(g6
S'rN6W\x95e0?'
p929
tp930
Rp931
sS'elemensdegeomet00blasgoog_0126'
p932
g2
(g6
S'\xf8k_hv71?'
p933
tp934
Rp935
sS'elemensdegeomet00blasgoog_0125'
p936
g2
(g6
S'\xf8k_hv71?'
p937
tp938
Rp939
sS'elemensdegeomet00blasgoog_0124'
p940
g2
(g6
S'7\xed\x8a\x81@\xa6.?'
p941
tp942
Rp943
sS'elemensdegeomet00blasgoog_0228'
p944
g2
(g6
S',\xb28_~\x02-?'
p945
tp946
Rp947
sS'elemensdegeomet00blasgoog_0229'
p948
g2
(g6
S'\x8d\xa5\x9cP\xdc\x140?'
p949
tp950
Rp951
sS'elemensdegeomet00blasgoog_0068'
p952
g2
(g6
S'\xa2\xb3M\x99\xda\xc8/?'
p953
tp954
Rp955
sS'elemensdegeomet00blasgoog_0017'
p956
g2
(g6
S'\xeb\xe5!_s\xc60?'
p957
tp958
Rp959
sS'elemensdegeomet00blasgoog_0069'
p960
g2
(g6
S'j@\xac\xeb\xd2_1?'
p961
tp962
Rp963
sS'elemensdegeomet00blasgoog_0158'
p964
g2
(g6
S'\\o\x83\xfb\x8e!2?'
p965
tp966
Rp967
sS'elemensdegeomet00blasgoog_0159'
p968
g2
(g6
S'"\x94\xeeQ\x01%\x00?'
p969
tp970
Rp971
sS'elemensdegeomet00blasgoog_0156'
p972
g2
(g6
S'mPl\x8d\x8d7/?'
p973
tp974
Rp975
sS'elemensdegeomet00blasgoog_0157'
p976
g2
(g6
S'\xa2\xb3M\x99\xda\xc8/?'
p977
tp978
Rp979
sS'elemensdegeomet00blasgoog_0154'
p980
g2
(g6
S'\xc2\x08~\\)\xa60?'
p981
tp982
Rp983
sS'elemensdegeomet00blasgoog_0155'
p984
g2
(g6
S'\xa5f,|\xa1)2?'
p985
tp986
Rp987
sS'elemensdegeomet00blasgoog_0152'
p988
g2
(g6
S'i\xf5\xc0\x04\x92\x922?'
p989
tp990
Rp991
sS'elemensdegeomet00blasgoog_0153'
p992
g2
(g6
S'f_\xea6\x10\xf84?'
p993
tp994
Rp995
sS'elemensdegeomet00blasgoog_0019'
p996
g2
(g6
S'A\xaf\x0e\xeb\xc5u7?'
p997
tp998
Rp999
sS'elemensdegeomet00blasgoog_0018'
p1000
g2
(g6
S'p\x03KpT\x981?'
p1001
tp1002
Rp1003
sS'elemensdegeomet00blasgoog_0389'
p1004
g2
(g6
S'l"\x89\xbb\x910%?'
p1005
tp1006
Rp1007
sS'elemensdegeomet00blasgoog_0066'
p1008
g2
(g6
S"d}\rgQ'1?"
p1009
tp1010
Rp1011
sS'elemensdegeomet00blasgoog_0303'
p1012
g2
(g6
S'\x8d\xa5\x9cP\xdc\x140?'
p1013
tp1014
Rp1015
sS'elemensdegeomet00blasgoog_0302'
p1016
g2
(g6
S'\xc3\x08~\\)\xa60?'
p1017
tp1018
Rp1019
sS'elemensdegeomet00blasgoog_0301'
p1020
g2
(g6
S'j@\xac\xeb\xd2_1?'
p1021
tp1022
Rp1023
sS'elemensdegeomet00blasgoog_0300'
p1024
g2
(g6
S'\xe4"\x83\xda\xf1\x8d0?'
p1025
tp1026
Rp1027
sS'elemensdegeomet00blasgoog_0307'
p1028
g2
(g6
S'Q\xcb"\xc2J\x815?'
p1029
tp1030
Rp1031
sS'elemensdegeomet00blasgoog_0306'
p1032
g2
(g6
S't\xc7\x04\x10\xd29\xe9>'
p1033
tp1034
Rp1035
sS'elemensdegeomet00blasgoog_0305'
p1036
g2
(g6
S'l"\x89\xbb\x910\xf5>'
p1037
tp1038
Rp1039
sS'elemensdegeomet00blasgoog_0304'
p1040
g2
(g6
S'3\xde\xe5\xfa\x817\xd8>'
p1041
tp1042
Rp1043
sS'elemensdegeomet00blasgoog_0309'
p1044
g2
(g6
S'j@\xac\xeb\xd2_1?'
p1045
tp1046
Rp1047
sS'elemensdegeomet00blasgoog_0308'
p1048
g2
(g6
S'i\xf5\xc0\x04\x92\x922?'
p1049
tp1050
Rp1051
sS'elemensdegeomet00blasgoog_0403'
p1052
g2
(g6
S"c}\rgQ'\x01?"
p1053
tp1054
Rp1055
sS'elemensdegeomet00blasgoog_0376'
p1056
g2
(g6
S'"\x94\xeeQ\x01%0?'
p1057
tp1058
Rp1059
sS'elemensdegeomet00blasgoog_0377'
p1060
g2
(g6
S'\x0f\x10\xe7~\xf6\x85.?'
p1061
tp1062
Rp1063
sS'elemensdegeomet00blasgoog_0374'
p1064
g2
(g6
S'\xa6f,|\xa1)2?'
p1065
tp1066
Rp1067
sS'elemensdegeomet00blasgoog_0375'
p1068
g2
(g6
S'\x05\xf2\x9cqy\xa81?'
p1069
tp1070
Rp1071
sS'elemensdegeomet00blasgoog_0372'
p1072
g2
(g6
S'n\x9bWt\xce\x04.?'
p1073
tp1074
Rp1075
sS'elemensdegeomet00blasgoog_0373'
p1076
g2
(g6
S'|l\x80d\x12C-?'
p1077
tp1078
Rp1079
sS'elemensdegeomet00blasgoog_0370'
p1080
g2
(g6
S'\xcd&\xc8i\xa6\x83-?'
p1081
tp1082
Rp1083
sS'elemensdegeomet00blasgoog_0371'
p1084
g2
(g6
S'\xe9\x9a6x2\xf91?'
p1085
tp1086
Rp1087
sS'elemensdegeomet00blasgoog_0378'
p1088
g2
(g6
S'\xf3\x8a\x9d\xb3\xb3\xcf4?'
p1089
tp1090
Rp1091
sS'elemensdegeomet00blasgoog_0379'
p1092
g2
(g6
S'{!\x95}\xd1u.?'
p1093
tp1094
Rp1095
sS'elemensdegeomet00blasgoog_0279'
p1096
g2
(g6
S'O\xe9E\xf2\x8b\xb01?'
p1097
tp1098
Rp1099
sS'elemensdegeomet00blasgoog_0278'
p1100
g2
(g6
S'\x99\xe0\xeer\x9e\xb81?'
p1101
tp1102
Rp1103
sS'elemensdegeomet00blasgoog_0277'
p1104
g2
(g6
S'\x97\x95\x03\x8c]\xeb2?'
p1105
tp1106
Rp1107
sS'elemensdegeomet00blasgoog_0276'
p1108
g2
(g6
S'\xe5\xb9t\xc3o\x91%?'
p1109
tp1110
Rp1111
sS'elemensdegeomet00blasgoog_0275'
p1112
g2
(g6
S'\xf8\x99B:r>+?'
p1113
tp1114
Rp1115
sS'elemensdegeomet00blasgoog_0274'
p1116
g2
(g6
S'\xae\x0b\xa8\xd0\xe12\x06?'
p1117
tp1118
Rp1119
sS'elemensdegeomet00blasgoog_0273'
p1120
g2
(g6
S'\xcd&\xc8i\xa6\x83\r?'
p1121
tp1122
Rp1123
sS'elemensdegeomet00blasgoog_0272'
p1124
g2
(g6
S"\r\x00'\xdd;\xae0?"
p1125
tp1126
Rp1127
sS'elemensdegeomet00blasgoog_0271'
p1128
g2
(g6
S'\xeb\xe5!_s\xc6 ?'
p1129
tp1130
Rp1131
sS'elemensdegeomet00blasgoog_0270'
p1132
g2
(g6
S'\\o\x83\xfb\x8e!2?'
p1133
tp1134
Rp1135
sS'elemensdegeomet00blasgoog_0402'
p1136
g2
(g6
S';\xa0id\x07\x071?'
p1137
tp1138
Rp1139
sS'elemensdegeomet00blasgoog_0112'
p1140
g2
(g6
S'\x0f\x10\xe7~\xf6\x85\x0e?'
p1141
tp1142
Rp1143
sS'elemensdegeomet00blasgoog_0113'
p1144
g2
(g6
S'\x06=\x88X\xbau0?'
p1145
tp1146
Rp1147
sS'elemensdegeomet00blasgoog_0110'
p1148
g2
(g6
S't\xc7\x04\x10\xd29\xe9>'
p1149
tp1150
Rp1151
sS'elemensdegeomet00blasgoog_0111'
p1152
g2
(g6
S'\xdb\xc9\r\x88\xee\xba2?'
p1153
tp1154
Rp1155
sS'elemensdegeomet00blasgoog_0116'
p1156
g2
(g6
S'\xcd&\xc8i\xa6\x83-?'
p1157
tp1158
Rp1159
sS'elemensdegeomet00blasgoog_0117'
p1160
g2
(g6
S'\xaa\xde\xdf\x19\xe2\x943?'
p1161
tp1162
Rp1163
sS'elemensdegeomet00blasgoog_0114'
p1164
g2
(g6
S"\xd9a\x1a\x8ch'/?"
p1165
tp1166
Rp1167
sS'elemensdegeomet00blasgoog_0115'
p1168
g2
(g6
S'i\xf5\xc0\x04\x92\x922?'
p1169
tp1170
Rp1171
sS'elemensdegeomet00blasgoog_0118'
p1172
g2
(g6
S'\xc3\x08~\\)\xa60?'
p1173
tp1174
Rp1175
sS'elemensdegeomet00blasgoog_0119'
p1176
g2
(g6
S'\x06=\x88X\xbau0?'
p1177
tp1178
Rp1179
sS'elemensdegeomet00blasgoog_0059'
p1180
g2
(g6
S'\xcd&\xc8i\xa6\x83-?'
p1181
tp1182
Rp1183
sS'elemensdegeomet00blasgoog_0058'
p1184
g2
(g6
S'\xa6f,|\xa1)2?'
p1185
tp1186
Rp1187
sS'elemensdegeomet00blasgoog_0053'
p1188
g2
(g6
S'5\xdd\xca\xdf\x85\xce0?'
p1189
tp1190
Rp1191
sS'elemensdegeomet00blasgoog_0052'
p1192
g2
(g6
S'\xe4"\x83\xda\xf1\x8d0?'
p1193
tp1194
Rp1195
sS'elemensdegeomet00blasgoog_0051'
p1196
g2
(g6
S'\xa5f,|\xa1)2?'
p1197
tp1198
Rp1199
sS'elemensdegeomet00blasgoog_0050'
p1200
g2
(g6
S'\xfe.\xfe\xec\xf7o1?'
p1201
tp1202
Rp1203
sS'elemensdegeomet00blasgoog_0057'
p1204
g2
(g6
S'Q\xf9\x05\x94F\x88/?'
p1205
tp1206
Rp1207
sS'elemensdegeomet00blasgoog_0056'
p1208
g2
(g6
S'\x16<\x94\x1a\xfa\xba)?'
p1209
tp1210
Rp1211
sS'elemensdegeomet00blasgoog_0055'
p1212
g2
(g6
S';\xa0id\x07\x071?'
p1213
tp1214
Rp1215
sS'elemensdegeomet00blasgoog_0054'
p1216
g2
(g6
S'q\x03KpT\x981?'
p1217
tp1218
Rp1219
sS'elemensdegeomet00blasgoog_0082'
p1220
g2
(g6
S'y\x11\xd5\xdb\x16\x9e0?'
p1221
tp1222
Rp1223
sS'elemensdegeomet00blasgoog_0282'
p1224
g2
(g6
S'~\x89\x88yW\t2?'
p1225
tp1226
Rp1227
sS'elemensdegeomet00blasgoog_0283'
p1228
g2
(g6
S'\xdb\xac\x05s\xa9\xf4-?'
p1229
tp1230
Rp1231
sS'elemensdegeomet00blasgoog_0280'
p1232
g2
(g6
S'I\xbd\x98V\x88{6?'
p1233
tp1234
Rp1235
sS'elemensdegeomet00blasgoog_0281'
p1236
g2
(g6
S'\xeb\xe5!_s\xc60?'
p1237
tp1238
Rp1239
sS'elemensdegeomet00blasgoog_0286'
p1240
g2
(g6
S'\xda\xac\x05s\xa9\xf4-?'
p1241
tp1242
Rp1243
sS'elemensdegeomet00blasgoog_0287'
p1244
g2
(g6
S'\xb57Ul\xe5g1?'
p1245
tp1246
Rp1247
sS'elemensdegeomet00blasgoog_0284'
p1248
g2
(g6
S'\\o\x83\xfb\x8e!2?'
p1249
tp1250
Rp1251
sS'elemensdegeomet00blasgoog_0285'
p1252
g2
(g6
S'"\x94\xeeQ\x01%0?'
p1253
tp1254
Rp1255
sS'elemensdegeomet00blasgoog_0288'
p1256
g2
(g6
S'7\xed\x8a\x81@\xa6.?'
p1257
tp1258
Rp1259
sS'elemensdegeomet00blasgoog_0289'
p1260
g2
(g6
S'\x97\x95\x03\x8c]\xeb2?'
p1261
tp1262
Rp1263
sS'elemensdegeomet00blasgoog_0028'
p1264
g2
(g6
S'\xf0\xf4\xc6\xe515\x17?'
p1265
tp1266
Rp1267
sS'elemensdegeomet00blasgoog_0029'
p1268
g2
(g6
S'\xcc\xad\xf9\xb0i\xaf4?'
p1269
tp1270
Rp1271
sS'elemensdegeomet00blasgoog_0026'
p1272
g2
(g6
S'\x06=\x88X\xbau0?'
p1273
tp1274
Rp1275
sS'elemensdegeomet00blasgoog_0027'
p1276
g2
(g6
S'\xe9\x9a6x2\xf91?'
p1277
tp1278
Rp1279
sS'elemensdegeomet00blasgoog_0024'
p1280
g2
(g6
S'\xa2\xb3M\x99\xda\xc8\xff>'
p1281
tp1282
Rp1283
sS'elemensdegeomet00blasgoog_0025'
p1284
g2
(g6
S'l"\x89\xbb\x9105?'
p1285
tp1286
Rp1287
sS'elemensdegeomet00blasgoog_0022'
p1288
g2
(g6
S'\x0f\xe2\x03\xad\xfa~4?'
p1289
tp1290
Rp1291
sS'elemensdegeomet00blasgoog_0023'
p1292
g2
(g6
S'\xe4"\x83\xda\xf1\x8d0?'
p1293
tp1294
Rp1295
sS'elemensdegeomet00blasgoog_0020'
p1296
g2
(g6
S'i\xf5\xc0\x04\x92\x922?'
p1297
tp1298
Rp1299
sS'elemensdegeomet00blasgoog_0021'
p1300
g2
(g6
S'\xe8OK\x91\xf1+3?'
p1301
tp1302
Rp1303
sS'elemensdegeomet00blasgoog_0088'
p1304
g2
(g6
S'\xb47Ul\xe5g1?'
p1305
tp1306
Rp1307
sS'elemensdegeomet00blasgoog_0388'
p1308
g2
(g6
S';\xa0id\x07\x071?'
p1309
tp1310
Rp1311
sS'elemensdegeomet00blasgoog_0089'
p1312
g2
(g6
S'\xe9\x9a6x2\xf91?'
p1313
tp1314
Rp1315
sS'elemensdegeomet00blasgoog_0383'
p1316
g2
(g6
S'.\xfd#F\xbf\xcf+?'
p1317
tp1318
Rp1319
sS'elemensdegeomet00blasgoog_0382'
p1320
g2
(g6
S'b`\x05R\x0ca,?'
p1321
tp1322
Rp1323
sS'elemensdegeomet00blasgoog_0381'
p1324
g2
(g6
S'\x05\xf2\x9cqy\xa81?'
p1325
tp1326
Rp1327
sS'elemensdegeomet00blasgoog_0233'
p1328
g2
(g6
S'"\x94\xeeQ\x01%\x00?'
p1329
tp1330
Rp1331
sS'elemensdegeomet00blasgoog_0232'
p1332
g2
(g6
S'\x03\xa7\xb1\x8a8\xdb2?'
p1333
tp1334
Rp1335
sS'elemensdegeomet00blasgoog_0338'
p1336
g2
(g6
S'\xa6f,|\xa1)\x12?'
p1337
tp1338
Rp1339
sS'elemensdegeomet00blasgoog_0339'
p1340
g2
(g6
S'\xcb\xad\xf9\xb0i\xaf4?'
p1341
tp1342
Rp1343
sS'elemensdegeomet00blasgoog_0237'
p1344
g2
(g6
S'7\xed\x8a\x81@\xa6.?'
p1345
tp1346
Rp1347
sS'elemensdegeomet00blasgoog_0236'
p1348
g2
(g6
S'2\xde\xe5\xfa\x817(?'
p1349
tp1350
Rp1351
sS'elemensdegeomet00blasgoog_0235'
p1352
g2
(g6
S'\xf3\x8a\x9d\xb3\xb3\xcf$?'
p1353
tp1354
Rp1355
sS'elemensdegeomet00blasgoog_0234'
p1356
g2
(g6
S';\x83aO\xc2@\xdc>'
p1357
tp1358
Rp1359
sS'elemensdegeomet00blasgoog_0332'
p1360
g2
(g6
S'\xa2\xb3M\x99\xda\xc8/?'
p1361
tp1362
Rp1363
sS'elemensdegeomet00blasgoog_0333'
p1364
g2
(g6
S'I\xbd\x98V\x88{6?'
p1365
tp1366
Rp1367
sS'elemensdegeomet00blasgoog_0330'
p1368
g2
(g6
S'l\x8b\x97\xd2\x13-0?'
p1369
tp1370
Rp1371
sS'elemensdegeomet00blasgoog_0238'
p1372
g2
(g6
S"\r\x00'\xdd;\xae0?"
p1373
tp1374
Rp1375
sS'elemensdegeomet00blasgoog_0336'
p1376
g2
(g6
S'Ds\xc8\x8aC\x17/?'
p1377
tp1378
Rp1379
sS'elemensdegeomet00blasgoog_0337'
p1380
g2
(g6
S'7\xed\x8a\x81@\xa6.?'
p1381
tp1382
Rp1383
sS'elemensdegeomet00blasgoog_0334'
p1384
g2
(g6
S'\x97\x95\x03\x8c]\xeb2?'
p1385
tp1386
Rp1387
sS'elemensdegeomet00blasgoog_0335'
p1388
g2
(g6
S'1G\xf4\x11\x0443?'
p1389
tp1390
Rp1391
sS'elemensdegeomet00blasgoog_0246'
p1392
g2
(g6
S'l\x8b\x97\xd2\x13-0?'
p1393
tp1394
Rp1395
sS'elemensdegeomet00blasgoog_0247'
p1396
g2
(g6
S"\r\x00'\xdd;\xae0?"
p1397
tp1398
Rp1399
sS'elemensdegeomet00blasgoog_0244'
p1400
g2
(g6
S"\r\x00'\xdd;\xae0?"
p1401
tp1402
Rp1403
sS'elemensdegeomet00blasgoog_0245'
p1404
g2
(g6
S'l\x8b\x97\xd2\x13-0?'
p1405
tp1406
Rp1407
sS'elemensdegeomet00blasgoog_0242'
p1408
g2
(g6
S'c`\x05R\x0ca,?'
p1409
tp1410
Rp1411
sS'elemensdegeomet00blasgoog_0243'
p1412
g2
(g6
S'\x98\x95\x03\x8c]\xeb2?'
p1413
tp1414
Rp1415
sS'elemensdegeomet00blasgoog_0240'
p1416
g2
(g6
S'\x0f\xe2\x03\xad\xfa~4?'
p1417
tp1418
Rp1419
sS'elemensdegeomet00blasgoog_0241'
p1420
g2
(g6
S'\xd3\xbb\x83\x1c,\xb53?'
p1421
tp1422
Rp1423
sS'elemensdegeomet00blasgoog_0248'
p1424
g2
(g6
S'\xeb\xe5!_s\xc60?'
p1425
tp1426
Rp1427
sS'elemensdegeomet00blasgoog_0249'
p1428
g2
(g6
S'\xeb\xe5!_s\xc60?'
p1429
tp1430
Rp1431
sS'elemensdegeomet00blasgoog_0062'
p1432
g2
(g6
S'O\xe9E\xf2\x8b\xb01?'
p1433
tp1434
Rp1435
sS'elemensdegeomet00blasgoog_0063'
p1436
g2
(g6
S'O\x807\xdb\t\xb4&?'
p1437
tp1438
Rp1439
sS'elemensdegeomet00blasgoog_0060'
p1440
g2
(g6
S'\xc9\x90\xf1\x9b$\xe9/?'
p1441
tp1442
Rp1443
sS'elemensdegeomet00blasgoog_0061'
p1444
g2
(g6
S'Ds\xc8\x8aC\x17/?'
p1445
tp1446
Rp1447
sS'elemensdegeomet00blasgoog_0149'
p1448
g2
(g6
S'Y\xd9\xac-\r\x874?'
p1449
tp1450
Rp1451
sS'elemensdegeomet00blasgoog_0067'
p1452
g2
(g6
S'y\x11\xd5\xdb\x16\x9e0?'
p1453
tp1454
Rp1455
sS'elemensdegeomet00blasgoog_0064'
p1456
g2
(g6
S':\x83aO\xc2@,?'
p1457
tp1458
Rp1459
sS'elemensdegeomet00blasgoog_0065'
p1460
g2
(g6
S'\xbfU\x9fybE.?'
p1461
tp1462
Rp1463
sS'elemensdegeomet00blasgoog_0145'
p1464
g2
(g6
S'\x16<\x94\x1a\xfa\xba)?'
p1465
tp1466
Rp1467
sS'elemensdegeomet00blasgoog_0144'
p1468
g2
(g6
S'*9j\xa6A.4?'
p1469
tp1470
Rp1471
sS'elemensdegeomet00blasgoog_0147'
p1472
g2
(g6
S'\x1f\xfe\x17\x84\x7f\x8a\x12?'
p1473
tp1474
Rp1475
sS'elemensdegeomet00blasgoog_0146'
p1476
g2
(g6
S'\xa6f,|\xa1)\x12?'
p1477
tp1478
Rp1479
sS'elemensdegeomet00blasgoog_0141'
p1480
g2
(g6
S'\xef\x12\xea\x15sd3?'
p1481
tp1482
Rp1483
sS'elemensdegeomet00blasgoog_0140'
p1484
g2
(g6
S'\xf5\x03ll\xf0\xa3-?'
p1485
tp1486
Rp1487
sS'elemensdegeomet00blasgoog_0143'
p1488
g2
(g6
S'\xceC\xd0~\xebI2?'
p1489
tp1490
Rp1491
sS'elemensdegeomet00blasgoog_0142'
p1492
g2
(g6
S'<\xa0id\x07\x071?'
p1493
tp1494
Rp1495
sS'elemensdegeomet00blasgoog_0099'
p1496
g2
(g6
S'\xa1\xb3M\x99\xda\xc8/?'
p1497
tp1498
Rp1499
sS'elemensdegeomet00blasgoog_0098'
p1500
g2
(g6
S'\x93\xb4A\xd7\x9a\x83&?'
p1501
tp1502
Rp1503
sS'elemensdegeomet00blasgoog_0097'
p1504
g2
(g6
S',\xb28_~\x02-?'
p1505
tp1506
Rp1507
sS'elemensdegeomet00blasgoog_0096'
p1508
g2
(g6
S'\x06=\x88X\xbau0?'
p1509
tp1510
Rp1511
sS'elemensdegeomet00blasgoog_0095'
p1512
g2
(g6
S'\xdd\xf7\xf0Y\xea\xc1,?'
p1513
tp1514
Rp1515
sS'elemensdegeomet00blasgoog_0094'
p1516
g2
(g6
S'A\x18\x1d\x02Hr2?'
p1517
tp1518
Rp1519
sS'elemensdegeomet00blasgoog_0093'
p1520
g2
(g6
S'O\xe9E\xf2\x8b\xb01?'
p1521
tp1522
Rp1523
sS'elemensdegeomet00blasgoog_0092'
p1524
g2
(g6
S'\xf8k_hv71?'
p1525
tp1526
Rp1527
sS'elemensdegeomet00blasgoog_0091'
p1528
g2
(g6
S'\xa6f,|\xa1)2?'
p1529
tp1530
Rp1531
sS'elemensdegeomet00blasgoog_0090'
p1532
g2
(g6
S'\x04\xf2\x9cqy\xa81?'
p1533
tp1534
Rp1535
sS'elemensdegeomet00blasgoog_0148'
p1536
g2
(g6
S'\x16<\x94\x1a\xfa\xba)?'
p1537
tp1538
Rp1539
sS'elemensdegeomet00blasgoog_0404'
p1540
g2
(g6
S'}\x89\x88yW\t"?'
p1541
tp1542
Rp1543
sS'elemensdegeomet00blasgoog_0400'
p1544
g2
(g6
S'\xc2\x08~\\)\xa60?'
p1545
tp1546
Rp1547
sS'elemensdegeomet00blasgoog_0401'
p1548
g2
(g6
S'\x05\xf2\x9cqy\xa81?'
p1549
tp1550
Rp1551
sS'elemensdegeomet00blasgoog_0150'
p1552
g2
(g6
S'\xf3\x8a\x9d\xb3\xb3\xcf$?'
p1553
tp1554
Rp1555
sS'elemensdegeomet00blasgoog_0151'
p1556
g2
(g6
S'\x10-\xef\x93;L3?'
p1557
tp1558
Rp1559
s.