(dp0
S'add3959-diag-0002'
p1
(lp2
S'cambridge_add3959_0043.jpg'
p3
aI1460
aI2000
aI1022
aI70
aI339
aI322
asS'add3959-diag-0001'
p4
(lp5
S'cambridge_add3959_0043.jpg'
p6
aI1460
aI2000
aI681
aI65
aI340
aI337
as.