(lp0
S'baermann_1743_v1_1_0001.tif'
p1
aS'baermann_1743_v1_1_0002.tif'
p2
aS'baermann_1743_v1_1_0003.tif'
p3
aS'baermann_1743_v1_1_0004.tif'
p4
aS'baermann_1743_v1_1_0005.tif'
p5
aS'baermann_1743_v1_1_0006.tif'
p6
aS'baermann_1743_v1_1_0007.tif'
p7
aS'baermann_1743_v1_1_0008.tif'
p8
aS'baermann_1743_v1_1_0009.tif'
p9
aS'baermann_1743_v1_1_0010.tif'
p10
aS'baermann_1743_v1_1_0011.tif'
p11
aS'baermann_1743_v1_1_0012.tif'
p12
aS'baermann_1743_v1_1_0013.tif'
p13
aS'baermann_1743_v1_1_0014.tif'
p14
aS'baermann_1743_v1_1_0015.tif'
p15
aS'baermann_1743_v1_1_0016.tif'
p16
aS'baermann_1743_v1_1_0017.tif'
p17
aS'baermann_1743_v1_1_0018.tif'
p18
aS'baermann_1743_v1_1_0019.tif'
p19
aS'baermann_1743_v1_1_0020.tif'
p20
a.