(dp0
S'baermann_1743_v1_1_0257.tif'
p1
(I638
I1038
tp2
sS'baermann_1743_v1_1_0238.tif'
p3
(I638
I1038
tp4
sS'baermann_1743_v1_1_0293.tif'
p5
(I638
I1038
tp6
sS'baermann_1743_v1_1_0135.tif'
p7
(I638
I1038
tp8
sS'baermann_1743_v1_1_0246.tif'
p9
(I638
I1038
tp10
sS'baermann_1743_v1_1_0143.tif'
p11
(I638
I1038
tp12
sS'baermann_1743_v1_1_0105.tif'
p13
(I638
I1038
tp14
sS'baermann_1743_v1_1_0215.tif'
p15
(I638
I1038
tp16
sS'baermann_1743_v1_1_0356.tif'
p17
(I638
I1038
tp18
sS'baermann_1743_v1_1_0191.tif'
p19
(I638
I1038
tp20
sS'baermann_1743_v1_1_0224.tif'
p21
(I638
I1038
tp22
sS'baermann_1743_v1_1_0111.tif'
p23
(I638
I1038
tp24
sS'baermann_1743_v1_1_0056.tif'
p25
(I638
I1038
tp26
sS'baermann_1743_v1_1_0088.tif'
p27
(I638
I1038
tp28
sS'baermann_1743_v1_1_0337.tif'
p29
(I638
I1038
tp30
sS'baermann_1743_v1_1_0168.tif'
p31
(I638
I1038
tp32
sS'baermann_1743_v1_1_0126.tif'
p33
(I638
I1038
tp34
sS'baermann_1743_v1_1_0176.tif'
p35
(I638
I1038
tp36
sS'baermann_1743_v1_1_0145.tif'
p37
(I638
I1038
tp38
sS'baermann_1743_v1_1_0345.tif'
p39
(I638
I1038
tp40
sS'baermann_1743_v1_1_0291.tif'
p41
(I638
I1038
tp42
sS'baermann_1743_v1_1_0237.tif'
p43
(I638
I1038
tp44
sS'baermann_1743_v1_1_0334.tif'
p45
(I638
I1038
tp46
sS'baermann_1743_v1_1_0023.tif'
p47
(I638
I1038
tp48
sS'baermann_1743_v1_1_0299.tif'
p49
(I638
I1038
tp50
sS'baermann_1743_v1_1_0142.tif'
p51
(I638
I1038
tp52
sS'baermann_1743_v1_1_0381.tif'
p53
(I638
I1038
tp54
sS'baermann_1743_v1_1_0403.tif'
p55
(I638
I1038
tp56
sS'baermann_1743_v1_1_0301.tif'
p57
(I638
I1038
tp58
sS'baermann_1743_v1_1_0133.tif'
p59
(I638
I1038
tp60
sS'baermann_1743_v1_1_0218.tif'
p61
(I638
I1038
tp62
sS'baermann_1743_v1_1_0437.tif'
p63
(I638
I1038
tp64
sS'baermann_1743_v1_1_0069.tif'
p65
(I638
I1038
tp66
sS'baermann_1743_v1_1_0282.tif'
p67
(I638
I1038
tp68
sS'baermann_1743_v1_1_0096.tif'
p69
(I638
I1038
tp70
sS'baermann_1743_v1_1_0338.tif'
p71
(I638
I1038
tp72
sS'baermann_1743_v1_1_0190.tif'
p73
(I638
I1038
tp74
sS'baermann_1743_v1_1_0300.tif'
p75
(I638
I1038
tp76
sS'baermann_1743_v1_1_0027.tif'
p77
(I638
I1038
tp78
sS'baermann_1743_v1_1_0240.tif'
p79
(I638
I1038
tp80
sS'baermann_1743_v1_1_0049.tif'
p81
(I638
I1038
tp82
sS'baermann_1743_v1_1_0376.tif'
p83
(I638
I1038
tp84
sS'baermann_1743_v1_1_0120.tif'
p85
(I638
I1038
tp86
sS'baermann_1743_v1_1_0112.tif'
p87
(I638
I1038
tp88
sS'baermann_1743_v1_1_0339.tif'
p89
(I638
I1038
tp90
sS'baermann_1743_v1_1_0447.tif'
p91
(I638
I1038
tp92
sS'baermann_1743_v1_1_0110.tif'
p93
(I638
I1038
tp94
sS'baermann_1743_v1_1_0184.tif'
p95
(I638
I1038
tp96
sS'baermann_1743_v1_1_0430.tif'
p97
(I638
I1038
tp98
sS'baermann_1743_v1_1_0402.tif'
p99
(I638
I1038
tp100
sS'baermann_1743_v1_1_0150.tif'
p101
(I638
I1038
tp102
sS'baermann_1743_v1_1_0439.tif'
p103
(I638
I1038
tp104
sS'baermann_1743_v1_1_0141.tif'
p105
(I638
I1038
tp106
sS'baermann_1743_v1_1_0341.tif'
p107
(I638
I1038
tp108
sS'baermann_1743_v1_1_0362.tif'
p109
(I638
I1038
tp110
sS'baermann_1743_v1_1_0302.tif'
p111
(I638
I1038
tp112
sS'baermann_1743_v1_1_0354.tif'
p113
(I638
I1038
tp114
sS'baermann_1743_v1_1_0072.tif'
p115
(I638
I1038
tp116
sS'baermann_1743_v1_1_0272.tif'
p117
(I638
I1038
tp118
sS'baermann_1743_v1_1_0043.tif'
p119
(I638
I1038
tp120
sS'baermann_1743_v1_1_0062.tif'
p121
(I638
I1038
tp122
sS'baermann_1743_v1_1_0441.tif'
p123
(I638
I1038
tp124
sS'baermann_1743_v1_1_0266.tif'
p125
(I638
I1038
tp126
sS'baermann_1743_v1_1_0284.tif'
p127
(I638
I1038
tp128
sS'baermann_1743_v1_1_0174.tif'
p129
(I638
I1038
tp130
sS'baermann_1743_v1_1_0271.tif'
p131
(I638
I1038
tp132
sS'baermann_1743_v1_1_0309.tif'
p133
(I638
I1038
tp134
sS'baermann_1743_v1_1_0241.tif'
p135
(I638
I1038
tp136
sS'baermann_1743_v1_1_0347.tif'
p137
(I638
I1038
tp138
sS'baermann_1743_v1_1_0075.tif'
p139
(I638
I1038
tp140
sS'baermann_1743_v1_1_0068.tif'
p141
(I638
I1038
tp142
sS'baermann_1743_v1_1_0178.tif'
p143
(I638
I1038
tp144
sS'baermann_1743_v1_1_0222.tif'
p145
(I638
I1038
tp146
sS'baermann_1743_v1_1_0089.tif'
p147
(I638
I1038
tp148
sS'baermann_1743_v1_1_0093.tif'
p149
(I638
I1038
tp150
sS'baermann_1743_v1_1_0280.tif'
p151
(I638
I1038
tp152
sS'baermann_1743_v1_1_0386.tif'
p153
(I638
I1038
tp154
sS'baermann_1743_v1_1_0022.tif'
p155
(I638
I1038
tp156
sS'baermann_1743_v1_1_0360.tif'
p157
(I638
I1038
tp158
sS'baermann_1743_v1_1_0039.tif'
p159
(I638
I1038
tp160
sS'baermann_1743_v1_1_0239.tif'
p161
(I638
I1038
tp162
sS'baermann_1743_v1_1_0136.tif'
p163
(I638
I1038
tp164
sS'baermann_1743_v1_1_0374.tif'
p165
(I638
I1038
tp166
sS'baermann_1743_v1_1_0431.tif'
p167
(I638
I1038
tp168
sS'baermann_1743_v1_1_0223.tif'
p169
(I638
I1038
tp170
sS'baermann_1743_v1_1_0231.tif'
p171
(I638
I1038
tp172
sS'baermann_1743_v1_1_0408.tif'
p173
(I638
I1038
tp174
sS'baermann_1743_v1_1_0281.tif'
p175
(I638
I1038
tp176
sS'baermann_1743_v1_1_0415.tif'
p177
(I638
I1038
tp178
sS'baermann_1743_v1_1_0042.tif'
p179
(I638
I1038
tp180
sS'baermann_1743_v1_1_0380.tif'
p181
(I638
I1038
tp182
sS'baermann_1743_v1_1_0378.tif'
p183
(I638
I1038
tp184
sS'baermann_1743_v1_1_0250.tif'
p185
(I638
I1038
tp186
sS'baermann_1743_v1_1_0366.tif'
p187
(I638
I1038
tp188
sS'baermann_1743_v1_1_0375.tif'
p189
(I638
I1038
tp190
sS'baermann_1743_v1_1_0373.tif'
p191
(I638
I1038
tp192
sS'baermann_1743_v1_1_0208.tif'
p193
(I638
I1038
tp194
sS'baermann_1743_v1_1_0342.tif'
p195
(I638
I1038
tp196
sS'baermann_1743_v1_1_0230.tif'
p197
(I638
I1038
tp198
sS'baermann_1743_v1_1_0320.tif'
p199
(I638
I1038
tp200
sS'baermann_1743_v1_1_0148.tif'
p201
(I638
I1038
tp202
sS'baermann_1743_v1_1_0424.tif'
p203
(I638
I1038
tp204
sS'baermann_1743_v1_1_0401.tif'
p205
(I638
I1038
tp206
sS'baermann_1743_v1_1_0262.tif'
p207
(I638
I1038
tp208
sS'baermann_1743_v1_1_0245.tif'
p209
(I638
I1038
tp210
sS'baermann_1743_v1_1_0188.tif'
p211
(I638
I1038
tp212
sS'baermann_1743_v1_1_0259.tif'
p213
(I638
I1038
tp214
sS'baermann_1743_v1_1_0131.tif'
p215
(I638
I1038
tp216
sS'baermann_1743_v1_1_0396.tif'
p217
(I638
I1038
tp218
sS'baermann_1743_v1_1_0317.tif'
p219
(I638
I1038
tp220
sS'baermann_1743_v1_1_0336.tif'
p221
(I638
I1038
tp222
sS'baermann_1743_v1_1_0095.tif'
p223
(I638
I1038
tp224
sS'baermann_1743_v1_1_0283.tif'
p225
(I638
I1038
tp226
sS'baermann_1743_v1_1_0425.tif'
p227
(I638
I1038
tp228
sS'baermann_1743_v1_1_0412.tif'
p229
(I638
I1038
tp230
sS'baermann_1743_v1_1_0132.tif'
p231
(I638
I1038
tp232
sS'baermann_1743_v1_1_0183.tif'
p233
(I638
I1038
tp234
sS'baermann_1743_v1_1_0232.tif'
p235
(I638
I1038
tp236
sS'baermann_1743_v1_1_0264.tif'
p237
(I638
I1038
tp238
sS'baermann_1743_v1_1_0357.tif'
p239
(I638
I1038
tp240
sS'baermann_1743_v1_1_0426.tif'
p241
(I638
I1038
tp242
sS'baermann_1743_v1_1_0147.tif'
p243
(I638
I1038
tp244
sS'baermann_1743_v1_1_0030.tif'
p245
(I638
I1038
tp246
sS'baermann_1743_v1_1_0285.tif'
p247
(I638
I1038
tp248
sS'baermann_1743_v1_1_0355.tif'
p249
(I638
I1038
tp250
sS'baermann_1743_v1_1_0323.tif'
p251
(I638
I1038
tp252
sS'baermann_1743_v1_1_0365.tif'
p253
(I638
I1038
tp254
sS'baermann_1743_v1_1_0064.tif'
p255
(I638
I1038
tp256
sS'baermann_1743_v1_1_0247.tif'
p257
(I638
I1038
tp258
sS'baermann_1743_v1_1_0278.tif'
p259
(I638
I1038
tp260
sS'baermann_1743_v1_1_0269.tif'
p261
(I638
I1038
tp262
sS'baermann_1743_v1_1_0146.tif'
p263
(I638
I1038
tp264
sS'baermann_1743_v1_1_0236.tif'
p265
(I638
I1038
tp266
sS'baermann_1743_v1_1_0308.tif'
p267
(I638
I1038
tp268
sS'baermann_1743_v1_1_0172.tif'
p269
(I638
I1038
tp270
sS'baermann_1743_v1_1_0193.tif'
p271
(I638
I1038
tp272
sS'baermann_1743_v1_1_0346.tif'
p273
(I638
I1038
tp274
sS'baermann_1743_v1_1_0452.tif'
p275
(I638
I1038
tp276
sS'baermann_1743_v1_1_0316.tif'
p277
(I638
I1038
tp278
sS'baermann_1743_v1_1_0427.tif'
p279
(I638
I1038
tp280
sS'baermann_1743_v1_1_0325.tif'
p281
(I638
I1038
tp282
sS'baermann_1743_v1_1_0073.tif'
p283
(I638
I1038
tp284
sS'baermann_1743_v1_1_0117.tif'
p285
(I638
I1038
tp286
sS'baermann_1743_v1_1_0040.tif'
p287
(I638
I1038
tp288
sS'baermann_1743_v1_1_0128.tif'
p289
(I638
I1038
tp290
sS'baermann_1743_v1_1_0382.tif'
p291
(I638
I1038
tp292
sS'baermann_1743_v1_1_0139.tif'
p293
(I638
I1038
tp294
sS'baermann_1743_v1_1_0244.tif'
p295
(I638
I1038
tp296
sS'baermann_1743_v1_1_0261.tif'
p297
(I638
I1038
tp298
sS'baermann_1743_v1_1_0322.tif'
p299
(I638
I1038
tp300
sS'baermann_1743_v1_1_0173.tif'
p301
(I638
I1038
tp302
sS'baermann_1743_v1_1_0166.tif'
p303
(I638
I1038
tp304
sS'baermann_1743_v1_1_0298.tif'
p305
(I638
I1038
tp306
sS'baermann_1743_v1_1_0185.tif'
p307
(I638
I1038
tp308
sS'baermann_1743_v1_1_0353.tif'
p309
(I638
I1038
tp310
sS'baermann_1743_v1_1_0414.tif'
p311
(I638
I1038
tp312
sS'baermann_1743_v1_1_0435.tif'
p313
(I638
I1038
tp314
sS'baermann_1743_v1_1_0144.tif'
p315
(I638
I1038
tp316
sS'baermann_1743_v1_1_0448.tif'
p317
(I638
I1038
tp318
sS'baermann_1743_v1_1_0201.tif'
p319
(I638
I1038
tp320
sS'baermann_1743_v1_1_0199.tif'
p321
(I638
I1038
tp322
sS'baermann_1743_v1_1_0392.tif'
p323
(I638
I1038
tp324
sS'baermann_1743_v1_1_0273.tif'
p325
(I638
I1038
tp326
sS'baermann_1743_v1_1_0349.tif'
p327
(I638
I1038
tp328
sS'baermann_1743_v1_1_0385.tif'
p329
(I638
I1038
tp330
sS'baermann_1743_v1_1_0080.tif'
p331
(I638
I1038
tp332
sS'baermann_1743_v1_1_0340.tif'
p333
(I638
I1038
tp334
sS'baermann_1743_v1_1_0212.tif'
p335
(I638
I1038
tp336
sS'baermann_1743_v1_1_0372.tif'
p337
(I638
I1038
tp338
sS'baermann_1743_v1_1_0058.tif'
p339
(I638
I1038
tp340
sS'baermann_1743_v1_1_0171.tif'
p341
(I638
I1038
tp342
sS'baermann_1743_v1_1_0109.tif'
p343
(I638
I1038
tp344
sS'baermann_1743_v1_1_0151.tif'
p345
(I638
I1038
tp346
sS'baermann_1743_v1_1_0438.tif'
p347
(I638
I1038
tp348
sS'baermann_1743_v1_1_0206.tif'
p349
(I638
I1038
tp350
sS'baermann_1743_v1_1_0279.tif'
p351
(I638
I1038
tp352
sS'baermann_1743_v1_1_0258.tif'
p353
(I638
I1038
tp354
sS'baermann_1743_v1_1_0165.tif'
p355
(I638
I1038
tp356
sS'baermann_1743_v1_1_0383.tif'
p357
(I638
I1038
tp358
sS'baermann_1743_v1_1_0242.tif'
p359
(I638
I1038
tp360
sS'baermann_1743_v1_1_0229.tif'
p361
(I638
I1038
tp362
sS'baermann_1743_v1_1_0233.tif'
p363
(I638
I1038
tp364
sS'baermann_1743_v1_1_0330.tif'
p365
(I638
I1038
tp366
sS'baermann_1743_v1_1_0423.tif'
p367
(I638
I1038
tp368
sS'baermann_1743_v1_1_0321.tif'
p369
(I638
I1038
tp370
sS'baermann_1743_v1_1_0077.tif'
p371
(I638
I1038
tp372
sS'baermann_1743_v1_1_0090.tif'
p373
(I638
I1038
tp374
sS'baermann_1743_v1_1_0104.tif'
p375
(I638
I1038
tp376
sS'baermann_1743_v1_1_0066.tif'
p377
(I638
I1038
tp378
sS'baermann_1743_v1_1_0368.tif'
p379
(I638
I1038
tp380
sS'baermann_1743_v1_1_0175.tif'
p381
(I638
I1038
tp382
sS'baermann_1743_v1_1_0363.tif'
p383
(I638
I1038
tp384
sS'baermann_1743_v1_1_0182.tif'
p385
(I638
I1038
tp386
sS'baermann_1743_v1_1_0265.tif'
p387
(I638
I1038
tp388
sS'baermann_1743_v1_1_0213.tif'
p389
(I638
I1038
tp390
sS'baermann_1743_v1_1_0436.tif'
p391
(I638
I1038
tp392
sS'baermann_1743_v1_1_0179.tif'
p393
(I638
I1038
tp394
sS'baermann_1743_v1_1_0163.tif'
p395
(I638
I1038
tp396
sS'baermann_1743_v1_1_0314.tif'
p397
(I638
I1038
tp398
sS'baermann_1743_v1_1_0398.tif'
p399
(I638
I1038
tp400
sS'baermann_1743_v1_1_0037.tif'
p401
(I638
I1038
tp402
sS'baermann_1743_v1_1_0071.tif'
p403
(I638
I1038
tp404
sS'baermann_1743_v1_1_0164.tif'
p405
(I638
I1038
tp406
sS'baermann_1743_v1_1_0059.tif'
p407
(I638
I1038
tp408
sS'baermann_1743_v1_1_0318.tif'
p409
(I638
I1038
tp410
sS'baermann_1743_v1_1_0149.tif'
p411
(I638
I1038
tp412
sS'baermann_1743_v1_1_0155.tif'
p413
(I638
I1038
tp414
sS'baermann_1743_v1_1_0389.tif'
p415
(I638
I1038
tp416
sS'baermann_1743_v1_1_0092.tif'
p417
(I638
I1038
tp418
sS'baermann_1743_v1_1_0220.tif'
p419
(I638
I1038
tp420
sS'baermann_1743_v1_1_0124.tif'
p421
(I638
I1038
tp422
sS'baermann_1743_v1_1_0082.tif'
p423
(I638
I1038
tp424
sS'baermann_1743_v1_1_0286.tif'
p425
(I638
I1038
tp426
sS'baermann_1743_v1_1_0297.tif'
p427
(I638
I1038
tp428
sS'baermann_1743_v1_1_0130.tif'
p429
(I638
I1038
tp430
sS'baermann_1743_v1_1_0046.tif'
p431
(I638
I1038
tp432
sS'baermann_1743_v1_1_0388.tif'
p433
(I638
I1038
tp434
sS'baermann_1743_v1_1_0263.tif'
p435
(I638
I1038
tp436
sS'baermann_1743_v1_1_0390.tif'
p437
(I638
I1038
tp438
sS'baermann_1743_v1_1_0138.tif'
p439
(I638
I1038
tp440
sS'baermann_1743_v1_1_0094.tif'
p441
(I638
I1038
tp442
sS'baermann_1743_v1_1_0083.tif'
p443
(I638
I1038
tp444
sS'baermann_1743_v1_1_0085.tif'
p445
(I638
I1038
tp446
sS'baermann_1743_v1_1_0413.tif'
p447
(I638
I1038
tp448
sS'baermann_1743_v1_1_0091.tif'
p449
(I638
I1038
tp450
sS'baermann_1743_v1_1_0074.tif'
p451
(I638
I1038
tp452
sS'baermann_1743_v1_1_0047.tif'
p453
(I638
I1038
tp454
sS'baermann_1743_v1_1_0052.tif'
p455
(I638
I1038
tp456
sS'baermann_1743_v1_1_0123.tif'
p457
(I638
I1038
tp458
sS'baermann_1743_v1_1_0195.tif'
p459
(I638
I1038
tp460
sS'baermann_1743_v1_1_0328.tif'
p461
(I638
I1038
tp462
sS'baermann_1743_v1_1_0129.tif'
p463
(I638
I1038
tp464
sS'baermann_1743_v1_1_0443.tif'
p465
(I638
I1038
tp466
sS'baermann_1743_v1_1_0449.tif'
p467
(I638
I1038
tp468
sS'baermann_1743_v1_1_0101.tif'
p469
(I638
I1038
tp470
sS'baermann_1743_v1_1_0031.tif'
p471
(I638
I1038
tp472
sS'baermann_1743_v1_1_0393.tif'
p473
(I638
I1038
tp474
sS'baermann_1743_v1_1_0445.tif'
p475
(I638
I1038
tp476
sS'baermann_1743_v1_1_0421.tif'
p477
(I638
I1038
tp478
sS'baermann_1743_v1_1_0170.tif'
p479
(I638
I1038
tp480
sS'baermann_1743_v1_1_0275.tif'
p481
(I638
I1038
tp482
sS'baermann_1743_v1_1_0417.tif'
p483
(I638
I1038
tp484
sS'baermann_1743_v1_1_0167.tif'
p485
(I638
I1038
tp486
sS'baermann_1743_v1_1_0332.tif'
p487
(I638
I1038
tp488
sS'baermann_1743_v1_1_0351.tif'
p489
(I638
I1038
tp490
sS'baermann_1743_v1_1_0025.tif'
p491
(I638
I1038
tp492
sS'baermann_1743_v1_1_0451.tif'
p493
(I638
I1038
tp494
sS'baermann_1743_v1_1_0108.tif'
p495
(I638
I1038
tp496
sS'baermann_1743_v1_1_0200.tif'
p497
(I638
I1038
tp498
sS'baermann_1743_v1_1_0249.tif'
p499
(I638
I1038
tp500
sS'baermann_1743_v1_1_0211.tif'
p501
(I638
I1038
tp502
sS'baermann_1743_v1_1_0352.tif'
p503
(I638
I1038
tp504
sS'baermann_1743_v1_1_0419.tif'
p505
(I638
I1038
tp506
sS'baermann_1743_v1_1_0045.tif'
p507
(I638
I1038
tp508
sS'baermann_1743_v1_1_0065.tif'
p509
(I638
I1038
tp510
sS'baermann_1743_v1_1_0429.tif'
p511
(I638
I1038
tp512
sS'baermann_1743_v1_1_0196.tif'
p513
(I638
I1038
tp514
sS'baermann_1743_v1_1_0327.tif'
p515
(I638
I1038
tp516
sS'baermann_1743_v1_1_0370.tif'
p517
(I638
I1038
tp518
sS'baermann_1743_v1_1_0067.tif'
p519
(I638
I1038
tp520
sS'baermann_1743_v1_1_0079.tif'
p521
(I638
I1038
tp522
sS'baermann_1743_v1_1_0119.tif'
p523
(I638
I1038
tp524
sS'baermann_1743_v1_1_0051.tif'
p525
(I638
I1038
tp526
sS'baermann_1743_v1_1_0097.tif'
p527
(I638
I1038
tp528
sS'baermann_1743_v1_1_0034.tif'
p529
(I638
I1038
tp530
sS'baermann_1743_v1_1_0087.tif'
p531
(I638
I1038
tp532
sS'baermann_1743_v1_1_0221.tif'
p533
(I638
I1038
tp534
sS'baermann_1743_v1_1_0369.tif'
p535
(I638
I1038
tp536
sS'baermann_1743_v1_1_0420.tif'
p537
(I638
I1038
tp538
sS'baermann_1743_v1_1_0152.tif'
p539
(I638
I1038
tp540
sS'baermann_1743_v1_1_0326.tif'
p541
(I638
I1038
tp542
sS'baermann_1743_v1_1_0153.tif'
p543
(I638
I1038
tp544
sS'baermann_1743_v1_1_0041.tif'
p545
(I638
I1038
tp546
sS'baermann_1743_v1_1_0158.tif'
p547
(I638
I1038
tp548
sS'baermann_1743_v1_1_0107.tif'
p549
(I638
I1038
tp550
sS'baermann_1743_v1_1_0181.tif'
p551
(I638
I1038
tp552
sS'baermann_1743_v1_1_0036.tif'
p553
(I638
I1038
tp554
sS'baermann_1743_v1_1_0312.tif'
p555
(I638
I1038
tp556
sS'baermann_1743_v1_1_0070.tif'
p557
(I638
I1038
tp558
sS'baermann_1743_v1_1_0251.tif'
p559
(I638
I1038
tp560
sS'baermann_1743_v1_1_0024.tif'
p561
(I638
I1038
tp562
sS'baermann_1743_v1_1_0295.tif'
p563
(I638
I1038
tp564
sS'baermann_1743_v1_1_0395.tif'
p565
(I638
I1038
tp566
sS'baermann_1743_v1_1_0411.tif'
p567
(I638
I1038
tp568
sS'baermann_1743_v1_1_0057.tif'
p569
(I638
I1038
tp570
sS'baermann_1743_v1_1_0186.tif'
p571
(I638
I1038
tp572
sS'baermann_1743_v1_1_0379.tif'
p573
(I638
I1038
tp574
sS'baermann_1743_v1_1_0377.tif'
p575
(I638
I1038
tp576
sS'baermann_1743_v1_1_0348.tif'
p577
(I638
I1038
tp578
sS'baermann_1743_v1_1_0359.tif'
p579
(I638
I1038
tp580
sS'baermann_1743_v1_1_0384.tif'
p581
(I638
I1038
tp582
sS'baermann_1743_v1_1_0050.tif'
p583
(I638
I1038
tp584
sS'baermann_1743_v1_1_0313.tif'
p585
(I638
I1038
tp586
sS'baermann_1743_v1_1_0306.tif'
p587
(I638
I1038
tp588
sS'baermann_1743_v1_1_0399.tif'
p589
(I638
I1038
tp590
sS'baermann_1743_v1_1_0406.tif'
p591
(I638
I1038
tp592
sS'baermann_1743_v1_1_0061.tif'
p593
(I638
I1038
tp594
sS'baermann_1743_v1_1_0296.tif'
p595
(I638
I1038
tp596
sS'baermann_1743_v1_1_0428.tif'
p597
(I638
I1038
tp598
sS'baermann_1743_v1_1_0180.tif'
p599
(I638
I1038
tp600
sS'baermann_1743_v1_1_0450.tif'
p601
(I638
I1038
tp602
sS'baermann_1743_v1_1_0204.tif'
p603
(I638
I1038
tp604
sS'baermann_1743_v1_1_0391.tif'
p605
(I638
I1038
tp606
sS'baermann_1743_v1_1_0324.tif'
p607
(I638
I1038
tp608
sS'baermann_1743_v1_1_0277.tif'
p609
(I638
I1038
tp610
sS'baermann_1743_v1_1_0098.tif'
p611
(I638
I1038
tp612
sS'baermann_1743_v1_1_0157.tif'
p613
(I638
I1038
tp614
sS'baermann_1743_v1_1_0444.tif'
p615
(I638
I1038
tp616
sS'baermann_1743_v1_1_0440.tif'
p617
(I638
I1038
tp618
sS'baermann_1743_v1_1_0048.tif'
p619
(I638
I1038
tp620
sS'baermann_1743_v1_1_0076.tif'
p621
(I638
I1038
tp622
sS'baermann_1743_v1_1_0084.tif'
p623
(I638
I1038
tp624
sS'baermann_1743_v1_1_0125.tif'
p625
(I638
I1038
tp626
sS'baermann_1743_v1_1_0154.tif'
p627
(I638
I1038
tp628
sS'baermann_1743_v1_1_0311.tif'
p629
(I638
I1038
tp630
sS'baermann_1743_v1_1_0202.tif'
p631
(I638
I1038
tp632
sS'baermann_1743_v1_1_0331.tif'
p633
(I638
I1038
tp634
sS'baermann_1743_v1_1_0187.tif'
p635
(I638
I1038
tp636
sS'baermann_1743_v1_1_0288.tif'
p637
(I638
I1038
tp638
sS'baermann_1743_v1_1_0086.tif'
p639
(I638
I1038
tp640
sS'baermann_1743_v1_1_0029.tif'
p641
(I638
I1038
tp642
sS'baermann_1743_v1_1_0161.tif'
p643
(I638
I1038
tp644
sS'baermann_1743_v1_1_0446.tif'
p645
(I638
I1038
tp646
sS'baermann_1743_v1_1_0333.tif'
p647
(I638
I1038
tp648
sS'baermann_1743_v1_1_0305.tif'
p649
(I638
I1038
tp650
sS'baermann_1743_v1_1_0044.tif'
p651
(I638
I1038
tp652
sS'baermann_1743_v1_1_0053.tif'
p653
(I638
I1038
tp654
sS'baermann_1743_v1_1_0194.tif'
p655
(I638
I1038
tp656
sS'baermann_1743_v1_1_0364.tif'
p657
(I638
I1038
tp658
sS'baermann_1743_v1_1_0397.tif'
p659
(I638
I1038
tp660
sS'baermann_1743_v1_1_0253.tif'
p661
(I638
I1038
tp662
sS'baermann_1743_v1_1_0160.tif'
p663
(I638
I1038
tp664
sS'baermann_1743_v1_1_0315.tif'
p665
(I638
I1038
tp666
sS'baermann_1743_v1_1_0217.tif'
p667
(I638
I1038
tp668
sS'baermann_1743_v1_1_0422.tif'
p669
(I638
I1038
tp670
sS'baermann_1743_v1_1_0116.tif'
p671
(I638
I1038
tp672
sS'baermann_1743_v1_1_0290.tif'
p673
(I638
I1038
tp674
sS'baermann_1743_v1_1_0319.tif'
p675
(I638
I1038
tp676
sS'baermann_1743_v1_1_0303.tif'
p677
(I638
I1038
tp678
sS'baermann_1743_v1_1_0404.tif'
p679
(I638
I1038
tp680
sS'baermann_1743_v1_1_0433.tif'
p681
(I638
I1038
tp682
sS'baermann_1743_v1_1_0026.tif'
p683
(I638
I1038
tp684
sS'baermann_1743_v1_1_0252.tif'
p685
(I638
I1038
tp686
sS'baermann_1743_v1_1_0254.tif'
p687
(I638
I1038
tp688
sS'baermann_1743_v1_1_0207.tif'
p689
(I638
I1038
tp690
sS'baermann_1743_v1_1_0304.tif'
p691
(I638
I1038
tp692
sS'baermann_1743_v1_1_0216.tif'
p693
(I638
I1038
tp694
sS'baermann_1743_v1_1_0225.tif'
p695
(I638
I1038
tp696
sS'baermann_1743_v1_1_0159.tif'
p697
(I638
I1038
tp698
sS'baermann_1743_v1_1_0329.tif'
p699
(I638
I1038
tp700
sS'baermann_1743_v1_1_0335.tif'
p701
(I638
I1038
tp702
sS'baermann_1743_v1_1_0432.tif'
p703
(I638
I1038
tp704
sS'baermann_1743_v1_1_0387.tif'
p705
(I638
I1038
tp706
sS'baermann_1743_v1_1_0248.tif'
p707
(I638
I1038
tp708
sS'baermann_1743_v1_1_0294.tif'
p709
(I638
I1038
tp710
sS'baermann_1743_v1_1_0102.tif'
p711
(I638
I1038
tp712
sS'baermann_1743_v1_1_0162.tif'
p713
(I638
I1038
tp714
sS'baermann_1743_v1_1_0134.tif'
p715
(I638
I1038
tp716
sS'baermann_1743_v1_1_0344.tif'
p717
(I638
I1038
tp718
sS'baermann_1743_v1_1_0234.tif'
p719
(I638
I1038
tp720
sS'baermann_1743_v1_1_0350.tif'
p721
(I638
I1038
tp722
sS'baermann_1743_v1_1_0035.tif'
p723
(I638
I1038
tp724
sS'baermann_1743_v1_1_0358.tif'
p725
(I638
I1038
tp726
sS'baermann_1743_v1_1_0219.tif'
p727
(I638
I1038
tp728
sS'baermann_1743_v1_1_0032.tif'
p729
(I638
I1038
tp730
sS'baermann_1743_v1_1_0198.tif'
p731
(I638
I1038
tp732
sS'baermann_1743_v1_1_0118.tif'
p733
(I638
I1038
tp734
sS'baermann_1743_v1_1_0169.tif'
p735
(I638
I1038
tp736
sS'baermann_1743_v1_1_0214.tif'
p737
(I638
I1038
tp738
sS'baermann_1743_v1_1_0127.tif'
p739
(I638
I1038
tp740
sS'baermann_1743_v1_1_0274.tif'
p741
(I638
I1038
tp742
sS'baermann_1743_v1_1_0416.tif'
p743
(I638
I1038
tp744
sS'baermann_1743_v1_1_0343.tif'
p745
(I638
I1038
tp746
sS'baermann_1743_v1_1_0209.tif'
p747
(I638
I1038
tp748
sS'baermann_1743_v1_1_0276.tif'
p749
(I638
I1038
tp750
sS'baermann_1743_v1_1_0361.tif'
p751
(I638
I1038
tp752
sS'baermann_1743_v1_1_0226.tif'
p753
(I638
I1038
tp754
sS'baermann_1743_v1_1_0268.tif'
p755
(I638
I1038
tp756
sS'baermann_1743_v1_1_0310.tif'
p757
(I638
I1038
tp758
sS'baermann_1743_v1_1_0409.tif'
p759
(I638
I1038
tp760
sS'baermann_1743_v1_1_0100.tif'
p761
(I638
I1038
tp762
sS'baermann_1743_v1_1_0307.tif'
p763
(I638
I1038
tp764
sS'baermann_1743_v1_1_0256.tif'
p765
(I638
I1038
tp766
sS'baermann_1743_v1_1_0243.tif'
p767
(I638
I1038
tp768
sS'baermann_1743_v1_1_0400.tif'
p769
(I638
I1038
tp770
sS'baermann_1743_v1_1_0292.tif'
p771
(I638
I1038
tp772
sS'baermann_1743_v1_1_0114.tif'
p773
(I638
I1038
tp774
sS'baermann_1743_v1_1_0063.tif'
p775
(I638
I1038
tp776
sS'baermann_1743_v1_1_0210.tif'
p777
(I638
I1038
tp778
sS'baermann_1743_v1_1_0203.tif'
p779
(I638
I1038
tp780
sS'baermann_1743_v1_1_0235.tif'
p781
(I638
I1038
tp782
sS'baermann_1743_v1_1_0289.tif'
p783
(I638
I1038
tp784
sS'baermann_1743_v1_1_0418.tif'
p785
(I638
I1038
tp786
sS'baermann_1743_v1_1_0197.tif'
p787
(I638
I1038
tp788
sS'baermann_1743_v1_1_0189.tif'
p789
(I638
I1038
tp790
sS'baermann_1743_v1_1_0099.tif'
p791
(I638
I1038
tp792
sS'baermann_1743_v1_1_0394.tif'
p793
(I638
I1038
tp794
sS'baermann_1743_v1_1_0106.tif'
p795
(I638
I1038
tp796
sS'baermann_1743_v1_1_0060.tif'
p797
(I638
I1038
tp798
sS'baermann_1743_v1_1_0115.tif'
p799
(I638
I1038
tp800
sS'baermann_1743_v1_1_0113.tif'
p801
(I638
I1038
tp802
sS'baermann_1743_v1_1_0103.tif'
p803
(I638
I1038
tp804
sS'baermann_1743_v1_1_0122.tif'
p805
(I638
I1038
tp806
sS'baermann_1743_v1_1_0227.tif'
p807
(I638
I1038
tp808
sS'baermann_1743_v1_1_0033.tif'
p809
(I638
I1038
tp810
sS'baermann_1743_v1_1_0140.tif'
p811
(I638
I1038
tp812
sS'baermann_1743_v1_1_0055.tif'
p813
(I638
I1038
tp814
sS'baermann_1743_v1_1_0270.tif'
p815
(I638
I1038
tp816
sS'baermann_1743_v1_1_0228.tif'
p817
(I638
I1038
tp818
sS'baermann_1743_v1_1_0078.tif'
p819
(I638
I1038
tp820
sS'baermann_1743_v1_1_0028.tif'
p821
(I638
I1038
tp822
sS'baermann_1743_v1_1_0267.tif'
p823
(I638
I1038
tp824
sS'baermann_1743_v1_1_0177.tif'
p825
(I638
I1038
tp826
sS'baermann_1743_v1_1_0405.tif'
p827
(I638
I1038
tp828
sS'baermann_1743_v1_1_0054.tif'
p829
(I638
I1038
tp830
sS'baermann_1743_v1_1_0156.tif'
p831
(I638
I1038
tp832
sS'baermann_1743_v1_1_0410.tif'
p833
(I638
I1038
tp834
sS'baermann_1743_v1_1_0367.tif'
p835
(I638
I1038
tp836
sS'baermann_1743_v1_1_0287.tif'
p837
(I638
I1038
tp838
sS'baermann_1743_v1_1_0192.tif'
p839
(I638
I1038
tp840
sS'baermann_1743_v1_1_0205.tif'
p841
(I638
I1038
tp842
sS'baermann_1743_v1_1_0255.tif'
p843
(I638
I1038
tp844
sS'baermann_1743_v1_1_0434.tif'
p845
(I638
I1038
tp846
sS'baermann_1743_v1_1_0081.tif'
p847
(I638
I1038
tp848
sS'baermann_1743_v1_1_0407.tif'
p849
(I638
I1038
tp850
sS'baermann_1743_v1_1_0371.tif'
p851
(I638
I1038
tp852
sS'baermann_1743_v1_1_0137.tif'
p853
(I638
I1038
tp854
sS'baermann_1743_v1_1_0442.tif'
p855
(I638
I1038
tp856
sS'baermann_1743_v1_1_0121.tif'
p857
(I638
I1038
tp858
sS'baermann_1743_v1_1_0021.tif'
p859
(I638
I1038
tp860
sS'baermann_1743_v1_1_0038.tif'
p861
(I638
I1038
tp862
sS'baermann_1743_v1_1_0260.tif'
p863
(I638
I1038
tp864
s.