(dp0
S'elementorvmevcl00baergoog_0371'
p1
cnumpy.core.multiarray
scalar
p2
(cnumpy
dtype
p3
(S'f8'
p4
I0
I1
tp5
Rp6
(I3
S'<'
p7
NNNI-1
I-1
I0
tp8
bS'!\x93\xbe\x87+HN?'
p9
tp10
Rp11
sS'elementorvmevcl00baergoog_0278'
p12
g2
(g6
S'\xe4:\x81\xc8\xc1\x14P?'
p13
tp14
Rp15
sS'elementorvmevcl00baergoog_0279'
p16
g2
(g6
S'.\x19\xfbq~\x99L?'
p17
tp18
Rp19
sS'elementorvmevcl00baergoog_0373'
p20
g2
(g6
S'G%tF$<I?'
p21
tp22
Rp23
sS'elementorvmevcl00baergoog_0372'
p24
g2
(g6
S'uVX\x86|CK?'
p25
tp26
Rp27
sS'elementorvmevcl00baergoog_0375'
p28
g2
(g6
S'\xfa\xbb\xfc?*dM?'
p29
tp30
Rp31
sS'elementorvmevcl00baergoog_0374'
p32
g2
(g6
S'G%tF$<I?'
p33
tp34
Rp35
sS'elementorvmevcl00baergoog_0377'
p36
g2
(g6
S'\x94\xbc\xf3Ry\tI?'
p37
tp38
Rp39
sS'elementorvmevcl00baergoog_0376'
p40
g2
(g6
S'!\x93\xbe\x87+HN?'
p41
tp42
Rp43
sS'elementorvmevcl00baergoog_0270'
p44
g2
(g6
S'!\x93\xbe\x87+HN?'
p45
tp46
Rp47
sS'elementorvmevcl00baergoog_0271'
p48
g2
(g6
S'\x93\xbc\xf3Ry\tI?'
p49
tp50
Rp51
sS'elementorvmevcl00baergoog_0272'
p52
g2
(g6
S'\xa0Y4\xc0yUI?'
p53
tp54
Rp55
sS'elementorvmevcl00baergoog_0273'
p56
g2
(g6
S'\x13\xb1q\x91"\x0cH?'
p57
tp58
Rp59
sS'elementorvmevcl00baergoog_0274'
p60
g2
(g6
S'\x06\x141$"\xc0G?'
p61
tp62
Rp63
sS'elementorvmevcl00baergoog_0275'
p64
g2
(g6
S'\x87M\xbb\xeb\xd3\xb2L?'
p65
tp66
Rp67
sS'elementorvmevcl00baergoog_0276'
p68
g2
(g6
S'\xbc\xd8\xc1#\x83\xddO?'
p69
tp70
Rp71
sS'elementorvmevcl00baergoog_0277'
p72
g2
(g6
S'\xb7 \xa1\x0b\x17\x08P?'
p73
tp74
Rp75
sS'elementorvmevcl00baergoog_0383'
p76
g2
(g6
S'\xed\xd9\xafI!(G?'
p77
tp78
Rp79
sS'elementorvmevcl00baergoog_0038'
p80
g2
(g6
S"'\x91\xd0s\xcc\x80G?"
p81
tp82
Rp83
sS'elementorvmevcl00baergoog_0039'
p84
g2
(g6
S'\x05\xcf$\x9b\x19\xd0A?'
p85
tp86
Rp87
sS'elementorvmevcl00baergoog_0289'
p88
g2
(g6
S'\xae$}3\xd5\x96M?'
p89
tp90
Rp91
sS'elementorvmevcl00baergoog_0288'
p92
g2
(g6
S'"\x93\xbe\x87+HN?'
p93
tp94
Rp95
sS'elementorvmevcl00baergoog_0370'
p96
g2
(g6
S'uVX\x86|CK?'
p97
tp98
Rp99
sS'elementorvmevcl00baergoog_0281'
p100
g2
(g6
S'!\x93\xbe\x87+HN?'
p101
tp102
Rp103
sS'elementorvmevcl00baergoog_0280'
p104
g2
(g6
S'\xdf<o\xdc \xdcF?'
p105
tp106
Rp107
sS'elementorvmevcl00baergoog_0283'
p108
g2
(g6
S'H<x\xc9\xd16K?'
p109
tp110
Rp111
sS'elementorvmevcl00baergoog_0282'
p112
g2
(g6
S'\xc8G\xfa\x8a(4L?'
p113
tp114
Rp115
sS'elementorvmevcl00baergoog_0285'
p116
g2
(g6
S'\xef\x1e\xbc\xd2)\x18M?'
p117
tp118
Rp119
sS'elementorvmevcl00baergoog_0284'
p120
g2
(g6
S'\x82!\xa1\xf9\xd7\x84O?'
p121
tp122
Rp123
sS'elementorvmevcl00baergoog_0287'
p124
g2
(g6
S'\x08pA0\xd8\xaaO?'
p125
tp126
Rp127
sS'elementorvmevcl00baergoog_0286'
p128
g2
(g6
S'\xfa\xbb\xfc?*dM?'
p129
tp130
Rp131
sS'elementorvmevcl00baergoog_0030'
p132
g2
(g6
S'\xfb\xbb\xfc?*dM?'
p133
tp134
Rp135
sS'elementorvmevcl00baergoog_0050'
p136
g2
(g6
S'\x13\xb1q\x91"\x0cH?'
p137
tp138
Rp139
sS'elementorvmevcl00baergoog_0051'
p140
g2
(g6
S'G%tF$<I?'
p141
tp142
Rp143
sS'elementorvmevcl00baergoog_0052'
p144
g2
(g6
S'\x9f\x14(7qeC?'
p145
tp146
Rp147
sS'elementorvmevcl00baergoog_0053'
p148
g2
(g6
S':\x9f7\\\xd1\xeaJ?'
p149
tp150
Rp151
sS'elementorvmevcl00baergoog_0054'
p152
g2
(g6
S"\xae\ry\xb0'\x9cK?"
p153
tp154
Rp155
sS'elementorvmevcl00baergoog_0055'
p156
g2
(g6
S'!\x93\xbe\x87+HN?'
p157
tp158
Rp159
sS'elementorvmevcl00baergoog_0056'
p160
g2
(g6
S'\xd3\xb62\xf2\xcd\x8aH?'
p161
tp162
Rp163
sS'elementorvmevcl00baergoog_0057'
p164
g2
(g6
S'uVX\x86|CK?'
p165
tp166
Rp167
sS'elementorvmevcl00baergoog_0058'
p168
g2
(g6
S"\xdb'Ym\xd2\xa8K?"
p169
tp170
Rp171
sS'elementorvmevcl00baergoog_0059'
p172
g2
(g6
S':\x9f7\\\xd1\xeaJ?'
p173
tp174
Rp175
sS'elementorvmevcl00baergoog_0119'
p176
g2
(g6
S'\xc2\x1b\xe0\x98,\x06O?'
p177
tp178
Rp179
sS'elementorvmevcl00baergoog_0118'
p180
g2
(g6
S'\tY=\xad*\xb0M?'
p181
tp182
Rp183
sS'elementorvmevcl00baergoog_0378'
p184
g2
(g6
S'.\x19\xfbq~\x99L?'
p185
tp186
Rp187
sS'elementorvmevcl00baergoog_0111'
p188
g2
(g6
S'!e\xb6\x81\xd0RJ?'
p189
tp190
Rp191
sS'elementorvmevcl00baergoog_0110'
p192
g2
(g6
S'\xa0Y4\xc0yUI?'
p193
tp194
Rp195
sS'elementorvmevcl00baergoog_0113'
p196
g2
(g6
S';\x9f7\\\xd1\xeaJ?'
p197
tp198
Rp199
sS'elementorvmevcl00baergoog_0112'
p200
g2
(g6
S'!e\xb6\x81\xd0RJ?'
p201
tp202
Rp203
sS'elementorvmevcl00baergoog_0115'
p204
g2
(g6
S'l\xce-\x88\xca*F?'
p205
tp206
Rp207
sS'elementorvmevcl00baergoog_0114'
p208
g2
(g6
S':\x9f7\\\xd1\xeaJ?'
p209
tp210
Rp211
sS'elementorvmevcl00baergoog_0117'
p212
g2
(g6
S"\xad\ry\xb0'\x9cK?"
p213
tp214
Rp215
sS'elementorvmevcl00baergoog_0116'
p216
g2
(g6
S'\xb5~\x9f+,\xbaN?'
p217
tp218
Rp219
sS'elementorvmevcl00baergoog_0238'
p220
g2
(g6
S'z\x82rxxqH?'
p221
tp222
Rp223
sS'elementorvmevcl00baergoog_0239'
p224
g2
(g6
S'z\x82rxxqH?'
p225
tp226
Rp227
sS'elementorvmevcl00baergoog_0234'
p228
g2
(g6
S'@\xe2U\xd1z\x13J?'
p229
tp230
Rp231
sS'elementorvmevcl00baergoog_0235'
p232
g2
(g6
S'\xff\x8b\x06&p\xa7B?'
p233
tp234
Rp235
sS'elementorvmevcl00baergoog_0236'
p236
g2
(g6
S'\xfa\xbb\xfc?*dM?'
p237
tp238
Rp239
sS'elementorvmevcl00baergoog_0237'
p240
g2
(g6
S'b\x8d\xfd&\x80\xc9M?'
p241
tp242
Rp243
sS'elementorvmevcl00baergoog_0230'
p244
g2
(g6
S'\x19\xdd\x8b\x83\x1e:E?'
p245
tp246
Rp247
sS'elementorvmevcl00baergoog_0231'
p248
g2
(g6
S'<\xcd?b,\xe0>?'
p249
tp250
Rp251
sS'elementorvmevcl00baergoog_0232'
p252
g2
(g6
S'Ij\x80\xcf,,O?'
p253
tp254
Rp255
sS'elementorvmevcl00baergoog_0233'
p256
g2
(g6
S'\x1b9\x9c\x8f\xd4$M?'
p257
tp258
Rp259
sS'elementorvmevcl00baergoog_0429'
p260
g2
(g6
S'9\x883\xd9#\xf0H?'
p261
tp262
Rp263
sS'elementorvmevcl00baergoog_0428'
p264
g2
(g6
S'\x08Y=\xad*\xb0M?'
p265
tp266
Rp267
sS'elementorvmevcl00baergoog_0425'
p268
g2
(g6
S'uVX\x86|CK?'
p269
tp270
Rp271
sS'elementorvmevcl00baergoog_0424'
p272
g2
(g6
S'\xd5\xe4:\xf8(\x80L?'
p273
tp274
Rp275
sS'elementorvmevcl00baergoog_0427'
p276
g2
(g6
S'!e\xb6\x81\xd0RJ?'
p277
tp278
Rp279
sS'elementorvmevcl00baergoog_0426'
p280
g2
(g6
S'Mh\x92\xbb\xcddH?'
p281
tp282
Rp283
sS'elementorvmevcl00baergoog_0421'
p284
g2
(g6
S'\x08B9*}\xb5K?'
p285
tp286
Rp287
sS'elementorvmevcl00baergoog_0420'
p288
g2
(g6
S' |\xba\x04~ML?'
p289
tp290
Rp291
sS'elementorvmevcl00baergoog_0423'
p292
g2
(g6
S'n\xfc5\x8e% J?'
p293
tp294
Rp295
sS'elementorvmevcl00baergoog_0422'
p296
g2
(g6
S'\xec\xd9\xafI!(G?'
p297
tp298
Rp299
sS'elementorvmevcl00baergoog_0308'
p300
g2
(g6
S'!|\xba\x04~ML?'
p301
tp302
Rp303
sS'elementorvmevcl00baergoog_0309'
p304
g2
(g6
S'\x1b9\x9c\x8f\xd4$M?'
p305
tp306
Rp307
sS'elementorvmevcl00baergoog_0300'
p308
g2
(g6
S'\xf9H\xe8\xb0\xc6~S?'
p309
tp310
Rp311
sS'elementorvmevcl00baergoog_0301'
p312
g2
(g6
S'\xd5\xe4:\xf8(\x80L?'
p313
tp314
Rp315
sS'elementorvmevcl00baergoog_0302'
p316
g2
(g6
S'\x82!\xa1\xf9\xd7\x84O?'
p317
tp318
Rp319
sS'elementorvmevcl00baergoog_0303'
p320
g2
(g6
S'\xae$}3\xd5\x96M?'
p321
tp322
Rp323
sS'elementorvmevcl00baergoog_0304'
p324
g2
(g6
S'\x87d\xbfn\x81\xadN?'
p325
tp326
Rp327
sS'elementorvmevcl00baergoog_0305'
p328
g2
(g6
S'b\x19\xf2\rm\x80P?'
p329
tp330
Rp331
sS'elementorvmevcl00baergoog_0306'
p332
g2
(g6
S'5\xff\x11Q\xc2sP?'
p333
tp334
Rp335
sS'elementorvmevcl00baergoog_0307'
p336
g2
(g6
S"\xad\ry\xb0'\x9cK?"
p337
tp338
Rp339
sS'elementorvmevcl00baergoog_0450'
p340
g2
(g6
S'\xcds\x14}$bI?'
p341
tp342
Rp343
sS'elementorvmevcl00baergoog_0031'
p344
g2
(g6
S'\x84\xc3\xa2\xd9\xc2\xd2P?'
p345
tp346
Rp347
sS'elementorvmevcl00baergoog_0451'
p348
g2
(g6
S'Y\xee\xce\xa5 \xb6F?'
p349
tp350
Rp351
sS'elementorvmevcl00baergoog_0160'
p352
g2
(g6
S'\x00\xd1\x12\xafx\x97H?'
p353
tp354
Rp355
sS'elementorvmevcl00baergoog_0161'
p356
g2
(g6
S'\xae$}3\xd5\x96M?'
p357
tp358
Rp359
sS'elementorvmevcl00baergoog_0089'
p360
g2
(g6
S'\x93\xbc\xf3Ry\tI?'
p361
tp362
Rp363
sS'elementorvmevcl00baergoog_0088'
p364
g2
(g6
S'\xbc\xd8\xc1#\x83\xddO?'
p365
tp366
Rp367
sS'elementorvmevcl00baergoog_0164'
p368
g2
(g6
S'\x876\xb7h&\xb8J?'
p369
tp370
Rp371
sS'elementorvmevcl00baergoog_0165'
p372
g2
(g6
S'm\xfc5\x8e% J?'
p373
tp374
Rp375
sS'elementorvmevcl00baergoog_0166'
p376
g2
(g6
S'xTjr\x1d|D?'
p377
tp378
Rp379
sS'elementorvmevcl00baergoog_0167'
p380
g2
(g6
S'\x94\xbc\xf3Ry\tI?'
p381
tp382
Rp383
sS'elementorvmevcl00baergoog_0083'
p384
g2
(g6
S'\xfa\xbb\xfc?*dM?'
p385
tp386
Rp387
sS'elementorvmevcl00baergoog_0082'
p388
g2
(g6
S"\xad\ry\xb0'\x9cK?"
p389
tp390
Rp391
sS'elementorvmevcl00baergoog_0081'
p392
g2
(g6
S'\xcds\x14}$bI?'
p393
tp394
Rp395
sS'elementorvmevcl00baergoog_0080'
p396
g2
(g6
S'\x94\xd3\xf7\xd5&\x04K?'
p397
tp398
Rp399
sS'elementorvmevcl00baergoog_0087'
p400
g2
(g6
S'uVX\x86|CK?'
p401
tp402
Rp403
sS'elementorvmevcl00baergoog_0086'
p404
g2
(g6
S'\x876\xb7h&\xb8J?'
p405
tp406
Rp407
sS'elementorvmevcl00baergoog_0085'
p408
g2
(g6
S'\xae$}3\xd5\x96M?'
p409
tp410
Rp411
sS'elementorvmevcl00baergoog_0084'
p412
g2
(g6
S"\xa1p8C'PK?"
p413
tp414
Rp415
sS'elementorvmevcl00baergoog_0267'
p416
g2
(g6
S'`_\xf5 %\xd4I?'
p417
tp418
Rp419
sS'elementorvmevcl00baergoog_0266'
p420
g2
(g6
S"\xad\ry\xb0'\x9cK?"
p421
tp422
Rp423
sS'elementorvmevcl00baergoog_0265'
p424
g2
(g6
S'\x08pA0\xd8\xaaO?'
p425
tp426
Rp427
sS'elementorvmevcl00baergoog_0264'
p428
g2
(g6
S'\xd5\xfb>{\xd6zN?'
p429
tp430
Rp431
sS'elementorvmevcl00baergoog_0263'
p432
g2
(g6
S'm\xfc5\x8e% J?'
p433
tp434
Rp435
sS'elementorvmevcl00baergoog_0262'
p436
g2
(g6
S'S\xab\xb00w\x8dG?'
p437
tp438
Rp439
sS'elementorvmevcl00baergoog_0261'
p440
g2
(g6
S'{\xb0z~\xd3fL?'
p441
tp442
Rp443
sS'elementorvmevcl00baergoog_0260'
p444
g2
(g6
S"8C'P\x1b\x00C?"
p445
tp446
Rp447
sS'elementorvmevcl00baergoog_0269'
p448
g2
(g6
S'8,#\xcdm\x05Q?'
p449
tp450
Rp451
sS'elementorvmevcl00baergoog_0268'
p452
g2
(g6
S'\xfa\xbb\xfc?*dM?'
p453
tp454
Rp455
sS'elementorvmevcl00baergoog_0348'
p456
g2
(g6
S'G%tF$<I?'
p457
tp458
Rp459
sS'elementorvmevcl00baergoog_0349'
p460
g2
(g6
S'\xd4\xe4:\xf8(\x80L?'
p461
tp462
Rp463
sS'elementorvmevcl00baergoog_0344'
p464
g2
(g6
S'\xd5\xe4:\xf8(\x80L?'
p465
tp466
Rp467
sS'elementorvmevcl00baergoog_0345'
p468
g2
(g6
S"'\xbf\xd8y'vK?"
p469
tp470
Rp471
sS'elementorvmevcl00baergoog_0346'
p472
g2
(g6
S'Mh\x92\xbb\xcddH?'
p473
tp474
Rp475
sS'elementorvmevcl00baergoog_0347'
p476
g2
(g6
S'\xe0<o\xdc \xdcF?'
p477
tp478
Rp479
sS'elementorvmevcl00baergoog_0340'
p480
g2
(g6
S' e\xb6\x81\xd0RJ?'
p481
tp482
Rp483
sS'elementorvmevcl00baergoog_0341'
p484
g2
(g6
S'N\x7f\x96>{_J?'
p485
tp486
Rp487
sS'elementorvmevcl00baergoog_0342'
p488
g2
(g6
S'\x05\xcf$\x9b\x19\xd0A?'
p489
tp490
Rp491
sS'elementorvmevcl00baergoog_0343'
p492
g2
(g6
S'\xd3\xb62\xf2\xcd\x8aH?'
p493
tp494
Rp495
sS'elementorvmevcl00baergoog_0443'
p496
g2
(g6
S'\x82!\xa1\xf9\xd7\x84O?'
p497
tp498
Rp499
sS'elementorvmevcl00baergoog_0442'
p500
g2
(g6
S'uVX\x86|CK?'
p501
tp502
Rp503
sS'elementorvmevcl00baergoog_0441'
p504
g2
(g6
S'"\x93\xbe\x87+HN?'
p505
tp506
Rp507
sS'elementorvmevcl00baergoog_0440'
p508
g2
(g6
S'\x08pA0\xd8\xaaO?'
p509
tp510
Rp511
sS'elementorvmevcl00baergoog_0447'
p512
g2
(g6
S'Mh\x92\xbb\xcddH?'
p513
tp514
Rp515
sS'elementorvmevcl00baergoog_0446'
p516
g2
(g6
S':\x9f7\\\xd1\xeaJ?'
p517
tp518
Rp519
sS'elementorvmevcl00baergoog_0445'
p520
g2
(g6
S'\x08pA0\xd8\xaaO?'
p521
tp522
Rp523
sS'elementorvmevcl00baergoog_0444'
p524
g2
(g6
S'\x15\x82r\x01\x18\xb3P?'
p525
tp526
Rp527
sS'elementorvmevcl00baergoog_0124'
p528
g2
(g6
S'\x8db\xd1Z"\xe6G?'
p529
tp530
Rp531
sS'elementorvmevcl00baergoog_0125'
p532
g2
(g6
S'\xfa\xbb\xfc?*dM?'
p533
tp534
Rp535
sS'elementorvmevcl00baergoog_0126'
p536
g2
(g6
S"\xad\ry\xb0'\x9cK?"
p537
tp538
Rp539
sS'elementorvmevcl00baergoog_0127'
p540
g2
(g6
S'\xa0+,\xba\x1e`E?'
p541
tp542
Rp543
sS'elementorvmevcl00baergoog_0120'
p544
g2
(g6
S'\x94\xd3\xf7\xd5&\x04K?'
p545
tp546
Rp547
sS'elementorvmevcl00baergoog_0121'
p548
g2
(g6
S'\xc8G\xfa\x8a(4L?'
p549
tp550
Rp551
sS'elementorvmevcl00baergoog_0049'
p552
g2
(g6
S'Mh\x92\xbb\xcddH?'
p553
tp554
Rp555
sS'elementorvmevcl00baergoog_0048'
p556
g2
(g6
S'z\x82rxxqH?'
p557
tp558
Rp559
sS'elementorvmevcl00baergoog_0047'
p560
g2
(g6
S'S\xab\xb00w\x8dG?'
p561
tp562
Rp563
sS'elementorvmevcl00baergoog_0046'
p564
g2
(g6
S'\xd5\xe4:\xf8(\x80L?'
p565
tp566
Rp567
sS'elementorvmevcl00baergoog_0045'
p568
g2
(g6
S"4\\\x19\xe7'\xc2K?"
p569
tp570
Rp571
sS'elementorvmevcl00baergoog_0044'
p572
g2
(g6
S'\x94\xd3\xf7\xd5&\x04K?'
p573
tp574
Rp575
sS'elementorvmevcl00baergoog_0043'
p576
g2
(g6
S'@\xe2U\xd1z\x13J?'
p577
tp578
Rp579
sS'elementorvmevcl00baergoog_0042'
p580
g2
(g6
S'9\x883\xd9#\xf0H?'
p581
tp582
Rp583
sS'elementorvmevcl00baergoog_0041'
p584
g2
(g6
S'\xd2Z"\xe6\x17\xa00?'
p585
tp586
Rp587
sS'elementorvmevcl00baergoog_0040'
p588
g2
(g6
S"'\x91\xd0s\xcc\x80G?"
p589
tp590
Rp591
sS'elementorvmevcl00baergoog_0122'
p592
g2
(g6
S'z\x82rxxqH?'
p593
tp594
Rp595
sS'elementorvmevcl00baergoog_0123'
p596
g2
(g6
S'z\x82rxxqH?'
p597
tp598
Rp599
sS'elementorvmevcl00baergoog_0366'
p600
g2
(g6
S':\x9f7\\\xd1\xeaJ?'
p601
tp602
Rp603
sS'elementorvmevcl00baergoog_0367'
p604
g2
(g6
S'@\xe2U\xd1z\x13J?'
p605
tp606
Rp607
sS'elementorvmevcl00baergoog_0128'
p608
g2
(g6
S'\xfa\xbb\xfc?*dM?'
p609
tp610
Rp611
sS'elementorvmevcl00baergoog_0129'
p612
g2
(g6
S'\x86\x1f\xb3\xe5x\xbdH?'
p613
tp614
Rp615
sS'elementorvmevcl00baergoog_0380'
p616
g2
(g6
S'N9\x93+\xc3\x0bQ?'
p617
tp618
Rp619
sS'elementorvmevcl00baergoog_0381'
p620
g2
(g6
S'\xd5\xe4:\xf8(\x80L?'
p621
tp622
Rp623
sS'elementorvmevcl00baergoog_0229'
p624
g2
(g6
S"\xad\ry\xb0'\x9cK?"
p625
tp626
Rp627
sS'elementorvmevcl00baergoog_0228'
p628
g2
(g6
S'\x08B9*}\xb5K?'
p629
tp630
Rp631
sS'elementorvmevcl00baergoog_0384'
p632
g2
(g6
S'\xbc\xd8\xc1#\x83\xdd??'
p633
tp634
Rp635
sS'elementorvmevcl00baergoog_0385'
p636
g2
(g6
S'\x94\xbc\xf3Ry\tI?'
p637
tp638
Rp639
sS'elementorvmevcl00baergoog_0379'
p640
g2
(g6
S'\x8db\xd1Z"\xe6G?'
p641
tp642
Rp643
sS'elementorvmevcl00baergoog_0387'
p644
g2
(g6
S'b\x19\xf2\rm\x80P?'
p645
tp646
Rp647
sS'elementorvmevcl00baergoog_0223'
p648
g2
(g6
S"4\\\x19\xe7'\xc2K?"
p649
tp650
Rp651
sS'elementorvmevcl00baergoog_0222'
p652
g2
(g6
S'@\xe2U\xd1z\x13J?'
p653
tp654
Rp655
sS'elementorvmevcl00baergoog_0221'
p656
g2
(g6
S'3.\x11\xe1\xcc\xccG?'
p657
tp658
Rp659
sS'elementorvmevcl00baergoog_0220'
p660
g2
(g6
S'\x876\xb7h&\xb8J?'
p661
tp662
Rp663
sS'elementorvmevcl00baergoog_0227'
p664
g2
(g6
S'm\xfc5\x8e% J?'
p665
tp666
Rp667
sS'elementorvmevcl00baergoog_0226'
p668
g2
(g6
S'\x06\x141$"\xc0G?'
p669
tp670
Rp671
sS'elementorvmevcl00baergoog_0225'
p672
g2
(g6
S'`_\xf5 %\xd4I?'
p673
tp674
Rp675
sS'elementorvmevcl00baergoog_0224'
p676
g2
(g6
S'G%tF$<I?'
p677
tp678
Rp679
sS'elementorvmevcl00baergoog_0369'
p680
g2
(g6
S'@\xe2U\xd1z\x13J?'
p681
tp682
Rp683
sS'elementorvmevcl00baergoog_0418'
p684
g2
(g6
S'@\xe2U\xd1z\x13J?'
p685
tp686
Rp687
sS'elementorvmevcl00baergoog_0419'
p688
g2
(g6
S'\xec\xd9\xafI!(G?'
p689
tp690
Rp691
sS'elementorvmevcl00baergoog_0410'
p692
g2
(g6
S'\x9b\x16\x16K\xd0,J?'
p693
tp694
Rp695
sS'elementorvmevcl00baergoog_0411'
p696
g2
(g6
S':\x9f7\\\xd1\xeaJ?'
p697
tp698
Rp699
sS'elementorvmevcl00baergoog_0412'
p700
g2
(g6
S'\x8b\x1d\xc5\xd1\x19\xf6Q?'
p701
tp702
Rp703
sS'elementorvmevcl00baergoog_0413'
p704
g2
(g6
S'\xae$}3\xd5\x96M?'
p705
tp706
Rp707
sS'elementorvmevcl00baergoog_0414'
p708
g2
(g6
S'\xcds\x14}$bI?'
p709
tp710
Rp711
sS'elementorvmevcl00baergoog_0415'
p712
g2
(g6
S'G%tF$<I?'
p713
tp714
Rp715
sS'elementorvmevcl00baergoog_0416'
p716
g2
(g6
S"\xad\ry\xb0'\x9cK?"
p717
tp718
Rp719
sS'elementorvmevcl00baergoog_0417'
p720
g2
(g6
S'\xcds\x14}$bI?'
p721
tp722
Rp723
sS'elementorvmevcl00baergoog_0317'
p724
g2
(g6
S'\xef\x1e\xbc\xd2)\x18M?'
p725
tp726
Rp727
sS'elementorvmevcl00baergoog_0316'
p728
g2
(g6
S'\xaf;\x81\xb6\x82\x91O?'
p729
tp730
Rp731
sS'elementorvmevcl00baergoog_0315'
p732
g2
(g6
S'\xd5\xe4:\xf8(\x80L?'
p733
tp734
Rp735
sS'elementorvmevcl00baergoog_0314'
p736
g2
(g6
S' |\xba\x04~ML?'
p737
tp738
Rp739
sS'elementorvmevcl00baergoog_0313'
p740
g2
(g6
S'\x08pA0\xd8\xaaO?'
p741
tp742
Rp743
sS'elementorvmevcl00baergoog_0312'
p744
g2
(g6
S'`_\xf5 %\xd4I?'
p745
tp746
Rp747
sS'elementorvmevcl00baergoog_0258'
p748
g2
(g6
S'm\xfc5\x8e% J?'
p749
tp750
Rp751
sS'elementorvmevcl00baergoog_0259'
p752
g2
(g6
S'\xc0\xd6\xd3\x0f$\x16I?'
p753
tp754
Rp755
sS'elementorvmevcl00baergoog_0256'
p756
g2
(g6
S'\xc5\xbd\xe1x\x17TP?'
p757
tp758
Rp759
sS'elementorvmevcl00baergoog_0257'
p760
g2
(g6
S'\xec\xd9\xafI!(G?'
p761
tp762
Rp763
sS'elementorvmevcl00baergoog_0254'
p764
g2
(g6
S'H<x\xc9\xd16K?'
p765
tp766
Rp767
sS'elementorvmevcl00baergoog_0255'
p768
g2
(g6
S'm\xfc5\x8e% J?'
p769
tp770
Rp771
sS'elementorvmevcl00baergoog_0252'
p772
g2
(g6
S'H<x\xc9\xd16K?'
p773
tp774
Rp775
sS'elementorvmevcl00baergoog_0253'
p776
g2
(g6
S'm\xfc5\x8e% J?'
p777
tp778
Rp779
sS'elementorvmevcl00baergoog_0250'
p780
g2
(g6
S'_1\xed\x1a\xca\xdeE?'
p781
tp782
Rp783
sS'elementorvmevcl00baergoog_0251'
p784
g2
(g6
S'e]\x07\r\xc6\x0cC?'
p785
tp786
Rp787
sS'elementorvmevcl00baergoog_0182'
p788
g2
(g6
S'@\xe2U\xd1z\x13J?'
p789
tp790
Rp791
sS'elementorvmevcl00baergoog_0183'
p792
g2
(g6
S':\x9f7\\\xd1\xeaJ?'
p793
tp794
Rp795
sS'elementorvmevcl00baergoog_0180'
p796
g2
(g6
S"\xad\ry\xb0'\x9cK?"
p797
tp798
Rp799
sS'elementorvmevcl00baergoog_0181'
p800
g2
(g6
S'g\xd0\x1b\x9c)\xf2L?'
p801
tp802
Rp803
sS'elementorvmevcl00baergoog_0186'
p804
g2
(g6
S'\xec\xd9\xafI!(G?'
p805
tp806
Rp807
sS'elementorvmevcl00baergoog_0187'
p808
g2
(g6
S'\xa7\x9cR5#~H?'
p809
tp810
Rp811
sS'elementorvmevcl00baergoog_0184'
p812
g2
(g6
S'\xd5\xfb>{\xd6zN?'
p813
tp814
Rp815
sS'elementorvmevcl00baergoog_0185'
p816
g2
(g6
S'\x1b9\x9c\x8f\xd4$M?'
p817
tp818
Rp819
sS'elementorvmevcl00baergoog_0188'
p820
g2
(g6
S'<\xcd?b,\xe0N?'
p821
tp822
Rp823
sS'elementorvmevcl00baergoog_0189'
p824
g2
(g6
S'\xb6~\x9f+,\xbaN?'
p825
tp826
Rp827
sS'elementorvmevcl00baergoog_0076'
p828
g2
(g6
S"\xa1p8C'PK?"
p829
tp830
Rp831
sS'elementorvmevcl00baergoog_0077'
p832
g2
(g6
S'\xc8G\xfa\x8a(4L?'
p833
tp834
Rp835
sS'elementorvmevcl00baergoog_0074'
p836
g2
(g6
S'S\xab\xb00w\x8dG?'
p837
tp838
Rp839
sS'elementorvmevcl00baergoog_0075'
p840
g2
(g6
S'\x94\xd3\xf7\xd5&\x04K?'
p841
tp842
Rp843
sS'elementorvmevcl00baergoog_0072'
p844
g2
(g6
S':q/Vv\xf5F?'
p845
tp846
Rp847
sS'elementorvmevcl00baergoog_0073'
p848
g2
(g6
S"\xa1p8C'PK?"
p849
tp850
Rp851
sS'elementorvmevcl00baergoog_0070'
p852
g2
(g6
S'`_\xf5 %\xd4I?'
p853
tp854
Rp855
sS'elementorvmevcl00baergoog_0071'
p856
g2
(g6
S'm\xfc5\x8e% J?'
p857
tp858
Rp859
sS'elementorvmevcl00baergoog_0078'
p860
g2
(g6
S'\x94\xd3\xf7\xd5&\x04K?'
p861
tp862
Rp863
sS'elementorvmevcl00baergoog_0079'
p864
g2
(g6
S'\xd3\xb62\xf2\xcd\x8aH?'
p865
tp866
Rp867
sS'elementorvmevcl00baergoog_0179'
p868
g2
(g6
S'\x87M\xbb\xeb\xd3\xb2L?'
p869
tp870
Rp871
sS'elementorvmevcl00baergoog_0178'
p872
g2
(g6
S'H<x\xc9\xd16K?'
p873
tp874
Rp875
sS'elementorvmevcl00baergoog_0177'
p876
g2
(g6
S'm\xfc5\x8e% J?'
p877
tp878
Rp879
sS'elementorvmevcl00baergoog_0176'
p880
g2
(g6
S'T\xc2\xb4\xb3$\x88I?'
p881
tp882
Rp883
sS'elementorvmevcl00baergoog_0175'
p884
g2
(g6
S'\xc7\x02\xee\x01 DF?'
p885
tp886
Rp887
sS'elementorvmevcl00baergoog_0174'
p888
g2
(g6
S"4\\\x19\xe7'\xc2K?"
p889
tp890
Rp891
sS'elementorvmevcl00baergoog_0173'
p892
g2
(g6
S' e\xb6\x81\xd0RJ?'
p893
tp894
Rp895
sS'elementorvmevcl00baergoog_0172'
p896
g2
(g6
S'\xde\xf7bS\x18\xecP?'
p897
tp898
Rp899
sS'elementorvmevcl00baergoog_0171'
p900
g2
(g6
S'\x07B9*}\xb5K?'
p901
tp902
Rp903
sS'elementorvmevcl00baergoog_0170'
p904
g2
(g6
S'\x16\r\x82\x9d\xd8\xf6O?'
p905
tp906
Rp907
sS'elementorvmevcl00baergoog_0212'
p908
g2
(g6
S'_1\xed\x1a\xca\xdeE?'
p909
tp910
Rp911
sS'elementorvmevcl00baergoog_0213'
p912
g2
(g6
S'9\x883\xd9#\xf0H?'
p913
tp914
Rp915
sS'elementorvmevcl00baergoog_0210'
p916
g2
(g6
S'n*>\x94\x80\x15N?'
p917
tp918
Rp919
sS'elementorvmevcl00baergoog_0211'
p920
g2
(g6
S'\xed\xd9\xafI!(G?'
p921
tp922
Rp923
sS'elementorvmevcl00baergoog_0216'
p924
g2
(g6
S'\xc8G\xfa\x8a(4L?'
p925
tp926
Rp927
sS'elementorvmevcl00baergoog_0217'
p928
g2
(g6
S"\xa1p8C'PK?"
p929
tp930
Rp931
sS'elementorvmevcl00baergoog_0214'
p932
g2
(g6
S'!\x93\xbe\x87+HN?'
p933
tp934
Rp935
sS'elementorvmevcl00baergoog_0215'
p936
g2
(g6
S'!|\xba\x04~ML?'
p937
tp938
Rp939
sS'elementorvmevcl00baergoog_0218'
p940
g2
(g6
S'H<x\xc9\xd16K?'
p941
tp942
Rp943
sS'elementorvmevcl00baergoog_0219'
p944
g2
(g6
S'H<x\xc9\xd16K?'
p945
tp946
Rp947
sS'elementorvmevcl00baergoog_0382'
p948
g2
(g6
S'\x08B9*}\xb5K?'
p949
tp950
Rp951
sS'elementorvmevcl00baergoog_0359'
p952
g2
(g6
S'9\x883\xd9#\xf0H?'
p953
tp954
Rp955
sS'elementorvmevcl00baergoog_0358'
p956
g2
(g6
S'\xd4\xe4:\xf8(\x80L?'
p957
tp958
Rp959
sS'elementorvmevcl00baergoog_0353'
p960
g2
(g6
S'Mh\x92\xbb\xcddH?'
p961
tp962
Rp963
sS'elementorvmevcl00baergoog_0352'
p964
g2
(g6
S':\x9f7\\\xd1\xeaJ?'
p965
tp966
Rp967
sS'elementorvmevcl00baergoog_0351'
p968
g2
(g6
S'\xc6\x02\xee\x01 DF?'
p969
tp970
Rp971
sS'elementorvmevcl00baergoog_0350'
p972
g2
(g6
S'\xd3\x9f.o \x90F?'
p973
tp974
Rp975
sS'elementorvmevcl00baergoog_0357'
p976
g2
(g6
S'G%tF$<I?'
p977
tp978
Rp979
sS'elementorvmevcl00baergoog_0356'
p980
g2
(g6
S'z\x82rxxqH?'
p981
tp982
Rp983
sS'elementorvmevcl00baergoog_0355'
p984
g2
(g6
S'Mh\x92\xbb\xcddH?'
p985
tp986
Rp987
sS'elementorvmevcl00baergoog_0354'
p988
g2
(g6
S'"\x93\xbe\x87+HN?'
p989
tp990
Rp991
sS'elementorvmevcl00baergoog_0386'
p992
g2
(g6
S'9\x883\xd9#\xf0H?'
p993
tp994
Rp995
sS'elementorvmevcl00baergoog_0162'
p996
g2
(g6
S'\x01\xe8\x162&\x92J?'
p997
tp998
Rp999
sS'elementorvmevcl00baergoog_0388'
p1000
g2
(g6
S'\x15\r\x82\x9d\xd8\xf6O?'
p1001
tp1002
Rp1003
sS'elementorvmevcl00baergoog_0163'
p1004
g2
(g6
S'\x06\x141$"\xc0G?'
p1005
tp1006
Rp1007
sS'elementorvmevcl00baergoog_0389'
p1008
g2
(g6
S'\xd4\xe4:\xf8(\x80L?'
p1009
tp1010
Rp1011
sS'elementorvmevcl00baergoog_0328'
p1012
g2
(g6
S"\xad\ry\xb0'\x9cK?"
p1013
tp1014
Rp1015
sS'elementorvmevcl00baergoog_0329'
p1016
g2
(g6
S'\xd5\xe4:\xf8(\x80L?'
p1017
tp1018
Rp1019
sS'elementorvmevcl00baergoog_0326'
p1020
g2
(g6
S'\x876\xb7h&\xb8J?'
p1021
tp1022
Rp1023
sS'elementorvmevcl00baergoog_0327'
p1024
g2
(g6
S'\xae$}3\xd5\x96M?'
p1025
tp1026
Rp1027
sS'elementorvmevcl00baergoog_0324'
p1028
g2
(g6
S'\xa8\xcaZ;~sL?'
p1029
tp1030
Rp1031
sS'elementorvmevcl00baergoog_0325'
p1032
g2
(g6
S'\xd4\xe4:\xf8(\x80L?'
p1033
tp1034
Rp1035
sS'elementorvmevcl00baergoog_0322'
p1036
g2
(g6
S'n*>\x94\x80\x15N?'
p1037
tp1038
Rp1039
sS'elementorvmevcl00baergoog_0323'
p1040
g2
(g6
S'\x9cD\x1eQ+"N?'
p1041
tp1042
Rp1043
sS'elementorvmevcl00baergoog_0320'
p1044
g2
(g6
S'\xae$}3\xd5\x96M?'
p1045
tp1046
Rp1047
sS'elementorvmevcl00baergoog_0321'
p1048
g2
(g6
S'\xd5\xe4:\xf8(\x80L?'
p1049
tp1050
Rp1051
sS'elementorvmevcl00baergoog_0168'
p1052
g2
(g6
S'`_\xf5 %\xd4I?'
p1053
tp1054
Rp1055
sS'elementorvmevcl00baergoog_0169'
p1056
g2
(g6
S':\x9f7\\\xd1\xeaJ?'
p1057
tp1058
Rp1059
sS'elementorvmevcl00baergoog_0133'
p1060
g2
(g6
S"9C'P\x1b\x00C?"
p1061
tp1062
Rp1063
sS'elementorvmevcl00baergoog_0132'
p1064
g2
(g6
S'Mh\x92\xbb\xcddH?'
p1065
tp1066
Rp1067
sS'elementorvmevcl00baergoog_0131'
p1068
g2
(g6
S'\xcds\x14}$bI?'
p1069
tp1070
Rp1071
sS'elementorvmevcl00baergoog_0130'
p1072
g2
(g6
S'\xd5\xe4:\xf8(\x80L?'
p1073
tp1074
Rp1075
sS'elementorvmevcl00baergoog_0137'
p1076
g2
(g6
S'Mh\x92\xbb\xcddH?'
p1077
tp1078
Rp1079
sS'elementorvmevcl00baergoog_0136'
p1080
g2
(g6
S'S\xab\xb00w\x8dG?'
p1081
tp1082
Rp1083
sS'elementorvmevcl00baergoog_0135'
p1084
g2
(g6
S'\xcds\x14}$bI?'
p1085
tp1086
Rp1087
sS'elementorvmevcl00baergoog_0134'
p1088
g2
(g6
S'\xb9|\xb1\x17\xcd\xf2G?'
p1089
tp1090
Rp1091
sS'elementorvmevcl00baergoog_0032'
p1092
g2
(g6
S'\xaf;\x81\xb6\x82\x91O?'
p1093
tp1094
Rp1095
sS'elementorvmevcl00baergoog_0033'
p1096
g2
(g6
S'\xae$}3\xd5\x96M?'
p1097
tp1098
Rp1099
sS'elementorvmevcl00baergoog_0139'
p1100
g2
(g6
S'9\x883\xd9#\xf0H?'
p1101
tp1102
Rp1103
sS'elementorvmevcl00baergoog_0138'
p1104
g2
(g6
S'\xcds\x14}$bI?'
p1105
tp1106
Rp1107
sS'elementorvmevcl00baergoog_0036'
p1108
g2
(g6
S'ft\x0b\x90s\x07E?'
p1109
tp1110
Rp1111
sS'elementorvmevcl00baergoog_0037'
p1112
g2
(g6
S':\x9f7\\\xd1\xeaJ?'
p1113
tp1114
Rp1115
sS'elementorvmevcl00baergoog_0034'
p1116
g2
(g6
S'R}\xa8*\x1c\x98C?'
p1117
tp1118
Rp1119
sS'elementorvmevcl00baergoog_0035'
p1120
g2
(g6
S'\x9b\x16\x16K\xd0,J?'
p1121
tp1122
Rp1123
sS'elementorvmevcl00baergoog_0399'
p1124
g2
(g6
S'\xcds\x14}$bI?'
p1125
tp1126
Rp1127
sS'elementorvmevcl00baergoog_0398'
p1128
g2
(g6
S'!\x93\xbe\x87+HN?'
p1129
tp1130
Rp1131
sS'elementorvmevcl00baergoog_0397'
p1132
g2
(g6
S'\x13\xb1q\x91"\x0cH?'
p1133
tp1134
Rp1135
sS'elementorvmevcl00baergoog_0396'
p1136
g2
(g6
S'\xd4\xe4:\xf8(\x80L?'
p1137
tp1138
Rp1139
sS'elementorvmevcl00baergoog_0395'
p1140
g2
(g6
S'G%tF$<I?'
p1141
tp1142
Rp1143
sS'elementorvmevcl00baergoog_0394'
p1144
g2
(g6
S'!\x93\xbe\x87+HN?'
p1145
tp1146
Rp1147
sS'elementorvmevcl00baergoog_0393'
p1148
g2
(g6
S'!\x93\xbe\x87+HN?'
p1149
tp1150
Rp1151
sS'elementorvmevcl00baergoog_0392'
p1152
g2
(g6
S'@\xe2U\xd1z\x13J?'
p1153
tp1154
Rp1155
sS'elementorvmevcl00baergoog_0391'
p1156
g2
(g6
S'`_\xf5 %\xd4I?'
p1157
tp1158
Rp1159
sS'elementorvmevcl00baergoog_0390'
p1160
g2
(g6
S'\xd1Z"\xe6\x17\xa0P?'
p1161
tp1162
Rp1163
sS'elementorvmevcl00baergoog_0452'
p1164
g2
(g6
S"4\\\x19\xe7'\xc2K?"
p1165
tp1166
Rp1167
sS'elementorvmevcl00baergoog_0311'
p1168
g2
(g6
S'\xaf;\x81\xb6\x82\x91O?'
p1169
tp1170
Rp1171
sS'elementorvmevcl00baergoog_0146'
p1172
g2
(g6
S'\x1b9\x9c\x8f\xd4$M?'
p1173
tp1174
Rp1175
sS'elementorvmevcl00baergoog_0147'
p1176
g2
(g6
S"'\x91\xd0s\xcc\x80G?"
p1177
tp1178
Rp1179
sS'elementorvmevcl00baergoog_0144'
p1180
g2
(g6
S"\xa1p8C'PK?"
p1181
tp1182
Rp1183
sS'elementorvmevcl00baergoog_0145'
p1184
g2
(g6
S'\xed\xd9\xafI!(G?'
p1185
tp1186
Rp1187
sS'elementorvmevcl00baergoog_0142'
p1188
g2
(g6
S'\x05\xfd,\xa1t\xc5E?'
p1189
tp1190
Rp1191
sS'elementorvmevcl00baergoog_0143'
p1192
g2
(g6
S'R}\xa8*\x1c\x98C?'
p1193
tp1194
Rp1195
sS'elementorvmevcl00baergoog_0140'
p1196
g2
(g6
S"9C'P\x1b\x00C?"
p1197
tp1198
Rp1199
sS'elementorvmevcl00baergoog_0141'
p1200
g2
(g6
S'\x05\xfd,\xa1t\xc5E?'
p1201
tp1202
Rp1203
sS'elementorvmevcl00baergoog_0148'
p1204
g2
(g6
S'n*>\x94\x80\x15N?'
p1205
tp1206
Rp1207
sS'elementorvmevcl00baergoog_0149'
p1208
g2
(g6
S'\xd3\x9f.o \x90F?'
p1209
tp1210
Rp1211
sS'elementorvmevcl00baergoog_0310'
p1212
g2
(g6
S'\x9cD\x1eQ+"N?'
p1213
tp1214
Rp1215
sS'elementorvmevcl00baergoog_0407'
p1216
g2
(g6
S'Y\xee\xce\xa5 \xb6F?'
p1217
tp1218
Rp1219
sS'elementorvmevcl00baergoog_0406'
p1220
g2
(g6
S"\xed\xd9\xafI!('?"
p1221
tp1222
Rp1223
sS'elementorvmevcl00baergoog_0405'
p1224
g2
(g6
S'\xd4\xe4:\xf8(\x80L?'
p1225
tp1226
Rp1227
sS'elementorvmevcl00baergoog_0404'
p1228
g2
(g6
S';\x9f7\\\xd1\xeaJ?'
p1229
tp1230
Rp1231
sS'elementorvmevcl00baergoog_0403'
p1232
g2
(g6
S'\xdf<o\xdc \xdcF?'
p1233
tp1234
Rp1235
sS'elementorvmevcl00baergoog_0402'
p1236
g2
(g6
S'A\xf9YT(\x0eL?'
p1237
tp1238
Rp1239
sS'elementorvmevcl00baergoog_0401'
p1240
g2
(g6
S'.\x19\xfbq~\x99L?'
p1241
tp1242
Rp1243
sS'elementorvmevcl00baergoog_0400'
p1244
g2
(g6
S'G%tF$<I?'
p1245
tp1246
Rp1247
sS'elementorvmevcl00baergoog_0409'
p1248
g2
(g6
S'S\xab\xb00w\x8dG?'
p1249
tp1250
Rp1251
sS'elementorvmevcl00baergoog_0408'
p1252
g2
(g6
S'\x08Y=\xad*\xb0M?'
p1253
tp1254
Rp1255
sS'elementorvmevcl00baergoog_0362'
p1256
g2
(g6
S'\xd4\xe4:\xf8(\x80L?'
p1257
tp1258
Rp1259
sS'elementorvmevcl00baergoog_0363'
p1260
g2
(g6
S'\x876\xb7h&\xb8J?'
p1261
tp1262
Rp1263
sS'elementorvmevcl00baergoog_0360'
p1264
g2
(g6
S'@\xe2U\xd1z\x13J?'
p1265
tp1266
Rp1267
sS'elementorvmevcl00baergoog_0361'
p1268
g2
(g6
S'@\xe2U\xd1z\x13J?'
p1269
tp1270
Rp1271
sS'elementorvmevcl00baergoog_0249'
p1272
g2
(g6
S'!e\xb6\x81\xd0RJ?'
p1273
tp1274
Rp1275
sS'elementorvmevcl00baergoog_0248'
p1276
g2
(g6
S'\x87M\xbb\xeb\xd3\xb2L?'
p1277
tp1278
Rp1279
sS'elementorvmevcl00baergoog_0364'
p1280
g2
(g6
S'G%tF$<I?'
p1281
tp1282
Rp1283
sS'elementorvmevcl00baergoog_0365'
p1284
g2
(g6
S'H<x\xc9\xd16K?'
p1285
tp1286
Rp1287
sS'elementorvmevcl00baergoog_0245'
p1288
g2
(g6
S'\xc2\x1b\xe0\x98,\x06O?'
p1289
tp1290
Rp1291
sS'elementorvmevcl00baergoog_0244'
p1292
g2
(g6
S'm\xfc5\x8e% J?'
p1293
tp1294
Rp1295
sS'elementorvmevcl00baergoog_0247'
p1296
g2
(g6
S'G%tF$<I?'
p1297
tp1298
Rp1299
sS'elementorvmevcl00baergoog_0246'
p1300
g2
(g6
S':\x9f7\\\xd1\xeaJ?'
p1301
tp1302
Rp1303
sS'elementorvmevcl00baergoog_0241'
p1304
g2
(g6
S'\x04\xcf$\x9b\x19\xd0Q?'
p1305
tp1306
Rp1307
sS'elementorvmevcl00baergoog_0240'
p1308
g2
(g6
S'\xd4\xe4:\xf8(\x80L?'
p1309
tp1310
Rp1311
sS'elementorvmevcl00baergoog_0243'
p1312
g2
(g6
S'~\x80\x84d\x19\xaaA?'
p1313
tp1314
Rp1315
sS'elementorvmevcl00baergoog_0242'
p1316
g2
(g6
S'\xed\xd9\xafI!(G?'
p1317
tp1318
Rp1319
sS'elementorvmevcl00baergoog_0319'
p1320
g2
(g6
S'k\xa0%\x82o5B?'
p1321
tp1322
Rp1323
sS'elementorvmevcl00baergoog_0368'
p1324
g2
(g6
S'\x93\xbc\xf3Ry\tI?'
p1325
tp1326
Rp1327
sS'elementorvmevcl00baergoog_0318'
p1328
g2
(g6
S'\x87M\xbb\xeb\xd3\xb2L?'
p1329
tp1330
Rp1331
sS'elementorvmevcl00baergoog_0298'
p1332
g2
(g6
S'\xae$}3\xd5\x96M?'
p1333
tp1334
Rp1335
sS'elementorvmevcl00baergoog_0299'
p1336
g2
(g6
S' |\xba\x04~ML?'
p1337
tp1338
Rp1339
sS'elementorvmevcl00baergoog_0292'
p1340
g2
(g6
S'\x1b9\x9c\x8f\xd4$M?'
p1341
tp1342
Rp1343
sS'elementorvmevcl00baergoog_0293'
p1344
g2
(g6
S'x=f\xefo\x81R?'
p1345
tp1346
Rp1347
sS'elementorvmevcl00baergoog_0290'
p1348
g2
(g6
S'n*>\x94\x80\x15N?'
p1349
tp1350
Rp1351
sS'elementorvmevcl00baergoog_0291'
p1352
g2
(g6
S'\xd4\xe4:\xf8(\x80L?'
p1353
tp1354
Rp1355
sS'elementorvmevcl00baergoog_0296'
p1356
g2
(g6
S'\x94\xbc\xf3Ry\tY?'
p1357
tp1358
Rp1359
sS'elementorvmevcl00baergoog_0297'
p1360
g2
(g6
S'Hj\x80\xcf,,O?'
p1361
tp1362
Rp1363
sS'elementorvmevcl00baergoog_0294'
p1364
g2
(g6
S'\xa1\x87<\xc6\xd4JM?'
p1365
tp1366
Rp1367
sS'elementorvmevcl00baergoog_0295'
p1368
g2
(g6
S'\xb5~\x9f+,\xbaN?'
p1369
tp1370
Rp1371
sS'elementorvmevcl00baergoog_0191'
p1372
g2
(g6
S'm\xfc5\x8e% J?'
p1373
tp1374
Rp1375
sS'elementorvmevcl00baergoog_0190'
p1376
g2
(g6
S'\x16\r\x82\x9d\xd8\xf6O?'
p1377
tp1378
Rp1379
sS'elementorvmevcl00baergoog_0193'
p1380
g2
(g6
S"\xa2p8C'PK?"
p1381
tp1382
Rp1383
sS'elementorvmevcl00baergoog_0192'
p1384
g2
(g6
S'\xe9\xf2\xa1\xe0-\xeaO?'
p1385
tp1386
Rp1387
sS'elementorvmevcl00baergoog_0195'
p1388
g2
(g6
S'!e\xb6\x81\xd0RJ?'
p1389
tp1390
Rp1391
sS'elementorvmevcl00baergoog_0194'
p1392
g2
(g6
S'n\xfc5\x8e% J?'
p1393
tp1394
Rp1395
sS'elementorvmevcl00baergoog_0197'
p1396
g2
(g6
S'\xa6\x85N\xb2u\x83F?'
p1397
tp1398
Rp1399
sS'elementorvmevcl00baergoog_0196'
p1400
g2
(g6
S'.\x19\xfbq~\x99L?'
p1401
tp1402
Rp1403
sS'elementorvmevcl00baergoog_0199'
p1404
g2
(g6
S'\xc6\x02\xee\x01 DF?'
p1405
tp1406
Rp1407
sS'elementorvmevcl00baergoog_0198'
p1408
g2
(g6
S'e]\x07\r\xc6\x0cC?'
p1409
tp1410
Rp1411
sS'elementorvmevcl00baergoog_0065'
p1412
g2
(g6
S'\x87\x1f\xb3\xe5x\xbdH?'
p1413
tp1414
Rp1415
sS'elementorvmevcl00baergoog_0064'
p1416
g2
(g6
S"\xa1p8C'PK?"
p1417
tp1418
Rp1419
sS'elementorvmevcl00baergoog_0067'
p1420
g2
(g6
S'\xd4\xe4:\xf8(\x80L?'
p1421
tp1422
Rp1423
sS'elementorvmevcl00baergoog_0066'
p1424
g2
(g6
S'\x07B9*}\xb5K?'
p1425
tp1426
Rp1427
sS'elementorvmevcl00baergoog_0061'
p1428
g2
(g6
S'\xe5h\x89\xce\x1c\nD?'
p1429
tp1430
Rp1431
sS'elementorvmevcl00baergoog_0060'
p1432
g2
(g6
S'\x93\xbc\xf3Ry\tI?'
p1433
tp1434
Rp1435
sS'elementorvmevcl00baergoog_0063'
p1436
g2
(g6
S'\xec\xd9\xafI!(G?'
p1437
tp1438
Rp1439
sS'elementorvmevcl00baergoog_0062'
p1440
g2
(g6
S'\xc7\x02\xee\x01 DF?'
p1441
tp1442
Rp1443
sS'elementorvmevcl00baergoog_0069'
p1444
g2
(g6
S'\xfa\xbb\xfc?*dM?'
p1445
tp1446
Rp1447
sS'elementorvmevcl00baergoog_0068'
p1448
g2
(g6
S'\x06+5\xa7\xcf\xbaI?'
p1449
tp1450
Rp1451
sS'elementorvmevcl00baergoog_0108'
p1452
g2
(g6
S'uVX\x86|CK?'
p1453
tp1454
Rp1455
sS'elementorvmevcl00baergoog_0109'
p1456
g2
(g6
S'\x08B9*}\xb5K?'
p1457
tp1458
Rp1459
sS'elementorvmevcl00baergoog_0102'
p1460
g2
(g6
S'\xae$}3\xd5\x96M?'
p1461
tp1462
Rp1463
sS'elementorvmevcl00baergoog_0103'
p1464
g2
(g6
S'!\x93\xbe\x87+HN?'
p1465
tp1466
Rp1467
sS'elementorvmevcl00baergoog_0100'
p1468
g2
(g6
S'\xe8\xad\x95W%\xfaI?'
p1469
tp1470
Rp1471
sS'elementorvmevcl00baergoog_0101'
p1472
g2
(g6
S'\x07B9*}\xb5K?'
p1473
tp1474
Rp1475
sS'elementorvmevcl00baergoog_0106'
p1476
g2
(g6
S"\xad\ry\xb0'\x9cK?"
p1477
tp1478
Rp1479
sS'elementorvmevcl00baergoog_0107'
p1480
g2
(g6
S'9\x883\xd9#\xf0H?'
p1481
tp1482
Rp1483
sS'elementorvmevcl00baergoog_0104'
p1484
g2
(g6
S'\xb9|\xb1\x17\xcd\xf2G?'
p1485
tp1486
Rp1487
sS'elementorvmevcl00baergoog_0105'
p1488
g2
(g6
S'@\xe2U\xd1z\x13J?'
p1489
tp1490
Rp1491
sS'elementorvmevcl00baergoog_0201'
p1492
g2
(g6
S'\x07\x141$"\xc0G?'
p1493
tp1494
Rp1495
sS'elementorvmevcl00baergoog_0200'
p1496
g2
(g6
S'z\x82rxxqH?'
p1497
tp1498
Rp1499
sS'elementorvmevcl00baergoog_0203'
p1500
g2
(g6
S'\xeb\x94\xa3\xc0\x188A?'
p1501
tp1502
Rp1503
sS'elementorvmevcl00baergoog_0202'
p1504
g2
(g6
S'\xc6\x02\xee\x01 DF?'
p1505
tp1506
Rp1507
sS'elementorvmevcl00baergoog_0205'
p1508
g2
(g6
S"8C'P\x1b\x00C?"
p1509
tp1510
Rp1511
sS'elementorvmevcl00baergoog_0204'
p1512
g2
(g6
S'\x94\xd3\xf7\xd5&\x04K?'
p1513
tp1514
Rp1515
sS'elementorvmevcl00baergoog_0207'
p1516
g2
(g6
S'\xb7 \xa1\x0b\x17\x08P?'
p1517
tp1518
Rp1519
sS'elementorvmevcl00baergoog_0206'
p1520
g2
(g6
S'l\xce-\x88\xca*F?'
p1521
tp1522
Rp1523
sS'elementorvmevcl00baergoog_0209'
p1524
g2
(g6
S'\x9b\x16\x16K\xd0,J?'
p1525
tp1526
Rp1527
sS'elementorvmevcl00baergoog_0208'
p1528
g2
(g6
S"\xa1p8C'PK?"
p1529
tp1530
Rp1531
sS'elementorvmevcl00baergoog_0438'
p1532
g2
(g6
S'\xd5\xfb>{\xd6zN?'
p1533
tp1534
Rp1535
sS'elementorvmevcl00baergoog_0439'
p1536
g2
(g6
S'm\xfc5\x8e% J?'
p1537
tp1538
Rp1539
sS'elementorvmevcl00baergoog_0436'
p1540
g2
(g6
S"\xa1p8C'PK?"
p1541
tp1542
Rp1543
sS'elementorvmevcl00baergoog_0437'
p1544
g2
(g6
S'Hj\x80\xcf,,O?'
p1545
tp1546
Rp1547
sS'elementorvmevcl00baergoog_0434'
p1548
g2
(g6
S'\xe8\xad\x95W%\xfaI?'
p1549
tp1550
Rp1551
sS'elementorvmevcl00baergoog_0435'
p1552
g2
(g6
S'Z\xee\xce\xa5 \xb6F?'
p1553
tp1554
Rp1555
sS'elementorvmevcl00baergoog_0432'
p1556
g2
(g6
S'@\xe2U\xd1z\x13J?'
p1557
tp1558
Rp1559
sS'elementorvmevcl00baergoog_0433'
p1560
g2
(g6
S'\xc7\x02\xee\x01 DF?'
p1561
tp1562
Rp1563
sS'elementorvmevcl00baergoog_0430'
p1564
g2
(g6
S'Mh\x92\xbb\xcddH?'
p1565
tp1566
Rp1567
sS'elementorvmevcl00baergoog_0431'
p1568
g2
(g6
S'\x06\xe6(\x1e\xc7\xcaC?'
p1569
tp1570
Rp1571
sS'elementorvmevcl00baergoog_0449'
p1572
g2
(g6
S"\xad\ry\xb0'\x9cK?"
p1573
tp1574
Rp1575
sS'elementorvmevcl00baergoog_0448'
p1576
g2
(g6
S'\x82!\xa1\xf9\xd7\x84O?'
p1577
tp1578
Rp1579
sS'elementorvmevcl00baergoog_0339'
p1580
g2
(g6
S'\xc2\x1b\xe0\x98,\x06O?'
p1581
tp1582
Rp1583
sS'elementorvmevcl00baergoog_0338'
p1584
g2
(g6
S'\xd5\xfb>{\xd6zN?'
p1585
tp1586
Rp1587
sS'elementorvmevcl00baergoog_0335'
p1588
g2
(g6
S'h\xd0\x1b\x9c)\xf2L?'
p1589
tp1590
Rp1591
sS'elementorvmevcl00baergoog_0334'
p1592
g2
(g6
S'\xd5\xfb>{\xd6zN?'
p1593
tp1594
Rp1595
sS'elementorvmevcl00baergoog_0337'
p1596
g2
(g6
S"4\\\x19\xe7'\xc2K?"
p1597
tp1598
Rp1599
sS'elementorvmevcl00baergoog_0336'
p1600
g2
(g6
S'\x1b9\x9c\x8f\xd4$M?'
p1601
tp1602
Rp1603
sS'elementorvmevcl00baergoog_0331'
p1604
g2
(g6
S'\xc2\x1b\xe0\x98,\x06O?'
p1605
tp1606
Rp1607
sS'elementorvmevcl00baergoog_0330'
p1608
g2
(g6
S'Hj\x80\xcf,,O?'
p1609
tp1610
Rp1611
sS'elementorvmevcl00baergoog_0333'
p1612
g2
(g6
S'\x87d\xbfn\x81\xadN?'
p1613
tp1614
Rp1615
sS'elementorvmevcl00baergoog_0332'
p1616
g2
(g6
S'!\x93\xbe\x87+HN?'
p1617
tp1618
Rp1619
sS'elementorvmevcl00baergoog_0098'
p1620
g2
(g6
S'\xc8G\xfa\x8a(4L?'
p1621
tp1622
Rp1623
sS'elementorvmevcl00baergoog_0099'
p1624
g2
(g6
S'\xfa\xbb\xfc?*dM?'
p1625
tp1626
Rp1627
sS'elementorvmevcl00baergoog_0090'
p1628
g2
(g6
S'\xcds\x14}$bI?'
p1629
tp1630
Rp1631
sS'elementorvmevcl00baergoog_0091'
p1632
g2
(g6
S'\xe0<o\xdc \xdcF?'
p1633
tp1634
Rp1635
sS'elementorvmevcl00baergoog_0029'
p1636
g2
(g6
S'\x02\xb9\x17\xa2\x1b9S?'
p1637
tp1638
Rp1639
sS'elementorvmevcl00baergoog_0028'
p1640
g2
(g6
S'\xb7 \xa1\x0b\x17\x08P?'
p1641
tp1642
Rp1643
sS'elementorvmevcl00baergoog_0021'
p1644
g2
(g6
S"v'Y\xf6q\xeaS?"
p1645
tp1646
Rp1647
sS'elementorvmevcl00baergoog_0023'
p1648
g2
(g6
S'\x02\xb9\x17\xa2\x1b9S?'
p1649
tp1650
Rp1651
sS'elementorvmevcl00baergoog_0022'
p1652
g2
(g6
S'\xfbG\xf1&\x17\x1bP?'
p1653
tp1654
Rp1655
sS'elementorvmevcl00baergoog_0025'
p1656
g2
(g6
S'Ij\x80\xcf,,O?'
p1657
tp1658
Rp1659
sS'elementorvmevcl00baergoog_0024'
p1660
g2
(g6
S'\xe8\xad\x95W%\xfaI?'
p1661
tp1662
Rp1663
sS'elementorvmevcl00baergoog_0027'
p1664
g2
(g6
S'\x08pA0\xd8\xaaO?'
p1665
tp1666
Rp1667
sS'elementorvmevcl00baergoog_0026'
p1668
g2
(g6
S',\xa6\xe6\xe2\x1a\xb4R?'
p1669
tp1670
Rp1671
sS'elementorvmevcl00baergoog_0155'
p1672
g2
(g6
S'F<x\xc9\xd16K?'
p1673
tp1674
Rp1675
sS'elementorvmevcl00baergoog_0154'
p1676
g2
(g6
S'\xfb\xbb\xfc?*dM?'
p1677
tp1678
Rp1679
sS'elementorvmevcl00baergoog_0157'
p1680
g2
(g6
S'\xae$}3\xd5\x96M?'
p1681
tp1682
Rp1683
sS'elementorvmevcl00baergoog_0156'
p1684
g2
(g6
S'\xd3\x9f.o \x90F?'
p1685
tp1686
Rp1687
sS'elementorvmevcl00baergoog_0151'
p1688
g2
(g6
S'\xfa\xbb\xfc?*dM?'
p1689
tp1690
Rp1691
sS'elementorvmevcl00baergoog_0150'
p1692
g2
(g6
S'"\x93\xbe\x87+HN?'
p1693
tp1694
Rp1695
sS'elementorvmevcl00baergoog_0153'
p1696
g2
(g6
S"\xa1p8C'PK?"
p1697
tp1698
Rp1699
sS'elementorvmevcl00baergoog_0152'
p1700
g2
(g6
S"\xa2p8C'PK?"
p1701
tp1702
Rp1703
sS'elementorvmevcl00baergoog_0094'
p1704
g2
(g6
S'm\xfc5\x8e% J?'
p1705
tp1706
Rp1707
sS'elementorvmevcl00baergoog_0095'
p1708
g2
(g6
S'\xc7\x02\xee\x01 DF?'
p1709
tp1710
Rp1711
sS'elementorvmevcl00baergoog_0096'
p1712
g2
(g6
S'\x87\x1f\xb3\xe5x\xbdH?'
p1713
tp1714
Rp1715
sS'elementorvmevcl00baergoog_0097'
p1716
g2
(g6
S'\xb9|\xb1\x17\xcd\xf2G?'
p1717
tp1718
Rp1719
sS'elementorvmevcl00baergoog_0159'
p1720
g2
(g6
S'\x08pA0\xd8\xaaO?'
p1721
tp1722
Rp1723
sS'elementorvmevcl00baergoog_0158'
p1724
g2
(g6
S'\xc8G\xfa\x8a(4L?'
p1725
tp1726
Rp1727
sS'elementorvmevcl00baergoog_0092'
p1728
g2
(g6
S'ft\x0b\x90s\x07E?'
p1729
tp1730
Rp1731
sS'elementorvmevcl00baergoog_0093'
p1732
g2
(g6
S'\x8db\xd1Z"\xe6G?'
p1733
tp1734
Rp1735
s.