(dp0
S'heiberg-diag-0493'
p1
(lp2
S'heiberg_1885_v4_1_0152.jpg'
p3
aI2468
aI3952
aI1134
aI948
aI1002
aI348
asS'heiberg-diag-0492'
p4
(lp5
S'heiberg_1885_v4_1_0150.jpg'
p6
aI2468
aI3952
aI672
aI1896
aI1068
aI546
asS'heiberg-diag-0491'
p7
(lp8
S'heiberg_1885_v4_1_0148.jpg'
p9
aI2468
aI3952
aI600
aI774
aI1158
aI1350
asS'heiberg-diag-0490'
p10
(lp11
S'heiberg_1885_v4_1_0144.jpg'
p12
aI2468
aI3952
aI420
aI666
aI1428
aI864
asS'heiberg-diag-0497'
p13
(lp14
S'heiberg_1885_v4_1_0170.jpg'
p15
aI2468
aI3952
aI162
aI864
aI972
aI1068
asS'heiberg-diag-0496'
p16
(lp17
S'heiberg_1885_v4_1_0158.jpg'
p18
aI2468
aI3952
aI6
aI1512
aI2316
aI870
asS'heiberg-diag-0495'
p19
(lp20
S'heiberg_1885_v4_1_0154.jpg'
p21
aI2468
aI3952
aI348
aI2154
aI1632
aI822
asS'heiberg-diag-0494'
p22
(lp23
S'heiberg_1885_v4_1_0152.jpg'
p24
aI2468
aI3952
aI450
aI1404
aI1410
aI444
asS'heiberg-diag-0499'
p25
(lp26
S'heiberg_1885_v4_1_0182.jpg'
p27
aI717
aI1129
aI76
aI462
aI318
aI332
asS'heiberg-diag-0498'
p28
(lp29
S'heiberg_1885_v4_1_0174.jpg'
p30
aI717
aI1129
aI150
aI294
aI386
aI270
asS'heiberg-diag-0484'
p31
(lp32
S'heiberg_1885_v4_1_0116.jpg'
p33
aI2468
aI3952
aI174
aI2244
aI492
aI564
asS'heiberg-diag-0485'
p34
(lp35
S'heiberg_1885_v4_1_0118.jpg'
p36
aI2468
aI3952
aI126
aI1140
aI1320
aI1068
asS'heiberg-diag-0486'
p37
(lp38
S'heiberg_1885_v4_1_0122.jpg'
p39
aI2468
aI3952
aI534
aI2412
aI1200
aI930
asS'heiberg-diag-0487'
p40
(lp41
S'heiberg_1885_v4_1_0130.jpg'
p42
aI2468
aI3952
aI84
aI570
aI1218
aI1338
asS'heiberg-diag-0480'
p43
(lp44
S'heiberg_1885_v4_1_0104.jpg'
p45
aI2468
aI3952
aI144
aI1998
aI1032
aI990
asS'heiberg-diag-0481'
p46
(lp47
S'heiberg_1885_v4_1_0110.jpg'
p48
aI2468
aI3952
aI438
aI714
aI1560
aI1920
asS'heiberg-diag-0482'
p49
(lp50
S'heiberg_1885_v4_1_0112.jpg'
p51
aI2468
aI3952
aI492
aI2016
aI1488
aI852
asS'heiberg-diag-0483'
p52
(lp53
S'heiberg_1885_v4_1_0114.jpg'
p54
aI2468
aI3952
aI426
aI2298
aI1632
aI528
asS'heiberg-diag-0488'
p55
(lp56
S'heiberg_1885_v4_1_0134.jpg'
p57
aI2468
aI3952
aI120
aI564
aI888
aI750
asS'heiberg-diag-0489'
p58
(lp59
S'heiberg_1885_v4_1_0140.jpg'
p60
aI2468
aI3952
aI360
aI1662
aI1608
aI924
asS'heiberg-diag-0479'
p61
(lp62
S'heiberg_1885_v4_1_0102.jpg'
p63
aI2468
aI3952
aI162
aI1734
aI1080
aI660
asS'heiberg-diag-0478'
p64
(lp65
S'heiberg_1885_v4_1_0100.jpg'
p66
aI2468
aI3952
aI156
aI2310
aI810
aI624
asS'heiberg-diag-0471'
p67
(lp68
S'heiberg_1885_v4_1_0078.jpg'
p69
aI2468
aI3952
aI156
aI1320
aI2082
aI576
asS'heiberg-diag-0470'
p70
(lp71
S'heiberg_1885_v4_1_0076.jpg'
p72
aI2454
aI3952
aI138
aI882
aI960
aI588
asS'heiberg-diag-0473'
p73
(lp74
S'heiberg_1885_v4_1_0086.jpg'
p75
aI2468
aI3952
aI210
aI738
aI624
aI402
asS'heiberg-diag-0472'
p76
(lp77
S'heiberg_1885_v4_1_0080.jpg'
p78
aI2468
aI3952
aI786
aI1188
aI834
aI774
asS'heiberg-diag-0475'
p79
(lp80
S'heiberg_1885_v4_1_0090.jpg'
p81
aI717
aI1129
aI156
aI400
aI402
aI196
asS'heiberg-diag-0474'
p82
(lp83
S'heiberg_1885_v4_1_0088.jpg'
p84
aI2468
aI3952
aI162
aI642
aI1128
aI810
asS'heiberg-diag-0477'
p85
(lp86
S'heiberg_1885_v4_1_0100.jpg'
p87
aI2468
aI3952
aI168
aI648
aI1302
aI732
asS'heiberg-diag-0476'
p88
(lp89
S'heiberg_1885_v4_1_0094.jpg'
p90
aI2468
aI3952
aI264
aI1332
aI1758
aI882
asS'heiberg-diag-0505'
p91
(lp92
S'heiberg_1885_v4_1_0202.jpg'
p93
aI2468
aI3952
aI174
aI2130
aI1062
aI1056
asS'heiberg-diag-0504'
p94
(lp95
S'heiberg_1885_v4_1_0198.jpg'
p96
aI717
aI1129
aI98
aI502
aI232
aI216
asS'heiberg-diag-0507'
p97
(lp98
S'heiberg_1885_v4_1_0220.jpg'
p99
aI2468
aI3952
aI156
aI2100
aI1188
aI1062
asS'heiberg-diag-0506'
p100
(lp101
S'heiberg_1885_v4_1_0214.jpg'
p102
aI2468
aI3952
aI42
aI1422
aI2346
aI990
asS'heiberg-diag-0501'
p103
(lp104
S'heiberg_1885_v4_1_0186.jpg'
p105
aI2468
aI3952
aI534
aI1920
aI1392
aI876
asS'heiberg-diag-0500'
p106
(lp107
S'heiberg_1885_v4_1_0184.jpg'
p108
aI2468
aI3952
aI180
aI672
aI672
aI366
asS'heiberg-diag-0503'
p109
(lp110
S'heiberg_1885_v4_1_0192.jpg'
p111
aI2468
aI3952
aI96
aI2010
aI1116
aI660
asS'heiberg-diag-0502'
p112
(lp113
S'heiberg_1885_v4_1_0190.jpg'
p114
aI2468
aI3952
aI84
aI762
aI912
aI960
asS'heiberg-diag-0509'
p115
(lp116
S'heiberg_1885_v4_1_0236.jpg'
p117
aI2468
aI3952
aI792
aI996
aI732
aI594
asS'heiberg-diag-0508'
p118
(lp119
S'heiberg_1885_v4_1_0232.jpg'
p120
aI2468
aI3952
aI162
aI1974
aI1194
aI420
asS'heiberg-diag-0468'
p121
(lp122
S'heiberg_1885_v4_1_0072.jpg'
p123
aI2468
aI3952
aI174
aI1134
aI2094
aI624
asS'heiberg-diag-0469'
p124
(lp125
S'heiberg_1885_v4_1_0074.jpg'
p126
aI2454
aI3952
aI114
aI1140
aI2124
aI624
asS'heiberg-diag-0462'
p127
(lp128
S'heiberg_1885_v4_1_0056.jpg'
p129
aI2468
aI3952
aI168
aI1662
aI1356
aI912
asS'heiberg-diag-0463'
p130
(lp131
S'heiberg_1885_v4_1_0060.jpg'
p132
aI2468
aI3952
aI480
aI876
aI1458
aI1164
asS'heiberg-diag-0460'
p133
(lp134
S'heiberg_1885_v4_1_0052.jpg'
p135
aI2468
aI3952
aI204
aI1704
aI1278
aI660
asS'heiberg-diag-0461'
p136
(lp137
S'heiberg_1885_v4_1_0054.jpg'
p138
aI2468
aI3952
aI180
aI1536
aI852
aI978
asS'heiberg-diag-0466'
p139
(lp140
S'heiberg_1885_v4_1_0066.jpg'
p141
aI2468
aI3952
aI174
aI2094
aI1182
aI636
asS'heiberg-diag-0467'
p142
(lp143
S'heiberg_1885_v4_1_0070.jpg'
p144
aI2468
aI3952
aI186
aI558
aI924
aI624
asS'heiberg-diag-0464'
p145
(lp146
S'heiberg_1885_v4_1_0062.jpg'
p147
aI2468
aI3952
aI186
aI1398
aI762
aI606
asS'heiberg-diag-0465'
p148
(lp149
S'heiberg_1885_v4_1_0064.jpg'
p150
aI2468
aI3952
aI180
aI1788
aI960
aI942
asS'heiberg-diag-0516'
p151
(lp152
S'heiberg_1885_v4_1_0272.jpg'
p153
aI2468
aI3952
aI210
aI792
aI870
aI900
asS'heiberg-diag-0517'
p154
(lp155
S'heiberg_1885_v4_1_0274.jpg'
p156
aI2468
aI3952
aI210
aI1002
aI792
aI852
asS'heiberg-diag-0514'
p157
(lp158
S'heiberg_1885_v4_1_0264.jpg'
p159
aI2468
aI3952
aI150
aI2052
aI684
aI954
asS'heiberg-diag-0515'
p160
(lp161
S'heiberg_1885_v4_1_0268.jpg'
p162
aI2468
aI3952
aI198
aI942
aI882
aI1164
asS'heiberg-diag-0512'
p163
(lp164
S'heiberg_1885_v4_1_0246.jpg'
p165
aI2468
aI3952
aI180
aI894
aI2214
aI2160
asS'heiberg-diag-0513'
p166
(lp167
S'heiberg_1885_v4_1_0258.jpg'
p168
aI2468
aI3952
aI360
aI2034
aI1596
aI1320
asS'heiberg-diag-0510'
p169
(lp170
S'heiberg_1885_v4_1_0238.jpg'
p171
aI2468
aI3952
aI432
aI1902
aI1560
aI534
asS'heiberg-diag-0511'
p172
(lp173
S'heiberg_1885_v4_1_0242.jpg'
p174
aI2468
aI3952
aI102
aI1074
aI714
aI618
asS'heiberg-diag-0518'
p175
(lp176
S'heiberg_1885_v4_1_0276.jpg'
p177
aI2468
aI3952
aI708
aI1740
aI1026
aI732
asS'heiberg-diag-0519'
p178
(lp179
S'heiberg_1885_v4_1_0278.jpg'
p180
aI2468
aI3952
aI624
aI1278
aI1188
aI198
asS'heiberg-diag-0459'
p181
(lp182
S'heiberg_1885_v4_1_0050.jpg'
p183
aI2468
aI3952
aI132
aI1986
aI702
aI630
asS'heiberg-diag-0458'
p184
(lp185
S'heiberg_1885_v4_1_0048.jpg'
p186
aI2468
aI3952
aI84
aI2016
aI678
aI636
asS'heiberg-diag-0457'
p187
(lp188
S'heiberg_1885_v4_1_0046.jpg'
p189
aI2468
aI3952
aI114
aI942
aI738
aI684
asS'heiberg-diag-0456'
p190
(lp191
S'heiberg_1885_v4_1_0044.jpg'
p192
aI2468
aI3952
aI72
aI870
aI1038
aI864
asS'heiberg-diag-0455'
p193
(lp194
S'heiberg_1885_v4_1_0042.jpg'
p195
aI2468
aI3952
aI78
aI906
aI972
aI552
asS'heiberg-diag-0454'
p196
(lp197
S'heiberg_1885_v4_1_0038.jpg'
p198
aI2468
aI3952
aI144
aI1146
aI648
aI924
asS'heiberg-diag-0453'
p199
(lp200
S'heiberg_1885_v4_1_0036.jpg'
p201
aI2468
aI3952
aI162
aI1908
aI804
aI582
asS'heiberg-diag-0452'
p202
(lp203
S'heiberg_1885_v4_1_0034.jpg'
p204
aI2468
aI3952
aI156
aI672
aI762
aI750
asS'heiberg-diag-0451'
p205
(lp206
S'heiberg_1885_v4_1_0032.jpg'
p207
aI2468
aI3952
aI108
aI684
aI762
aI690
asS'heiberg-diag-0450'
p208
(lp209
S'heiberg_1885_v4_1_0026.jpg'
p210
aI2468
aI3952
aI180
aI2526
aI870
aI576
asS'heiberg-diag-0529'
p211
(lp212
S'heiberg_1885_v4_1_0316.jpg'
p213
aI2468
aI3952
aI102
aI1602
aI1014
aI954
asS'heiberg-diag-0528'
p214
(lp215
S'heiberg_1885_v4_1_0312.jpg'
p216
aI2468
aI3952
aI204
aI1362
aI624
aI954
asS'heiberg-diag-0447'
p217
(lp218
S'heiberg_1885_v4_1_0022.jpg'
p219
aI2468
aI3952
aI186
aI1752
aI480
aI744
asS'heiberg-diag-0448'
p220
(lp221
S'heiberg_1885_v4_1_0024.jpg'
p222
aI2468
aI3952
aI192
aI1554
aI504
aI540
asS'heiberg-diag-0522'
p223
(lp224
S'heiberg_1885_v4_1_0288.jpg'
p225
aI2468
aI3952
aI204
aI750
aI1050
aI1260
asS'heiberg-diag-0521'
p226
(lp227
S'heiberg_1885_v4_1_0284.jpg'
p228
aI2468
aI3952
aI210
aI1662
aI810
aI804
asS'heiberg-diag-0520'
p229
(lp230
S'heiberg_1885_v4_1_0282.jpg'
p231
aI2468
aI3952
aI186
aI936
aI960
aI924
asS'heiberg-diag-0527'
p232
(lp233
S'heiberg_1885_v4_1_0310.jpg'
p234
aI2468
aI3952
aI204
aI1374
aI1008
aI1164
asS'heiberg-diag-0526'
p235
(lp236
S'heiberg_1885_v4_1_0304.jpg'
p237
aI2468
aI3952
aI222
aI1560
aI948
aI1356
asS'heiberg-diag-0525'
p238
(lp239
S'heiberg_1885_v4_1_0302.jpg'
p240
aI2468
aI3952
aI114
aI1770
aI864
aI960
asS'heiberg-diag-0524'
p241
(lp242
S'heiberg_1885_v4_1_0296.jpg'
p243
aI2468
aI3952
aI156
aI1710
aI1410
aI1218
asS'heiberg-diag-0538'
p244
(lp245
S'heiberg_1885_v4_1_0366.jpg'
p246
aI2468
aI3952
aI192
aI660
aI810
aI786
asS'heiberg-diag-0539'
p247
(lp248
S'heiberg_1885_v4_1_0370.jpg'
p249
aI2468
aI3952
aI126
aI1296
aI840
aI438
asS'heiberg-diag-0534'
p250
(lp251
S'heiberg_1885_v4_1_0344.jpg'
p252
aI2468
aI3952
aI198
aI1578
aI984
aI792
asS'heiberg-diag-0535'
p253
(lp254
S'heiberg_1885_v4_1_0356.jpg'
p255
aI2468
aI3952
aI696
aI702
aI1068
aI1068
asS'heiberg-diag-0536'
p256
(lp257
S'heiberg_1885_v4_1_0360.jpg'
p258
aI2468
aI3952
aI150
aI2244
aI2316
aI600
asS'heiberg-diag-0537'
p259
(lp260
S'heiberg_1885_v4_1_0364.jpg'
p261
aI2468
aI3952
aI192
aI1554
aI840
aI744
asS'heiberg-diag-0530'
p262
(lp263
S'heiberg_1885_v4_1_0316.jpg'
p264
aI2468
aI3952
aI1278
aI2988
aI918
aI630
asS'heiberg-diag-0531'
p265
(lp266
S'heiberg_1885_v4_1_0329.jpg'
p267
aI717
aI1129
aI114
aI290
aI522
aI520
asS'heiberg-diag-0532'
p268
(lp269
S'heiberg_1885_v4_1_0330.jpg'
p270
aI2468
aI3952
aI720
aI996
aI828
aI1584
asS'heiberg-diag-0533'
p271
(lp272
S'heiberg_1885_v4_1_0338.jpg'
p273
aI2468
aI3952
aI216
aI906
aI1134
aI1440
asS'heiberg-diag-0523'
p274
(lp275
S'heiberg_1885_v4_1_0292.jpg'
p276
aI2468
aI3952
aI186
aI1008
aI1206
aI1212
asS'heiberg-diag-0449'
p277
(lp278
S'heiberg_1885_v4_1_0026.jpg'
p279
aI2468
aI3952
aI156
aI1272
aI486
aI648
asS'heiberg-diag-0541'
p280
(lp281
S'heiberg_1885_v4_1_0382.jpg'
p282
aI2468
aI3952
aI492
aI1566
aI1284
aI198
asS'heiberg-diag-0540'
p283
(lp284
S'heiberg_1885_v4_1_0380.jpg'
p285
aI2468
aI3952
aI696
aI1500
aI1026
aI204
asS'heiberg-diag-0543'
p286
(lp287
S'heiberg_1885_v4_1_0388.jpg'
p288
aI2468
aI3952
aI750
aI1134
aI984
aI192
asS'heiberg-diag-0542'
p289
(lp290
S'heiberg_1885_v4_1_0384.jpg'
p291
aI2468
aI3952
aI540
aI1656
aI1278
aI216
asS'heiberg-diag-0545'
p292
(lp293
S'heiberg_1885_v4_1_0392.jpg'
p294
aI2468
aI3952
aI576
aI774
aI1254
aI204
asS'heiberg-diag-0544'
p295
(lp296
S'heiberg_1885_v4_1_0390.jpg'
p297
aI2468
aI3952
aI834
aI672
aI840
aI228
asS'heiberg-diag-0546'
p298
(lp299
S'heiberg_1885_v4_1_0394.jpg'
p300
aI2468
aI3952
aI636
aI762
aI1170
aI210
as.