(lp0
S'simson_1781_v1_1_0001.tif'
p1
aS'simson_1781_v1_1_0002.tif'
p2
aS'simson_1781_v1_1_0003.tif'
p3
aS'simson_1781_v1_1_0004.tif'
p4
aS'simson_1781_v1_1_0005.tif'
p5
aS'simson_1781_v1_1_0006.tif'
p6
aS'simson_1781_v1_1_0007.tif'
p7
aS'simson_1781_v1_1_0008.tif'
p8
aS'simson_1781_v1_1_0009.tif'
p9
aS'simson_1781_v1_1_0010.tif'
p10
aS'simson_1781_v1_1_0011.tif'
p11
aS'simson_1781_v1_1_0012.tif'
p12
aS'simson_1781_v1_1_0013.tif'
p13
aS'simson_1781_v1_1_0014.tif'
p14
aS'simson_1781_v1_1_0015.tif'
p15
aS'simson_1781_v1_1_0535.tif'
p16
aS'simson_1781_v1_1_0534.tif'
p17
aS'simson_1781_v1_1_0533.tif'
p18
aS'simson_1781_v1_1_0532.tif'
p19
aS'simson_1781_v1_1_0531.tif'
p20
aS'simson_1781_v1_1_0530.tif'
p21
aS'simson_1781_v1_1_0529.tif'
p22
aS'simson_1781_v1_1_0528.tif'
p23
a.