(dp0
S'rstsixbooksto00euclgoog_0112'
p1
cnumpy.core.multiarray
scalar
p2
(cnumpy
dtype
p3
(S'f8'
p4
I0
I1
tp5
Rp6
(I3
S'<'
p7
NNNI-1
I-1
I0
tp8
bS'xN\x8a\xde\xc7\x96B?'
p9
tp10
Rp11
sS'rstsixbooksto00euclgoog_0113'
p12
g2
(g6
S'\xca\xbf\xc9\xa9\xe5\x1a@?'
p13
tp14
Rp15
sS'rstsixbooksto00euclgoog_0110'
p16
g2
(g6
S'\x0b\xed<\xcb\x9a0;?'
p17
tp18
Rp19
sS'rstsixbooksto00euclgoog_0111'
p20
g2
(g6
S'\xc9\xf2j\xd2\xa9\x1a>?'
p21
tp22
Rp23
sS'rstsixbooksto00euclgoog_0116'
p24
g2
(g6
S'\x8eW\xb4\xcfm\x11<?'
p25
tp26
Rp27
sS'rstsixbooksto00euclgoog_0117'
p28
g2
(g6
S'[U\xe9z\x84\xec;?'
p29
tp30
Rp31
sS'rstsixbooksto00euclgoog_0114'
p32
g2
(g6
S'\xfb\x90SH\xe2=:?'
p33
tp34
Rp35
sS'rstsixbooksto00euclgoog_0115'
p36
g2
(g6
S'\x0b\xbd/\xe8\x1c =?'
p37
tp38
Rp39
sS'rstsixbooksto00euclgoog_0291'
p40
g2
(g6
S'Fq\xdd\x8b\xbb\x0b5?'
p41
tp42
Rp43
sS'rstsixbooksto00euclgoog_0290'
p44
g2
(g6
S'\xbb\xdcZ-\xf7\xb26?'
p45
tp46
Rp47
sS'rstsixbooksto00euclgoog_0118'
p48
g2
(g6
S'\xb8\xa2w\xc7\xc6\xf4>?'
p49
tp50
Rp51
sS'rstsixbooksto00euclgoog_0119'
p52
g2
(g6
S'g\xf8\x9b\x17z\x8aB?'
p53
tp54
Rp55
sS'rstsixbooksto00euclgoog_0295'
p56
g2
(g6
S'?\xcbQ\xdf\xdf\xa1;?'
p57
tp58
Rp59
sS'rstsixbooksto00euclgoog_0294'
p60
g2
(g6
S'/$\xfd\xc9\xd1\x839?'
p61
tp62
Rp63
sS'rstsixbooksto00euclgoog_0297'
p64
g2
(g6
S'\xc4\xf5L\x1e\x14F7?'
p65
tp66
Rp67
sS'rstsixbooksto00euclgoog_0296'
p68
g2
(g6
S'\xd8\x00\xd0\x14\xf7\x9c8?'
p69
tp70
Rp71
sS'rstsixbooksto00euclgoog_0509'
p72
g2
(g6
S'\xa6oDA\x9a\x879?'
p73
tp74
Rp75
sS'rstsixbooksto00euclgoog_0508'
p76
g2
(g6
S'\xc6\xca\xc32X\xcd6?'
p77
tp78
Rp79
sS'rstsixbooksto00euclgoog_0059'
p80
g2
(g6
S'\xe7}l\xd2\x1188?'
p81
tp82
Rp83
sS'rstsixbooksto00euclgoog_0058'
p84
g2
(g6
S' \x82\xad\xe6\xca\x889?'
p85
tp86
Rp87
sS'rstsixbooksto00euclgoog_0053'
p88
g2
(g6
S'\xb5\xd4\xda&k\xac9?'
p89
tp90
Rp91
sS'rstsixbooksto00euclgoog_0052'
p92
g2
(g6
S'\x81\x06\xb5\x8cy7:?'
p93
tp94
Rp95
sS'rstsixbooksto00euclgoog_0051'
p96
g2
(g6
S'\x14\xca\xf6V\xd0\x8a8?'
p97
tp98
Rp99
sS'rstsixbooksto00euclgoog_0050'
p100
g2
(g6
S'o\xa7\xce\xf8\x00.9?'
p101
tp102
Rp103
sS'rstsixbooksto00euclgoog_0057'
p104
g2
(g6
S'1\x90\xae\x9a\xf5v;?'
p105
tp106
Rp107
sS'rstsixbooksto00euclgoog_0056'
p108
g2
(g6
S'\xa6\x94\xf5#\xdf&4?'
p109
tp110
Rp111
sS'rstsixbooksto00euclgoog_0055'
p112
g2
(g6
S'\xa6\x94\xf5#\xdf&4?'
p113
tp114
Rp115
sS'rstsixbooksto00euclgoog_0054'
p116
g2
(g6
S'I\x15S\xc2\x12M5?'
p117
tp118
Rp119
sS'rstsixbooksto00euclgoog_0293'
p120
g2
(g6
S'l\xe8>\x02\x91o4?'
p121
tp122
Rp123
sS'rstsixbooksto00euclgoog_0475'
p124
g2
(g6
S'P\xc3\x96\x87\xac\x957?'
p125
tp126
Rp127
sS'rstsixbooksto00euclgoog_0474'
p128
g2
(g6
S'K\x1e\xb6&B\xec:?'
p129
tp130
Rp131
sS'rstsixbooksto00euclgoog_0477'
p132
g2
(g6
S"'\xbe-\x08\xbb\xd07?"
p133
tp134
Rp135
sS'rstsixbooksto00euclgoog_0292'
p136
g2
(g6
S'M\x8a\xcf|\xd8\x9e5?'
p137
tp138
Rp139
sS'rstsixbooksto00euclgoog_0471'
p140
g2
(g6
S'\xbe \xda\xa4$N4?'
p141
tp142
Rp143
sS'rstsixbooksto00euclgoog_0470'
p144
g2
(g6
S'\x9c^\xa6\xd7\x13\x8f3?'
p145
tp146
Rp147
sS'rstsixbooksto00euclgoog_0473'
p148
g2
(g6
S'\x1a$@Zv\x857?'
p149
tp150
Rp151
sS'rstsixbooksto00euclgoog_0472'
p152
g2
(g6
S'b\xb7A\xd7\xb4g3?'
p153
tp154
Rp155
sS'rstsixbooksto00euclgoog_0479'
p156
g2
(g6
S'\x89\xfd<`\xf9\xc0/?'
p157
tp158
Rp159
sS'rstsixbooksto00euclgoog_0478'
p160
g2
(g6
S'\x17\xb9\x04\x15\x8f\x004?'
p161
tp162
Rp163
sS'rstsixbooksto00euclgoog_0378'
p164
g2
(g6
S'6\x1c\xa7.\xaa\xe45?'
p165
tp166
Rp167
sS'rstsixbooksto00euclgoog_0379'
p168
g2
(g6
S"^'hX\x19\xe85?"
p169
tp170
Rp171
sS'rstsixbooksto00euclgoog_0376'
p172
g2
(g6
S'\x98\xba\x95x\xb1P7?'
p173
tp174
Rp175
sS'rstsixbooksto00euclgoog_0377'
p176
g2
(g6
S'\x19U\x1c\x80\xcf\x936?'
p177
tp178
Rp179
sS'rstsixbooksto00euclgoog_0374'
p180
g2
(g6
S'\x1d<~|\x15R=?'
p181
tp182
Rp183
sS'rstsixbooksto00euclgoog_0375'
p184
g2
(g6
S'\xbf\x8d3z\x80C;?'
p185
tp186
Rp187
sS'rstsixbooksto00euclgoog_0372'
p188
g2
(g6
S'6&\xea\xce\x15"A?'
p189
tp190
Rp191
sS'rstsixbooksto00euclgoog_0373'
p192
g2
(g6
S'\xf3yP\xa2\xb9OB?'
p193
tp194
Rp195
sS'rstsixbooksto00euclgoog_0370'
p196
g2
(g6
S'd\x16\x0bKL\xa7B?'
p197
tp198
Rp199
sS'rstsixbooksto00euclgoog_0371'
p200
g2
(g6
S'D\xb7\x85\xf6\xc4v\xf5>'
p201
tp202
Rp203
sS'rstsixbooksto00euclgoog_0185'
p204
g2
(g6
S'*\x05\xfb\xebK\xa71?'
p205
tp206
Rp207
sS'rstsixbooksto00euclgoog_0184'
p208
g2
(g6
S'\x98}6\xa1\xc144?'
p209
tp210
Rp211
sS'rstsixbooksto00euclgoog_0187'
p212
g2
(g6
S'\x9c\xec\xfd2t\x907?'
p213
tp214
Rp215
sS'rstsixbooksto00euclgoog_0186'
p216
g2
(g6
S'\xf8\xa06\x0f\xcaj6?'
p217
tp218
Rp219
sS'rstsixbooksto00euclgoog_0181'
p220
g2
(g6
S'\x1e\xd0\x87i\x06\x9f7?'
p221
tp222
Rp223
sS'rstsixbooksto00euclgoog_0180'
p224
g2
(g6
S'\x87\x81\xaf\xb1W\x0f:?'
p225
tp226
Rp227
sS'rstsixbooksto00euclgoog_0183'
p228
g2
(g6
S'\xc8Og/\x86\xb26?'
p229
tp230
Rp231
sS'rstsixbooksto00euclgoog_0182'
p232
g2
(g6
S'n\xae#Pn\\3?'
p233
tp234
Rp235
sS'rstsixbooksto00euclgoog_0189'
p236
g2
(g6
S'U\xd4\r=\x9f\x7f2?'
p237
tp238
Rp239
sS'rstsixbooksto00euclgoog_0188'
p240
g2
(g6
S'}\xb5\xba\xaa\xc0\xc12?'
p241
tp242
Rp243
sS'rstsixbooksto00euclgoog_0448'
p244
g2
(g6
S'cC\xd7c\x9b,;?'
p245
tp246
Rp247
sS'rstsixbooksto00euclgoog_0501'
p248
g2
(g6
S"'\xbe-\x08\xbb\xd07?"
p249
tp250
Rp251
sS'rstsixbooksto00euclgoog_0500'
p252
g2
(g6
S'J\xb7\x01K\xefr7?'
p253
tp254
Rp255
sS'rstsixbooksto00euclgoog_0503'
p256
g2
(g6
S'\xa8\xccE^\xaa\xf16?'
p257
tp258
Rp259
sS'rstsixbooksto00euclgoog_0502'
p260
g2
(g6
S'\r\x8aR\xac1:7?'
p261
tp262
Rp263
sS'rstsixbooksto00euclgoog_0449'
p264
g2
(g6
S':d\xb0\xf2\xbc>8?'
p265
tp266
Rp267
sS'rstsixbooksto00euclgoog_0505'
p268
g2
(g6
S'\x1a\t1\x01\xff\xf8:?'
p269
tp270
Rp271
sS'rstsixbooksto00euclgoog_0504'
p272
g2
(g6
S'\xe6\xbb\x89\xa2cX6?'
p273
tp274
Rp275
sS'rstsixbooksto00euclgoog_0507'
p276
g2
(g6
S'\xf3UwP\xa8\xa36?'
p277
tp278
Rp279
sS'rstsixbooksto00euclgoog_0506'
p280
g2
(g6
S'\xdcA\xb4z_o8?'
p281
tp282
Rp283
sS'rstsixbooksto00euclgoog_0156'
p284
g2
(g6
S'JS\x1f\x02]46?'
p285
tp286
Rp287
sS'rstsixbooksto00euclgoog_0157'
p288
g2
(g6
S'\x1b\\KU\x02\xc86?'
p289
tp290
Rp291
sS'rstsixbooksto00euclgoog_0154'
p292
g2
(g6
S'\xd1\xf8\x9a\x91<\xde5?'
p293
tp294
Rp295
sS'rstsixbooksto00euclgoog_0155'
p296
g2
(g6
S'J\xd6\x1c`\x92\xa76?'
p297
tp298
Rp299
sS'rstsixbooksto00euclgoog_0259'
p300
g2
(g6
S"'\xf5\xeb?]\xe0:?"
p301
tp302
Rp303
sS'rstsixbooksto00euclgoog_0258'
p304
g2
(g6
S'\xa3"\xd91K\t;?'
p305
tp306
Rp307
sS'rstsixbooksto00euclgoog_0150'
p308
g2
(g6
S'\x90.\xd6{\xc9\xd86?'
p309
tp310
Rp311
sS'rstsixbooksto00euclgoog_0151'
p312
g2
(g6
S'\x05\xcbX\x03\xa8\xf27?'
p313
tp314
Rp315
sS'rstsixbooksto00euclgoog_0255'
p316
g2
(g6
S':q\xb1\xe9\xf9\x988?'
p317
tp318
Rp319
sS'rstsixbooksto00euclgoog_0254'
p320
g2
(g6
S'\xb4\r.\x81x5??'
p321
tp322
Rp323
sS'rstsixbooksto00euclgoog_0257'
p324
g2
(g6
S'\xfa\x16\x88Rb\xf03?'
p325
tp326
Rp327
sS'rstsixbooksto00euclgoog_0256'
p328
g2
(g6
S'cpc\xbfA\x9f9?'
p329
tp330
Rp331
sS'rstsixbooksto00euclgoog_0251'
p332
g2
(g6
S'*\x05\xfb\xebK\xa71?'
p333
tp334
Rp335
sS'rstsixbooksto00euclgoog_0250'
p336
g2
(g6
S'\xf1\t\xc2&\x9a{6?'
p337
tp338
Rp339
sS'rstsixbooksto00euclgoog_0253'
p340
g2
(g6
S'\xac\xf3\x94\x8d\xc6\xf56?'
p341
tp342
Rp343
sS'rstsixbooksto00euclgoog_0252'
p344
g2
(g6
S'q\x9c\x893\xa0\xf23?'
p345
tp346
Rp347
sS'rstsixbooksto00euclgoog_0022'
p348
g2
(g6
S'\xa0b\x15I\xa0<<?'
p349
tp350
Rp351
sS'rstsixbooksto00euclgoog_0023'
p352
g2
(g6
S'\xc4e\xa5\tEM>?'
p353
tp354
Rp355
sS'rstsixbooksto00euclgoog_0020'
p356
g2
(g6
S'\x1e\xb6\xe7\xb9p\xbdB?'
p357
tp358
Rp359
sS'rstsixbooksto00euclgoog_0021'
p360
g2
(g6
S'\xbe\xa1\xc8\xbe\x8d\x84B?'
p361
tp362
Rp363
sS'rstsixbooksto00euclgoog_0026'
p364
g2
(g6
S'*\x8d\xa1\x14\xe9\x155?'
p365
tp366
Rp367
sS'rstsixbooksto00euclgoog_0027'
p368
g2
(g6
S"\xff'\xa5\xe8y\xf72?"
p369
tp370
Rp371
sS'rstsixbooksto00euclgoog_0024'
p372
g2
(g6
S'\xa0W\x1d\xa7_\x025?'
p373
tp374
Rp375
sS'rstsixbooksto00euclgoog_0025'
p376
g2
(g6
S'\x04\xaa@\xfe\xac\x192?'
p377
tp378
Rp379
sS'rstsixbooksto00euclgoog_0440'
p380
g2
(g6
S'o\xba\x18D\xed(5?'
p381
tp382
Rp383
sS'rstsixbooksto00euclgoog_0028'
p384
g2
(g6
S'M\xdc\xb1p\xf9l4?'
p385
tp386
Rp387
sS'rstsixbooksto00euclgoog_0029'
p388
g2
(g6
S'6\xb6l.\x9aC4?'
p389
tp390
Rp391
sS'rstsixbooksto00euclgoog_0441'
p392
g2
(g6
S'B&\xb8\xd7\x1fJ5?'
p393
tp394
Rp395
sS'rstsixbooksto00euclgoog_0439'
p396
g2
(g6
S'Gw4\xf2\xdd\x149?'
p397
tp398
Rp399
sS'rstsixbooksto00euclgoog_0438'
p400
g2
(g6
S'&%\x08W&\xac4?'
p401
tp402
Rp403
sS'rstsixbooksto00euclgoog_0431'
p404
g2
(g6
S'\xad@\x00\xc5[y3?'
p405
tp406
Rp407
sS'rstsixbooksto00euclgoog_0430'
p408
g2
(g6
S'e\x0f\xde\xc3D\xf44?'
p409
tp410
Rp411
sS'rstsixbooksto00euclgoog_0433'
p412
g2
(g6
S'}U\xf7\x0b\x08\xbb4?'
p413
tp414
Rp415
sS'rstsixbooksto00euclgoog_0432'
p416
g2
(g6
S'\x16_\xf1\x15_\xf15?'
p417
tp418
Rp419
sS'rstsixbooksto00euclgoog_0435'
p420
g2
(g6
S'z(\x18\xd9\x12\x866?'
p421
tp422
Rp423
sS'rstsixbooksto00euclgoog_0434'
p424
g2
(g6
S'\n$X\xd6,\x0e4?'
p425
tp426
Rp427
sS'rstsixbooksto00euclgoog_0437'
p428
g2
(g6
S'\rK\x0b\xd7Y.7?'
p429
tp430
Rp431
sS'rstsixbooksto00euclgoog_0436'
p432
g2
(g6
S'\x8aQ\xae\xa6n\xba8?'
p433
tp434
Rp435
sS'rstsixbooksto00euclgoog_0325'
p436
g2
(g6
S'\xb3\xc3h<\xda\x1f6?'
p437
tp438
Rp439
sS'rstsixbooksto00euclgoog_0324'
p440
g2
(g6
S'\xff\x8dP$$\x116?'
p441
tp442
Rp443
sS'rstsixbooksto00euclgoog_0327'
p444
g2
(g6
S'\xccB\xe0n.D1?'
p445
tp446
Rp447
sS'rstsixbooksto00euclgoog_0326'
p448
g2
(g6
S'{\x97\xf6D\xed\xd73?'
p449
tp450
Rp451
sS'rstsixbooksto00euclgoog_0321'
p452
g2
(g6
S'{\x14\xca\xa5\x0f\x1a2?'
p453
tp454
Rp455
sS'rstsixbooksto00euclgoog_0320'
p456
g2
(g6
S'b\xa5\x18\xceW\x8a1?'
p457
tp458
Rp459
sS'rstsixbooksto00euclgoog_0323'
p460
g2
(g6
S'\x08:5\x0f\xbb\xf62?'
p461
tp462
Rp463
sS'rstsixbooksto00euclgoog_0322'
p464
g2
(g6
S'\\3.\x81y\x8b1?'
p465
tp466
Rp467
sS'rstsixbooksto00euclgoog_0444'
p468
g2
(g6
S'\xa2k\xfc*"\x9a2?'
p469
tp470
Rp471
sS'rstsixbooksto00euclgoog_0445'
p472
g2
(g6
S'\xcc\x04uZ\xd2?5?'
p473
tp474
Rp475
sS'rstsixbooksto00euclgoog_0446'
p476
g2
(g6
S'\x8fG~ \xa9,3?'
p477
tp478
Rp479
sS'rstsixbooksto00euclgoog_0447'
p480
g2
(g6
S'N_\xaa]\t!8?'
p481
tp482
Rp483
sS'rstsixbooksto00euclgoog_0329'
p484
g2
(g6
S'\xb4lz\xcf\xab\x820?'
p485
tp486
Rp487
sS'rstsixbooksto00euclgoog_0328'
p488
g2
(g6
S'\xab\xaavK\xbd\x8c5?'
p489
tp490
Rp491
sS'rstsixbooksto00euclgoog_0442'
p492
g2
(g6
S'Q\x07uP\x07u0?'
p493
tp494
Rp495
sS'rstsixbooksto00euclgoog_0443'
p496
g2
(g6
S'\x81\x10\x8eD>\x925?'
p497
tp498
Rp499
sS'rstsixbooksto00euclgoog_0476'
p500
g2
(g6
S'\xc1s\x0b7\xf4\x875?'
p501
tp502
Rp503
sS'rstsixbooksto00euclgoog_0211'
p504
g2
(g6
S'v\x81\xa2\x08\xeb\xd34?'
p505
tp506
Rp507
sS'rstsixbooksto00euclgoog_0210'
p508
g2
(g6
S'\xb1\x14\xb82^_9?'
p509
tp510
Rp511
sS'rstsixbooksto00euclgoog_0213'
p512
g2
(g6
S'v\x81\xa2\x08\xeb\xd34?'
p513
tp514
Rp515
sS'rstsixbooksto00euclgoog_0212'
p516
g2
(g6
S'$pI`\x1dC7?'
p517
tp518
Rp519
sS'rstsixbooksto00euclgoog_0215'
p520
g2
(g6
S'\x07\xed$HP\r7?'
p521
tp522
Rp523
sS'rstsixbooksto00euclgoog_0214'
p524
g2
(g6
S'\xd2\xdd\x8e\t\xcf\xec6?'
p525
tp526
Rp527
sS'rstsixbooksto00euclgoog_0217'
p528
g2
(g6
S'\xf1\t\xc2&\x9a{6?'
p529
tp530
Rp531
sS'rstsixbooksto00euclgoog_0216'
p532
g2
(g6
S'@K\xbaS\\:4?'
p533
tp534
Rp535
sS'rstsixbooksto00euclgoog_0219'
p536
g2
(g6
S'b\x8c\xa5\xcaf\xd84?'
p537
tp538
Rp539
sS'rstsixbooksto00euclgoog_0218'
p540
g2
(g6
S'\xda\x08Z\x9d\xbd%5?'
p541
tp542
Rp543
sS'rstsixbooksto00euclgoog_0264'
p544
g2
(g6
S'\x18\x18\x18\x18\x18\x188?'
p545
tp546
Rp547
sS'rstsixbooksto00euclgoog_0265'
p548
g2
(g6
S'\x89\x0c\xb4\xe9\x90Y6?'
p549
tp550
Rp551
sS'rstsixbooksto00euclgoog_0266'
p552
g2
(g6
S' \x85\x0b\xe2\x11\xb04?'
p553
tp554
Rp555
sS'rstsixbooksto00euclgoog_0267'
p556
g2
(g6
S't\xdbK\xff\xb9]<?'
p557
tp558
Rp559
sS'rstsixbooksto00euclgoog_0260'
p560
g2
(g6
S'/,`\xf7\x1f\xce6?'
p561
tp562
Rp563
sS'rstsixbooksto00euclgoog_0261'
p564
g2
(g6
S'=\xcd[\xcerp5?'
p565
tp566
Rp567
sS'rstsixbooksto00euclgoog_0262'
p568
g2
(g6
S'\xbb\xdcZ-\xf7\xb26?'
p569
tp570
Rp571
sS'rstsixbooksto00euclgoog_0263'
p572
g2
(g6
S'v\x1d\xa9\xca\xc0\x8e6?'
p573
tp574
Rp575
sS'rstsixbooksto00euclgoog_0268'
p576
g2
(g6
S'<\xa8\x83:\xa8\x83:?'
p577
tp578
Rp579
sS'rstsixbooksto00euclgoog_0269'
p580
g2
(g6
S'\xa8\xc9t\t\xc6\x118?'
p581
tp582
Rp583
sS'rstsixbooksto00euclgoog_0066'
p584
g2
(g6
S'Q\xa3\x10\x1f\xe0\x8c3?'
p585
tp586
Rp587
sS'rstsixbooksto00euclgoog_0067'
p588
g2
(g6
S'PR+?\x92q4?'
p589
tp590
Rp591
sS'rstsixbooksto00euclgoog_0064'
p592
g2
(g6
S'\xfbY\x897\xdb\x8e6?'
p593
tp594
Rp595
sS'rstsixbooksto00euclgoog_0065'
p596
g2
(g6
S'\xb2\x8a\xb2I\xd5\xd97?'
p597
tp598
Rp599
sS'rstsixbooksto00euclgoog_0062'
p600
g2
(g6
S'\x1d\xe7\x9f)\xe7\x9a8?'
p601
tp602
Rp603
sS'rstsixbooksto00euclgoog_0063'
p604
g2
(g6
S'\x94\xc4\xfa\x05\xb0\xed4?'
p605
tp606
Rp607
sS'rstsixbooksto00euclgoog_0060'
p608
g2
(g6
S'\xdf\xef\xaeuD\xf89?'
p609
tp610
Rp611
sS'rstsixbooksto00euclgoog_0061'
p612
g2
(g6
S'A\x87\x95eE\r7?'
p613
tp614
Rp615
sS'rstsixbooksto00euclgoog_0105'
p616
g2
(g6
S'\xb23\x9e@\x87::?'
p617
tp618
Rp619
sS'rstsixbooksto00euclgoog_0104'
p620
g2
(g6
S'\xe3\xdbI\x8b\xdf$??'
p621
tp622
Rp623
sS'rstsixbooksto00euclgoog_0107'
p624
g2
(g6
S't\xeb\xd7\xb8\x02\x94:?'
p625
tp626
Rp627
sS'rstsixbooksto00euclgoog_0106'
p628
g2
(g6
S'4K%\xca\xa2\xb88?'
p629
tp630
Rp631
sS'rstsixbooksto00euclgoog_0101'
p632
g2
(g6
S'\xd6\xda\xb3\xe5&^1?'
p633
tp634
Rp635
sS'rstsixbooksto00euclgoog_0100'
p636
g2
(g6
S'AC,n\xaa\xa95?'
p637
tp638
Rp639
sS'rstsixbooksto00euclgoog_0103'
p640
g2
(g6
S'^s\x05*\xc2I7?'
p641
tp642
Rp643
sS'rstsixbooksto00euclgoog_0102'
p644
g2
(g6
S'\xc2f\xa9o\x9b\xf45?'
p645
tp646
Rp647
sS'rstsixbooksto00euclgoog_0400'
p648
g2
(g6
S'\x7f\x0fz\xd5XD=?'
p649
tp650
Rp651
sS'rstsixbooksto00euclgoog_0401'
p652
g2
(g6
S'\xe5\xa38\x99\x9a"9?'
p653
tp654
Rp655
sS'rstsixbooksto00euclgoog_0402'
p656
g2
(g6
S'~G\x9d\xfd\xf8T9?'
p657
tp658
Rp659
sS'rstsixbooksto00euclgoog_0403'
p660
g2
(g6
S'\xc4\x13\xbd\xa3z\x94=?'
p661
tp662
Rp663
sS'rstsixbooksto00euclgoog_0404'
p664
g2
(g6
S"'\x89\xf6B\xd6\xa36?"
p665
tp666
Rp667
sS'rstsixbooksto00euclgoog_0405'
p668
g2
(g6
S' o\x89\xe1\xd2\x9b6?'
p669
tp670
Rp671
sS'rstsixbooksto00euclgoog_0406'
p672
g2
(g6
S'B&\xb8\xd7\x1fJ5?'
p673
tp674
Rp675
sS'rstsixbooksto00euclgoog_0407'
p676
g2
(g6
S'\xcb\xcfgK\x96\xb96?'
p677
tp678
Rp679
sS'rstsixbooksto00euclgoog_0408'
p680
g2
(g6
S'\xf2\x15_\xf1\x15_1?'
p681
tp682
Rp683
sS'rstsixbooksto00euclgoog_0409'
p684
g2
(g6
S'9xg>\x13\x8b7?'
p685
tp686
Rp687
sS'rstsixbooksto00euclgoog_0429'
p688
g2
(g6
S'\xad@\x00\xc5[y3?'
p689
tp690
Rp691
sS'rstsixbooksto00euclgoog_0369'
p692
g2
(g6
S'1&\xd7\xb4or;?'
p693
tp694
Rp695
sS'rstsixbooksto00euclgoog_0368'
p696
g2
(g6
S'\xffQjUW\xb90?'
p697
tp698
Rp699
sS'rstsixbooksto00euclgoog_0361'
p700
g2
(g6
S'\xc4\xea\x07\xf9\xce75?'
p701
tp702
Rp703
sS'rstsixbooksto00euclgoog_0360'
p704
g2
(g6
S'\r\x1f@\x13JG1?'
p705
tp706
Rp707
sS'rstsixbooksto00euclgoog_0363'
p708
g2
(g6
S'qN\xfc{\xf6\xdf2?'
p709
tp710
Rp711
sS'rstsixbooksto00euclgoog_0362'
p712
g2
(g6
S'\x9d~n\xfc\x13\xc70?'
p713
tp714
Rp715
sS'rstsixbooksto00euclgoog_0365'
p716
g2
(g6
S'[\xf4\\\xf3[\x9e<?'
p717
tp718
Rp719
sS'rstsixbooksto00euclgoog_0364'
p720
g2
(g6
S'\xb4%`\x17#\xfb4?'
p721
tp722
Rp723
sS'rstsixbooksto00euclgoog_0367'
p724
g2
(g6
S'\xb5\x8fz5\x9b\x072?'
p725
tp726
Rp727
sS'rstsixbooksto00euclgoog_0366'
p728
g2
(g6
S')\x81\xc8f\x8fR6?'
p729
tp730
Rp731
sS'rstsixbooksto00euclgoog_0121'
p732
g2
(g6
S'\x86N\xf0\xca\x94^4?'
p733
tp734
Rp735
sS'rstsixbooksto00euclgoog_0120'
p736
g2
(g6
S'\xbf\xd8\xb4i\xd7\xc84?'
p737
tp738
Rp739
sS'rstsixbooksto00euclgoog_0420'
p740
g2
(g6
S"c\x14\xf6\x86'\xbb7?"
p741
tp742
Rp743
sS'rstsixbooksto00euclgoog_0421'
p744
g2
(g6
S'\xd8o^\xd6\x93\x129?'
p745
tp746
Rp747
sS'rstsixbooksto00euclgoog_0318'
p748
g2
(g6
S'\\3.\x81y\x8b1?'
p749
tp750
Rp751
sS'rstsixbooksto00euclgoog_0319'
p752
g2
(g6
S'd\xc9\xf3\xd2\xb8`0?'
p753
tp754
Rp755
sS'rstsixbooksto00euclgoog_0314'
p756
g2
(g6
S'N\xa0\xee\x150\xaf3?'
p757
tp758
Rp759
sS'rstsixbooksto00euclgoog_0315'
p760
g2
(g6
S'\xccB\xe0n.D1?'
p761
tp762
Rp763
sS'rstsixbooksto00euclgoog_0316'
p764
g2
(g6
S'\x08\xc5\xc4\xdb\xe6\xfe1?'
p765
tp766
Rp767
sS'rstsixbooksto00euclgoog_0317'
p768
g2
(g6
S'\x13\x1e\n\xa9w\xf42?'
p769
tp770
Rp771
sS'rstsixbooksto00euclgoog_0310'
p772
g2
(g6
S'\xf8\r\xaak<L5?'
p773
tp774
Rp775
sS'rstsixbooksto00euclgoog_0311'
p776
g2
(g6
S'\x96\xfeD\xefV\x1d7?'
p777
tp778
Rp779
sS'rstsixbooksto00euclgoog_0312'
p780
g2
(g6
S'\xd1\x0b\xb9(;\xe06?'
p781
tp782
Rp783
sS'rstsixbooksto00euclgoog_0313'
p784
g2
(g6
S'\xf4\xbf\x9a#\xbf#4?'
p785
tp786
Rp787
sS'rstsixbooksto00euclgoog_0129'
p788
g2
(g6
S'\xa07\xcf\x83\xcah5?'
p789
tp790
Rp791
sS'rstsixbooksto00euclgoog_0128'
p792
g2
(g6
S'\x9f\xea\xd9\xc4}\xec3?'
p793
tp794
Rp795
sS'rstsixbooksto00euclgoog_0088'
p796
g2
(g6
S'\xaa\x17\xb54\xff\xe27?'
p797
tp798
Rp799
sS'rstsixbooksto00euclgoog_0089'
p800
g2
(g6
S'\x95\x8d\xf1q~\xe51?'
p801
tp802
Rp803
sS'rstsixbooksto00euclgoog_0084'
p804
g2
(g6
S'\xa0=\xca?5O6?'
p805
tp806
Rp807
sS'rstsixbooksto00euclgoog_0085'
p808
g2
(g6
S'^\xc0\xfa\xe8\x0e\xc68?'
p809
tp810
Rp811
sS'rstsixbooksto00euclgoog_0086'
p812
g2
(g6
S'i\xc4\xf7\x04\xec\x837?'
p813
tp814
Rp815
sS'rstsixbooksto00euclgoog_0087'
p816
g2
(g6
S'w\\\xe4\xe2\xf7S8?'
p817
tp818
Rp819
sS'rstsixbooksto00euclgoog_0080'
p820
g2
(g6
S'3.=\xee\xd3L5?'
p821
tp822
Rp823
sS'rstsixbooksto00euclgoog_0081'
p824
g2
(g6
S'\xa07\xcf\x83\xcah5?'
p825
tp826
Rp827
sS'rstsixbooksto00euclgoog_0082'
p828
g2
(g6
S'T\xe0\x148\xdaK6?'
p829
tp830
Rp831
sS'rstsixbooksto00euclgoog_0083'
p832
g2
(g6
S'\xc6\xf4\x9du_ 7?'
p833
tp834
Rp835
sS'rstsixbooksto00euclgoog_0516'
p836
g2
(g6
S';e2\xb6\xf1\x08>?'
p837
tp838
Rp839
sS'rstsixbooksto00euclgoog_0517'
p840
g2
(g6
S'X|\xc5W|\xc57?'
p841
tp842
Rp843
sS'rstsixbooksto00euclgoog_0514'
p844
g2
(g6
S'\xe1\x83gi\x0b\xab1?'
p845
tp846
Rp847
sS'rstsixbooksto00euclgoog_0515'
p848
g2
(g6
S'^y\x15R\x9d7:?'
p849
tp850
Rp851
sS'rstsixbooksto00euclgoog_0512'
p852
g2
(g6
S'\xa9\xf8\x93\x85X\xda3?'
p853
tp854
Rp855
sS'rstsixbooksto00euclgoog_0513'
p856
g2
(g6
S'\x11\xfc\x19\x01\r\x0cE?'
p857
tp858
Rp859
sS'rstsixbooksto00euclgoog_0510'
p860
g2
(g6
S'J\xb7\x01K\xefr7?'
p861
tp862
Rp863
sS'rstsixbooksto00euclgoog_0511'
p864
g2
(g6
S'?<\xaa_\xb6\xbf3?'
p865
tp866
Rp867
sS'rstsixbooksto00euclgoog_0141'
p868
g2
(g6
S'/\xd6P\x87\xf8\x173?'
p869
tp870
Rp871
sS'rstsixbooksto00euclgoog_0140'
p872
g2
(g6
S'\xc0\x1f\xafl\xb9^5?'
p873
tp874
Rp875
sS'rstsixbooksto00euclgoog_0143'
p876
g2
(g6
S'\xa4\xc5\xc3\x89\x8e\x946?'
p877
tp878
Rp879
sS'rstsixbooksto00euclgoog_0142'
p880
g2
(g6
S'\xd2"\xad\xb8O\x083?'
p881
tp882
Rp883
sS'rstsixbooksto00euclgoog_0145'
p884
g2
(g6
S'\xc1\x9c\xb1\x0e\x84\xeb4?'
p885
tp886
Rp887
sS'rstsixbooksto00euclgoog_0144'
p888
g2
(g6
S'\xbf\xd8\xb4i\xd7\xc84?'
p889
tp890
Rp891
sS'rstsixbooksto00euclgoog_0147'
p892
g2
(g6
S'\xc2f\xa9o\x9b\xf45?'
p893
tp894
Rp895
sS'rstsixbooksto00euclgoog_0146'
p896
g2
(g6
S'\xe1\xd7\x81r*D7?'
p897
tp898
Rp899
sS'rstsixbooksto00euclgoog_0149'
p900
g2
(g6
S'\xa3\xf5\xd0l\x0c\xa54?'
p901
tp902
Rp903
sS'rstsixbooksto00euclgoog_0221'
p904
g2
(g6
S'l\xb7p^U\x113?'
p905
tp906
Rp907
sS'rstsixbooksto00euclgoog_0222'
p908
g2
(g6
S'\x87\xb93\xc8\xa1\x810?'
p909
tp910
Rp911
sS'rstsixbooksto00euclgoog_0223'
p912
g2
(g6
S'q\xd0nV\xdb16?'
p913
tp914
Rp915
sS'rstsixbooksto00euclgoog_0224'
p916
g2
(g6
S'r\x93<%\xb9=4?'
p917
tp918
Rp919
sS'rstsixbooksto00euclgoog_0225'
p920
g2
(g6
S"'z\xf1Nt\x123?"
p921
tp922
Rp923
sS'rstsixbooksto00euclgoog_0226'
p924
g2
(g6
S'\xc1\xb6/\xeaT81?'
p925
tp926
Rp927
sS'rstsixbooksto00euclgoog_0227'
p928
g2
(g6
S'\xfa\xb3+\x0c\x08\xef1?'
p929
tp930
Rp931
sS'rstsixbooksto00euclgoog_0178'
p932
g2
(g6
S'`\xdaI\xb7\x81\xca5?'
p933
tp934
Rp935
sS'rstsixbooksto00euclgoog_0179'
p936
g2
(g6
S'\x94\x9a\xe0(x\xde8?'
p937
tp938
Rp939
sS'rstsixbooksto00euclgoog_0134'
p940
g2
(g6
S'DT\x1e\xd2\xa3H7?'
p941
tp942
Rp943
sS'rstsixbooksto00euclgoog_0135'
p944
g2
(g6
S'\xc6\xf4\x9du_ 7?'
p945
tp946
Rp947
sS'rstsixbooksto00euclgoog_0136'
p948
g2
(g6
S'\xbd\x91\xbaf\xf524?'
p949
tp950
Rp951
sS'rstsixbooksto00euclgoog_0137'
p952
g2
(g6
S'\x19\x92S\xf4\xea\xbe5?'
p953
tp954
Rp955
sS'rstsixbooksto00euclgoog_0130'
p956
g2
(g6
S'\x12\xec=\xfbS\x1c:?'
p957
tp958
Rp959
sS'rstsixbooksto00euclgoog_0131'
p960
g2
(g6
S'\xfc=c\xcd*\xdb7?'
p961
tp962
Rp963
sS'rstsixbooksto00euclgoog_0132'
p964
g2
(g6
S'\x92?\xc8\xdf\xc2w8?'
p965
tp966
Rp967
sS'rstsixbooksto00euclgoog_0133'
p968
g2
(g6
S'V\xf7\x01X>\xd18?'
p969
tp970
Rp971
sS'rstsixbooksto00euclgoog_0138'
p972
g2
(g6
S'\x19\x92S\xf4\xea\xbe5?'
p973
tp974
Rp975
sS'rstsixbooksto00euclgoog_0139'
p976
g2
(g6
S'q\xbd\xfdx:\x895?'
p977
tp978
Rp979
sS'rstsixbooksto00euclgoog_0170'
p980
g2
(g6
S'\x7f\xcar\x04\x00\xd13?'
p981
tp982
Rp983
sS'rstsixbooksto00euclgoog_0039'
p984
g2
(g6
S'Q\xa3\x10\x1f\xe0\x8c3?'
p985
tp986
Rp987
sS'rstsixbooksto00euclgoog_0038'
p988
g2
(g6
S'y\xde\x13\x18"\xed2?'
p989
tp990
Rp991
sS'rstsixbooksto00euclgoog_0171'
p992
g2
(g6
S'\x14i\xb2\x05\xcb\xdd7?'
p993
tp994
Rp995
sS'rstsixbooksto00euclgoog_0035'
p996
g2
(g6
S'&7W\xf0\xb8%4?'
p997
tp998
Rp999
sS'rstsixbooksto00euclgoog_0034'
p1000
g2
(g6
S'%I\x92$I\x92D?'
p1001
tp1002
Rp1003
sS'rstsixbooksto00euclgoog_0037'
p1004
g2
(g6
S'\x8d\xcc\xe5!\xe4\xc65?'
p1005
tp1006
Rp1007
sS'rstsixbooksto00euclgoog_0036'
p1008
g2
(g6
S'Q\x07uP\x07u0?'
p1009
tp1010
Rp1011
sS'rstsixbooksto00euclgoog_0031'
p1012
g2
(g6
S'\x9c\xbc\x0f\xea{\x144?'
p1013
tp1014
Rp1015
sS'rstsixbooksto00euclgoog_0030'
p1016
g2
(g6
S'>\xec\x87\xa8a\x1f6?'
p1017
tp1018
Rp1019
sS'rstsixbooksto00euclgoog_0033'
p1020
g2
(g6
S'D\xbf\x08\x9e\xe2\\4?'
p1021
tp1022
Rp1023
sS'rstsixbooksto00euclgoog_0032'
p1024
g2
(g6
S'Q\xa3\x10\x1f\xe0\x8c3?'
p1025
tp1026
Rp1027
sS'rstsixbooksto00euclgoog_0350'
p1028
g2
(g6
S'd\xc9\xf3\xd2\xb8`0?'
p1029
tp1030
Rp1031
sS'rstsixbooksto00euclgoog_0351'
p1032
g2
(g6
S'/<&R\xbcb1?'
p1033
tp1034
Rp1035
sS'rstsixbooksto00euclgoog_0352'
p1036
g2
(g6
S'\x08:5\x0f\xbb\xf62?'
p1037
tp1038
Rp1039
sS'rstsixbooksto00euclgoog_0353'
p1040
g2
(g6
S'<R\x92\\\xe3\xfc0?'
p1041
tp1042
Rp1043
sS'rstsixbooksto00euclgoog_0354'
p1044
g2
(g6
S'v\xb8\xfe\xf1\x88+0?'
p1045
tp1046
Rp1047
sS'rstsixbooksto00euclgoog_0355'
p1048
g2
(g6
S'L8\xf7\\\xdc\x005?'
p1049
tp1050
Rp1051
sS'rstsixbooksto00euclgoog_0356'
p1052
g2
(g6
S'\xe92\x04\x0e\xc1\x124?'
p1053
tp1054
Rp1055
sS'rstsixbooksto00euclgoog_0357'
p1056
g2
(g6
S'\x16\xf9[pf\xed4?'
p1057
tp1058
Rp1059
sS'rstsixbooksto00euclgoog_0358'
p1060
g2
(g6
S'2d&\x0f\xd8\x972?'
p1061
tp1062
Rp1063
sS'rstsixbooksto00euclgoog_0359'
p1064
g2
(g6
S'\xdaprEy`1?'
p1065
tp1066
Rp1067
sS'rstsixbooksto00euclgoog_0455'
p1068
g2
(g6
S"\x93\xfc\xdab'\xf17?"
p1069
tp1070
Rp1071
sS'rstsixbooksto00euclgoog_0454'
p1072
g2
(g6
S'R\xfa6\xfd\xcfx6?'
p1073
tp1074
Rp1075
sS'rstsixbooksto00euclgoog_0453'
p1076
g2
(g6
S'\x15\x1c2\x87Mn7?'
p1077
tp1078
Rp1079
sS'rstsixbooksto00euclgoog_0452'
p1080
g2
(g6
S'*Dx\xa6\x19\xe27?'
p1081
tp1082
Rp1083
sS'rstsixbooksto00euclgoog_0451'
p1084
g2
(g6
S'<\xb3Z\x1b\xf8l9?'
p1085
tp1086
Rp1087
sS'rstsixbooksto00euclgoog_0450'
p1088
g2
(g6
S'\x11\xc85\x11\xc851?'
p1089
tp1090
Rp1091
sS'rstsixbooksto00euclgoog_0228'
p1092
g2
(g6
S'\xe4Q*\x99\xd2"4?'
p1093
tp1094
Rp1095
sS'rstsixbooksto00euclgoog_0229'
p1096
g2
(g6
S'\x04b\x1b\xabxx8?'
p1097
tp1098
Rp1099
sS'rstsixbooksto00euclgoog_0468'
p1100
g2
(g6
S'z\xe7\x95\xc9\xa9\xf23?'
p1101
tp1102
Rp1103
sS'rstsixbooksto00euclgoog_0220'
p1104
g2
(g6
S'C~w\x15\xc2\r6?'
p1105
tp1106
Rp1107
sS'rstsixbooksto00euclgoog_0428'
p1108
g2
(g6
S's\xdc\xb3\x817\x825?'
p1109
tp1110
Rp1111
sS'rstsixbooksto00euclgoog_0469'
p1112
g2
(g6
S'zJ\xc3;h`\xf7>'
p1113
tp1114
Rp1115
sS'rstsixbooksto00euclgoog_0148'
p1116
g2
(g6
S'\xfe\xb4j\xb3\x8a\x816?'
p1117
tp1118
Rp1119
sS'rstsixbooksto00euclgoog_0460'
p1120
g2
(g6
S'\xc3\xaa\xab\xac\x17k4?'
p1121
tp1122
Rp1123
sS'rstsixbooksto00euclgoog_0461'
p1124
g2
(g6
S'\x97\x04\xe95P\x088?'
p1125
tp1126
Rp1127
sS'rstsixbooksto00euclgoog_0277'
p1128
g2
(g6
S'M\x8a\xcf|\xd8\x9e5?'
p1129
tp1130
Rp1131
sS'rstsixbooksto00euclgoog_0276'
p1132
g2
(g6
S'\xe9@pb:\x89:?'
p1133
tp1134
Rp1135
sS'rstsixbooksto00euclgoog_0275'
p1136
g2
(g6
S'|\xfc\xa0\x1d%;:?'
p1137
tp1138
Rp1139
sS'rstsixbooksto00euclgoog_0274'
p1140
g2
(g6
S'\xff\x8dP$$\x116?'
p1141
tp1142
Rp1143
sS'rstsixbooksto00euclgoog_0273'
p1144
g2
(g6
S'i\x90\xc2\x9d2.<?'
p1145
tp1146
Rp1147
sS'rstsixbooksto00euclgoog_0272'
p1148
g2
(g6
S']\x88\x12\xff\x14Z=?'
p1149
tp1150
Rp1151
sS'rstsixbooksto00euclgoog_0271'
p1152
g2
(g6
S'oa\xfe\x84\x8d\x14??'
p1153
tp1154
Rp1155
sS'rstsixbooksto00euclgoog_0270'
p1156
g2
(g6
S'6\x11\xc85\x11\xc85?'
p1157
tp1158
Rp1159
sS'rstsixbooksto00euclgoog_0279'
p1160
g2
(g6
S'\xde\xdf\xc7g[I<?'
p1161
tp1162
Rp1163
sS'rstsixbooksto00euclgoog_0278'
p1164
g2
(g6
S'u\x0f\xed^\xb7\xc85?'
p1165
tp1166
Rp1167
sS'rstsixbooksto00euclgoog_0071'
p1168
g2
(g6
S'\xff \xe8\xe5\xc1\xae5?'
p1169
tp1170
Rp1171
sS'rstsixbooksto00euclgoog_0070'
p1172
g2
(g6
S' \x82\xad\xe6\xca\x889?'
p1173
tp1174
Rp1175
sS'rstsixbooksto00euclgoog_0073'
p1176
g2
(g6
S'\xbd\xf1\x83\xf9\x81\xbc9?'
p1177
tp1178
Rp1179
sS'rstsixbooksto00euclgoog_0072'
p1180
g2
(g6
S'\xf7\xbe{z\xf7\xa05?'
p1181
tp1182
Rp1183
sS'rstsixbooksto00euclgoog_0075'
p1184
g2
(g6
S'<\xc7\xf3\xb9\x1665?'
p1185
tp1186
Rp1187
sS'rstsixbooksto00euclgoog_0074'
p1188
g2
(g6
S'T\x12\xcd\xea\xc0H6?'
p1189
tp1190
Rp1191
sS'rstsixbooksto00euclgoog_0077'
p1192
g2
(g6
S'\xba\x03\xc6`1\x073?'
p1193
tp1194
Rp1195
sS'rstsixbooksto00euclgoog_0076'
p1196
g2
(g6
S'\xa6\x94\xf5#\xdf&4?'
p1197
tp1198
Rp1199
sS'rstsixbooksto00euclgoog_0079'
p1200
g2
(g6
S'\xb6b\xacS\xbe67?'
p1201
tp1202
Rp1203
sS'rstsixbooksto00euclgoog_0078'
p1204
g2
(g6
S'm\x82\xf9\xed-\xc06?'
p1205
tp1206
Rp1207
sS'rstsixbooksto00euclgoog_0172'
p1208
g2
(g6
S'6\x02\xeaWG=5?'
p1209
tp1210
Rp1211
sS'rstsixbooksto00euclgoog_0173'
p1212
g2
(g6
S'v\x81\xa2\x08\xeb\xd34?'
p1213
tp1214
Rp1215
sS'rstsixbooksto00euclgoog_0174'
p1216
g2
(g6
S'\xf2\x8a#\xd5\x1aA9?'
p1217
tp1218
Rp1219
sS'rstsixbooksto00euclgoog_0175'
p1220
g2
(g6
S'\x1b\xa8\xda\x12\x89\x0b;?'
p1221
tp1222
Rp1223
sS'rstsixbooksto00euclgoog_0176'
p1224
g2
(g6
S'\x87\x81\xaf\xb1W\x0f:?'
p1225
tp1226
Rp1227
sS'rstsixbooksto00euclgoog_0177'
p1228
g2
(g6
S'yo\x08\xec\x1cj5?'
p1229
tp1230
Rp1231
sS'rstsixbooksto00euclgoog_0413'
p1232
g2
(g6
S'\x06.\x88\\\xf2\x9b9?'
p1233
tp1234
Rp1235
sS'rstsixbooksto00euclgoog_0412'
p1236
g2
(g6
S'QW|\x81\xc2\xcf7?'
p1237
tp1238
Rp1239
sS'rstsixbooksto00euclgoog_0411'
p1240
g2
(g6
S'\xd0&\x10\x98\x1c\x995?'
p1241
tp1242
Rp1243
sS'rstsixbooksto00euclgoog_0410'
p1244
g2
(g6
S'\xe1\x1d\xafo\xa0\xd16?'
p1245
tp1246
Rp1247
sS'rstsixbooksto00euclgoog_0417'
p1248
g2
(g6
S'PTfh^E:?'
p1249
tp1250
Rp1251
sS'rstsixbooksto00euclgoog_0416'
p1252
g2
(g6
S'\x17]J\\\x16\xe56?'
p1253
tp1254
Rp1255
sS'rstsixbooksto00euclgoog_0415'
p1256
g2
(g6
S'~\xb1\xb7\x1bqa6?'
p1257
tp1258
Rp1259
sS'rstsixbooksto00euclgoog_0414'
p1260
g2
(g6
S'QW|\x81\xc2\xcf7?'
p1261
tp1262
Rp1263
sS'rstsixbooksto00euclgoog_0419'
p1264
g2
(g6
S'"\xce_\n\xa0\xcc5?'
p1265
tp1266
Rp1267
sS'rstsixbooksto00euclgoog_0418'
p1268
g2
(g6
S'\xce+([\xff_8?'
p1269
tp1270
Rp1271
sS'rstsixbooksto00euclgoog_0394'
p1272
g2
(g6
S'\xa10\xc3\xe9\x1d\xff8?'
p1273
tp1274
Rp1275
sS'rstsixbooksto00euclgoog_0395'
p1276
g2
(g6
S'\xa2\xc9\xbe\xe4\t}9?'
p1277
tp1278
Rp1279
sS'rstsixbooksto00euclgoog_0396'
p1280
g2
(g6
S'8xg>\x13\x8b7?'
p1281
tp1282
Rp1283
sS'rstsixbooksto00euclgoog_0397'
p1284
g2
(g6
S'\xe5tW\xbc&\xb15?'
p1285
tp1286
Rp1287
sS'rstsixbooksto00euclgoog_0390'
p1288
g2
(g6
S'h\xa0\xab\xe2\xe9 5?'
p1289
tp1290
Rp1291
sS'rstsixbooksto00euclgoog_0391'
p1292
g2
(g6
S'\x08,\x86\xb2s_4?'
p1293
tp1294
Rp1295
sS'rstsixbooksto00euclgoog_0392'
p1296
g2
(g6
S'`\x1f:|\xd2\x965?'
p1297
tp1298
Rp1299
sS'rstsixbooksto00euclgoog_0393'
p1300
g2
(g6
S'\x98\xef\xa2\x87\xed\xd65?'
p1301
tp1302
Rp1303
sS'rstsixbooksto00euclgoog_0398'
p1304
g2
(g6
S'\xcb\xcfgK\x96\xb96?'
p1305
tp1306
Rp1307
sS'rstsixbooksto00euclgoog_0399'
p1308
g2
(g6
S'\xb4\xf0R\x08\xe7t6?'
p1309
tp1310
Rp1311
sS'rstsixbooksto00euclgoog_0488'
p1312
g2
(g6
S'e\x88\xaf4\xba\x9b4?'
p1313
tp1314
Rp1315
sS'rstsixbooksto00euclgoog_0489'
p1316
g2
(g6
S'!\x82\x84e\xce\x173?'
p1317
tp1318
Rp1319
sS'rstsixbooksto00euclgoog_0480'
p1320
g2
(g6
S'U\x1dT)p\x1c3?'
p1321
tp1322
Rp1323
sS'rstsixbooksto00euclgoog_0481'
p1324
g2
(g6
S'\x04\xc5Y\xc5\x86.8?'
p1325
tp1326
Rp1327
sS'rstsixbooksto00euclgoog_0482'
p1328
g2
(g6
S'V\xe75w\x81\x03:?'
p1329
tp1330
Rp1331
sS'rstsixbooksto00euclgoog_0483'
p1332
g2
(g6
S'\x9c\xc1\xd3I\xd2\xfc6?'
p1333
tp1334
Rp1335
sS'rstsixbooksto00euclgoog_0484'
p1336
g2
(g6
S'\xb1S\xd3\xeaP+5?'
p1337
tp1338
Rp1339
sS'rstsixbooksto00euclgoog_0485'
p1340
g2
(g6
S'h\x90\xbd\x07\xe3\xb2\xe4>'
p1341
tp1342
Rp1343
sS'rstsixbooksto00euclgoog_0486'
p1344
g2
(g6
S'\x95Z\x0f\x0bN\x86D?'
p1345
tp1346
Rp1347
sS'rstsixbooksto00euclgoog_0487'
p1348
g2
(g6
S'zJ\xc3;h`\xf7>'
p1349
tp1350
Rp1351
sS'rstsixbooksto00euclgoog_0523'
p1352
g2
(g6
S'Rv\xbfQv\xbf1?'
p1353
tp1354
Rp1355
sS'rstsixbooksto00euclgoog_0309'
p1356
g2
(g6
S'L^\x91J)~9?'
p1357
tp1358
Rp1359
sS'rstsixbooksto00euclgoog_0308'
p1360
g2
(g6
S'\xc4\xf5L\x1e\x14F7?'
p1361
tp1362
Rp1363
sS'rstsixbooksto00euclgoog_0307'
p1364
g2
(g6
S'u|\xfad=v9?'
p1365
tp1366
Rp1367
sS'rstsixbooksto00euclgoog_0306'
p1368
g2
(g6
S'\xac\xa2\x13\x1eoB8?'
p1369
tp1370
Rp1371
sS'rstsixbooksto00euclgoog_0305'
p1372
g2
(g6
S'\xc4\xf5L\x1e\x14F7?'
p1373
tp1374
Rp1375
sS'rstsixbooksto00euclgoog_0304'
p1376
g2
(g6
S'\xdc@#\xf1j\xff8?'
p1377
tp1378
Rp1379
sS'rstsixbooksto00euclgoog_0303'
p1380
g2
(g6
S'\xdd\xf7\xf0\xefE(\xf4>'
p1381
tp1382
Rp1383
sS'rstsixbooksto00euclgoog_0302'
p1384
g2
(g6
S'\x16O\x1c\xa2\x98\xa9E?'
p1385
tp1386
Rp1387
sS'rstsixbooksto00euclgoog_0301'
p1388
g2
(g6
S'\xbf\xc5\xbf\x9c<x\xf1>'
p1389
tp1390
Rp1391
sS'rstsixbooksto00euclgoog_0300'
p1392
g2
(g6
S'\xd9,\x0eG\xa6\xbd4?'
p1393
tp1394
Rp1395
sS'rstsixbooksto00euclgoog_0520'
p1396
g2
(g6
S'\x86\x17\xca\xf5;\x836?'
p1397
tp1398
Rp1399
sS'rstsixbooksto00euclgoog_0527'
p1400
g2
(g6
S'n)\x19\x8f\xc16@?'
p1401
tp1402
Rp1403
sS'rstsixbooksto00euclgoog_0526'
p1404
g2
(g6
S'u\x84X\xf4\xb9\x87A?'
p1405
tp1406
Rp1407
sS'rstsixbooksto00euclgoog_0525'
p1408
g2
(g6
S'\x16:\x83\x15:\x835?'
p1409
tp1410
Rp1411
sS'rstsixbooksto00euclgoog_0524'
p1412
g2
(g6
S'\xbe\xd2\xb1?\x1e\xea8?'
p1413
tp1414
Rp1415
sS'rstsixbooksto00euclgoog_0099'
p1416
g2
(g6
S'He\x106\x9d\xe78?'
p1417
tp1418
Rp1419
sS'rstsixbooksto00euclgoog_0098'
p1420
g2
(g6
S'\xc1\x9c\xb1\x0e\x84\xeb4?'
p1421
tp1422
Rp1423
sS'rstsixbooksto00euclgoog_0097'
p1424
g2
(g6
S'p\xf3\x05\x18#\x804?'
p1425
tp1426
Rp1427
sS'rstsixbooksto00euclgoog_0096'
p1428
g2
(g6
S'\xd4\xb6\x9cz~\x1a5?'
p1429
tp1430
Rp1431
sS'rstsixbooksto00euclgoog_0095'
p1432
g2
(g6
S'\x88\x18\xe8+\xacg5?'
p1433
tp1434
Rp1435
sS'rstsixbooksto00euclgoog_0094'
p1436
g2
(g6
S'\xc4\xad\xa3r}\x8a6?'
p1437
tp1438
Rp1439
sS'rstsixbooksto00euclgoog_0093'
p1440
g2
(g6
S'K\xad>\x0c\xeen1?'
p1441
tp1442
Rp1443
sS'rstsixbooksto00euclgoog_0092'
p1444
g2
(g6
S'\xd4\xb6\x9cz~\x1a5?'
p1445
tp1446
Rp1447
sS'rstsixbooksto00euclgoog_0091'
p1448
g2
(g6
S'h}\xfd\x01\n\xee6?'
p1449
tp1450
Rp1451
sS'rstsixbooksto00euclgoog_0090'
p1452
g2
(g6
S'k\x1e\x17\x0f}\xbe2?'
p1453
tp1454
Rp1455
sS'rstsixbooksto00euclgoog_0522'
p1456
g2
(g6
S'b\xb7A\xd7\xb4g3?'
p1457
tp1458
Rp1459
sS'rstsixbooksto00euclgoog_0299'
p1460
g2
(g6
S'\x0e\xba\xdb\xc7\xa2\xbb3?'
p1461
tp1462
Rp1463
sS'rstsixbooksto00euclgoog_0521'
p1464
g2
(g6
S'J\x84\xe8>`\x9b8?'
p1465
tp1466
Rp1467
sS'rstsixbooksto00euclgoog_0191'
p1468
g2
(g6
S'v\x81\xa2\x08\xeb\xd34?'
p1469
tp1470
Rp1471
sS'rstsixbooksto00euclgoog_0298'
p1472
g2
(g6
S'\x04\x85q\xffr\x9c1?'
p1473
tp1474
Rp1475
sS'rstsixbooksto00euclgoog_0239'
p1476
g2
(g6
S'\x04b\x1b\xabxx8?'
p1477
tp1478
Rp1479
sS'rstsixbooksto00euclgoog_0238'
p1480
g2
(g6
S'\xb9\xab,\x1b\x8eN9?'
p1481
tp1482
Rp1483
sS'rstsixbooksto00euclgoog_0233'
p1484
g2
(g6
S'P\xb5\xad\xf4\x08\xa15?'
p1485
tp1486
Rp1487
sS'rstsixbooksto00euclgoog_0232'
p1488
g2
(g6
S'\x1aC\xbbo-\x7f3?'
p1489
tp1490
Rp1491
sS'rstsixbooksto00euclgoog_0231'
p1492
g2
(g6
S'\xa1\xa8\x015\xb0m2?'
p1493
tp1494
Rp1495
sS'rstsixbooksto00euclgoog_0230'
p1496
g2
(g6
S'\x89\x94\xa4\xae\x95\x935?'
p1497
tp1498
Rp1499
sS'rstsixbooksto00euclgoog_0237'
p1500
g2
(g6
S'\xa1p}\x1ef\xfb;?'
p1501
tp1502
Rp1503
sS'rstsixbooksto00euclgoog_0236'
p1504
g2
(g6
S'm\xae#Pn\\3?'
p1505
tp1506
Rp1507
sS'rstsixbooksto00euclgoog_0235'
p1508
g2
(g6
S'\xea\x0f\xf1\xf7\x0f\x8b4?'
p1509
tp1510
Rp1511
sS'rstsixbooksto00euclgoog_0234'
p1512
g2
(g6
S'U\xd4\r=\x9f\x7f2?'
p1513
tp1514
Rp1515
sS'rstsixbooksto00euclgoog_0127'
p1516
g2
(g6
S'\xa7\xb3\xd2UN\xe13?'
p1517
tp1518
Rp1519
sS'rstsixbooksto00euclgoog_0126'
p1520
g2
(g6
S'\x83\x13\xec?\x88\x955?'
p1521
tp1522
Rp1523
sS'rstsixbooksto00euclgoog_0125'
p1524
g2
(g6
S'\xaa\x17\xb54\xff\xe27?'
p1525
tp1526
Rp1527
sS'rstsixbooksto00euclgoog_0124'
p1528
g2
(g6
S'}n\n\x1a`\xe41?'
p1529
tp1530
Rp1531
sS'rstsixbooksto00euclgoog_0123'
p1532
g2
(g6
S'\xccS\xb9k\x14-2?'
p1533
tp1534
Rp1535
sS'rstsixbooksto00euclgoog_0122'
p1536
g2
(g6
S'\xc8;\x98xA\xb67?'
p1537
tp1538
Rp1539
sS'rstsixbooksto00euclgoog_0288'
p1540
g2
(g6
S'\xe6,[\xb8uG6?'
p1541
tp1542
Rp1543
sS'rstsixbooksto00euclgoog_0289'
p1544
g2
(g6
S'\x92\xdal\x91\xdal1?'
p1545
tp1546
Rp1547
sS'rstsixbooksto00euclgoog_0286'
p1548
g2
(g6
S'b\x12&\xd4\xdd75?'
p1549
tp1550
Rp1551
sS'rstsixbooksto00euclgoog_0287'
p1552
g2
(g6
S'\xa1}o\xb0\xdb\xb70?'
p1553
tp1554
Rp1555
sS'rstsixbooksto00euclgoog_0284'
p1556
g2
(g6
S':\x18\x98\xbe*\x164?'
p1557
tp1558
Rp1559
sS'rstsixbooksto00euclgoog_0285'
p1560
g2
(g6
S'\xdb\xb5\x93$?\xf79?'
p1561
tp1562
Rp1563
sS'rstsixbooksto00euclgoog_0282'
p1564
g2
(g6
S'l\xe8>\x02\x91o4?'
p1565
tp1566
Rp1567
sS'rstsixbooksto00euclgoog_0283'
p1568
g2
(g6
S"\xd2'1\x00Nl8?"
p1569
tp1570
Rp1571
sS'rstsixbooksto00euclgoog_0280'
p1572
g2
(g6
S'7[q\x81\x94q5?'
p1573
tp1574
Rp1575
sS'rstsixbooksto00euclgoog_0281'
p1576
g2
(g6
S'L^\x91J)~9?'
p1577
tp1578
Rp1579
sS'rstsixbooksto00euclgoog_0048'
p1580
g2
(g6
S'fL\x1f\x90\xeeh6?'
p1581
tp1582
Rp1583
sS'rstsixbooksto00euclgoog_0049'
p1584
g2
(g6
S'-\xd7\xc9\xf1~\xe86?'
p1585
tp1586
Rp1587
sS'rstsixbooksto00euclgoog_0518'
p1588
g2
(g6
S"gq'E\xd7\x1a8?"
p1589
tp1590
Rp1591
sS'rstsixbooksto00euclgoog_0519'
p1592
g2
(g6
S'\xb7\\c\x81\xae\x0c;?'
p1593
tp1594
Rp1595
sS'rstsixbooksto00euclgoog_0040'
p1596
g2
(g6
S'\x04\xaa@\xfe\xac\x192?'
p1597
tp1598
Rp1599
sS'rstsixbooksto00euclgoog_0041'
p1600
g2
(g6
S'\xf2\xd2\x88\xdd\xc5\x975?'
p1601
tp1602
Rp1603
sS'rstsixbooksto00euclgoog_0042'
p1604
g2
(g6
S"\xff'\xa5\xe8y\xf72?"
p1605
tp1606
Rp1607
sS'rstsixbooksto00euclgoog_0043'
p1608
g2
(g6
S'yA\xae\x9ch\x8b6?'
p1609
tp1610
Rp1611
sS'rstsixbooksto00euclgoog_0044'
p1612
g2
(g6
S'\x16s~\x19$\n4?'
p1613
tp1614
Rp1615
sS'rstsixbooksto00euclgoog_0045'
p1616
g2
(g6
S'\xb4\xa4N\x96\xdf\x881?'
p1617
tp1618
Rp1619
sS'rstsixbooksto00euclgoog_0046'
p1620
g2
(g6
S'\xa8\xe5\xda\x03-B3?'
p1621
tp1622
Rp1623
sS'rstsixbooksto00euclgoog_0047'
p1624
g2
(g6
S'$P\xc9\x97i\xf15?'
p1625
tp1626
Rp1627
sS'rstsixbooksto00euclgoog_0109'
p1628
g2
(g6
S'!N":w\xf5;?'
p1629
tp1630
Rp1631
sS'rstsixbooksto00euclgoog_0108'
p1632
g2
(g6
S'\x015\x05\xb5\x1e\xf0A?'
p1633
tp1634
Rp1635
sS'rstsixbooksto00euclgoog_0343'
p1636
g2
(g6
S'_M\x9ci\xf9H9?'
p1637
tp1638
Rp1639
sS'rstsixbooksto00euclgoog_0342'
p1640
g2
(g6
S'l\xe8>\x02\x91o4?'
p1641
tp1642
Rp1643
sS'rstsixbooksto00euclgoog_0341'
p1644
g2
(g6
S'\xbe\x99\x81j\x8dW5?'
p1645
tp1646
Rp1647
sS'rstsixbooksto00euclgoog_0340'
p1648
g2
(g6
S'\x1f}\xa8\xb4\xc3e7?'
p1649
tp1650
Rp1651
sS'rstsixbooksto00euclgoog_0347'
p1652
g2
(g6
S'\xe5\x10\xe3\xe0b\xbb4?'
p1653
tp1654
Rp1655
sS'rstsixbooksto00euclgoog_0346'
p1656
g2
(g6
S'v\xa2\xdfX1\x1b2?'
p1657
tp1658
Rp1659
sS'rstsixbooksto00euclgoog_0345'
p1660
g2
(g6
S'\x85I4n?94?'
p1661
tp1662
Rp1663
sS'rstsixbooksto00euclgoog_0344'
p1664
g2
(g6
S'\x1f\xfa{\x15\xe6\xa75?'
p1665
tp1666
Rp1667
sS'rstsixbooksto00euclgoog_0462'
p1668
g2
(g6
S'l\xb0\xd5\x8d#\x157?'
p1669
tp1670
Rp1671
sS'rstsixbooksto00euclgoog_0463'
p1672
g2
(g6
S'\xf8\x94%\x99\xf4\x9d5?'
p1673
tp1674
Rp1675
sS'rstsixbooksto00euclgoog_0349'
p1676
g2
(g6
S'\x16f\xc0\xb29\xa10?'
p1677
tp1678
Rp1679
sS'rstsixbooksto00euclgoog_0348'
p1680
g2
(g6
S'\xfc\x1f\xb5&n\xbf/?'
p1681
tp1682
Rp1683
sS'rstsixbooksto00euclgoog_0466'
p1684
g2
(g6
S'J\x84\xe8>`\x9b8?'
p1685
tp1686
Rp1687
sS'rstsixbooksto00euclgoog_0467'
p1688
g2
(g6
S'\x9a$\x01\xbc\x90j:?'
p1689
tp1690
Rp1691
sS'rstsixbooksto00euclgoog_0464'
p1692
g2
(g6
S'\xb2\xa2}\x13\x8cY6?'
p1693
tp1694
Rp1695
sS'rstsixbooksto00euclgoog_0465'
p1696
g2
(g6
S'\x0e\xd9\xfc\xd4lh8?'
p1697
tp1698
Rp1699
sS'rstsixbooksto00euclgoog_0198'
p1700
g2
(g6
S'n\xae#Pn\\3?'
p1701
tp1702
Rp1703
sS'rstsixbooksto00euclgoog_0199'
p1704
g2
(g6
S'\xfa\xb3+\x0c\x08\xef1?'
p1705
tp1706
Rp1707
sS'rstsixbooksto00euclgoog_0068'
p1708
g2
(g6
S'|\xe3x\\\x04\xc24?'
p1709
tp1710
Rp1711
sS'rstsixbooksto00euclgoog_0192'
p1712
g2
(g6
S'\x839:\x96\xb2,7?'
p1713
tp1714
Rp1715
sS'rstsixbooksto00euclgoog_0193'
p1716
g2
(g6
S'\x1aC\xbbo-\x7f3?'
p1717
tp1718
Rp1719
sS'rstsixbooksto00euclgoog_0190'
p1720
g2
(g6
S'\xcd\xb3\x1eVP\xce4?'
p1721
tp1722
Rp1723
sS'rstsixbooksto00euclgoog_0069'
p1724
g2
(g6
S'\xdd\xd1\xd7\x89\xb1W6?'
p1725
tp1726
Rp1727
sS'rstsixbooksto00euclgoog_0196'
p1728
g2
(g6
S'S\x85\x0ep\x14s5?'
p1729
tp1730
Rp1731
sS'rstsixbooksto00euclgoog_0197'
p1732
g2
(g6
S'v\x02\x04\xb7k\x997?'
p1733
tp1734
Rp1735
sS'rstsixbooksto00euclgoog_0194'
p1736
g2
(g6
S"'z\xf1Nt\x123?"
p1737
tp1738
Rp1739
sS'rstsixbooksto00euclgoog_0195'
p1740
g2
(g6
S'\xd7\x9bUh\x0cU7?'
p1741
tp1742
Rp1743
sS'rstsixbooksto00euclgoog_0152'
p1744
g2
(g6
S'\xba\x03\xc6`1\x073?'
p1745
tp1746
Rp1747
sS'rstsixbooksto00euclgoog_0153'
p1748
g2
(g6
S'"\xd8N\'\x86@5?'
p1749
tp1750
Rp1751
sS'rstsixbooksto00euclgoog_0459'
p1752
g2
(g6
S'\xa0~\xbe]T\xf15?'
p1753
tp1754
Rp1755
sS'rstsixbooksto00euclgoog_0458'
p1756
g2
(g6
S'\x17\xb9\x04\x15\x8f\x004?'
p1757
tp1758
Rp1759
sS'rstsixbooksto00euclgoog_0457'
p1760
g2
(g6
S'oQ/\x85\xf9\xb23?'
p1761
tp1762
Rp1763
sS'rstsixbooksto00euclgoog_0158'
p1764
g2
(g6
S'\xca|\x97\xbf\xb8e7?'
p1765
tp1766
Rp1767
sS'rstsixbooksto00euclgoog_0456'
p1768
g2
(g6
S'\xc7\x1cs\x01\xf3<2?'
p1769
tp1770
Rp1771
sS'rstsixbooksto00euclgoog_0159'
p1772
g2
(g6
S'\xad"\xa9dd\n8?'
p1773
tp1774
Rp1775
sS'rstsixbooksto00euclgoog_0242'
p1776
g2
(g6
S't\x8a\xef\x16\xd2\x884?'
p1777
tp1778
Rp1779
sS'rstsixbooksto00euclgoog_0243'
p1780
g2
(g6
S'v\x81\xa2\x08\xeb\xd34?'
p1781
tp1782
Rp1783
sS'rstsixbooksto00euclgoog_0240'
p1784
g2
(g6
S'\xf1\t\xc2&\x9a{6?'
p1785
tp1786
Rp1787
sS'rstsixbooksto00euclgoog_0241'
p1788
g2
(g6
S'yo\x08\xec\x1cj5?'
p1789
tp1790
Rp1791
sS'rstsixbooksto00euclgoog_0246'
p1792
g2
(g6
S'S\x85\x0ep\x14s5?'
p1793
tp1794
Rp1795
sS'rstsixbooksto00euclgoog_0247'
p1796
g2
(g6
S's\x93<%\xb9=4?'
p1797
tp1798
Rp1799
sS'rstsixbooksto00euclgoog_0244'
p1800
g2
(g6
S'9\xd2J\xd3R\x0f5?'
p1801
tp1802
Rp1803
sS'rstsixbooksto00euclgoog_0245'
p1804
g2
(g6
S'\xb3\x8a\tv\xf6\xe46?'
p1805
tp1806
Rp1807
sS'rstsixbooksto00euclgoog_0248'
p1808
g2
(g6
S'yo\x08\xec\x1cj5?'
p1809
tp1810
Rp1811
sS'rstsixbooksto00euclgoog_0249'
p1812
g2
(g6
S'\x93\xdf7\x07\xac\x1b:?'
p1813
tp1814
Rp1815
sS'rstsixbooksto00euclgoog_0169'
p1816
g2
(g6
S'\x0e*\x8a\xf8\x0c\xb04?'
p1817
tp1818
Rp1819
sS'rstsixbooksto00euclgoog_0168'
p1820
g2
(g6
S'\xf9=\xda\xc8oi4?'
p1821
tp1822
Rp1823
sS'rstsixbooksto00euclgoog_0163'
p1824
g2
(g6
S'v\x81\xa2\x08\xeb\xd34?'
p1825
tp1826
Rp1827
sS'rstsixbooksto00euclgoog_0162'
p1828
g2
(g6
S'\xfc=c\xcd*\xdb7?'
p1829
tp1830
Rp1831
sS'rstsixbooksto00euclgoog_0161'
p1832
g2
(g6
S'\xd1\xf8\x9a\x91<\xde5?'
p1833
tp1834
Rp1835
sS'rstsixbooksto00euclgoog_0160'
p1836
g2
(g6
S'\xbf\xa8\xa7\x86Y\xb86?'
p1837
tp1838
Rp1839
sS'rstsixbooksto00euclgoog_0167'
p1840
g2
(g6
S'>{Y\xd8Ph4?'
p1841
tp1842
Rp1843
sS'rstsixbooksto00euclgoog_0166'
p1844
g2
(g6
S'K\xee\x99\x87\xe4\x835?'
p1845
tp1846
Rp1847
sS'rstsixbooksto00euclgoog_0165'
p1848
g2
(g6
S'C\xff\xd8\xc3B\xd38?'
p1849
tp1850
Rp1851
sS'rstsixbooksto00euclgoog_0164'
p1852
g2
(g6
S'T\xb6\x08\xd5x\xbb1?'
p1853
tp1854
Rp1855
sS'rstsixbooksto00euclgoog_0017'
p1856
g2
(g6
S'\x08u\xdaK\x1c+;?'
p1857
tp1858
Rp1859
sS'rstsixbooksto00euclgoog_0016'
p1860
g2
(g6
S'\xc6\xb8\xe0m\xd7\x05C?'
p1861
tp1862
Rp1863
sS'rstsixbooksto00euclgoog_0015'
p1864
g2
(g6
S'\xaf\x1b\xf6}\xf4\x1d\xf5>'
p1865
tp1866
Rp1867
sS'rstsixbooksto00euclgoog_0014'
p1868
g2
(g6
S'\xec\xc1\x01RI\xa54?'
p1869
tp1870
Rp1871
sS'rstsixbooksto00euclgoog_0013'
p1872
g2
(g6
S'\x1d\xf9\xaf\x1d\xf9\xaf-?'
p1873
tp1874
Rp1875
sS'rstsixbooksto00euclgoog_0012'
p1876
g2
(g6
S'u\x10\xf8f\x83\x846?'
p1877
tp1878
Rp1879
sS'rstsixbooksto00euclgoog_0011'
p1880
g2
(g6
S'\xe2Ss\x9f\xe4y\xf5>'
p1881
tp1882
Rp1883
sS'rstsixbooksto00euclgoog_0019'
p1884
g2
(g6
S'\xeb\xe7\xc1\x1f\x7fHC?'
p1885
tp1886
Rp1887
sS'rstsixbooksto00euclgoog_0018'
p1888
g2
(g6
S'\xd5\xadq\xb4\xe2\xfe8?'
p1889
tp1890
Rp1891
sS'rstsixbooksto00euclgoog_0387'
p1892
g2
(g6
S'\x18\xee\x17{\xbb\x117?'
p1893
tp1894
Rp1895
sS'rstsixbooksto00euclgoog_0386'
p1896
g2
(g6
S'a\x1f:|\xd2\x965?'
p1897
tp1898
Rp1899
sS'rstsixbooksto00euclgoog_0385'
p1900
g2
(g6
S'}#\x00\x160\xbf3?'
p1901
tp1902
Rp1903
sS'rstsixbooksto00euclgoog_0384'
p1904
g2
(g6
S'E\xba\x9b\x0f)\x013?'
p1905
tp1906
Rp1907
sS'rstsixbooksto00euclgoog_0383'
p1908
g2
(g6
S'\xdb\xfb\x132Vx6?'
p1909
tp1910
Rp1911
sS'rstsixbooksto00euclgoog_0382'
p1912
g2
(g6
S'&%\x08W&\xac4?'
p1913
tp1914
Rp1915
sS'rstsixbooksto00euclgoog_0381'
p1916
g2
(g6
S'\n$X\xd6,\x0e4?'
p1917
tp1918
Rp1919
sS'rstsixbooksto00euclgoog_0380'
p1920
g2
(g6
S'o\xba\x18D\xed(5?'
p1921
tp1922
Rp1923
sS'rstsixbooksto00euclgoog_0426'
p1924
g2
(g6
S'\x8bT\xc4\xbf\xd2D6?'
p1925
tp1926
Rp1927
sS'rstsixbooksto00euclgoog_0427'
p1928
g2
(g6
S'\xdd\xc6\x06#\x1a\xf27?'
p1929
tp1930
Rp1931
sS'rstsixbooksto00euclgoog_0424'
p1932
g2
(g6
S'\xe92\x04\x0e\xc1\x124?'
p1933
tp1934
Rp1935
sS'rstsixbooksto00euclgoog_0425'
p1936
g2
(g6
S'&%\x08W&\xac4?'
p1937
tp1938
Rp1939
sS'rstsixbooksto00euclgoog_0422'
p1940
g2
(g6
S'$\xc0\x05\xfc\x90f:?'
p1941
tp1942
Rp1943
sS'rstsixbooksto00euclgoog_0423'
p1944
g2
(g6
S"'\x89\xf6B\xd6\xa36?"
p1945
tp1946
Rp1947
sS'rstsixbooksto00euclgoog_0389'
p1948
g2
(g6
S'\xdc\x94\x0f-B\xf66?'
p1949
tp1950
Rp1951
sS'rstsixbooksto00euclgoog_0388'
p1952
g2
(g6
S'9\x0eM \x9b~:?'
p1953
tp1954
Rp1955
sS'rstsixbooksto00euclgoog_0499'
p1956
g2
(g6
S'\xe9\xea+\xa8\x8f!D?'
p1957
tp1958
Rp1959
sS'rstsixbooksto00euclgoog_0498'
p1960
g2
(g6
S'\xf9+\xee\xdav\xad=?'
p1961
tp1962
Rp1963
sS'rstsixbooksto00euclgoog_0493'
p1964
g2
(g6
S'\xa3\xb9\xe5<\x0c\xe04?'
p1965
tp1966
Rp1967
sS'rstsixbooksto00euclgoog_0492'
p1968
g2
(g6
S'U\x1dT)p\x1c3?'
p1969
tp1970
Rp1971
sS'rstsixbooksto00euclgoog_0491'
p1972
g2
(g6
S'\xa9\x8e\xda\x03\xa6\x1f6?'
p1973
tp1974
Rp1975
sS'rstsixbooksto00euclgoog_0490'
p1976
g2
(g6
S'\xe3\x87\xee\xd2\x9f\xb61?'
p1977
tp1978
Rp1979
sS'rstsixbooksto00euclgoog_0497'
p1980
g2
(g6
S'\xdcA\xb4z_o8?'
p1981
tp1982
Rp1983
sS'rstsixbooksto00euclgoog_0496'
p1984
g2
(g6
S'\x17\xb9\x04\x15\x8f\x004?'
p1985
tp1986
Rp1987
sS'rstsixbooksto00euclgoog_0495'
p1988
g2
(g6
S'z\xe7\x95\xc9\xa9\xf23?'
p1989
tp1990
Rp1991
sS'rstsixbooksto00euclgoog_0494'
p1992
g2
(g6
S'\x9c\xa9\xc9\x96\xba\xb14?'
p1993
tp1994
Rp1995
sS'rstsixbooksto00euclgoog_0338'
p1996
g2
(g6
S'\\3.\x81y\x8b1?'
p1997
tp1998
Rp1999
sS'rstsixbooksto00euclgoog_0339'
p2000
g2
(g6
S'Fq\xdd\x8b\xbb\x0b5?'
p2001
tp2002
Rp2003
sS'rstsixbooksto00euclgoog_0332'
p2004
g2
(g6
S'\xa9\xa4\x1d\r\x02\x112?'
p2005
tp2006
Rp2007
sS'rstsixbooksto00euclgoog_0333'
p2008
g2
(g6
S'\x83-\xbc\x96,\xad2?'
p2009
tp2010
Rp2011
sS'rstsixbooksto00euclgoog_0330'
p2012
g2
(g6
S'l\xe8>\x02\x91o4?'
p2013
tp2014
Rp2015
sS'rstsixbooksto00euclgoog_0331'
p2016
g2
(g6
S'\x0e\xd0\xfa`\xfa\xcb1?'
p2017
tp2018
Rp2019
sS'rstsixbooksto00euclgoog_0336'
p2020
g2
(g6
S'\x8bF\xae\x87I@3?'
p2021
tp2022
Rp2023
sS'rstsixbooksto00euclgoog_0337'
p2024
g2
(g6
S'<\xb1\xe3\xf6_\xe43?'
p2025
tp2026
Rp2027
sS'rstsixbooksto00euclgoog_0334'
p2028
g2
(g6
S'\x13&m\xd6\xc5>0?'
p2029
tp2030
Rp2031
sS'rstsixbooksto00euclgoog_0335'
p2032
g2
(g6
S'\xaa\xa4\x1d\r\x02\x112?'
p2033
tp2034
Rp2035
sS'rstsixbooksto00euclgoog_0206'
p2036
g2
(g6
S'\xfc\xac\xa1Z"\xc57?'
p2037
tp2038
Rp2039
sS'rstsixbooksto00euclgoog_0207'
p2040
g2
(g6
S'C~w\x15\xc2\r6?'
p2041
tp2042
Rp2043
sS'rstsixbooksto00euclgoog_0204'
p2044
g2
(g6
S'e\xdb\xa4\x97\xf1\xe41?'
p2045
tp2046
Rp2047
sS'rstsixbooksto00euclgoog_0205'
p2048
g2
(g6
S"\x16\xfd\x08\xb1\x89'6?"
p2049
tp2050
Rp2051
sS'rstsixbooksto00euclgoog_0202'
p2052
g2
(g6
S'2\x1d\xd1\x82\xfc[4?'
p2053
tp2054
Rp2055
sS'rstsixbooksto00euclgoog_0203'
p2056
g2
(g6
S'\x82\x9a\xd3\x7f\x0b\xa33?'
p2057
tp2058
Rp2059
sS'rstsixbooksto00euclgoog_0200'
p2060
g2
(g6
S'U\xd4\r=\x9f\x7f2?'
p2061
tp2062
Rp2063
sS'rstsixbooksto00euclgoog_0201'
p2064
g2
(g6
S'3\x95\xe5"\x96l7?'
p2065
tp2066
Rp2067
sS'rstsixbooksto00euclgoog_0208'
p2068
g2
(g6
S'yo\x08\xec\x1cj5?'
p2069
tp2070
Rp2071
sS'rstsixbooksto00euclgoog_0209'
p2072
g2
(g6
S'|{s7u\xc46?'
p2073
tp2074
Rp2075
s.